
helloworld.elf:     file format elf64-littleriscv


Disassembly of section .text:

00000000000100e8 <exit>:
   100e8:	1141                	add	sp,sp,-16
   100ea:	4581                	li	a1,0
   100ec:	e022                	sd	s0,0(sp)
   100ee:	e406                	sd	ra,8(sp)
   100f0:	842a                	mv	s0,a0
   100f2:	2f4020ef          	jal	123e6 <__call_exitprocs>
   100f6:	7481b503          	ld	a0,1864(gp) # 1d230 <_global_impure_ptr>
   100fa:	6d3c                	ld	a5,88(a0)
   100fc:	c391                	beqz	a5,10100 <exit+0x18>
   100fe:	9782                	jalr	a5
   10100:	8522                	mv	a0,s0
   10102:	7c2090ef          	jal	198c4 <_exit>

0000000000010106 <register_fini>:
   10106:	00000793          	li	a5,0
   1010a:	c791                	beqz	a5,10116 <register_fini+0x10>
   1010c:	6549                	lui	a0,0x12
   1010e:	4a850513          	add	a0,a0,1192 # 124a8 <__libc_fini_array>
   10112:	4870606f          	j	16d98 <atexit>
   10116:	8082                	ret

0000000000010118 <_start>:
   10118:	0000d197          	auipc	gp,0xd
   1011c:	9d018193          	add	gp,gp,-1584 # 1cae8 <__global_pointer$>
   10120:	77018513          	add	a0,gp,1904 # 1d258 <_PathLocale>
   10124:	0000d617          	auipc	a2,0xd
   10128:	1c460613          	add	a2,a2,452 # 1d2e8 <__BSS_END__>
   1012c:	8e09                	sub	a2,a2,a0
   1012e:	4581                	li	a1,0
   10130:	654000ef          	jal	10784 <memset>
   10134:	00007517          	auipc	a0,0x7
   10138:	c6450513          	add	a0,a0,-924 # 16d98 <atexit>
   1013c:	c519                	beqz	a0,1014a <_start+0x32>
   1013e:	00002517          	auipc	a0,0x2
   10142:	36a50513          	add	a0,a0,874 # 124a8 <__libc_fini_array>
   10146:	453060ef          	jal	16d98 <atexit>
   1014a:	5d0000ef          	jal	1071a <__libc_init_array>
   1014e:	4502                	lw	a0,0(sp)
   10150:	002c                	add	a1,sp,8
   10152:	4601                	li	a2,0
   10154:	5ae000ef          	jal	10702 <main>
   10158:	bf41                	j	100e8 <exit>

000000000001015a <__do_global_dtors_aux>:
   1015a:	1141                	add	sp,sp,-16
   1015c:	e022                	sd	s0,0(sp)
   1015e:	7a01c783          	lbu	a5,1952(gp) # 1d288 <completed.1>
   10162:	e406                	sd	ra,8(sp)
   10164:	ef91                	bnez	a5,10180 <__do_global_dtors_aux+0x26>
   10166:	00000793          	li	a5,0
   1016a:	cb81                	beqz	a5,1017a <__do_global_dtors_aux+0x20>
   1016c:	6571                	lui	a0,0x1c
   1016e:	00050513          	mv	a0,a0
   10172:	00000097          	auipc	ra,0x0
   10176:	000000e7          	jalr	zero # 0 <exit-0x100e8>
   1017a:	4785                	li	a5,1
   1017c:	7af18023          	sb	a5,1952(gp) # 1d288 <completed.1>
   10180:	60a2                	ld	ra,8(sp)
   10182:	6402                	ld	s0,0(sp)
   10184:	0141                	add	sp,sp,16
   10186:	8082                	ret

0000000000010188 <frame_dummy>:
   10188:	00000793          	li	a5,0
   1018c:	cb91                	beqz	a5,101a0 <frame_dummy+0x18>
   1018e:	6571                	lui	a0,0x1c
   10190:	7a818593          	add	a1,gp,1960 # 1d290 <object.0>
   10194:	00050513          	mv	a0,a0
   10198:	00000317          	auipc	t1,0x0
   1019c:	00000067          	jr	zero # 0 <exit-0x100e8>
   101a0:	8082                	ret

00000000000101a2 <get_dev_bar>:
   101a2:	715d                	add	sp,sp,-80
   101a4:	e4a2                	sd	s0,72(sp)
   101a6:	0880                	add	s0,sp,80
   101a8:	faa43c23          	sd	a0,-72(s0)
   101ac:	87ae                	mv	a5,a1
   101ae:	8732                	mv	a4,a2
   101b0:	faf41b23          	sh	a5,-74(s0)
   101b4:	87ba                	mv	a5,a4
   101b6:	faf41a23          	sh	a5,-76(s0)
   101ba:	fb843783          	ld	a5,-72(s0)
   101be:	479c                	lw	a5,8(a5)
   101c0:	0087d79b          	srlw	a5,a5,0x8
   101c4:	2781                	sext.w	a5,a5
   101c6:	2781                	sext.w	a5,a5
   101c8:	0ff7f793          	zext.b	a5,a5
   101cc:	fef42223          	sw	a5,-28(s0)
   101d0:	fe042623          	sw	zero,-20(s0)
   101d4:	fe042423          	sw	zero,-24(s0)
   101d8:	a8a5                	j	10250 <get_dev_bar+0xae>
   101da:	fec42783          	lw	a5,-20(s0)
   101de:	04078793          	add	a5,a5,64
   101e2:	fb843703          	ld	a4,-72(s0)
   101e6:	97ba                	add	a5,a5,a4
   101e8:	6390                	ld	a2,0(a5)
   101ea:	6794                	ld	a3,8(a5)
   101ec:	6b98                	ld	a4,16(a5)
   101ee:	6f9c                	ld	a5,24(a5)
   101f0:	fcc43023          	sd	a2,-64(s0)
   101f4:	fcd43423          	sd	a3,-56(s0)
   101f8:	fce43823          	sd	a4,-48(s0)
   101fc:	fcf43c23          	sd	a5,-40(s0)
   10200:	fec42783          	lw	a5,-20(s0)
   10204:	0207879b          	addw	a5,a5,32
   10208:	2781                	sext.w	a5,a5
   1020a:	fef42623          	sw	a5,-20(s0)
   1020e:	fc043783          	ld	a5,-64(s0)
   10212:	3007f713          	and	a4,a5,768
   10216:	20000793          	li	a5,512
   1021a:	02f71563          	bne	a4,a5,10244 <get_dev_bar+0xa2>
   1021e:	fc645783          	lhu	a5,-58(s0)
   10222:	fb645703          	lhu	a4,-74(s0)
   10226:	2701                	sext.w	a4,a4
   10228:	2781                	sext.w	a5,a5
   1022a:	00f71e63          	bne	a4,a5,10246 <get_dev_bar+0xa4>
   1022e:	fc445783          	lhu	a5,-60(s0)
   10232:	fb445703          	lhu	a4,-76(s0)
   10236:	2701                	sext.w	a4,a4
   10238:	2781                	sext.w	a5,a5
   1023a:	00f71663          	bne	a4,a5,10246 <get_dev_bar+0xa4>
   1023e:	fd043783          	ld	a5,-48(s0)
   10242:	a00d                	j	10264 <get_dev_bar+0xc2>
   10244:	0001                	nop
   10246:	fe842783          	lw	a5,-24(s0)
   1024a:	2785                	addw	a5,a5,1
   1024c:	fef42423          	sw	a5,-24(s0)
   10250:	fe842783          	lw	a5,-24(s0)
   10254:	873e                	mv	a4,a5
   10256:	fe442783          	lw	a5,-28(s0)
   1025a:	2701                	sext.w	a4,a4
   1025c:	2781                	sext.w	a5,a5
   1025e:	f6f74ee3          	blt	a4,a5,101da <get_dev_bar+0x38>
   10262:	57fd                	li	a5,-1
   10264:	853e                	mv	a0,a5
   10266:	6426                	ld	s0,72(sp)
   10268:	6161                	add	sp,sp,80
   1026a:	8082                	ret

000000000001026c <mpu_region_total>:
   1026c:	1101                	add	sp,sp,-32
   1026e:	ec22                	sd	s0,24(sp)
   10270:	1000                	add	s0,sp,32
   10272:	fe043423          	sd	zero,-24(s0)
   10276:	bc4027f3          	csrr	a5,0xbc4
   1027a:	fef43423          	sd	a5,-24(s0)
   1027e:	fe843783          	ld	a5,-24(s0)
   10282:	83a1                	srl	a5,a5,0x8
   10284:	2781                	sext.w	a5,a5
   10286:	853e                	mv	a0,a5
   10288:	6462                	ld	s0,24(sp)
   1028a:	6105                	add	sp,sp,32
   1028c:	8082                	ret

000000000001028e <mpu_disable_region>:
   1028e:	7179                	add	sp,sp,-48
   10290:	f422                	sd	s0,40(sp)
   10292:	1800                	add	s0,sp,48
   10294:	87aa                	mv	a5,a0
   10296:	fcf42e23          	sw	a5,-36(s0)
   1029a:	fe043423          	sd	zero,-24(s0)
   1029e:	fdc42783          	lw	a5,-36(s0)
   102a2:	0ff7f793          	zext.b	a5,a5
   102a6:	fef404a3          	sb	a5,-23(s0)
   102aa:	fe843783          	ld	a5,-24(s0)
   102ae:	0807e793          	or	a5,a5,128
   102b2:	fef43423          	sd	a5,-24(s0)
   102b6:	fe843783          	ld	a5,-24(s0)
   102ba:	bc479073          	csrw	0xbc4,a5
   102be:	0001                	nop
   102c0:	7422                	ld	s0,40(sp)
   102c2:	6145                	add	sp,sp,48
   102c4:	8082                	ret

00000000000102c6 <mpu_enable_region>:
   102c6:	715d                	add	sp,sp,-80
   102c8:	e4a2                	sd	s0,72(sp)
   102ca:	0880                	add	s0,sp,80
   102cc:	87aa                	mv	a5,a0
   102ce:	fcb43023          	sd	a1,-64(s0)
   102d2:	fac43c23          	sd	a2,-72(s0)
   102d6:	fae43823          	sd	a4,-80(s0)
   102da:	fcf42623          	sw	a5,-52(s0)
   102de:	87b6                	mv	a5,a3
   102e0:	fcf42423          	sw	a5,-56(s0)
   102e4:	c0000793          	li	a5,-1024
   102e8:	fef43423          	sd	a5,-24(s0)
   102ec:	fb043783          	ld	a5,-80(s0)
   102f0:	fef43023          	sd	a5,-32(s0)
   102f4:	fc043783          	ld	a5,-64(s0)
   102f8:	bc279073          	csrw	0xbc2,a5
   102fc:	fb843783          	ld	a5,-72(s0)
   10300:	8385                	srl	a5,a5,0x1
   10302:	faf43c23          	sd	a5,-72(s0)
   10306:	a819                	j	1031c <mpu_enable_region+0x56>
   10308:	fe843783          	ld	a5,-24(s0)
   1030c:	0786                	sll	a5,a5,0x1
   1030e:	fef43423          	sd	a5,-24(s0)
   10312:	fb843783          	ld	a5,-72(s0)
   10316:	8385                	srl	a5,a5,0x1
   10318:	faf43c23          	sd	a5,-72(s0)
   1031c:	fb843783          	ld	a5,-72(s0)
   10320:	f7e5                	bnez	a5,10308 <mpu_enable_region+0x42>
   10322:	fe843783          	ld	a5,-24(s0)
   10326:	bc379073          	csrw	0xbc3,a5
   1032a:	fc043c23          	sd	zero,-40(s0)
   1032e:	fcc42783          	lw	a5,-52(s0)
   10332:	0ff7f793          	zext.b	a5,a5
   10336:	fcf40ca3          	sb	a5,-39(s0)
   1033a:	fd843783          	ld	a5,-40(s0)
   1033e:	0107e793          	or	a5,a5,16
   10342:	fcf43c23          	sd	a5,-40(s0)
   10346:	fc842783          	lw	a5,-56(s0)
   1034a:	8b85                	and	a5,a5,1
   1034c:	0ff7f793          	zext.b	a5,a5
   10350:	8b85                	and	a5,a5,1
   10352:	078e                	sll	a5,a5,0x3
   10354:	fd843703          	ld	a4,-40(s0)
   10358:	9b5d                	and	a4,a4,-9
   1035a:	8fd9                	or	a5,a5,a4
   1035c:	fcf43c23          	sd	a5,-40(s0)
   10360:	fd843783          	ld	a5,-40(s0)
   10364:	0807e793          	or	a5,a5,128
   10368:	fcf43c23          	sd	a5,-40(s0)
   1036c:	a09d                	j	103d2 <mpu_enable_region+0x10c>
   1036e:	fe043783          	ld	a5,-32(s0)
   10372:	0007c783          	lbu	a5,0(a5)
   10376:	873e                	mv	a4,a5
   10378:	07200793          	li	a5,114
   1037c:	00f71863          	bne	a4,a5,1038c <mpu_enable_region+0xc6>
   10380:	fd843783          	ld	a5,-40(s0)
   10384:	0027e793          	or	a5,a5,2
   10388:	fcf43c23          	sd	a5,-40(s0)
   1038c:	fe043783          	ld	a5,-32(s0)
   10390:	0007c783          	lbu	a5,0(a5)
   10394:	873e                	mv	a4,a5
   10396:	07700793          	li	a5,119
   1039a:	00f71863          	bne	a4,a5,103aa <mpu_enable_region+0xe4>
   1039e:	fd843783          	ld	a5,-40(s0)
   103a2:	0017e793          	or	a5,a5,1
   103a6:	fcf43c23          	sd	a5,-40(s0)
   103aa:	fe043783          	ld	a5,-32(s0)
   103ae:	0007c783          	lbu	a5,0(a5)
   103b2:	873e                	mv	a4,a5
   103b4:	07800793          	li	a5,120
   103b8:	00f71863          	bne	a4,a5,103c8 <mpu_enable_region+0x102>
   103bc:	fd843783          	ld	a5,-40(s0)
   103c0:	0047e793          	or	a5,a5,4
   103c4:	fcf43c23          	sd	a5,-40(s0)
   103c8:	fe043783          	ld	a5,-32(s0)
   103cc:	0785                	add	a5,a5,1
   103ce:	fef43023          	sd	a5,-32(s0)
   103d2:	fe043783          	ld	a5,-32(s0)
   103d6:	0007c783          	lbu	a5,0(a5)
   103da:	fbd1                	bnez	a5,1036e <mpu_enable_region+0xa8>
   103dc:	fd843783          	ld	a5,-40(s0)
   103e0:	bc479073          	csrw	0xbc4,a5
   103e4:	0001                	nop
   103e6:	6426                	ld	s0,72(sp)
   103e8:	6161                	add	sp,sp,80
   103ea:	8082                	ret

00000000000103ec <sbrk>:
   103ec:	1101                	add	sp,sp,-32
   103ee:	ec22                	sd	s0,24(sp)
   103f0:	1000                	add	s0,sp,32
   103f2:	87aa                	mv	a5,a0
   103f4:	fef42623          	sw	a5,-20(s0)
   103f8:	67f5                	lui	a5,0x1d
   103fa:	2e878793          	add	a5,a5,744 # 1d2e8 <__BSS_END__>
   103fe:	853e                	mv	a0,a5
   10400:	6462                	ld	s0,24(sp)
   10402:	6105                	add	sp,sp,32
   10404:	8082                	ret

0000000000010406 <print_uart>:
   10406:	7139                	add	sp,sp,-64
   10408:	fc22                	sd	s0,56(sp)
   1040a:	0080                	add	s0,sp,64
   1040c:	fca43423          	sd	a0,-56(s0)
   10410:	87ae                	mv	a5,a1
   10412:	fcf42223          	sw	a5,-60(s0)
   10416:	100107b7          	lui	a5,0x10010
   1041a:	fef43023          	sd	a5,-32(s0)
   1041e:	fe042623          	sw	zero,-20(s0)
   10422:	a081                	j	10462 <print_uart+0x5c>
   10424:	fe043783          	ld	a5,-32(s0)
   10428:	439c                	lw	a5,0(a5)
   1042a:	2781                	sext.w	a5,a5
   1042c:	fcf42c23          	sw	a5,-40(s0)
   10430:	fd842783          	lw	a5,-40(s0)
   10434:	873e                	mv	a4,a5
   10436:	800007b7          	lui	a5,0x80000
   1043a:	8ff9                	and	a5,a5,a4
   1043c:	2781                	sext.w	a5,a5
   1043e:	f3fd                	bnez	a5,10424 <print_uart+0x1e>
   10440:	fec42783          	lw	a5,-20(s0)
   10444:	fc843703          	ld	a4,-56(s0)
   10448:	97ba                	add	a5,a5,a4
   1044a:	0007c783          	lbu	a5,0(a5) # ffffffff80000000 <__BSS_END__+0xffffffff7ffe2d18>
   1044e:	0007871b          	sext.w	a4,a5
   10452:	fe043783          	ld	a5,-32(s0)
   10456:	c398                	sw	a4,0(a5)
   10458:	fec42783          	lw	a5,-20(s0)
   1045c:	2785                	addw	a5,a5,1
   1045e:	fef42623          	sw	a5,-20(s0)
   10462:	fec42783          	lw	a5,-20(s0)
   10466:	873e                	mv	a4,a5
   10468:	fc442783          	lw	a5,-60(s0)
   1046c:	2701                	sext.w	a4,a4
   1046e:	2781                	sext.w	a5,a5
   10470:	faf74ae3          	blt	a4,a5,10424 <print_uart+0x1e>
   10474:	0001                	nop
   10476:	0001                	nop
   10478:	7462                	ld	s0,56(sp)
   1047a:	6121                	add	sp,sp,64
   1047c:	8082                	ret

000000000001047e <helloWorld>:
   1047e:	712d                	add	sp,sp,-288
   10480:	ee06                	sd	ra,280(sp)
   10482:	ea22                	sd	s0,272(sp)
   10484:	1200                	add	s0,sp,288
   10486:	ee840713          	add	a4,s0,-280
   1048a:	4605                	li	a2,1
   1048c:	67ed                	lui	a5,0x1b
   1048e:	06078593          	add	a1,a5,96 # 1b060 <__clzdi2+0x3e>
   10492:	853a                	mv	a0,a4
   10494:	3dc000ef          	jal	10870 <sprintf>
   10498:	87aa                	mv	a5,a0
   1049a:	fef42623          	sw	a5,-20(s0)
   1049e:	fec42703          	lw	a4,-20(s0)
   104a2:	ee840793          	add	a5,s0,-280
   104a6:	85ba                	mv	a1,a4
   104a8:	853e                	mv	a0,a5
   104aa:	f5dff0ef          	jal	10406 <print_uart>
   104ae:	0001                	nop
   104b0:	60f2                	ld	ra,280(sp)
   104b2:	6452                	ld	s0,272(sp)
   104b4:	6115                	add	sp,sp,288
   104b6:	8082                	ret

00000000000104b8 <get_dev_bar>:
   104b8:	715d                	add	sp,sp,-80
   104ba:	e4a2                	sd	s0,72(sp)
   104bc:	0880                	add	s0,sp,80
   104be:	faa43c23          	sd	a0,-72(s0)
   104c2:	87ae                	mv	a5,a1
   104c4:	8732                	mv	a4,a2
   104c6:	faf41b23          	sh	a5,-74(s0)
   104ca:	87ba                	mv	a5,a4
   104cc:	faf41a23          	sh	a5,-76(s0)
   104d0:	fb843783          	ld	a5,-72(s0)
   104d4:	479c                	lw	a5,8(a5)
   104d6:	0087d79b          	srlw	a5,a5,0x8
   104da:	2781                	sext.w	a5,a5
   104dc:	2781                	sext.w	a5,a5
   104de:	0ff7f793          	zext.b	a5,a5
   104e2:	fef42223          	sw	a5,-28(s0)
   104e6:	fe042623          	sw	zero,-20(s0)
   104ea:	fe042423          	sw	zero,-24(s0)
   104ee:	a8a5                	j	10566 <get_dev_bar+0xae>
   104f0:	fec42783          	lw	a5,-20(s0)
   104f4:	04078793          	add	a5,a5,64
   104f8:	fb843703          	ld	a4,-72(s0)
   104fc:	97ba                	add	a5,a5,a4
   104fe:	6390                	ld	a2,0(a5)
   10500:	6794                	ld	a3,8(a5)
   10502:	6b98                	ld	a4,16(a5)
   10504:	6f9c                	ld	a5,24(a5)
   10506:	fcc43023          	sd	a2,-64(s0)
   1050a:	fcd43423          	sd	a3,-56(s0)
   1050e:	fce43823          	sd	a4,-48(s0)
   10512:	fcf43c23          	sd	a5,-40(s0)
   10516:	fec42783          	lw	a5,-20(s0)
   1051a:	0207879b          	addw	a5,a5,32
   1051e:	2781                	sext.w	a5,a5
   10520:	fef42623          	sw	a5,-20(s0)
   10524:	fc043783          	ld	a5,-64(s0)
   10528:	3007f713          	and	a4,a5,768
   1052c:	20000793          	li	a5,512
   10530:	02f71563          	bne	a4,a5,1055a <get_dev_bar+0xa2>
   10534:	fc645783          	lhu	a5,-58(s0)
   10538:	fb645703          	lhu	a4,-74(s0)
   1053c:	2701                	sext.w	a4,a4
   1053e:	2781                	sext.w	a5,a5
   10540:	00f71e63          	bne	a4,a5,1055c <get_dev_bar+0xa4>
   10544:	fc445783          	lhu	a5,-60(s0)
   10548:	fb445703          	lhu	a4,-76(s0)
   1054c:	2701                	sext.w	a4,a4
   1054e:	2781                	sext.w	a5,a5
   10550:	00f71663          	bne	a4,a5,1055c <get_dev_bar+0xa4>
   10554:	fd043783          	ld	a5,-48(s0)
   10558:	a00d                	j	1057a <get_dev_bar+0xc2>
   1055a:	0001                	nop
   1055c:	fe842783          	lw	a5,-24(s0)
   10560:	2785                	addw	a5,a5,1
   10562:	fef42423          	sw	a5,-24(s0)
   10566:	fe842783          	lw	a5,-24(s0)
   1056a:	873e                	mv	a4,a5
   1056c:	fe442783          	lw	a5,-28(s0)
   10570:	2701                	sext.w	a4,a4
   10572:	2781                	sext.w	a5,a5
   10574:	f6f74ee3          	blt	a4,a5,104f0 <get_dev_bar+0x38>
   10578:	57fd                	li	a5,-1
   1057a:	853e                	mv	a0,a5
   1057c:	6426                	ld	s0,72(sp)
   1057e:	6161                	add	sp,sp,80
   10580:	8082                	ret

0000000000010582 <mpu_region_total>:
   10582:	1101                	add	sp,sp,-32
   10584:	ec22                	sd	s0,24(sp)
   10586:	1000                	add	s0,sp,32
   10588:	fe043423          	sd	zero,-24(s0)
   1058c:	bc4027f3          	csrr	a5,0xbc4
   10590:	fef43423          	sd	a5,-24(s0)
   10594:	fe843783          	ld	a5,-24(s0)
   10598:	83a1                	srl	a5,a5,0x8
   1059a:	2781                	sext.w	a5,a5
   1059c:	853e                	mv	a0,a5
   1059e:	6462                	ld	s0,24(sp)
   105a0:	6105                	add	sp,sp,32
   105a2:	8082                	ret

00000000000105a4 <mpu_disable_region>:
   105a4:	7179                	add	sp,sp,-48
   105a6:	f422                	sd	s0,40(sp)
   105a8:	1800                	add	s0,sp,48
   105aa:	87aa                	mv	a5,a0
   105ac:	fcf42e23          	sw	a5,-36(s0)
   105b0:	fe043423          	sd	zero,-24(s0)
   105b4:	fdc42783          	lw	a5,-36(s0)
   105b8:	0ff7f793          	zext.b	a5,a5
   105bc:	fef404a3          	sb	a5,-23(s0)
   105c0:	fe843783          	ld	a5,-24(s0)
   105c4:	0807e793          	or	a5,a5,128
   105c8:	fef43423          	sd	a5,-24(s0)
   105cc:	fe843783          	ld	a5,-24(s0)
   105d0:	bc479073          	csrw	0xbc4,a5
   105d4:	0001                	nop
   105d6:	7422                	ld	s0,40(sp)
   105d8:	6145                	add	sp,sp,48
   105da:	8082                	ret

00000000000105dc <mpu_enable_region>:
   105dc:	715d                	add	sp,sp,-80
   105de:	e4a2                	sd	s0,72(sp)
   105e0:	0880                	add	s0,sp,80
   105e2:	87aa                	mv	a5,a0
   105e4:	fcb43023          	sd	a1,-64(s0)
   105e8:	fac43c23          	sd	a2,-72(s0)
   105ec:	fae43823          	sd	a4,-80(s0)
   105f0:	fcf42623          	sw	a5,-52(s0)
   105f4:	87b6                	mv	a5,a3
   105f6:	fcf42423          	sw	a5,-56(s0)
   105fa:	c0000793          	li	a5,-1024
   105fe:	fef43423          	sd	a5,-24(s0)
   10602:	fb043783          	ld	a5,-80(s0)
   10606:	fef43023          	sd	a5,-32(s0)
   1060a:	fc043783          	ld	a5,-64(s0)
   1060e:	bc279073          	csrw	0xbc2,a5
   10612:	fb843783          	ld	a5,-72(s0)
   10616:	8385                	srl	a5,a5,0x1
   10618:	faf43c23          	sd	a5,-72(s0)
   1061c:	a819                	j	10632 <mpu_enable_region+0x56>
   1061e:	fe843783          	ld	a5,-24(s0)
   10622:	0786                	sll	a5,a5,0x1
   10624:	fef43423          	sd	a5,-24(s0)
   10628:	fb843783          	ld	a5,-72(s0)
   1062c:	8385                	srl	a5,a5,0x1
   1062e:	faf43c23          	sd	a5,-72(s0)
   10632:	fb843783          	ld	a5,-72(s0)
   10636:	f7e5                	bnez	a5,1061e <mpu_enable_region+0x42>
   10638:	fe843783          	ld	a5,-24(s0)
   1063c:	bc379073          	csrw	0xbc3,a5
   10640:	fc043c23          	sd	zero,-40(s0)
   10644:	fcc42783          	lw	a5,-52(s0)
   10648:	0ff7f793          	zext.b	a5,a5
   1064c:	fcf40ca3          	sb	a5,-39(s0)
   10650:	fd843783          	ld	a5,-40(s0)
   10654:	0107e793          	or	a5,a5,16
   10658:	fcf43c23          	sd	a5,-40(s0)
   1065c:	fc842783          	lw	a5,-56(s0)
   10660:	8b85                	and	a5,a5,1
   10662:	0ff7f793          	zext.b	a5,a5
   10666:	8b85                	and	a5,a5,1
   10668:	078e                	sll	a5,a5,0x3
   1066a:	fd843703          	ld	a4,-40(s0)
   1066e:	9b5d                	and	a4,a4,-9
   10670:	8fd9                	or	a5,a5,a4
   10672:	fcf43c23          	sd	a5,-40(s0)
   10676:	fd843783          	ld	a5,-40(s0)
   1067a:	0807e793          	or	a5,a5,128
   1067e:	fcf43c23          	sd	a5,-40(s0)
   10682:	a09d                	j	106e8 <mpu_enable_region+0x10c>
   10684:	fe043783          	ld	a5,-32(s0)
   10688:	0007c783          	lbu	a5,0(a5)
   1068c:	873e                	mv	a4,a5
   1068e:	07200793          	li	a5,114
   10692:	00f71863          	bne	a4,a5,106a2 <mpu_enable_region+0xc6>
   10696:	fd843783          	ld	a5,-40(s0)
   1069a:	0027e793          	or	a5,a5,2
   1069e:	fcf43c23          	sd	a5,-40(s0)
   106a2:	fe043783          	ld	a5,-32(s0)
   106a6:	0007c783          	lbu	a5,0(a5)
   106aa:	873e                	mv	a4,a5
   106ac:	07700793          	li	a5,119
   106b0:	00f71863          	bne	a4,a5,106c0 <mpu_enable_region+0xe4>
   106b4:	fd843783          	ld	a5,-40(s0)
   106b8:	0017e793          	or	a5,a5,1
   106bc:	fcf43c23          	sd	a5,-40(s0)
   106c0:	fe043783          	ld	a5,-32(s0)
   106c4:	0007c783          	lbu	a5,0(a5)
   106c8:	873e                	mv	a4,a5
   106ca:	07800793          	li	a5,120
   106ce:	00f71863          	bne	a4,a5,106de <mpu_enable_region+0x102>
   106d2:	fd843783          	ld	a5,-40(s0)
   106d6:	0047e793          	or	a5,a5,4
   106da:	fcf43c23          	sd	a5,-40(s0)
   106de:	fe043783          	ld	a5,-32(s0)
   106e2:	0785                	add	a5,a5,1
   106e4:	fef43023          	sd	a5,-32(s0)
   106e8:	fe043783          	ld	a5,-32(s0)
   106ec:	0007c783          	lbu	a5,0(a5)
   106f0:	fbd1                	bnez	a5,10684 <mpu_enable_region+0xa8>
   106f2:	fd843783          	ld	a5,-40(s0)
   106f6:	bc479073          	csrw	0xbc4,a5
   106fa:	0001                	nop
   106fc:	6426                	ld	s0,72(sp)
   106fe:	6161                	add	sp,sp,80
   10700:	8082                	ret

0000000000010702 <main>:
   10702:	1141                	add	sp,sp,-16
   10704:	e406                	sd	ra,8(sp)
   10706:	e022                	sd	s0,0(sp)
   10708:	0800                	add	s0,sp,16
   1070a:	d75ff0ef          	jal	1047e <helloWorld>
   1070e:	4781                	li	a5,0
   10710:	853e                	mv	a0,a5
   10712:	60a2                	ld	ra,8(sp)
   10714:	6402                	ld	s0,0(sp)
   10716:	0141                	add	sp,sp,16
   10718:	8082                	ret

000000000001071a <__libc_init_array>:
   1071a:	1101                	add	sp,sp,-32
   1071c:	e822                	sd	s0,16(sp)
   1071e:	67f1                	lui	a5,0x1c
   10720:	6471                	lui	s0,0x1c
   10722:	e04a                	sd	s2,0(sp)
   10724:	00478793          	add	a5,a5,4 # 1c004 <__preinit_array_end>
   10728:	00440713          	add	a4,s0,4 # 1c004 <__preinit_array_end>
   1072c:	ec06                	sd	ra,24(sp)
   1072e:	e426                	sd	s1,8(sp)
   10730:	40e78933          	sub	s2,a5,a4
   10734:	00e78d63          	beq	a5,a4,1074e <__libc_init_array+0x34>
   10738:	40395913          	sra	s2,s2,0x3
   1073c:	00440413          	add	s0,s0,4
   10740:	4481                	li	s1,0
   10742:	601c                	ld	a5,0(s0)
   10744:	0485                	add	s1,s1,1
   10746:	0421                	add	s0,s0,8
   10748:	9782                	jalr	a5
   1074a:	ff24ece3          	bltu	s1,s2,10742 <__libc_init_array+0x28>
   1074e:	6471                	lui	s0,0x1c
   10750:	67f1                	lui	a5,0x1c
   10752:	01878793          	add	a5,a5,24 # 1c018 <__do_global_dtors_aux_fini_array_entry>
   10756:	00840713          	add	a4,s0,8 # 1c008 <__init_array_start>
   1075a:	40e78933          	sub	s2,a5,a4
   1075e:	40395913          	sra	s2,s2,0x3
   10762:	00e78b63          	beq	a5,a4,10778 <__libc_init_array+0x5e>
   10766:	00840413          	add	s0,s0,8
   1076a:	4481                	li	s1,0
   1076c:	601c                	ld	a5,0(s0)
   1076e:	0485                	add	s1,s1,1
   10770:	0421                	add	s0,s0,8
   10772:	9782                	jalr	a5
   10774:	ff24ece3          	bltu	s1,s2,1076c <__libc_init_array+0x52>
   10778:	60e2                	ld	ra,24(sp)
   1077a:	6442                	ld	s0,16(sp)
   1077c:	64a2                	ld	s1,8(sp)
   1077e:	6902                	ld	s2,0(sp)
   10780:	6105                	add	sp,sp,32
   10782:	8082                	ret

0000000000010784 <memset>:
   10784:	433d                	li	t1,15
   10786:	872a                	mv	a4,a0
   10788:	02c37163          	bgeu	t1,a2,107aa <memset+0x26>
   1078c:	00f77793          	and	a5,a4,15
   10790:	e3c1                	bnez	a5,10810 <memset+0x8c>
   10792:	e1bd                	bnez	a1,107f8 <memset+0x74>
   10794:	ff067693          	and	a3,a2,-16
   10798:	8a3d                	and	a2,a2,15
   1079a:	96ba                	add	a3,a3,a4
   1079c:	e30c                	sd	a1,0(a4)
   1079e:	e70c                	sd	a1,8(a4)
   107a0:	0741                	add	a4,a4,16
   107a2:	fed76de3          	bltu	a4,a3,1079c <memset+0x18>
   107a6:	e211                	bnez	a2,107aa <memset+0x26>
   107a8:	8082                	ret
   107aa:	40c306b3          	sub	a3,t1,a2
   107ae:	068a                	sll	a3,a3,0x2
   107b0:	00000297          	auipc	t0,0x0
   107b4:	9696                	add	a3,a3,t0
   107b6:	00a68067          	jr	10(a3)
   107ba:	00b70723          	sb	a1,14(a4)
   107be:	00b706a3          	sb	a1,13(a4)
   107c2:	00b70623          	sb	a1,12(a4)
   107c6:	00b705a3          	sb	a1,11(a4)
   107ca:	00b70523          	sb	a1,10(a4)
   107ce:	00b704a3          	sb	a1,9(a4)
   107d2:	00b70423          	sb	a1,8(a4)
   107d6:	00b703a3          	sb	a1,7(a4)
   107da:	00b70323          	sb	a1,6(a4)
   107de:	00b702a3          	sb	a1,5(a4)
   107e2:	00b70223          	sb	a1,4(a4)
   107e6:	00b701a3          	sb	a1,3(a4)
   107ea:	00b70123          	sb	a1,2(a4)
   107ee:	00b700a3          	sb	a1,1(a4)
   107f2:	00b70023          	sb	a1,0(a4)
   107f6:	8082                	ret
   107f8:	0ff5f593          	zext.b	a1,a1
   107fc:	00859693          	sll	a3,a1,0x8
   10800:	8dd5                	or	a1,a1,a3
   10802:	01059693          	sll	a3,a1,0x10
   10806:	8dd5                	or	a1,a1,a3
   10808:	02059693          	sll	a3,a1,0x20
   1080c:	8dd5                	or	a1,a1,a3
   1080e:	b759                	j	10794 <memset+0x10>
   10810:	00279693          	sll	a3,a5,0x2
   10814:	00000297          	auipc	t0,0x0
   10818:	9696                	add	a3,a3,t0
   1081a:	8286                	mv	t0,ra
   1081c:	fa2680e7          	jalr	-94(a3)
   10820:	8096                	mv	ra,t0
   10822:	17c1                	add	a5,a5,-16
   10824:	8f1d                	sub	a4,a4,a5
   10826:	963e                	add	a2,a2,a5
   10828:	f8c371e3          	bgeu	t1,a2,107aa <memset+0x26>
   1082c:	b79d                	j	10792 <memset+0xe>

000000000001082e <_sprintf_r>:
   1082e:	7111                	add	sp,sp,-256
   10830:	0d810e93          	add	t4,sp,216
   10834:	f5be                	sd	a5,232(sp)
   10836:	80000337          	lui	t1,0x80000
   1083a:	77c1                	lui	a5,0xffff0
   1083c:	8e2e                	mv	t3,a1
   1083e:	fff34313          	not	t1,t1
   10842:	edb6                	sd	a3,216(sp)
   10844:	20878793          	add	a5,a5,520 # ffffffffffff0208 <__BSS_END__+0xfffffffffffd2f20>
   10848:	080c                	add	a1,sp,16
   1084a:	86f6                	mv	a3,t4
   1084c:	e586                	sd	ra,200(sp)
   1084e:	d03e                	sw	a5,32(sp)
   10850:	f1ba                	sd	a4,224(sp)
   10852:	f9c2                	sd	a6,240(sp)
   10854:	fdc6                	sd	a7,248(sp)
   10856:	e872                	sd	t3,16(sp)
   10858:	f472                	sd	t3,40(sp)
   1085a:	ce1a                	sw	t1,28(sp)
   1085c:	d81a                	sw	t1,48(sp)
   1085e:	e476                	sd	t4,8(sp)
   10860:	05a000ef          	jal	108ba <_svfprintf_r>
   10864:	67c2                	ld	a5,16(sp)
   10866:	00078023          	sb	zero,0(a5)
   1086a:	60ae                	ld	ra,200(sp)
   1086c:	6111                	add	sp,sp,256
   1086e:	8082                	ret

0000000000010870 <sprintf>:
   10870:	8e2a                	mv	t3,a0
   10872:	7111                	add	sp,sp,-256
   10874:	7581b503          	ld	a0,1880(gp) # 1d240 <_impure_ptr>
   10878:	0d010e93          	add	t4,sp,208
   1087c:	f5be                	sd	a5,232(sp)
   1087e:	80000337          	lui	t1,0x80000
   10882:	77c1                	lui	a5,0xffff0
   10884:	fff34313          	not	t1,t1
   10888:	e9b2                	sd	a2,208(sp)
   1088a:	edb6                	sd	a3,216(sp)
   1088c:	20878793          	add	a5,a5,520 # ffffffffffff0208 <__BSS_END__+0xfffffffffffd2f20>
   10890:	862e                	mv	a2,a1
   10892:	86f6                	mv	a3,t4
   10894:	080c                	add	a1,sp,16
   10896:	e586                	sd	ra,200(sp)
   10898:	d03e                	sw	a5,32(sp)
   1089a:	f1ba                	sd	a4,224(sp)
   1089c:	f9c2                	sd	a6,240(sp)
   1089e:	fdc6                	sd	a7,248(sp)
   108a0:	e872                	sd	t3,16(sp)
   108a2:	f472                	sd	t3,40(sp)
   108a4:	ce1a                	sw	t1,28(sp)
   108a6:	d81a                	sw	t1,48(sp)
   108a8:	e476                	sd	t4,8(sp)
   108aa:	010000ef          	jal	108ba <_svfprintf_r>
   108ae:	67c2                	ld	a5,16(sp)
   108b0:	00078023          	sb	zero,0(a5)
   108b4:	60ae                	ld	ra,200(sp)
   108b6:	6111                	add	sp,sp,256
   108b8:	8082                	ret

00000000000108ba <_svfprintf_r>:
   108ba:	d9010113          	add	sp,sp,-624
   108be:	26113423          	sd	ra,616(sp)
   108c2:	26813023          	sd	s0,608(sp)
   108c6:	25213823          	sd	s2,592(sp)
   108ca:	842e                	mv	s0,a1
   108cc:	e02e                	sd	a1,0(sp)
   108ce:	8932                	mv	s2,a2
   108d0:	f036                	sd	a3,32(sp)
   108d2:	24913c23          	sd	s1,600(sp)
   108d6:	25313423          	sd	s3,584(sp)
   108da:	25413023          	sd	s4,576(sp)
   108de:	23513c23          	sd	s5,568(sp)
   108e2:	23613823          	sd	s6,560(sp)
   108e6:	23713423          	sd	s7,552(sp)
   108ea:	23813023          	sd	s8,544(sp)
   108ee:	21913c23          	sd	s9,536(sp)
   108f2:	21a13823          	sd	s10,528(sp)
   108f6:	21b13423          	sd	s11,520(sp)
   108fa:	e8aa                	sd	a0,80(sp)
   108fc:	004040ef          	jal	14900 <_localeconv_r>
   10900:	611c                	ld	a5,0(a0)
   10902:	853e                	mv	a0,a5
   10904:	f0be                	sd	a5,96(sp)
   10906:	640050ef          	jal	15f46 <strlen>
   1090a:	01045703          	lhu	a4,16(s0)
   1090e:	f982                	sd	zero,240(sp)
   10910:	fd82                	sd	zero,248(sp)
   10912:	08077713          	and	a4,a4,128
   10916:	ecaa                	sd	a0,88(sp)
   10918:	c701                	beqz	a4,10920 <_svfprintf_r+0x66>
   1091a:	6c18                	ld	a4,24(s0)
   1091c:	680707e3          	beqz	a4,117aa <_svfprintf_r+0xef0>
   10920:	031c                	add	a5,sp,384
   10922:	676d                	lui	a4,0x1b
   10924:	833e                	mv	t1,a5
   10926:	e23e                	sd	a5,256(sp)
   10928:	8b4a                	mv	s6,s2
   1092a:	0d470793          	add	a5,a4,212 # 1b0d4 <__clzdi2+0xb2>
   1092e:	676d                	lui	a4,0x1b
   10930:	f43e                	sd	a5,40(sp)
   10932:	2d870793          	add	a5,a4,728 # 1b2d8 <zeroes.0>
   10936:	000b4703          	lbu	a4,0(s6)
   1093a:	ea02                	sd	zero,272(sp)
   1093c:	10012423          	sw	zero,264(sp)
   10940:	fc02                	sd	zero,56(sp)
   10942:	f482                	sd	zero,104(sp)
   10944:	f882                	sd	zero,112(sp)
   10946:	fc82                	sd	zero,120(sp)
   10948:	e102                	sd	zero,128(sp)
   1094a:	e502                	sd	zero,136(sp)
   1094c:	e802                	sd	zero,16(sp)
   1094e:	e43e                	sd	a5,8(sp)
   10950:	69c6                	ld	s3,80(sp)
   10952:	841a                	mv	s0,t1
   10954:	1c070163          	beqz	a4,10b16 <_svfprintf_r+0x25c>
   10958:	84da                	mv	s1,s6
   1095a:	02500693          	li	a3,37
   1095e:	20d70c63          	beq	a4,a3,10b76 <_svfprintf_r+0x2bc>
   10962:	0014c703          	lbu	a4,1(s1)
   10966:	0485                	add	s1,s1,1
   10968:	fb7d                	bnez	a4,1095e <_svfprintf_r+0xa4>
   1096a:	4164893b          	subw	s2,s1,s6
   1096e:	1a090463          	beqz	s2,10b16 <_svfprintf_r+0x25c>
   10972:	6bd2                	ld	s7,272(sp)
   10974:	10812683          	lw	a3,264(sp)
   10978:	01643023          	sd	s6,0(s0)
   1097c:	012b8733          	add	a4,s7,s2
   10980:	0016861b          	addw	a2,a3,1
   10984:	01243423          	sd	s2,8(s0)
   10988:	ea3a                	sd	a4,272(sp)
   1098a:	10c12423          	sw	a2,264(sp)
   1098e:	471d                	li	a4,7
   10990:	0441                	add	s0,s0,16
   10992:	1ec74963          	blt	a4,a2,10b84 <_svfprintf_r+0x2ca>
   10996:	67c2                	ld	a5,16(sp)
   10998:	0004c703          	lbu	a4,0(s1)
   1099c:	012787bb          	addw	a5,a5,s2
   109a0:	e83e                	sd	a5,16(sp)
   109a2:	16070a63          	beqz	a4,10b16 <_svfprintf_r+0x25c>
   109a6:	537d                	li	t1,-1
   109a8:	0014ce03          	lbu	t3,1(s1)
   109ac:	0c0107a3          	sb	zero,207(sp)
   109b0:	0485                	add	s1,s1,1
   109b2:	4a01                	li	s4,0
   109b4:	4901                	li	s2,0
   109b6:	05a00b93          	li	s7,90
   109ba:	8a9a                	mv	s5,t1
   109bc:	0485                	add	s1,s1,1
   109be:	000e0d1b          	sext.w	s10,t3
   109c2:	fe0d079b          	addw	a5,s10,-32
   109c6:	0007871b          	sext.w	a4,a5
   109ca:	04ebe563          	bltu	s7,a4,10a14 <_svfprintf_r+0x15a>
   109ce:	02079713          	sll	a4,a5,0x20
   109d2:	01e75793          	srl	a5,a4,0x1e
   109d6:	7722                	ld	a4,40(sp)
   109d8:	97ba                	add	a5,a5,a4
   109da:	439c                	lw	a5,0(a5)
   109dc:	8782                	jr	a5
   109de:	4a01                	li	s4,0
   109e0:	46a5                	li	a3,9
   109e2:	0004c703          	lbu	a4,0(s1)
   109e6:	002a179b          	sllw	a5,s4,0x2
   109ea:	01478a3b          	addw	s4,a5,s4
   109ee:	fd0d0d1b          	addw	s10,s10,-48
   109f2:	001a1a1b          	sllw	s4,s4,0x1
   109f6:	fd07079b          	addw	a5,a4,-48
   109fa:	014d0a3b          	addw	s4,s10,s4
   109fe:	0485                	add	s1,s1,1
   10a00:	00070d1b          	sext.w	s10,a4
   10a04:	fcf6ffe3          	bgeu	a3,a5,109e2 <_svfprintf_r+0x128>
   10a08:	fe0d079b          	addw	a5,s10,-32
   10a0c:	0007871b          	sext.w	a4,a5
   10a10:	faebffe3          	bgeu	s7,a4,109ce <_svfprintf_r+0x114>
   10a14:	100d0163          	beqz	s10,10b16 <_svfprintf_r+0x25c>
   10a18:	11a10c23          	sb	s10,280(sp)
   10a1c:	0c0107a3          	sb	zero,207(sp)
   10a20:	4c05                	li	s8,1
   10a22:	4d85                	li	s11,1
   10a24:	11810b13          	add	s6,sp,280
   10a28:	ec02                	sd	zero,24(sp)
   10a2a:	4301                	li	t1,0
   10a2c:	e482                	sd	zero,72(sp)
   10a2e:	e082                	sd	zero,64(sp)
   10a30:	f802                	sd	zero,48(sp)
   10a32:	00297c93          	and	s9,s2,2
   10a36:	000c8363          	beqz	s9,10a3c <_svfprintf_r+0x182>
   10a3a:	2c09                	addw	s8,s8,2
   10a3c:	08497a93          	and	s5,s2,132
   10a40:	000a9663          	bnez	s5,10a4c <_svfprintf_r+0x192>
   10a44:	418a073b          	subw	a4,s4,s8
   10a48:	00e046e3          	bgtz	a4,11254 <_svfprintf_r+0x99a>
   10a4c:	0cf14703          	lbu	a4,207(sp)
   10a50:	6bd2                	ld	s7,272(sp)
   10a52:	c31d                	beqz	a4,10a78 <_svfprintf_r+0x1be>
   10a54:	10812603          	lw	a2,264(sp)
   10a58:	0cf10593          	add	a1,sp,207
   10a5c:	e00c                	sd	a1,0(s0)
   10a5e:	2605                	addw	a2,a2,1
   10a60:	4585                	li	a1,1
   10a62:	0b85                	add	s7,s7,1
   10a64:	e40c                	sd	a1,8(s0)
   10a66:	10c12423          	sw	a2,264(sp)
   10a6a:	0006059b          	sext.w	a1,a2
   10a6e:	ea5e                	sd	s7,272(sp)
   10a70:	461d                	li	a2,7
   10a72:	0441                	add	s0,s0,16
   10a74:	1cb64c63          	blt	a2,a1,10c4c <_svfprintf_r+0x392>
   10a78:	020c8363          	beqz	s9,10a9e <_svfprintf_r+0x1e4>
   10a7c:	10812603          	lw	a2,264(sp)
   10a80:	4589                	li	a1,2
   10a82:	0b89                	add	s7,s7,2
   10a84:	2605                	addw	a2,a2,1
   10a86:	099c                	add	a5,sp,208
   10a88:	e40c                	sd	a1,8(s0)
   10a8a:	e01c                	sd	a5,0(s0)
   10a8c:	0006059b          	sext.w	a1,a2
   10a90:	10c12423          	sw	a2,264(sp)
   10a94:	ea5e                	sd	s7,272(sp)
   10a96:	461d                	li	a2,7
   10a98:	0441                	add	s0,s0,16
   10a9a:	06b649e3          	blt	a2,a1,1130c <_svfprintf_r+0xa52>
   10a9e:	08000613          	li	a2,128
   10aa2:	66ca8563          	beq	s5,a2,1110c <_svfprintf_r+0x852>
   10aa6:	41b30cbb          	subw	s9,t1,s11
   10aaa:	6f904f63          	bgtz	s9,111a8 <_svfprintf_r+0x8ee>
   10aae:	10097613          	and	a2,s2,256
   10ab2:	50061a63          	bnez	a2,10fc6 <_svfprintf_r+0x70c>
   10ab6:	10812603          	lw	a2,264(sp)
   10aba:	017d8733          	add	a4,s11,s7
   10abe:	01643023          	sd	s6,0(s0)
   10ac2:	0016069b          	addw	a3,a2,1
   10ac6:	01b43423          	sd	s11,8(s0)
   10aca:	ea3a                	sd	a4,272(sp)
   10acc:	10d12423          	sw	a3,264(sp)
   10ad0:	479d                	li	a5,7
   10ad2:	22d7ce63          	blt	a5,a3,10d0e <_svfprintf_r+0x454>
   10ad6:	0441                	add	s0,s0,16
   10ad8:	00497913          	and	s2,s2,4
   10adc:	00090663          	beqz	s2,10ae8 <_svfprintf_r+0x22e>
   10ae0:	418a093b          	subw	s2,s4,s8
   10ae4:	052040e3          	bgtz	s2,11324 <_svfprintf_r+0xa6a>
   10ae8:	87d2                	mv	a5,s4
   10aea:	018a5363          	bge	s4,s8,10af0 <_svfprintf_r+0x236>
   10aee:	87e2                	mv	a5,s8
   10af0:	66c2                	ld	a3,16(sp)
   10af2:	9fb5                	addw	a5,a5,a3
   10af4:	e83e                	sd	a5,16(sp)
   10af6:	74071163          	bnez	a4,11238 <_svfprintf_r+0x97e>
   10afa:	67e2                	ld	a5,24(sp)
   10afc:	10012423          	sw	zero,264(sp)
   10b00:	c789                	beqz	a5,10b0a <_svfprintf_r+0x250>
   10b02:	65e2                	ld	a1,24(sp)
   10b04:	854e                	mv	a0,s3
   10b06:	2a5010ef          	jal	125aa <_free_r>
   10b0a:	0300                	add	s0,sp,384
   10b0c:	8b26                	mv	s6,s1
   10b0e:	000b4703          	lbu	a4,0(s6)
   10b12:	e40713e3          	bnez	a4,10958 <_svfprintf_r+0x9e>
   10b16:	67d2                	ld	a5,272(sp)
   10b18:	c399                	beqz	a5,10b1e <_svfprintf_r+0x264>
   10b1a:	3080106f          	j	11e22 <_svfprintf_r+0x1568>
   10b1e:	6782                	ld	a5,0(sp)
   10b20:	0107d783          	lhu	a5,16(a5)
   10b24:	0407f793          	and	a5,a5,64
   10b28:	c399                	beqz	a5,10b2e <_svfprintf_r+0x274>
   10b2a:	78a0106f          	j	122b4 <_svfprintf_r+0x19fa>
   10b2e:	26813083          	ld	ra,616(sp)
   10b32:	26013403          	ld	s0,608(sp)
   10b36:	6542                	ld	a0,16(sp)
   10b38:	25813483          	ld	s1,600(sp)
   10b3c:	25013903          	ld	s2,592(sp)
   10b40:	24813983          	ld	s3,584(sp)
   10b44:	24013a03          	ld	s4,576(sp)
   10b48:	23813a83          	ld	s5,568(sp)
   10b4c:	23013b03          	ld	s6,560(sp)
   10b50:	22813b83          	ld	s7,552(sp)
   10b54:	22013c03          	ld	s8,544(sp)
   10b58:	21813c83          	ld	s9,536(sp)
   10b5c:	21013d03          	ld	s10,528(sp)
   10b60:	20813d83          	ld	s11,520(sp)
   10b64:	27010113          	add	sp,sp,624
   10b68:	8082                	ret
   10b6a:	01096913          	or	s2,s2,16
   10b6e:	0004ce03          	lbu	t3,0(s1)
   10b72:	2901                	sext.w	s2,s2
   10b74:	b5a1                	j	109bc <_svfprintf_r+0x102>
   10b76:	4164893b          	subw	s2,s1,s6
   10b7a:	de091ce3          	bnez	s2,10972 <_svfprintf_r+0xb8>
   10b7e:	0004c703          	lbu	a4,0(s1)
   10b82:	b505                	j	109a2 <_svfprintf_r+0xe8>
   10b84:	6582                	ld	a1,0(sp)
   10b86:	0210                	add	a2,sp,256
   10b88:	854e                	mv	a0,s3
   10b8a:	4be050ef          	jal	16048 <__ssprint_r>
   10b8e:	f941                	bnez	a0,10b1e <_svfprintf_r+0x264>
   10b90:	0300                	add	s0,sp,384
   10b92:	b511                	j	10996 <_svfprintf_r+0xdc>
   10b94:	00897713          	and	a4,s2,8
   10b98:	8356                	mv	t1,s5
   10b9a:	2e070de3          	beqz	a4,11694 <_svfprintf_r+0xdda>
   10b9e:	7782                	ld	a5,32(sp)
   10ba0:	00f78a93          	add	s5,a5,15
   10ba4:	ff0afa93          	and	s5,s5,-16
   10ba8:	000ab703          	ld	a4,0(s5)
   10bac:	008ab583          	ld	a1,8(s5)
   10bb0:	010a8793          	add	a5,s5,16
   10bb4:	f03e                	sd	a5,32(sp)
   10bb6:	1988                	add	a0,sp,240
   10bb8:	ec1a                	sd	t1,24(sp)
   10bba:	f9ba                	sd	a4,240(sp)
   10bbc:	fdae                	sd	a1,248(sp)
   10bbe:	4fb030ef          	jal	148b8 <_ldcheck>
   10bc2:	cdaa                	sw	a0,216(sp)
   10bc4:	4709                	li	a4,2
   10bc6:	6362                	ld	t1,24(sp)
   10bc8:	6ce50ce3          	beq	a0,a4,11aa0 <_svfprintf_r+0x11e6>
   10bcc:	4705                	li	a4,1
   10bce:	00e51463          	bne	a0,a4,10bd6 <_svfprintf_r+0x31c>
   10bd2:	7fd0006f          	j	11bce <_svfprintf_r+0x1314>
   10bd6:	06100713          	li	a4,97
   10bda:	00ed1463          	bne	s10,a4,10be2 <_svfprintf_r+0x328>
   10bde:	4640106f          	j	12042 <_svfprintf_r+0x1788>
   10be2:	04100713          	li	a4,65
   10be6:	00ed1463          	bne	s10,a4,10bee <_svfprintf_r+0x334>
   10bea:	5880106f          	j	12172 <_svfprintf_r+0x18b8>
   10bee:	577d                	li	a4,-1
   10bf0:	00e31463          	bne	t1,a4,10bf8 <_svfprintf_r+0x33e>
   10bf4:	25a0106f          	j	11e4e <_svfprintf_r+0x1594>
   10bf8:	fdfd7713          	and	a4,s10,-33
   10bfc:	04700693          	li	a3,71
   10c00:	00d71463          	bne	a4,a3,10c08 <_svfprintf_r+0x34e>
   10c04:	6d00106f          	j	122d4 <_svfprintf_r+0x1a1a>
   10c08:	10096713          	or	a4,s2,256
   10c0c:	7cee                	ld	s9,248(sp)
   10c0e:	0007079b          	sext.w	a5,a4
   10c12:	e93e                	sd	a5,144(sp)
   10c14:	e0ca                	sd	s2,64(sp)
   10c16:	7c4e                	ld	s8,240(sp)
   10c18:	000cd463          	bgez	s9,10c20 <_svfprintf_r+0x366>
   10c1c:	4aa0106f          	j	120c6 <_svfprintf_r+0x180c>
   10c20:	ed02                	sd	zero,152(sp)
   10c22:	ec02                	sd	zero,24(sp)
   10c24:	fbfd071b          	addw	a4,s10,-65
   10c28:	0007061b          	sext.w	a2,a4
   10c2c:	02500693          	li	a3,37
   10c30:	00c6f463          	bgeu	a3,a2,10c38 <_svfprintf_r+0x37e>
   10c34:	04a0106f          	j	11c7e <_svfprintf_r+0x13c4>
   10c38:	02071693          	sll	a3,a4,0x20
   10c3c:	01e6d713          	srl	a4,a3,0x1e
   10c40:	66ed                	lui	a3,0x1b
   10c42:	24068693          	add	a3,a3,576 # 1b240 <__clzdi2+0x21e>
   10c46:	9736                	add	a4,a4,a3
   10c48:	4318                	lw	a4,0(a4)
   10c4a:	8702                	jr	a4
   10c4c:	6582                	ld	a1,0(sp)
   10c4e:	0210                	add	a2,sp,256
   10c50:	854e                	mv	a0,s3
   10c52:	e91a                	sd	t1,144(sp)
   10c54:	3f4050ef          	jal	16048 <__ssprint_r>
   10c58:	5e051763          	bnez	a0,11246 <_svfprintf_r+0x98c>
   10c5c:	6bd2                	ld	s7,272(sp)
   10c5e:	634a                	ld	t1,144(sp)
   10c60:	0300                	add	s0,sp,384
   10c62:	bd19                	j	10a78 <_svfprintf_r+0x1be>
   10c64:	77e2                	ld	a5,56(sp)
   10c66:	4685                	li	a3,1
   10c68:	01040c93          	add	s9,s0,16
   10c6c:	06f6d1e3          	bge	a3,a5,114ce <_svfprintf_r+0xc14>
   10c70:	10812603          	lw	a2,264(sp)
   10c74:	4685                	li	a3,1
   10c76:	001b8713          	add	a4,s7,1
   10c7a:	2605                	addw	a2,a2,1
   10c7c:	e414                	sd	a3,8(s0)
   10c7e:	10c12423          	sw	a2,264(sp)
   10c82:	0006069b          	sext.w	a3,a2
   10c86:	01643023          	sd	s6,0(s0)
   10c8a:	ea3a                	sd	a4,272(sp)
   10c8c:	461d                	li	a2,7
   10c8e:	16d644e3          	blt	a2,a3,115f6 <_svfprintf_r+0xd3c>
   10c92:	67e6                	ld	a5,88(sp)
   10c94:	0016841b          	addw	s0,a3,1
   10c98:	10812423          	sw	s0,264(sp)
   10c9c:	00e78d33          	add	s10,a5,a4
   10ca0:	7706                	ld	a4,96(sp)
   10ca2:	00fcb423          	sd	a5,8(s9)
   10ca6:	ea6a                	sd	s10,272(sp)
   10ca8:	00ecb023          	sd	a4,0(s9)
   10cac:	471d                	li	a4,7
   10cae:	0cc1                	add	s9,s9,16
   10cb0:	168741e3          	blt	a4,s0,11612 <_svfprintf_r+0xd58>
   10cb4:	754e                	ld	a0,240(sp)
   10cb6:	75ee                	ld	a1,248(sp)
   10cb8:	4601                	li	a2,0
   10cba:	4681                	li	a3,0
   10cbc:	5cf080ef          	jal	19a8a <__eqtf2>
   10cc0:	77e2                	ld	a5,56(sp)
   10cc2:	fff78d9b          	addw	s11,a5,-1
   10cc6:	040507e3          	beqz	a0,11514 <_svfprintf_r+0xc5a>
   10cca:	001b0793          	add	a5,s6,1
   10cce:	2405                	addw	s0,s0,1
   10cd0:	9d6e                	add	s10,s10,s11
   10cd2:	00fcb023          	sd	a5,0(s9)
   10cd6:	01bcb423          	sd	s11,8(s9)
   10cda:	ea6a                	sd	s10,272(sp)
   10cdc:	10812423          	sw	s0,264(sp)
   10ce0:	479d                	li	a5,7
   10ce2:	0087cbe3          	blt	a5,s0,114f8 <_svfprintf_r+0xc3e>
   10ce6:	0cc1                	add	s9,s9,16
   10ce8:	76c6                	ld	a3,112(sp)
   10cea:	2405                	addw	s0,s0,1
   10cec:	119c                	add	a5,sp,224
   10cee:	01a68733          	add	a4,a3,s10
   10cf2:	00fcb023          	sd	a5,0(s9)
   10cf6:	00dcb423          	sd	a3,8(s9)
   10cfa:	10812423          	sw	s0,264(sp)
   10cfe:	0004069b          	sext.w	a3,s0
   10d02:	ea3a                	sd	a4,272(sp)
   10d04:	479d                	li	a5,7
   10d06:	010c8413          	add	s0,s9,16
   10d0a:	dcd7d7e3          	bge	a5,a3,10ad8 <_svfprintf_r+0x21e>
   10d0e:	6582                	ld	a1,0(sp)
   10d10:	0210                	add	a2,sp,256
   10d12:	854e                	mv	a0,s3
   10d14:	334050ef          	jal	16048 <__ssprint_r>
   10d18:	52051763          	bnez	a0,11246 <_svfprintf_r+0x98c>
   10d1c:	6752                	ld	a4,272(sp)
   10d1e:	0300                	add	s0,sp,384
   10d20:	bb65                	j	10ad8 <_svfprintf_r+0x21e>
   10d22:	7702                	ld	a4,32(sp)
   10d24:	0c0107a3          	sb	zero,207(sp)
   10d28:	4c05                	li	s8,1
   10d2a:	431c                	lw	a5,0(a4)
   10d2c:	0721                	add	a4,a4,8
   10d2e:	f03a                	sd	a4,32(sp)
   10d30:	10f10c23          	sb	a5,280(sp)
   10d34:	4d85                	li	s11,1
   10d36:	11810b13          	add	s6,sp,280
   10d3a:	b1fd                	j	10a28 <_svfprintf_r+0x16e>
   10d3c:	7782                	ld	a5,32(sp)
   10d3e:	0c0107a3          	sb	zero,207(sp)
   10d42:	8356                	mv	t1,s5
   10d44:	0007bb03          	ld	s6,0(a5)
   10d48:	00878a93          	add	s5,a5,8
   10d4c:	580b09e3          	beqz	s6,11ade <_svfprintf_r+0x1224>
   10d50:	577d                	li	a4,-1
   10d52:	2ce305e3          	beq	t1,a4,1181c <_svfprintf_r+0xf62>
   10d56:	861a                	mv	a2,t1
   10d58:	4581                	li	a1,0
   10d5a:	855a                	mv	a0,s6
   10d5c:	f01a                	sd	t1,32(sp)
   10d5e:	27a040ef          	jal	14fd8 <memchr>
   10d62:	ec2a                	sd	a0,24(sp)
   10d64:	7302                	ld	t1,32(sp)
   10d66:	e119                	bnez	a0,10d6c <_svfprintf_r+0x4b2>
   10d68:	3c60106f          	j	1212e <_svfprintf_r+0x1874>
   10d6c:	67e2                	ld	a5,24(sp)
   10d6e:	41678dbb          	subw	s11,a5,s6
   10d72:	0cf14703          	lbu	a4,207(sp)
   10d76:	fffdc813          	not	a6,s11
   10d7a:	43f85813          	sra	a6,a6,0x3f
   10d7e:	f056                	sd	s5,32(sp)
   10d80:	ec02                	sd	zero,24(sp)
   10d82:	e482                	sd	zero,72(sp)
   10d84:	e082                	sd	zero,64(sp)
   10d86:	f802                	sd	zero,48(sp)
   10d88:	01b87c33          	and	s8,a6,s11
   10d8c:	4301                	li	t1,0
   10d8e:	ca0702e3          	beqz	a4,10a32 <_svfprintf_r+0x178>
   10d92:	2c05                	addw	s8,s8,1
   10d94:	b979                	j	10a32 <_svfprintf_r+0x178>
   10d96:	7782                	ld	a5,32(sp)
   10d98:	0007aa03          	lw	s4,0(a5)
   10d9c:	07a1                	add	a5,a5,8
   10d9e:	0a0a50e3          	bgez	s4,1163e <_svfprintf_r+0xd84>
   10da2:	41400a3b          	negw	s4,s4
   10da6:	f03e                	sd	a5,32(sp)
   10da8:	00496913          	or	s2,s2,4
   10dac:	0004ce03          	lbu	t3,0(s1)
   10db0:	2901                	sext.w	s2,s2
   10db2:	b129                	j	109bc <_svfprintf_r+0x102>
   10db4:	02b00793          	li	a5,43
   10db8:	0004ce03          	lbu	t3,0(s1)
   10dbc:	0cf107a3          	sb	a5,207(sp)
   10dc0:	bef5                	j	109bc <_svfprintf_r+0x102>
   10dc2:	08096913          	or	s2,s2,128
   10dc6:	0004ce03          	lbu	t3,0(s1)
   10dca:	2901                	sext.w	s2,s2
   10dcc:	bec5                	j	109bc <_svfprintf_r+0x102>
   10dce:	0004cd03          	lbu	s10,0(s1)
   10dd2:	02a00693          	li	a3,42
   10dd6:	00148793          	add	a5,s1,1
   10dda:	00dd1463          	bne	s10,a3,10de2 <_svfprintf_r+0x528>
   10dde:	59c0106f          	j	1237a <_svfprintf_r+0x1ac0>
   10de2:	fd0d071b          	addw	a4,s10,-48
   10de6:	4625                	li	a2,9
   10de8:	84be                	mv	s1,a5
   10dea:	4a81                	li	s5,0
   10dec:	46a5                	li	a3,9
   10dee:	bce66ae3          	bltu	a2,a4,109c2 <_svfprintf_r+0x108>
   10df2:	0004cd03          	lbu	s10,0(s1)
   10df6:	002a979b          	sllw	a5,s5,0x2
   10dfa:	0157833b          	addw	t1,a5,s5
   10dfe:	0013131b          	sllw	t1,t1,0x1
   10e02:	00e30abb          	addw	s5,t1,a4
   10e06:	fd0d071b          	addw	a4,s10,-48
   10e0a:	0485                	add	s1,s1,1
   10e0c:	fee6f3e3          	bgeu	a3,a4,10df2 <_svfprintf_r+0x538>
   10e10:	be4d                	j	109c2 <_svfprintf_r+0x108>
   10e12:	854e                	mv	a0,s3
   10e14:	2ed030ef          	jal	14900 <_localeconv_r>
   10e18:	651c                	ld	a5,8(a0)
   10e1a:	853e                	mv	a0,a5
   10e1c:	e53e                	sd	a5,136(sp)
   10e1e:	128050ef          	jal	15f46 <strlen>
   10e22:	87aa                	mv	a5,a0
   10e24:	854e                	mv	a0,s3
   10e26:	8c3e                	mv	s8,a5
   10e28:	e13e                	sd	a5,128(sp)
   10e2a:	2d7030ef          	jal	14900 <_localeconv_r>
   10e2e:	691c                	ld	a5,16(a0)
   10e30:	0004ce03          	lbu	t3,0(s1)
   10e34:	fcbe                	sd	a5,120(sp)
   10e36:	b80c03e3          	beqz	s8,109bc <_svfprintf_r+0x102>
   10e3a:	b80781e3          	beqz	a5,109bc <_svfprintf_r+0x102>
   10e3e:	0007c783          	lbu	a5,0(a5)
   10e42:	b6078de3          	beqz	a5,109bc <_svfprintf_r+0x102>
   10e46:	40096913          	or	s2,s2,1024
   10e4a:	2901                	sext.w	s2,s2
   10e4c:	be85                	j	109bc <_svfprintf_r+0x102>
   10e4e:	00196913          	or	s2,s2,1
   10e52:	0004ce03          	lbu	t3,0(s1)
   10e56:	2901                	sext.w	s2,s2
   10e58:	b695                	j	109bc <_svfprintf_r+0x102>
   10e5a:	0cf14783          	lbu	a5,207(sp)
   10e5e:	0004ce03          	lbu	t3,0(s1)
   10e62:	b4079de3          	bnez	a5,109bc <_svfprintf_r+0x102>
   10e66:	02000793          	li	a5,32
   10e6a:	0cf107a3          	sb	a5,207(sp)
   10e6e:	b6b9                	j	109bc <_svfprintf_r+0x102>
   10e70:	01096c93          	or	s9,s2,16
   10e74:	8356                	mv	t1,s5
   10e76:	2c81                	sext.w	s9,s9
   10e78:	7682                	ld	a3,32(sp)
   10e7a:	020cf793          	and	a5,s9,32
   10e7e:	00868713          	add	a4,a3,8
   10e82:	70078d63          	beqz	a5,1159c <_svfprintf_r+0xce2>
   10e86:	0006bb83          	ld	s7,0(a3)
   10e8a:	4785                	li	a5,1
   10e8c:	f03a                	sd	a4,32(sp)
   10e8e:	4701                	li	a4,0
   10e90:	0ce107a3          	sb	a4,207(sp)
   10e94:	577d                	li	a4,-1
   10e96:	1ee30a63          	beq	t1,a4,1108a <_svfprintf_r+0x7d0>
   10e9a:	f7fcf913          	and	s2,s9,-129
   10e9e:	2901                	sext.w	s2,s2
   10ea0:	1e0b9463          	bnez	s7,11088 <_svfprintf_r+0x7ce>
   10ea4:	22031763          	bnez	t1,110d2 <_svfprintf_r+0x818>
   10ea8:	74079363          	bnez	a5,115ee <_svfprintf_r+0xd34>
   10eac:	001cfd93          	and	s11,s9,1
   10eb0:	17c10b13          	add	s6,sp,380
   10eb4:	780d9a63          	bnez	s11,11648 <_svfprintf_r+0xd8e>
   10eb8:	0cf14703          	lbu	a4,207(sp)
   10ebc:	881a                	mv	a6,t1
   10ebe:	01b35363          	bge	t1,s11,10ec4 <_svfprintf_r+0x60a>
   10ec2:	886e                	mv	a6,s11
   10ec4:	ec02                	sd	zero,24(sp)
   10ec6:	e482                	sd	zero,72(sp)
   10ec8:	e082                	sd	zero,64(sp)
   10eca:	f802                	sd	zero,48(sp)
   10ecc:	00080c1b          	sext.w	s8,a6
   10ed0:	ec0711e3          	bnez	a4,10d92 <_svfprintf_r+0x4d8>
   10ed4:	beb9                	j	10a32 <_svfprintf_r+0x178>
   10ed6:	00896913          	or	s2,s2,8
   10eda:	0004ce03          	lbu	t3,0(s1)
   10ede:	2901                	sext.w	s2,s2
   10ee0:	bcf1                	j	109bc <_svfprintf_r+0x102>
   10ee2:	01096913          	or	s2,s2,16
   10ee6:	8356                	mv	t1,s5
   10ee8:	2901                	sext.w	s2,s2
   10eea:	7682                	ld	a3,32(sp)
   10eec:	02097793          	and	a5,s2,32
   10ef0:	00868713          	add	a4,a3,8
   10ef4:	6c078463          	beqz	a5,115bc <_svfprintf_r+0xd02>
   10ef8:	629c                	ld	a5,0(a3)
   10efa:	8bbe                	mv	s7,a5
   10efc:	6e07c163          	bltz	a5,115de <_svfprintf_r+0xd24>
   10f00:	57fd                	li	a5,-1
   10f02:	3ef30763          	beq	t1,a5,112f0 <_svfprintf_r+0xa36>
   10f06:	f7f97c93          	and	s9,s2,-129
   10f0a:	2c81                	sext.w	s9,s9
   10f0c:	7a0b9663          	bnez	s7,116b8 <_svfprintf_r+0xdfe>
   10f10:	00030463          	beqz	t1,10f18 <_svfprintf_r+0x65e>
   10f14:	3a80106f          	j	122bc <_svfprintf_r+0x1a02>
   10f18:	4d81                	li	s11,0
   10f1a:	f03a                	sd	a4,32(sp)
   10f1c:	8966                	mv	s2,s9
   10f1e:	17c10b13          	add	s6,sp,380
   10f22:	bf59                	j	10eb8 <_svfprintf_r+0x5fe>
   10f24:	01096913          	or	s2,s2,16
   10f28:	8356                	mv	t1,s5
   10f2a:	2901                	sext.w	s2,s2
   10f2c:	7682                	ld	a3,32(sp)
   10f2e:	02097793          	and	a5,s2,32
   10f32:	00868713          	add	a4,a3,8
   10f36:	64078563          	beqz	a5,11580 <_svfprintf_r+0xcc6>
   10f3a:	0006bb83          	ld	s7,0(a3)
   10f3e:	bff97c93          	and	s9,s2,-1025
   10f42:	2c81                	sext.w	s9,s9
   10f44:	f03a                	sd	a4,32(sp)
   10f46:	4781                	li	a5,0
   10f48:	b799                	j	10e8e <_svfprintf_r+0x5d4>
   10f4a:	02096913          	or	s2,s2,32
   10f4e:	0004ce03          	lbu	t3,0(s1)
   10f52:	2901                	sext.w	s2,s2
   10f54:	b4a5                	j	109bc <_svfprintf_r+0x102>
   10f56:	7702                	ld	a4,32(sp)
   10f58:	02097793          	and	a5,s2,32
   10f5c:	6318                	ld	a4,0(a4)
   10f5e:	70078b63          	beqz	a5,11674 <_svfprintf_r+0xdba>
   10f62:	67c2                	ld	a5,16(sp)
   10f64:	e31c                	sd	a5,0(a4)
   10f66:	7782                	ld	a5,32(sp)
   10f68:	8b26                	mv	s6,s1
   10f6a:	07a1                	add	a5,a5,8
   10f6c:	f03e                	sd	a5,32(sp)
   10f6e:	b645                	j	10b0e <_svfprintf_r+0x254>
   10f70:	0004ce03          	lbu	t3,0(s1)
   10f74:	06c00793          	li	a5,108
   10f78:	02fe01e3          	beq	t3,a5,1179a <_svfprintf_r+0xee0>
   10f7c:	01096913          	or	s2,s2,16
   10f80:	2901                	sext.w	s2,s2
   10f82:	bc2d                	j	109bc <_svfprintf_r+0x102>
   10f84:	0004ce03          	lbu	t3,0(s1)
   10f88:	06800793          	li	a5,104
   10f8c:	7efe0f63          	beq	t3,a5,1178a <_svfprintf_r+0xed0>
   10f90:	04096913          	or	s2,s2,64
   10f94:	2901                	sext.w	s2,s2
   10f96:	b41d                	j	109bc <_svfprintf_r+0x102>
   10f98:	7702                	ld	a4,32(sp)
   10f9a:	77e1                	lui	a5,0xffff8
   10f9c:	8307c793          	xor	a5,a5,-2000
   10fa0:	0cf11823          	sh	a5,208(sp)
   10fa4:	00870793          	add	a5,a4,8
   10fa8:	f03e                	sd	a5,32(sp)
   10faa:	67ed                	lui	a5,0x1b
   10fac:	0b078793          	add	a5,a5,176 # 1b0b0 <__clzdi2+0x8e>
   10fb0:	00296c93          	or	s9,s2,2
   10fb4:	f4be                	sd	a5,104(sp)
   10fb6:	00073b83          	ld	s7,0(a4)
   10fba:	8356                	mv	t1,s5
   10fbc:	2c81                	sext.w	s9,s9
   10fbe:	4789                	li	a5,2
   10fc0:	07800d13          	li	s10,120
   10fc4:	b5e9                	j	10e8e <_svfprintf_r+0x5d4>
   10fc6:	06500693          	li	a3,101
   10fca:	c9a6dde3          	bge	a3,s10,10c64 <_svfprintf_r+0x3aa>
   10fce:	754e                	ld	a0,240(sp)
   10fd0:	75ee                	ld	a1,248(sp)
   10fd2:	4601                	li	a2,0
   10fd4:	4681                	li	a3,0
   10fd6:	2b5080ef          	jal	19a8a <__eqtf2>
   10fda:	3c051563          	bnez	a0,113a4 <_svfprintf_r+0xaea>
   10fde:	10812783          	lw	a5,264(sp)
   10fe2:	66ed                	lui	a3,0x1b
   10fe4:	0d068693          	add	a3,a3,208 # 1b0d0 <__clzdi2+0xae>
   10fe8:	2785                	addw	a5,a5,1
   10fea:	e014                	sd	a3,0(s0)
   10fec:	0b85                	add	s7,s7,1
   10fee:	4685                	li	a3,1
   10ff0:	e414                	sd	a3,8(s0)
   10ff2:	10f12423          	sw	a5,264(sp)
   10ff6:	0007869b          	sext.w	a3,a5
   10ffa:	ea5e                	sd	s7,272(sp)
   10ffc:	479d                	li	a5,7
   10ffe:	0441                	add	s0,s0,16
   11000:	22d7c7e3          	blt	a5,a3,11a2e <_svfprintf_r+0x1174>
   11004:	47ee                	lw	a5,216(sp)
   11006:	7762                	ld	a4,56(sp)
   11008:	62e7d363          	bge	a5,a4,1162e <_svfprintf_r+0xd74>
   1100c:	66e6                	ld	a3,88(sp)
   1100e:	10812783          	lw	a5,264(sp)
   11012:	7606                	ld	a2,96(sp)
   11014:	01768733          	add	a4,a3,s7
   11018:	2785                	addw	a5,a5,1
   1101a:	e414                	sd	a3,8(s0)
   1101c:	e010                	sd	a2,0(s0)
   1101e:	0007869b          	sext.w	a3,a5
   11022:	10f12423          	sw	a5,264(sp)
   11026:	ea3a                	sd	a4,272(sp)
   11028:	479d                	li	a5,7
   1102a:	0441                	add	s0,s0,16
   1102c:	72d7cc63          	blt	a5,a3,11764 <_svfprintf_r+0xeaa>
   11030:	77e2                	ld	a5,56(sp)
   11032:	fff78c9b          	addw	s9,a5,-1
   11036:	ab9051e3          	blez	s9,10ad8 <_svfprintf_r+0x21e>
   1103a:	6f6d                	lui	t5,0x1b
   1103c:	46c1                	li	a3,16
   1103e:	10812783          	lw	a5,264(sp)
   11042:	2d8f0b93          	add	s7,t5,728 # 1b2d8 <zeroes.0>
   11046:	1f96dfe3          	bge	a3,s9,11a44 <_svfprintf_r+0x118a>
   1104a:	6a82                	ld	s5,0(sp)
   1104c:	4d41                	li	s10,16
   1104e:	4d9d                	li	s11,7
   11050:	a021                	j	11058 <_svfprintf_r+0x79e>
   11052:	3cc1                	addw	s9,s9,-16
   11054:	1f9d58e3          	bge	s10,s9,11a44 <_svfprintf_r+0x118a>
   11058:	2785                	addw	a5,a5,1
   1105a:	0741                	add	a4,a4,16
   1105c:	01743023          	sd	s7,0(s0)
   11060:	01a43423          	sd	s10,8(s0)
   11064:	ea3a                	sd	a4,272(sp)
   11066:	10f12423          	sw	a5,264(sp)
   1106a:	0441                	add	s0,s0,16
   1106c:	fefdd3e3          	bge	s11,a5,11052 <_svfprintf_r+0x798>
   11070:	0210                	add	a2,sp,256
   11072:	85d6                	mv	a1,s5
   11074:	854e                	mv	a0,s3
   11076:	7d3040ef          	jal	16048 <__ssprint_r>
   1107a:	1c051663          	bnez	a0,11246 <_svfprintf_r+0x98c>
   1107e:	6752                	ld	a4,272(sp)
   11080:	10812783          	lw	a5,264(sp)
   11084:	0300                	add	s0,sp,384
   11086:	b7f1                	j	11052 <_svfprintf_r+0x798>
   11088:	8cca                	mv	s9,s2
   1108a:	4705                	li	a4,1
   1108c:	26e78463          	beq	a5,a4,112f4 <_svfprintf_r+0xa3a>
   11090:	4709                	li	a4,2
   11092:	04e78963          	beq	a5,a4,110e4 <_svfprintf_r+0x82a>
   11096:	17c10a93          	add	s5,sp,380
   1109a:	8b56                	mv	s6,s5
   1109c:	007bf713          	and	a4,s7,7
   110a0:	03070713          	add	a4,a4,48
   110a4:	feeb0fa3          	sb	a4,-1(s6)
   110a8:	003bdb93          	srl	s7,s7,0x3
   110ac:	865a                	mv	a2,s6
   110ae:	1b7d                	add	s6,s6,-1
   110b0:	fe0b96e3          	bnez	s7,1109c <_svfprintf_r+0x7e2>
   110b4:	001cf593          	and	a1,s9,1
   110b8:	c5b1                	beqz	a1,11104 <_svfprintf_r+0x84a>
   110ba:	03000593          	li	a1,48
   110be:	04b70363          	beq	a4,a1,11104 <_svfprintf_r+0x84a>
   110c2:	1679                	add	a2,a2,-2
   110c4:	febb0fa3          	sb	a1,-1(s6)
   110c8:	40ca8dbb          	subw	s11,s5,a2
   110cc:	8966                	mv	s2,s9
   110ce:	8b32                	mv	s6,a2
   110d0:	b3e5                	j	10eb8 <_svfprintf_r+0x5fe>
   110d2:	4705                	li	a4,1
   110d4:	00e79463          	bne	a5,a4,110dc <_svfprintf_r+0x822>
   110d8:	0a00106f          	j	12178 <_svfprintf_r+0x18be>
   110dc:	4709                	li	a4,2
   110de:	8cca                	mv	s9,s2
   110e0:	fae79be3          	bne	a5,a4,11096 <_svfprintf_r+0x7dc>
   110e4:	7726                	ld	a4,104(sp)
   110e6:	17c10a93          	add	s5,sp,380
   110ea:	8b56                	mv	s6,s5
   110ec:	00fbf793          	and	a5,s7,15
   110f0:	97ba                	add	a5,a5,a4
   110f2:	0007c783          	lbu	a5,0(a5)
   110f6:	004bdb93          	srl	s7,s7,0x4
   110fa:	1b7d                	add	s6,s6,-1
   110fc:	00fb0023          	sb	a5,0(s6)
   11100:	fe0b96e3          	bnez	s7,110ec <_svfprintf_r+0x832>
   11104:	416a8dbb          	subw	s11,s5,s6
   11108:	8966                	mv	s2,s9
   1110a:	b37d                	j	10eb8 <_svfprintf_r+0x5fe>
   1110c:	418a0abb          	subw	s5,s4,s8
   11110:	99505be3          	blez	s5,10aa6 <_svfprintf_r+0x1ec>
   11114:	6f6d                	lui	t5,0x1b
   11116:	45c1                	li	a1,16
   11118:	875e                	mv	a4,s7
   1111a:	10812603          	lw	a2,264(sp)
   1111e:	2d8f0b93          	add	s7,t5,728 # 1b2d8 <zeroes.0>
   11122:	0755d063          	bge	a1,s5,11182 <_svfprintf_r+0x8c8>
   11126:	e926                	sd	s1,144(sp)
   11128:	4fc1                	li	t6,16
   1112a:	84d6                	mv	s1,s5
   1112c:	4c9d                	li	s9,7
   1112e:	8ad2                	mv	s5,s4
   11130:	8a4a                	mv	s4,s2
   11132:	895e                	mv	s2,s7
   11134:	8bda                	mv	s7,s6
   11136:	8b1a                	mv	s6,t1
   11138:	a021                	j	11140 <_svfprintf_r+0x886>
   1113a:	34c1                	addw	s1,s1,-16
   1113c:	029fdc63          	bge	t6,s1,11174 <_svfprintf_r+0x8ba>
   11140:	2605                	addw	a2,a2,1
   11142:	0741                	add	a4,a4,16
   11144:	01243023          	sd	s2,0(s0)
   11148:	01f43423          	sd	t6,8(s0)
   1114c:	ea3a                	sd	a4,272(sp)
   1114e:	10c12423          	sw	a2,264(sp)
   11152:	0441                	add	s0,s0,16
   11154:	feccd3e3          	bge	s9,a2,1113a <_svfprintf_r+0x880>
   11158:	6582                	ld	a1,0(sp)
   1115a:	0210                	add	a2,sp,256
   1115c:	854e                	mv	a0,s3
   1115e:	6eb040ef          	jal	16048 <__ssprint_r>
   11162:	e175                	bnez	a0,11246 <_svfprintf_r+0x98c>
   11164:	4fc1                	li	t6,16
   11166:	34c1                	addw	s1,s1,-16
   11168:	6752                	ld	a4,272(sp)
   1116a:	10812603          	lw	a2,264(sp)
   1116e:	0300                	add	s0,sp,384
   11170:	fc9fc8e3          	blt	t6,s1,11140 <_svfprintf_r+0x886>
   11174:	835a                	mv	t1,s6
   11176:	8b5e                	mv	s6,s7
   11178:	8bca                	mv	s7,s2
   1117a:	8952                	mv	s2,s4
   1117c:	8a56                	mv	s4,s5
   1117e:	8aa6                	mv	s5,s1
   11180:	64ca                	ld	s1,144(sp)
   11182:	0016059b          	addw	a1,a2,1
   11186:	9756                	add	a4,a4,s5
   11188:	01743023          	sd	s7,0(s0)
   1118c:	01543423          	sd	s5,8(s0)
   11190:	ea3a                	sd	a4,272(sp)
   11192:	10b12423          	sw	a1,264(sp)
   11196:	461d                	li	a2,7
   11198:	0eb647e3          	blt	a2,a1,11a86 <_svfprintf_r+0x11cc>
   1119c:	41b30cbb          	subw	s9,t1,s11
   111a0:	0441                	add	s0,s0,16
   111a2:	8bba                	mv	s7,a4
   111a4:	919055e3          	blez	s9,10aae <_svfprintf_r+0x1f4>
   111a8:	6f6d                	lui	t5,0x1b
   111aa:	45c1                	li	a1,16
   111ac:	875e                	mv	a4,s7
   111ae:	10812603          	lw	a2,264(sp)
   111b2:	2d8f0b93          	add	s7,t5,728 # 1b2d8 <zeroes.0>
   111b6:	0795d163          	bge	a1,s9,11218 <_svfprintf_r+0x95e>
   111ba:	6ba2                	ld	s7,8(sp)
   111bc:	48c1                	li	a7,16
   111be:	4a9d                	li	s5,7
   111c0:	87de                	mv	a5,s7
   111c2:	8bda                	mv	s7,s6
   111c4:	8b52                	mv	s6,s4
   111c6:	8a4a                	mv	s4,s2
   111c8:	8926                	mv	s2,s1
   111ca:	84e6                	mv	s1,s9
   111cc:	8cbe                	mv	s9,a5
   111ce:	a021                	j	111d6 <_svfprintf_r+0x91c>
   111d0:	34c1                	addw	s1,s1,-16
   111d2:	0298dc63          	bge	a7,s1,1120a <_svfprintf_r+0x950>
   111d6:	66a2                	ld	a3,8(sp)
   111d8:	2605                	addw	a2,a2,1
   111da:	0741                	add	a4,a4,16
   111dc:	e014                	sd	a3,0(s0)
   111de:	01143423          	sd	a7,8(s0)
   111e2:	ea3a                	sd	a4,272(sp)
   111e4:	10c12423          	sw	a2,264(sp)
   111e8:	0441                	add	s0,s0,16
   111ea:	fecad3e3          	bge	s5,a2,111d0 <_svfprintf_r+0x916>
   111ee:	6582                	ld	a1,0(sp)
   111f0:	0210                	add	a2,sp,256
   111f2:	854e                	mv	a0,s3
   111f4:	655040ef          	jal	16048 <__ssprint_r>
   111f8:	e539                	bnez	a0,11246 <_svfprintf_r+0x98c>
   111fa:	48c1                	li	a7,16
   111fc:	34c1                	addw	s1,s1,-16
   111fe:	6752                	ld	a4,272(sp)
   11200:	10812603          	lw	a2,264(sp)
   11204:	0300                	add	s0,sp,384
   11206:	fc98c8e3          	blt	a7,s1,111d6 <_svfprintf_r+0x91c>
   1120a:	87e6                	mv	a5,s9
   1120c:	8ca6                	mv	s9,s1
   1120e:	84ca                	mv	s1,s2
   11210:	8952                	mv	s2,s4
   11212:	8a5a                	mv	s4,s6
   11214:	8b5e                	mv	s6,s7
   11216:	8bbe                	mv	s7,a5
   11218:	0016059b          	addw	a1,a2,1
   1121c:	9766                	add	a4,a4,s9
   1121e:	01743023          	sd	s7,0(s0)
   11222:	01943423          	sd	s9,8(s0)
   11226:	ea3a                	sd	a4,272(sp)
   11228:	10b12423          	sw	a1,264(sp)
   1122c:	461d                	li	a2,7
   1122e:	32b64e63          	blt	a2,a1,1156a <_svfprintf_r+0xcb0>
   11232:	0441                	add	s0,s0,16
   11234:	8bba                	mv	s7,a4
   11236:	b8a5                	j	10aae <_svfprintf_r+0x1f4>
   11238:	6582                	ld	a1,0(sp)
   1123a:	0210                	add	a2,sp,256
   1123c:	854e                	mv	a0,s3
   1123e:	60b040ef          	jal	16048 <__ssprint_r>
   11242:	8a050ce3          	beqz	a0,10afa <_svfprintf_r+0x240>
   11246:	65e2                	ld	a1,24(sp)
   11248:	8c058be3          	beqz	a1,10b1e <_svfprintf_r+0x264>
   1124c:	6546                	ld	a0,80(sp)
   1124e:	35c010ef          	jal	125aa <_free_r>
   11252:	b0f1                	j	10b1e <_svfprintf_r+0x264>
   11254:	68ed                	lui	a7,0x1b
   11256:	4541                	li	a0,16
   11258:	65d2                	ld	a1,272(sp)
   1125a:	10812603          	lw	a2,264(sp)
   1125e:	2e888b93          	add	s7,a7,744 # 1b2e8 <blanks.1>
   11262:	04e55e63          	bge	a0,a4,112be <_svfprintf_r+0xa04>
   11266:	e926                	sd	s1,144(sp)
   11268:	87a2                	mv	a5,s0
   1126a:	84de                	mv	s1,s7
   1126c:	4f41                	li	t5,16
   1126e:	8bda                	mv	s7,s6
   11270:	439d                	li	t2,7
   11272:	843a                	mv	s0,a4
   11274:	8b1a                	mv	s6,t1
   11276:	a021                	j	1127e <_svfprintf_r+0x9c4>
   11278:	3441                	addw	s0,s0,-16
   1127a:	028f5c63          	bge	t5,s0,112b2 <_svfprintf_r+0x9f8>
   1127e:	2605                	addw	a2,a2,1
   11280:	05c1                	add	a1,a1,16
   11282:	e384                	sd	s1,0(a5)
   11284:	01e7b423          	sd	t5,8(a5)
   11288:	ea2e                	sd	a1,272(sp)
   1128a:	10c12423          	sw	a2,264(sp)
   1128e:	07c1                	add	a5,a5,16
   11290:	fec3d4e3          	bge	t2,a2,11278 <_svfprintf_r+0x9be>
   11294:	6582                	ld	a1,0(sp)
   11296:	0210                	add	a2,sp,256
   11298:	854e                	mv	a0,s3
   1129a:	5af040ef          	jal	16048 <__ssprint_r>
   1129e:	f545                	bnez	a0,11246 <_svfprintf_r+0x98c>
   112a0:	4f41                	li	t5,16
   112a2:	3441                	addw	s0,s0,-16
   112a4:	65d2                	ld	a1,272(sp)
   112a6:	10812603          	lw	a2,264(sp)
   112aa:	031c                	add	a5,sp,384
   112ac:	439d                	li	t2,7
   112ae:	fc8f48e3          	blt	t5,s0,1127e <_svfprintf_r+0x9c4>
   112b2:	835a                	mv	t1,s6
   112b4:	8b5e                	mv	s6,s7
   112b6:	8ba6                	mv	s7,s1
   112b8:	64ca                	ld	s1,144(sp)
   112ba:	8722                	mv	a4,s0
   112bc:	843e                	mv	s0,a5
   112be:	95ba                	add	a1,a1,a4
   112c0:	2605                	addw	a2,a2,1
   112c2:	e418                	sd	a4,8(s0)
   112c4:	01743023          	sd	s7,0(s0)
   112c8:	ea2e                	sd	a1,272(sp)
   112ca:	10c12423          	sw	a2,264(sp)
   112ce:	0006059b          	sext.w	a1,a2
   112d2:	471d                	li	a4,7
   112d4:	0441                	add	s0,s0,16
   112d6:	f6b75b63          	bge	a4,a1,10a4c <_svfprintf_r+0x192>
   112da:	6582                	ld	a1,0(sp)
   112dc:	0210                	add	a2,sp,256
   112de:	854e                	mv	a0,s3
   112e0:	e91a                	sd	t1,144(sp)
   112e2:	567040ef          	jal	16048 <__ssprint_r>
   112e6:	f125                	bnez	a0,11246 <_svfprintf_r+0x98c>
   112e8:	634a                	ld	t1,144(sp)
   112ea:	0300                	add	s0,sp,384
   112ec:	f60ff06f          	j	10a4c <_svfprintf_r+0x192>
   112f0:	8cca                	mv	s9,s2
   112f2:	f03a                	sd	a4,32(sp)
   112f4:	47a5                	li	a5,9
   112f6:	3d77e563          	bltu	a5,s7,116c0 <_svfprintf_r+0xe06>
   112fa:	030b8b9b          	addw	s7,s7,48
   112fe:	17710da3          	sb	s7,379(sp)
   11302:	8966                	mv	s2,s9
   11304:	4d85                	li	s11,1
   11306:	17b10b13          	add	s6,sp,379
   1130a:	b67d                	j	10eb8 <_svfprintf_r+0x5fe>
   1130c:	6582                	ld	a1,0(sp)
   1130e:	0210                	add	a2,sp,256
   11310:	854e                	mv	a0,s3
   11312:	e91a                	sd	t1,144(sp)
   11314:	535040ef          	jal	16048 <__ssprint_r>
   11318:	f51d                	bnez	a0,11246 <_svfprintf_r+0x98c>
   1131a:	6bd2                	ld	s7,272(sp)
   1131c:	634a                	ld	t1,144(sp)
   1131e:	0300                	add	s0,sp,384
   11320:	f7eff06f          	j	10a9e <_svfprintf_r+0x1e4>
   11324:	68ed                	lui	a7,0x1b
   11326:	46c1                	li	a3,16
   11328:	10812783          	lw	a5,264(sp)
   1132c:	2e888b93          	add	s7,a7,744 # 1b2e8 <blanks.1>
   11330:	0526d363          	bge	a3,s2,11376 <_svfprintf_r+0xabc>
   11334:	6a82                	ld	s5,0(sp)
   11336:	4cc1                	li	s9,16
   11338:	4d1d                	li	s10,7
   1133a:	a021                	j	11342 <_svfprintf_r+0xa88>
   1133c:	3941                	addw	s2,s2,-16
   1133e:	032cdc63          	bge	s9,s2,11376 <_svfprintf_r+0xabc>
   11342:	2785                	addw	a5,a5,1
   11344:	0741                	add	a4,a4,16
   11346:	01743023          	sd	s7,0(s0)
   1134a:	01943423          	sd	s9,8(s0)
   1134e:	ea3a                	sd	a4,272(sp)
   11350:	10f12423          	sw	a5,264(sp)
   11354:	0441                	add	s0,s0,16
   11356:	fefd53e3          	bge	s10,a5,1133c <_svfprintf_r+0xa82>
   1135a:	0210                	add	a2,sp,256
   1135c:	85d6                	mv	a1,s5
   1135e:	854e                	mv	a0,s3
   11360:	4e9040ef          	jal	16048 <__ssprint_r>
   11364:	ee0511e3          	bnez	a0,11246 <_svfprintf_r+0x98c>
   11368:	3941                	addw	s2,s2,-16
   1136a:	6752                	ld	a4,272(sp)
   1136c:	10812783          	lw	a5,264(sp)
   11370:	0300                	add	s0,sp,384
   11372:	fd2cc8e3          	blt	s9,s2,11342 <_svfprintf_r+0xa88>
   11376:	0017869b          	addw	a3,a5,1
   1137a:	974a                	add	a4,a4,s2
   1137c:	01743023          	sd	s7,0(s0)
   11380:	01243423          	sd	s2,8(s0)
   11384:	ea3a                	sd	a4,272(sp)
   11386:	10d12423          	sw	a3,264(sp)
   1138a:	479d                	li	a5,7
   1138c:	f4d7de63          	bge	a5,a3,10ae8 <_svfprintf_r+0x22e>
   11390:	6582                	ld	a1,0(sp)
   11392:	0210                	add	a2,sp,256
   11394:	854e                	mv	a0,s3
   11396:	4b3040ef          	jal	16048 <__ssprint_r>
   1139a:	ea0516e3          	bnez	a0,11246 <_svfprintf_r+0x98c>
   1139e:	6752                	ld	a4,272(sp)
   113a0:	f48ff06f          	j	10ae8 <_svfprintf_r+0x22e>
   113a4:	466e                	lw	a2,216(sp)
   113a6:	5ec05363          	blez	a2,1198c <_svfprintf_r+0x10d2>
   113aa:	77e2                	ld	a5,56(sp)
   113ac:	7742                	ld	a4,48(sp)
   113ae:	00fb0ab3          	add	s5,s6,a5
   113b2:	86be                	mv	a3,a5
   113b4:	2ef74c63          	blt	a4,a5,116ac <_svfprintf_r+0xdf2>
   113b8:	00068d1b          	sext.w	s10,a3
   113bc:	03a05263          	blez	s10,113e0 <_svfprintf_r+0xb26>
   113c0:	10812603          	lw	a2,264(sp)
   113c4:	9bea                	add	s7,s7,s10
   113c6:	01643023          	sd	s6,0(s0)
   113ca:	0016059b          	addw	a1,a2,1
   113ce:	01a43423          	sd	s10,8(s0)
   113d2:	ea5e                	sd	s7,272(sp)
   113d4:	10b12423          	sw	a1,264(sp)
   113d8:	461d                	li	a2,7
   113da:	0441                	add	s0,s0,16
   113dc:	06b647e3          	blt	a2,a1,11c4a <_svfprintf_r+0x1390>
   113e0:	fffd4613          	not	a2,s10
   113e4:	77c2                	ld	a5,48(sp)
   113e6:	967d                	sra	a2,a2,0x3f
   113e8:	00cd76b3          	and	a3,s10,a2
   113ec:	40d78d3b          	subw	s10,a5,a3
   113f0:	3da04d63          	bgtz	s10,117ca <_svfprintf_r+0xf10>
   113f4:	77c2                	ld	a5,48(sp)
   113f6:	40097693          	and	a3,s2,1024
   113fa:	9b3e                	add	s6,s6,a5
   113fc:	42069763          	bnez	a3,1182a <_svfprintf_r+0xf70>
   11400:	46ee                	lw	a3,216(sp)
   11402:	77e2                	ld	a5,56(sp)
   11404:	00f6c663          	blt	a3,a5,11410 <_svfprintf_r+0xb56>
   11408:	00197613          	and	a2,s2,1
   1140c:	04060ce3          	beqz	a2,11c64 <_svfprintf_r+0x13aa>
   11410:	10812603          	lw	a2,264(sp)
   11414:	67e6                	ld	a5,88(sp)
   11416:	7586                	ld	a1,96(sp)
   11418:	0441                	add	s0,s0,16
   1141a:	01778733          	add	a4,a5,s7
   1141e:	feb43823          	sd	a1,-16(s0)
   11422:	0016059b          	addw	a1,a2,1
   11426:	fef43c23          	sd	a5,-8(s0)
   1142a:	ea3a                	sd	a4,272(sp)
   1142c:	10b12423          	sw	a1,264(sp)
   11430:	461d                	li	a2,7
   11432:	4ab643e3          	blt	a2,a1,120d8 <_svfprintf_r+0x181e>
   11436:	77e2                	ld	a5,56(sp)
   11438:	416a8cb3          	sub	s9,s5,s6
   1143c:	000c859b          	sext.w	a1,s9
   11440:	40d7863b          	subw	a2,a5,a3
   11444:	00b65363          	bge	a2,a1,1144a <_svfprintf_r+0xb90>
   11448:	8cb2                	mv	s9,a2
   1144a:	2c81                	sext.w	s9,s9
   1144c:	03905163          	blez	s9,1146e <_svfprintf_r+0xbb4>
   11450:	10812683          	lw	a3,264(sp)
   11454:	9766                	add	a4,a4,s9
   11456:	01643023          	sd	s6,0(s0)
   1145a:	2685                	addw	a3,a3,1
   1145c:	01943423          	sd	s9,8(s0)
   11460:	ea3a                	sd	a4,272(sp)
   11462:	10d12423          	sw	a3,264(sp)
   11466:	479d                	li	a5,7
   11468:	0441                	add	s0,s0,16
   1146a:	4ed7c0e3          	blt	a5,a3,1214a <_svfprintf_r+0x1890>
   1146e:	fffcc793          	not	a5,s9
   11472:	97fd                	sra	a5,a5,0x3f
   11474:	00fcfcb3          	and	s9,s9,a5
   11478:	41960cbb          	subw	s9,a2,s9
   1147c:	e5905e63          	blez	s9,10ad8 <_svfprintf_r+0x21e>
   11480:	6f6d                	lui	t5,0x1b
   11482:	46c1                	li	a3,16
   11484:	10812783          	lw	a5,264(sp)
   11488:	2d8f0b93          	add	s7,t5,728 # 1b2d8 <zeroes.0>
   1148c:	5b96dc63          	bge	a3,s9,11a44 <_svfprintf_r+0x118a>
   11490:	6a82                	ld	s5,0(sp)
   11492:	4d41                	li	s10,16
   11494:	4d9d                	li	s11,7
   11496:	a021                	j	1149e <_svfprintf_r+0xbe4>
   11498:	3cc1                	addw	s9,s9,-16
   1149a:	5b9d5563          	bge	s10,s9,11a44 <_svfprintf_r+0x118a>
   1149e:	2785                	addw	a5,a5,1
   114a0:	0741                	add	a4,a4,16
   114a2:	01743023          	sd	s7,0(s0)
   114a6:	01a43423          	sd	s10,8(s0)
   114aa:	ea3a                	sd	a4,272(sp)
   114ac:	10f12423          	sw	a5,264(sp)
   114b0:	0441                	add	s0,s0,16
   114b2:	fefdd3e3          	bge	s11,a5,11498 <_svfprintf_r+0xbde>
   114b6:	0210                	add	a2,sp,256
   114b8:	85d6                	mv	a1,s5
   114ba:	854e                	mv	a0,s3
   114bc:	38d040ef          	jal	16048 <__ssprint_r>
   114c0:	d80513e3          	bnez	a0,11246 <_svfprintf_r+0x98c>
   114c4:	6752                	ld	a4,272(sp)
   114c6:	10812783          	lw	a5,264(sp)
   114ca:	0300                	add	s0,sp,384
   114cc:	b7f1                	j	11498 <_svfprintf_r+0xbde>
   114ce:	00197613          	and	a2,s2,1
   114d2:	f8061f63          	bnez	a2,10c70 <_svfprintf_r+0x3b6>
   114d6:	10812603          	lw	a2,264(sp)
   114da:	001b8d13          	add	s10,s7,1
   114de:	01643023          	sd	s6,0(s0)
   114e2:	0016079b          	addw	a5,a2,1
   114e6:	e414                	sd	a3,8(s0)
   114e8:	10f12423          	sw	a5,264(sp)
   114ec:	0007841b          	sext.w	s0,a5
   114f0:	ea6a                	sd	s10,272(sp)
   114f2:	479d                	li	a5,7
   114f4:	fe87da63          	bge	a5,s0,10ce8 <_svfprintf_r+0x42e>
   114f8:	6582                	ld	a1,0(sp)
   114fa:	0210                	add	a2,sp,256
   114fc:	854e                	mv	a0,s3
   114fe:	34b040ef          	jal	16048 <__ssprint_r>
   11502:	d40512e3          	bnez	a0,11246 <_svfprintf_r+0x98c>
   11506:	6d52                	ld	s10,272(sp)
   11508:	10812403          	lw	s0,264(sp)
   1150c:	18010c93          	add	s9,sp,384
   11510:	fd8ff06f          	j	10ce8 <_svfprintf_r+0x42e>
   11514:	7762                	ld	a4,56(sp)
   11516:	4785                	li	a5,1
   11518:	fce7d863          	bge	a5,a4,10ce8 <_svfprintf_r+0x42e>
   1151c:	6f6d                	lui	t5,0x1b
   1151e:	47c5                	li	a5,17
   11520:	2d8f0b93          	add	s7,t5,728 # 1b2d8 <zeroes.0>
   11524:	5ce7da63          	bge	a5,a4,11af8 <_svfprintf_r+0x123e>
   11528:	6a82                	ld	s5,0(sp)
   1152a:	4741                	li	a4,16
   1152c:	4b1d                	li	s6,7
   1152e:	a021                	j	11536 <_svfprintf_r+0xc7c>
   11530:	3dc1                	addw	s11,s11,-16
   11532:	5db75363          	bge	a4,s11,11af8 <_svfprintf_r+0x123e>
   11536:	2405                	addw	s0,s0,1
   11538:	0d41                	add	s10,s10,16
   1153a:	017cb023          	sd	s7,0(s9)
   1153e:	00ecb423          	sd	a4,8(s9)
   11542:	ea6a                	sd	s10,272(sp)
   11544:	10812423          	sw	s0,264(sp)
   11548:	0cc1                	add	s9,s9,16
   1154a:	fe8b53e3          	bge	s6,s0,11530 <_svfprintf_r+0xc76>
   1154e:	0210                	add	a2,sp,256
   11550:	85d6                	mv	a1,s5
   11552:	854e                	mv	a0,s3
   11554:	2f5040ef          	jal	16048 <__ssprint_r>
   11558:	ce0517e3          	bnez	a0,11246 <_svfprintf_r+0x98c>
   1155c:	6d52                	ld	s10,272(sp)
   1155e:	10812403          	lw	s0,264(sp)
   11562:	18010c93          	add	s9,sp,384
   11566:	4741                	li	a4,16
   11568:	b7e1                	j	11530 <_svfprintf_r+0xc76>
   1156a:	6582                	ld	a1,0(sp)
   1156c:	0210                	add	a2,sp,256
   1156e:	854e                	mv	a0,s3
   11570:	2d9040ef          	jal	16048 <__ssprint_r>
   11574:	cc0519e3          	bnez	a0,11246 <_svfprintf_r+0x98c>
   11578:	6bd2                	ld	s7,272(sp)
   1157a:	0300                	add	s0,sp,384
   1157c:	d32ff06f          	j	10aae <_svfprintf_r+0x1f4>
   11580:	01097793          	and	a5,s2,16
   11584:	e7e5                	bnez	a5,1166c <_svfprintf_r+0xdb2>
   11586:	7682                	ld	a3,32(sp)
   11588:	04097793          	and	a5,s2,64
   1158c:	0006ab83          	lw	s7,0(a3)
   11590:	5e078b63          	beqz	a5,11b86 <_svfprintf_r+0x12cc>
   11594:	1bc2                	sll	s7,s7,0x30
   11596:	030bdb93          	srl	s7,s7,0x30
   1159a:	b255                	j	10f3e <_svfprintf_r+0x684>
   1159c:	010cf793          	and	a5,s9,16
   115a0:	efdd                	bnez	a5,1165e <_svfprintf_r+0xda4>
   115a2:	7682                	ld	a3,32(sp)
   115a4:	040cf793          	and	a5,s9,64
   115a8:	0006ab83          	lw	s7,0(a3)
   115ac:	5e078563          	beqz	a5,11b96 <_svfprintf_r+0x12dc>
   115b0:	1bc2                	sll	s7,s7,0x30
   115b2:	030bdb93          	srl	s7,s7,0x30
   115b6:	f03a                	sd	a4,32(sp)
   115b8:	4785                	li	a5,1
   115ba:	b8d1                	j	10e8e <_svfprintf_r+0x5d4>
   115bc:	01097793          	and	a5,s2,16
   115c0:	ebd9                	bnez	a5,11656 <_svfprintf_r+0xd9c>
   115c2:	7682                	ld	a3,32(sp)
   115c4:	04097793          	and	a5,s2,64
   115c8:	0006ab83          	lw	s7,0(a3)
   115cc:	5c078f63          	beqz	a5,11baa <_svfprintf_r+0x12f0>
   115d0:	010b9b9b          	sllw	s7,s7,0x10
   115d4:	410bdb9b          	sraw	s7,s7,0x10
   115d8:	87de                	mv	a5,s7
   115da:	9207d3e3          	bgez	a5,10f00 <_svfprintf_r+0x646>
   115de:	f03a                	sd	a4,32(sp)
   115e0:	41700bb3          	neg	s7,s7
   115e4:	8cca                	mv	s9,s2
   115e6:	02d00713          	li	a4,45
   115ea:	4785                	li	a5,1
   115ec:	b055                	j	10e90 <_svfprintf_r+0x5d6>
   115ee:	4d81                	li	s11,0
   115f0:	17c10b13          	add	s6,sp,380
   115f4:	b0d1                	j	10eb8 <_svfprintf_r+0x5fe>
   115f6:	6582                	ld	a1,0(sp)
   115f8:	0210                	add	a2,sp,256
   115fa:	854e                	mv	a0,s3
   115fc:	24d040ef          	jal	16048 <__ssprint_r>
   11600:	c40513e3          	bnez	a0,11246 <_svfprintf_r+0x98c>
   11604:	6752                	ld	a4,272(sp)
   11606:	10812683          	lw	a3,264(sp)
   1160a:	18010c93          	add	s9,sp,384
   1160e:	e84ff06f          	j	10c92 <_svfprintf_r+0x3d8>
   11612:	6582                	ld	a1,0(sp)
   11614:	0210                	add	a2,sp,256
   11616:	854e                	mv	a0,s3
   11618:	231040ef          	jal	16048 <__ssprint_r>
   1161c:	c20515e3          	bnez	a0,11246 <_svfprintf_r+0x98c>
   11620:	6d52                	ld	s10,272(sp)
   11622:	10812403          	lw	s0,264(sp)
   11626:	18010c93          	add	s9,sp,384
   1162a:	e8aff06f          	j	10cb4 <_svfprintf_r+0x3fa>
   1162e:	00197793          	and	a5,s2,1
   11632:	875e                	mv	a4,s7
   11634:	ca078263          	beqz	a5,10ad8 <_svfprintf_r+0x21e>
   11638:	bad1                	j	1100c <_svfprintf_r+0x752>
   1163a:	8356                	mv	t1,s5
   1163c:	b07d                	j	10eea <_svfprintf_r+0x630>
   1163e:	0004ce03          	lbu	t3,0(s1)
   11642:	f03e                	sd	a5,32(sp)
   11644:	b78ff06f          	j	109bc <_svfprintf_r+0x102>
   11648:	03000793          	li	a5,48
   1164c:	16f10da3          	sb	a5,379(sp)
   11650:	17b10b13          	add	s6,sp,379
   11654:	b095                	j	10eb8 <_svfprintf_r+0x5fe>
   11656:	7782                	ld	a5,32(sp)
   11658:	639c                	ld	a5,0(a5)
   1165a:	8bbe                	mv	s7,a5
   1165c:	b045                	j	10efc <_svfprintf_r+0x642>
   1165e:	7782                	ld	a5,32(sp)
   11660:	f03a                	sd	a4,32(sp)
   11662:	0007bb83          	ld	s7,0(a5)
   11666:	4785                	li	a5,1
   11668:	827ff06f          	j	10e8e <_svfprintf_r+0x5d4>
   1166c:	7782                	ld	a5,32(sp)
   1166e:	0007bb83          	ld	s7,0(a5)
   11672:	b0f1                	j	10f3e <_svfprintf_r+0x684>
   11674:	01097793          	and	a5,s2,16
   11678:	8e0795e3          	bnez	a5,10f62 <_svfprintf_r+0x6a8>
   1167c:	04097793          	and	a5,s2,64
   11680:	78079263          	bnez	a5,11e04 <_svfprintf_r+0x154a>
   11684:	20097913          	and	s2,s2,512
   11688:	67c2                	ld	a5,16(sp)
   1168a:	440902e3          	beqz	s2,122ce <_svfprintf_r+0x1a14>
   1168e:	00f70023          	sb	a5,0(a4)
   11692:	b8d1                	j	10f66 <_svfprintf_r+0x6ac>
   11694:	7782                	ld	a5,32(sp)
   11696:	ec56                	sd	s5,24(sp)
   11698:	2388                	fld	fa0,0(a5)
   1169a:	00878a93          	add	s5,a5,8
   1169e:	f056                	sd	s5,32(sp)
   116a0:	644090ef          	jal	1ace4 <__extenddftf2>
   116a4:	6362                	ld	t1,24(sp)
   116a6:	872a                	mv	a4,a0
   116a8:	d0eff06f          	j	10bb6 <_svfprintf_r+0x2fc>
   116ac:	86ba                	mv	a3,a4
   116ae:	00068d1b          	sext.w	s10,a3
   116b2:	d1a047e3          	bgtz	s10,113c0 <_svfprintf_r+0xb06>
   116b6:	b32d                	j	113e0 <_svfprintf_r+0xb26>
   116b8:	f03a                	sd	a4,32(sp)
   116ba:	47a5                	li	a5,9
   116bc:	c377ffe3          	bgeu	a5,s7,112fa <_svfprintf_r+0xa40>
   116c0:	17c10a93          	add	s5,sp,380
   116c4:	7866                	ld	a6,120(sp)
   116c6:	400cf793          	and	a5,s9,1024
   116ca:	4681                	li	a3,0
   116cc:	85d6                	mv	a1,s5
   116ce:	4929                	li	s2,10
   116d0:	4da5                	li	s11,9
   116d2:	0ff00c13          	li	s8,255
   116d6:	a039                	j	116e4 <_svfprintf_r+0xe2a>
   116d8:	032bd733          	divu	a4,s7,s2
   116dc:	037df663          	bgeu	s11,s7,11708 <_svfprintf_r+0xe4e>
   116e0:	8bba                	mv	s7,a4
   116e2:	85da                	mv	a1,s6
   116e4:	fff58b13          	add	s6,a1,-1
   116e8:	2685                	addw	a3,a3,1
   116ea:	032bf733          	remu	a4,s7,s2
   116ee:	0307071b          	addw	a4,a4,48
   116f2:	fee58fa3          	sb	a4,-1(a1)
   116f6:	d3ed                	beqz	a5,116d8 <_svfprintf_r+0xe1e>
   116f8:	00084703          	lbu	a4,0(a6)
   116fc:	fce69ee3          	bne	a3,a4,116d8 <_svfprintf_r+0xe1e>
   11700:	fd870ce3          	beq	a4,s8,116d8 <_svfprintf_r+0xe1e>
   11704:	517de763          	bltu	s11,s7,11c12 <_svfprintf_r+0x1358>
   11708:	fcc2                	sd	a6,120(sp)
   1170a:	fc36                	sd	a3,56(sp)
   1170c:	416a8dbb          	subw	s11,s5,s6
   11710:	8966                	mv	s2,s9
   11712:	fa6ff06f          	j	10eb8 <_svfprintf_r+0x5fe>
   11716:	67ed                	lui	a5,0x1b
   11718:	09878793          	add	a5,a5,152 # 1b098 <__clzdi2+0x76>
   1171c:	8356                	mv	t1,s5
   1171e:	f4be                	sd	a5,104(sp)
   11720:	7682                	ld	a3,32(sp)
   11722:	02097793          	and	a5,s2,32
   11726:	00868713          	add	a4,a3,8
   1172a:	22078e63          	beqz	a5,11966 <_svfprintf_r+0x10ac>
   1172e:	0006bb83          	ld	s7,0(a3)
   11732:	00197793          	and	a5,s2,1
   11736:	cf81                	beqz	a5,1174e <_svfprintf_r+0xe94>
   11738:	000b8b63          	beqz	s7,1174e <_svfprintf_r+0xe94>
   1173c:	00296913          	or	s2,s2,2
   11740:	03000793          	li	a5,48
   11744:	0cf10823          	sb	a5,208(sp)
   11748:	0da108a3          	sb	s10,209(sp)
   1174c:	2901                	sext.w	s2,s2
   1174e:	bff97c93          	and	s9,s2,-1025
   11752:	2c81                	sext.w	s9,s9
   11754:	f03a                	sd	a4,32(sp)
   11756:	4789                	li	a5,2
   11758:	f36ff06f          	j	10e8e <_svfprintf_r+0x5d4>
   1175c:	8356                	mv	t1,s5
   1175e:	8cca                	mv	s9,s2
   11760:	f18ff06f          	j	10e78 <_svfprintf_r+0x5be>
   11764:	6582                	ld	a1,0(sp)
   11766:	0210                	add	a2,sp,256
   11768:	854e                	mv	a0,s3
   1176a:	0df040ef          	jal	16048 <__ssprint_r>
   1176e:	ac051ce3          	bnez	a0,11246 <_svfprintf_r+0x98c>
   11772:	6752                	ld	a4,272(sp)
   11774:	0300                	add	s0,sp,384
   11776:	b86d                	j	11030 <_svfprintf_r+0x776>
   11778:	67ed                	lui	a5,0x1b
   1177a:	0b078793          	add	a5,a5,176 # 1b0b0 <__clzdi2+0x8e>
   1177e:	8356                	mv	t1,s5
   11780:	f4be                	sd	a5,104(sp)
   11782:	bf79                	j	11720 <_svfprintf_r+0xe66>
   11784:	8356                	mv	t1,s5
   11786:	fa6ff06f          	j	10f2c <_svfprintf_r+0x672>
   1178a:	20096913          	or	s2,s2,512
   1178e:	0014ce03          	lbu	t3,1(s1)
   11792:	2901                	sext.w	s2,s2
   11794:	0485                	add	s1,s1,1
   11796:	a26ff06f          	j	109bc <_svfprintf_r+0x102>
   1179a:	02096913          	or	s2,s2,32
   1179e:	0014ce03          	lbu	t3,1(s1)
   117a2:	2901                	sext.w	s2,s2
   117a4:	0485                	add	s1,s1,1
   117a6:	a16ff06f          	j	109bc <_svfprintf_r+0x102>
   117aa:	6546                	ld	a0,80(sp)
   117ac:	04000593          	li	a1,64
   117b0:	1fa030ef          	jal	149aa <_malloc_r>
   117b4:	6782                	ld	a5,0(sp)
   117b6:	e388                	sd	a0,0(a5)
   117b8:	ef88                	sd	a0,24(a5)
   117ba:	2e050ae3          	beqz	a0,122ae <_svfprintf_r+0x19f4>
   117be:	6782                	ld	a5,0(sp)
   117c0:	04000713          	li	a4,64
   117c4:	d398                	sw	a4,32(a5)
   117c6:	95aff06f          	j	10920 <_svfprintf_r+0x66>
   117ca:	6f6d                	lui	t5,0x1b
   117cc:	45c1                	li	a1,16
   117ce:	875e                	mv	a4,s7
   117d0:	10812603          	lw	a2,264(sp)
   117d4:	2d8f0b93          	add	s7,t5,728 # 1b2d8 <zeroes.0>
   117d8:	41a5dc63          	bge	a1,s10,11bf0 <_svfprintf_r+0x1336>
   117dc:	6c82                	ld	s9,0(sp)
   117de:	48c1                	li	a7,16
   117e0:	4d9d                	li	s11,7
   117e2:	a021                	j	117ea <_svfprintf_r+0xf30>
   117e4:	3d41                	addw	s10,s10,-16
   117e6:	41a8d563          	bge	a7,s10,11bf0 <_svfprintf_r+0x1336>
   117ea:	2605                	addw	a2,a2,1
   117ec:	0741                	add	a4,a4,16
   117ee:	01743023          	sd	s7,0(s0)
   117f2:	01143423          	sd	a7,8(s0)
   117f6:	ea3a                	sd	a4,272(sp)
   117f8:	10c12423          	sw	a2,264(sp)
   117fc:	0441                	add	s0,s0,16
   117fe:	fecdd3e3          	bge	s11,a2,117e4 <_svfprintf_r+0xf2a>
   11802:	0210                	add	a2,sp,256
   11804:	85e6                	mv	a1,s9
   11806:	854e                	mv	a0,s3
   11808:	041040ef          	jal	16048 <__ssprint_r>
   1180c:	a2051de3          	bnez	a0,11246 <_svfprintf_r+0x98c>
   11810:	6752                	ld	a4,272(sp)
   11812:	10812603          	lw	a2,264(sp)
   11816:	0300                	add	s0,sp,384
   11818:	48c1                	li	a7,16
   1181a:	b7e9                	j	117e4 <_svfprintf_r+0xf2a>
   1181c:	855a                	mv	a0,s6
   1181e:	728040ef          	jal	15f46 <strlen>
   11822:	00050d9b          	sext.w	s11,a0
   11826:	d4cff06f          	j	10d72 <_svfprintf_r+0x4b8>
   1182a:	6d06                	ld	s10,64(sp)
   1182c:	6e6d                	lui	t3,0x1b
   1182e:	e926                	sd	s1,144(sp)
   11830:	ed4a                	sd	s2,152(sp)
   11832:	f152                	sd	s4,160(sp)
   11834:	e0e2                	sd	s8,64(sp)
   11836:	8a5a                	mv	s4,s6
   11838:	7966                	ld	s2,120(sp)
   1183a:	64aa                	ld	s1,136(sp)
   1183c:	6b0a                	ld	s6,128(sp)
   1183e:	6c26                	ld	s8,72(sp)
   11840:	6c82                	ld	s9,0(sp)
   11842:	431d                	li	t1,7
   11844:	48c1                	li	a7,16
   11846:	2d8e0d93          	add	s11,t3,728 # 1b2d8 <zeroes.0>
   1184a:	875e                	mv	a4,s7
   1184c:	080d0063          	beqz	s10,118cc <_svfprintf_r+0x1012>
   11850:	100c0863          	beqz	s8,11960 <_svfprintf_r+0x10a6>
   11854:	3c7d                	addw	s8,s8,-1
   11856:	10812783          	lw	a5,264(sp)
   1185a:	975a                	add	a4,a4,s6
   1185c:	e004                	sd	s1,0(s0)
   1185e:	0017869b          	addw	a3,a5,1
   11862:	01643423          	sd	s6,8(s0)
   11866:	ea3a                	sd	a4,272(sp)
   11868:	10d12423          	sw	a3,264(sp)
   1186c:	0441                	add	s0,s0,16
   1186e:	10d34363          	blt	t1,a3,11974 <_svfprintf_r+0x10ba>
   11872:	00094683          	lbu	a3,0(s2)
   11876:	414a8bb3          	sub	s7,s5,s4
   1187a:	000b879b          	sext.w	a5,s7
   1187e:	0006861b          	sext.w	a2,a3
   11882:	00f6d363          	bge	a3,a5,11888 <_svfprintf_r+0xfce>
   11886:	8bb2                	mv	s7,a2
   11888:	2b81                	sext.w	s7,s7
   1188a:	03705563          	blez	s7,118b4 <_svfprintf_r+0xffa>
   1188e:	10812783          	lw	a5,264(sp)
   11892:	975e                	add	a4,a4,s7
   11894:	01443023          	sd	s4,0(s0)
   11898:	0017869b          	addw	a3,a5,1
   1189c:	01743423          	sd	s7,8(s0)
   118a0:	ea3a                	sd	a4,272(sp)
   118a2:	10d12423          	sw	a3,264(sp)
   118a6:	1cd34063          	blt	t1,a3,11a66 <_svfprintf_r+0x11ac>
   118aa:	00094683          	lbu	a3,0(s2)
   118ae:	0441                	add	s0,s0,16
   118b0:	0006861b          	sext.w	a2,a3
   118b4:	fffbc793          	not	a5,s7
   118b8:	97fd                	sra	a5,a5,0x3f
   118ba:	00fbf7b3          	and	a5,s7,a5
   118be:	40f60bbb          	subw	s7,a2,a5
   118c2:	03704263          	bgtz	s7,118e6 <_svfprintf_r+0x102c>
   118c6:	9a36                	add	s4,s4,a3
   118c8:	f80d14e3          	bnez	s10,11850 <_svfprintf_r+0xf96>
   118cc:	f80c14e3          	bnez	s8,11854 <_svfprintf_r+0xf9a>
   118d0:	fcca                	sd	s2,120(sp)
   118d2:	8b52                	mv	s6,s4
   118d4:	64ca                	ld	s1,144(sp)
   118d6:	696a                	ld	s2,152(sp)
   118d8:	7a0a                	ld	s4,160(sp)
   118da:	6c06                	ld	s8,64(sp)
   118dc:	8bba                	mv	s7,a4
   118de:	b36af1e3          	bgeu	s5,s6,11400 <_svfprintf_r+0xb46>
   118e2:	8b56                	mv	s6,s5
   118e4:	be31                	j	11400 <_svfprintf_r+0xb46>
   118e6:	666d                	lui	a2,0x1b
   118e8:	10812783          	lw	a5,264(sp)
   118ec:	2d860613          	add	a2,a2,728 # 1b2d8 <zeroes.0>
   118f0:	0578d863          	bge	a7,s7,11940 <_svfprintf_r+0x1086>
   118f4:	f826                	sd	s1,48(sp)
   118f6:	84de                	mv	s1,s7
   118f8:	8bee                	mv	s7,s11
   118fa:	a021                	j	11902 <_svfprintf_r+0x1048>
   118fc:	34c1                	addw	s1,s1,-16
   118fe:	0298de63          	bge	a7,s1,1193a <_svfprintf_r+0x1080>
   11902:	2785                	addw	a5,a5,1
   11904:	0741                	add	a4,a4,16
   11906:	01b43023          	sd	s11,0(s0)
   1190a:	01143423          	sd	a7,8(s0)
   1190e:	ea3a                	sd	a4,272(sp)
   11910:	10f12423          	sw	a5,264(sp)
   11914:	0441                	add	s0,s0,16
   11916:	fef353e3          	bge	t1,a5,118fc <_svfprintf_r+0x1042>
   1191a:	0210                	add	a2,sp,256
   1191c:	85e6                	mv	a1,s9
   1191e:	854e                	mv	a0,s3
   11920:	728040ef          	jal	16048 <__ssprint_r>
   11924:	920511e3          	bnez	a0,11246 <_svfprintf_r+0x98c>
   11928:	48c1                	li	a7,16
   1192a:	34c1                	addw	s1,s1,-16
   1192c:	6752                	ld	a4,272(sp)
   1192e:	10812783          	lw	a5,264(sp)
   11932:	0300                	add	s0,sp,384
   11934:	431d                	li	t1,7
   11936:	fc98c6e3          	blt	a7,s1,11902 <_svfprintf_r+0x1048>
   1193a:	865e                	mv	a2,s7
   1193c:	8ba6                	mv	s7,s1
   1193e:	74c2                	ld	s1,48(sp)
   11940:	0017869b          	addw	a3,a5,1
   11944:	975e                	add	a4,a4,s7
   11946:	e010                	sd	a2,0(s0)
   11948:	01743423          	sd	s7,8(s0)
   1194c:	ea3a                	sd	a4,272(sp)
   1194e:	10d12423          	sw	a3,264(sp)
   11952:	6cd34963          	blt	t1,a3,12024 <_svfprintf_r+0x176a>
   11956:	00094683          	lbu	a3,0(s2)
   1195a:	0441                	add	s0,s0,16
   1195c:	9a36                	add	s4,s4,a3
   1195e:	b7ad                	j	118c8 <_svfprintf_r+0x100e>
   11960:	197d                	add	s2,s2,-1
   11962:	3d7d                	addw	s10,s10,-1
   11964:	bdcd                	j	11856 <_svfprintf_r+0xf9c>
   11966:	01097793          	and	a5,s2,16
   1196a:	c7dd                	beqz	a5,11a18 <_svfprintf_r+0x115e>
   1196c:	7782                	ld	a5,32(sp)
   1196e:	0007bb83          	ld	s7,0(a5)
   11972:	b3c1                	j	11732 <_svfprintf_r+0xe78>
   11974:	0210                	add	a2,sp,256
   11976:	85e6                	mv	a1,s9
   11978:	854e                	mv	a0,s3
   1197a:	6ce040ef          	jal	16048 <__ssprint_r>
   1197e:	8c0514e3          	bnez	a0,11246 <_svfprintf_r+0x98c>
   11982:	6752                	ld	a4,272(sp)
   11984:	0300                	add	s0,sp,384
   11986:	48c1                	li	a7,16
   11988:	431d                	li	t1,7
   1198a:	b5e5                	j	11872 <_svfprintf_r+0xfb8>
   1198c:	10812683          	lw	a3,264(sp)
   11990:	65ed                	lui	a1,0x1b
   11992:	0d058593          	add	a1,a1,208 # 1b0d0 <__clzdi2+0xae>
   11996:	2685                	addw	a3,a3,1
   11998:	e00c                	sd	a1,0(s0)
   1199a:	001b8713          	add	a4,s7,1
   1199e:	4585                	li	a1,1
   119a0:	e40c                	sd	a1,8(s0)
   119a2:	10d12423          	sw	a3,264(sp)
   119a6:	0006859b          	sext.w	a1,a3
   119aa:	ea3a                	sd	a4,272(sp)
   119ac:	469d                	li	a3,7
   119ae:	0441                	add	s0,s0,16
   119b0:	04b6c963          	blt	a3,a1,11a02 <_svfprintf_r+0x1148>
   119b4:	14061f63          	bnez	a2,11b12 <_svfprintf_r+0x1258>
   119b8:	77e2                	ld	a5,56(sp)
   119ba:	00197693          	and	a3,s2,1
   119be:	8edd                	or	a3,a3,a5
   119c0:	90068c63          	beqz	a3,10ad8 <_svfprintf_r+0x21e>
   119c4:	10812603          	lw	a2,264(sp)
   119c8:	67e6                	ld	a5,88(sp)
   119ca:	7686                	ld	a3,96(sp)
   119cc:	973e                	add	a4,a4,a5
   119ce:	e014                	sd	a3,0(s0)
   119d0:	0016069b          	addw	a3,a2,1
   119d4:	e41c                	sd	a5,8(s0)
   119d6:	ea3a                	sd	a4,272(sp)
   119d8:	10d12423          	sw	a3,264(sp)
   119dc:	461d                	li	a2,7
   119de:	44d64963          	blt	a2,a3,11e30 <_svfprintf_r+0x1576>
   119e2:	0441                	add	s0,s0,16
   119e4:	77e2                	ld	a5,56(sp)
   119e6:	0016861b          	addw	a2,a3,1
   119ea:	01643023          	sd	s6,0(s0)
   119ee:	973e                	add	a4,a4,a5
   119f0:	e41c                	sd	a5,8(s0)
   119f2:	ea3a                	sd	a4,272(sp)
   119f4:	10c12423          	sw	a2,264(sp)
   119f8:	479d                	li	a5,7
   119fa:	8cc7de63          	bge	a5,a2,10ad6 <_svfprintf_r+0x21c>
   119fe:	b10ff06f          	j	10d0e <_svfprintf_r+0x454>
   11a02:	6582                	ld	a1,0(sp)
   11a04:	0210                	add	a2,sp,256
   11a06:	854e                	mv	a0,s3
   11a08:	640040ef          	jal	16048 <__ssprint_r>
   11a0c:	82051de3          	bnez	a0,11246 <_svfprintf_r+0x98c>
   11a10:	466e                	lw	a2,216(sp)
   11a12:	6752                	ld	a4,272(sp)
   11a14:	0300                	add	s0,sp,384
   11a16:	bf79                	j	119b4 <_svfprintf_r+0x10fa>
   11a18:	7682                	ld	a3,32(sp)
   11a1a:	04097793          	and	a5,s2,64
   11a1e:	0006ab83          	lw	s7,0(a3)
   11a22:	18078f63          	beqz	a5,11bc0 <_svfprintf_r+0x1306>
   11a26:	1bc2                	sll	s7,s7,0x30
   11a28:	030bdb93          	srl	s7,s7,0x30
   11a2c:	b319                	j	11732 <_svfprintf_r+0xe78>
   11a2e:	6582                	ld	a1,0(sp)
   11a30:	0210                	add	a2,sp,256
   11a32:	854e                	mv	a0,s3
   11a34:	614040ef          	jal	16048 <__ssprint_r>
   11a38:	800517e3          	bnez	a0,11246 <_svfprintf_r+0x98c>
   11a3c:	6bd2                	ld	s7,272(sp)
   11a3e:	0300                	add	s0,sp,384
   11a40:	dc4ff06f          	j	11004 <_svfprintf_r+0x74a>
   11a44:	0017869b          	addw	a3,a5,1
   11a48:	01743023          	sd	s7,0(s0)
   11a4c:	01943423          	sd	s9,8(s0)
   11a50:	9766                	add	a4,a4,s9
   11a52:	ea3a                	sd	a4,272(sp)
   11a54:	10d12423          	sw	a3,264(sp)
   11a58:	479d                	li	a5,7
   11a5a:	00d7c463          	blt	a5,a3,11a62 <_svfprintf_r+0x11a8>
   11a5e:	878ff06f          	j	10ad6 <_svfprintf_r+0x21c>
   11a62:	aacff06f          	j	10d0e <_svfprintf_r+0x454>
   11a66:	0210                	add	a2,sp,256
   11a68:	85e6                	mv	a1,s9
   11a6a:	854e                	mv	a0,s3
   11a6c:	5dc040ef          	jal	16048 <__ssprint_r>
   11a70:	fc051b63          	bnez	a0,11246 <_svfprintf_r+0x98c>
   11a74:	00094683          	lbu	a3,0(s2)
   11a78:	6752                	ld	a4,272(sp)
   11a7a:	0300                	add	s0,sp,384
   11a7c:	0006861b          	sext.w	a2,a3
   11a80:	48c1                	li	a7,16
   11a82:	431d                	li	t1,7
   11a84:	bd05                	j	118b4 <_svfprintf_r+0xffa>
   11a86:	6582                	ld	a1,0(sp)
   11a88:	0210                	add	a2,sp,256
   11a8a:	854e                	mv	a0,s3
   11a8c:	e91a                	sd	t1,144(sp)
   11a8e:	5ba040ef          	jal	16048 <__ssprint_r>
   11a92:	fa051a63          	bnez	a0,11246 <_svfprintf_r+0x98c>
   11a96:	6bd2                	ld	s7,272(sp)
   11a98:	634a                	ld	t1,144(sp)
   11a9a:	0300                	add	s0,sp,384
   11a9c:	80aff06f          	j	10aa6 <_svfprintf_r+0x1ec>
   11aa0:	754e                	ld	a0,240(sp)
   11aa2:	75ee                	ld	a1,248(sp)
   11aa4:	4601                	li	a2,0
   11aa6:	4681                	li	a3,0
   11aa8:	13c080ef          	jal	19be4 <__letf2>
   11aac:	64054263          	bltz	a0,120f0 <_svfprintf_r+0x1836>
   11ab0:	0cf14703          	lbu	a4,207(sp)
   11ab4:	04700793          	li	a5,71
   11ab8:	19a7d563          	bge	a5,s10,11c42 <_svfprintf_r+0x1388>
   11abc:	67ed                	lui	a5,0x1b
   11abe:	08078b13          	add	s6,a5,128 # 1b080 <__clzdi2+0x5e>
   11ac2:	f7f97913          	and	s2,s2,-129
   11ac6:	ec02                	sd	zero,24(sp)
   11ac8:	e482                	sd	zero,72(sp)
   11aca:	e082                	sd	zero,64(sp)
   11acc:	f802                	sd	zero,48(sp)
   11ace:	2901                	sext.w	s2,s2
   11ad0:	4c0d                	li	s8,3
   11ad2:	4d8d                	li	s11,3
   11ad4:	4301                	li	t1,0
   11ad6:	aa071e63          	bnez	a4,10d92 <_svfprintf_r+0x4d8>
   11ada:	f59fe06f          	j	10a32 <_svfprintf_r+0x178>
   11ade:	4799                	li	a5,6
   11ae0:	869a                	mv	a3,t1
   11ae2:	1667ef63          	bltu	a5,t1,11c60 <_svfprintf_r+0x13a6>
   11ae6:	00068d9b          	sext.w	s11,a3
   11aea:	67ed                	lui	a5,0x1b
   11aec:	8c6e                	mv	s8,s11
   11aee:	f056                	sd	s5,32(sp)
   11af0:	0c878b13          	add	s6,a5,200 # 1b0c8 <__clzdi2+0xa6>
   11af4:	f35fe06f          	j	10a28 <_svfprintf_r+0x16e>
   11af8:	2405                	addw	s0,s0,1
   11afa:	9d6e                	add	s10,s10,s11
   11afc:	017cb023          	sd	s7,0(s9)
   11b00:	01bcb423          	sd	s11,8(s9)
   11b04:	ea6a                	sd	s10,272(sp)
   11b06:	10812423          	sw	s0,264(sp)
   11b0a:	479d                	li	a5,7
   11b0c:	9c87dd63          	bge	a5,s0,10ce6 <_svfprintf_r+0x42c>
   11b10:	b2e5                	j	114f8 <_svfprintf_r+0xc3e>
   11b12:	10812583          	lw	a1,264(sp)
   11b16:	67e6                	ld	a5,88(sp)
   11b18:	7686                	ld	a3,96(sp)
   11b1a:	0441                	add	s0,s0,16
   11b1c:	973e                	add	a4,a4,a5
   11b1e:	fed43823          	sd	a3,-16(s0)
   11b22:	0015869b          	addw	a3,a1,1
   11b26:	fef43c23          	sd	a5,-8(s0)
   11b2a:	ea3a                	sd	a4,272(sp)
   11b2c:	10d12423          	sw	a3,264(sp)
   11b30:	459d                	li	a1,7
   11b32:	2ed5cf63          	blt	a1,a3,11e30 <_svfprintf_r+0x1576>
   11b36:	ea0657e3          	bgez	a2,119e4 <_svfprintf_r+0x112a>
   11b3a:	6f6d                	lui	t5,0x1b
   11b3c:	55c1                	li	a1,-16
   11b3e:	40c00cbb          	negw	s9,a2
   11b42:	2d8f0b93          	add	s7,t5,728 # 1b2d8 <zeroes.0>
   11b46:	4d41                	li	s10,16
   11b48:	4d9d                	li	s11,7
   11b4a:	00b64663          	blt	a2,a1,11b56 <_svfprintf_r+0x129c>
   11b4e:	a731                	j	1225a <_svfprintf_r+0x19a0>
   11b50:	3cc1                	addw	s9,s9,-16
   11b52:	719d5463          	bge	s10,s9,1225a <_svfprintf_r+0x19a0>
   11b56:	2685                	addw	a3,a3,1
   11b58:	0741                	add	a4,a4,16
   11b5a:	01743023          	sd	s7,0(s0)
   11b5e:	01a43423          	sd	s10,8(s0)
   11b62:	ea3a                	sd	a4,272(sp)
   11b64:	10d12423          	sw	a3,264(sp)
   11b68:	0441                	add	s0,s0,16
   11b6a:	feddd3e3          	bge	s11,a3,11b50 <_svfprintf_r+0x1296>
   11b6e:	6582                	ld	a1,0(sp)
   11b70:	0210                	add	a2,sp,256
   11b72:	854e                	mv	a0,s3
   11b74:	4d4040ef          	jal	16048 <__ssprint_r>
   11b78:	ec051763          	bnez	a0,11246 <_svfprintf_r+0x98c>
   11b7c:	6752                	ld	a4,272(sp)
   11b7e:	10812683          	lw	a3,264(sp)
   11b82:	0300                	add	s0,sp,384
   11b84:	b7f1                	j	11b50 <_svfprintf_r+0x1296>
   11b86:	20097793          	and	a5,s2,512
   11b8a:	26078863          	beqz	a5,11dfa <_svfprintf_r+0x1540>
   11b8e:	0ffbfb93          	zext.b	s7,s7
   11b92:	bacff06f          	j	10f3e <_svfprintf_r+0x684>
   11b96:	200cf793          	and	a5,s9,512
   11b9a:	24078963          	beqz	a5,11dec <_svfprintf_r+0x1532>
   11b9e:	0ffbfb93          	zext.b	s7,s7
   11ba2:	f03a                	sd	a4,32(sp)
   11ba4:	4785                	li	a5,1
   11ba6:	ae8ff06f          	j	10e8e <_svfprintf_r+0x5d4>
   11baa:	20097793          	and	a5,s2,512
   11bae:	26078463          	beqz	a5,11e16 <_svfprintf_r+0x155c>
   11bb2:	018b9b9b          	sllw	s7,s7,0x18
   11bb6:	418bdb9b          	sraw	s7,s7,0x18
   11bba:	87de                	mv	a5,s7
   11bbc:	b40ff06f          	j	10efc <_svfprintf_r+0x642>
   11bc0:	20097793          	and	a5,s2,512
   11bc4:	24078563          	beqz	a5,11e0e <_svfprintf_r+0x1554>
   11bc8:	0ffbfb93          	zext.b	s7,s7
   11bcc:	b69d                	j	11732 <_svfprintf_r+0xe78>
   11bce:	77ee                	ld	a5,248(sp)
   11bd0:	2407d663          	bgez	a5,11e1c <_svfprintf_r+0x1562>
   11bd4:	02d00793          	li	a5,45
   11bd8:	0cf107a3          	sb	a5,207(sp)
   11bdc:	02d00713          	li	a4,45
   11be0:	04700793          	li	a5,71
   11be4:	59a7d363          	bge	a5,s10,1216a <_svfprintf_r+0x18b0>
   11be8:	67ed                	lui	a5,0x1b
   11bea:	09078b13          	add	s6,a5,144 # 1b090 <__clzdi2+0x6e>
   11bee:	bdd1                	j	11ac2 <_svfprintf_r+0x1208>
   11bf0:	0016059b          	addw	a1,a2,1
   11bf4:	976a                	add	a4,a4,s10
   11bf6:	01743023          	sd	s7,0(s0)
   11bfa:	01a43423          	sd	s10,8(s0)
   11bfe:	ea3a                	sd	a4,272(sp)
   11c00:	10b12423          	sw	a1,264(sp)
   11c04:	469d                	li	a3,7
   11c06:	24b6c763          	blt	a3,a1,11e54 <_svfprintf_r+0x159a>
   11c0a:	0441                	add	s0,s0,16
   11c0c:	8bba                	mv	s7,a4
   11c0e:	fe6ff06f          	j	113f4 <_svfprintf_r+0xb3a>
   11c12:	fc3e                	sd	a5,56(sp)
   11c14:	678a                	ld	a5,128(sp)
   11c16:	65aa                	ld	a1,136(sp)
   11c18:	f81a                	sd	t1,48(sp)
   11c1a:	40fb0b33          	sub	s6,s6,a5
   11c1e:	863e                	mv	a2,a5
   11c20:	855a                	mv	a0,s6
   11c22:	ec42                	sd	a6,24(sp)
   11c24:	3b2040ef          	jal	15fd6 <strncpy>
   11c28:	6862                	ld	a6,24(sp)
   11c2a:	4729                	li	a4,10
   11c2c:	02ebd733          	divu	a4,s7,a4
   11c30:	00184683          	lbu	a3,1(a6)
   11c34:	7342                	ld	t1,48(sp)
   11c36:	77e2                	ld	a5,56(sp)
   11c38:	00d036b3          	snez	a3,a3
   11c3c:	9836                	add	a6,a6,a3
   11c3e:	4681                	li	a3,0
   11c40:	b445                	j	116e0 <_svfprintf_r+0xe26>
   11c42:	67ed                	lui	a5,0x1b
   11c44:	07878b13          	add	s6,a5,120 # 1b078 <__clzdi2+0x56>
   11c48:	bdad                	j	11ac2 <_svfprintf_r+0x1208>
   11c4a:	6582                	ld	a1,0(sp)
   11c4c:	0210                	add	a2,sp,256
   11c4e:	854e                	mv	a0,s3
   11c50:	3f8040ef          	jal	16048 <__ssprint_r>
   11c54:	de051963          	bnez	a0,11246 <_svfprintf_r+0x98c>
   11c58:	6bd2                	ld	s7,272(sp)
   11c5a:	0300                	add	s0,sp,384
   11c5c:	f84ff06f          	j	113e0 <_svfprintf_r+0xb26>
   11c60:	4699                	li	a3,6
   11c62:	b551                	j	11ae6 <_svfprintf_r+0x122c>
   11c64:	416a8cb3          	sub	s9,s5,s6
   11c68:	40d7863b          	subw	a2,a5,a3
   11c6c:	000c879b          	sext.w	a5,s9
   11c70:	875e                	mv	a4,s7
   11c72:	00f65363          	bge	a2,a5,11c78 <_svfprintf_r+0x13be>
   11c76:	8cb2                	mv	s9,a2
   11c78:	2c81                	sext.w	s9,s9
   11c7a:	ff4ff06f          	j	1146e <_svfprintf_r+0xbb4>
   11c7e:	891a                	mv	s2,t1
   11c80:	4689                	li	a3,2
   11c82:	874a                	mv	a4,s2
   11c84:	0e810893          	add	a7,sp,232
   11c88:	0dc10813          	add	a6,sp,220
   11c8c:	09bc                	add	a5,sp,216
   11c8e:	85e2                	mv	a1,s8
   11c90:	8666                	mv	a2,s9
   11c92:	854e                	mv	a0,s3
   11c94:	f81a                	sd	t1,48(sp)
   11c96:	5f5010ef          	jal	13a8a <_ldtoa_r>
   11c9a:	06700713          	li	a4,103
   11c9e:	7342                	ld	t1,48(sp)
   11ca0:	8b2a                	mv	s6,a0
   11ca2:	36ed0863          	beq	s10,a4,12012 <_svfprintf_r+0x1758>
   11ca6:	04700713          	li	a4,71
   11caa:	36ed0463          	beq	s10,a4,12012 <_svfprintf_r+0x1758>
   11cae:	fdfd7d93          	and	s11,s10,-33
   11cb2:	04600713          	li	a4,70
   11cb6:	01250ab3          	add	s5,a0,s2
   11cba:	44ed8263          	beq	s11,a4,120fe <_svfprintf_r+0x1844>
   11cbe:	8562                	mv	a0,s8
   11cc0:	4601                	li	a2,0
   11cc2:	4681                	li	a3,0
   11cc4:	85e6                	mv	a1,s9
   11cc6:	f81a                	sd	t1,48(sp)
   11cc8:	5c3070ef          	jal	19a8a <__eqtf2>
   11ccc:	7342                	ld	t1,48(sp)
   11cce:	8c56                	mv	s8,s5
   11cd0:	cd11                	beqz	a0,11cec <_svfprintf_r+0x1432>
   11cd2:	7c2e                	ld	s8,232(sp)
   11cd4:	015c7c63          	bgeu	s8,s5,11cec <_svfprintf_r+0x1432>
   11cd8:	03000693          	li	a3,48
   11cdc:	001c0793          	add	a5,s8,1
   11ce0:	f5be                	sd	a5,232(sp)
   11ce2:	00dc0023          	sb	a3,0(s8)
   11ce6:	7c2e                	ld	s8,232(sp)
   11ce8:	ff5c6ae3          	bltu	s8,s5,11cdc <_svfprintf_r+0x1422>
   11cec:	416c07bb          	subw	a5,s8,s6
   11cf0:	fc3e                	sd	a5,56(sp)
   11cf2:	466e                	lw	a2,216(sp)
   11cf4:	04700713          	li	a4,71
   11cf8:	f832                	sd	a2,48(sp)
   11cfa:	2aed8763          	beq	s11,a4,11fa8 <_svfprintf_r+0x16ee>
   11cfe:	04600713          	li	a4,70
   11d02:	4aed8663          	beq	s11,a4,121ae <_svfprintf_r+0x18f4>
   11d06:	fff6071b          	addw	a4,a2,-1
   11d0a:	cdba                	sw	a4,216(sp)
   11d0c:	06100693          	li	a3,97
   11d10:	66dd0263          	beq	s10,a3,12374 <_svfprintf_r+0x1aba>
   11d14:	04100593          	li	a1,65
   11d18:	05000693          	li	a3,80
   11d1c:	2abd1063          	bne	s10,a1,11fbc <_svfprintf_r+0x1702>
   11d20:	4585                	li	a1,1
   11d22:	0ed10023          	sb	a3,224(sp)
   11d26:	02b00693          	li	a3,43
   11d2a:	00075663          	bgez	a4,11d36 <_svfprintf_r+0x147c>
   11d2e:	4705                	li	a4,1
   11d30:	9f11                	subw	a4,a4,a2
   11d32:	02d00693          	li	a3,45
   11d36:	0ed100a3          	sb	a3,225(sp)
   11d3a:	46a5                	li	a3,9
   11d3c:	48e6d763          	bge	a3,a4,121ca <_svfprintf_r+0x1910>
   11d40:	0ef10813          	add	a6,sp,239
   11d44:	88c2                	mv	a7,a6
   11d46:	4329                	li	t1,10
   11d48:	06300f13          	li	t5,99
   11d4c:	026767bb          	remw	a5,a4,t1
   11d50:	8646                	mv	a2,a7
   11d52:	86ba                	mv	a3,a4
   11d54:	18fd                	add	a7,a7,-1
   11d56:	0307879b          	addw	a5,a5,48
   11d5a:	fef60fa3          	sb	a5,-1(a2)
   11d5e:	0267473b          	divw	a4,a4,t1
   11d62:	fedf45e3          	blt	t5,a3,11d4c <_svfprintf_r+0x1492>
   11d66:	0307051b          	addw	a0,a4,48
   11d6a:	fea88fa3          	sb	a0,-1(a7)
   11d6e:	ffe60713          	add	a4,a2,-2
   11d72:	65077b63          	bgeu	a4,a6,123c8 <_svfprintf_r+0x1b0e>
   11d76:	0e210693          	add	a3,sp,226
   11d7a:	00074783          	lbu	a5,0(a4)
   11d7e:	0705                	add	a4,a4,1
   11d80:	0685                	add	a3,a3,1
   11d82:	fef68fa3          	sb	a5,-1(a3)
   11d86:	ff071ae3          	bne	a4,a6,11d7a <_svfprintf_r+0x14c0>
   11d8a:	0f110713          	add	a4,sp,241
   11d8e:	0e210793          	add	a5,sp,226
   11d92:	8f11                	sub	a4,a4,a2
   11d94:	973e                	add	a4,a4,a5
   11d96:	1194                	add	a3,sp,224
   11d98:	40d707bb          	subw	a5,a4,a3
   11d9c:	f8be                	sd	a5,112(sp)
   11d9e:	7746                	ld	a4,112(sp)
   11da0:	77e2                	ld	a5,56(sp)
   11da2:	4605                	li	a2,1
   11da4:	00f70dbb          	addw	s11,a4,a5
   11da8:	876e                	mv	a4,s11
   11daa:	50f65c63          	bge	a2,a5,122c2 <_svfprintf_r+0x1a08>
   11dae:	67e6                	ld	a5,88(sp)
   11db0:	00f70dbb          	addw	s11,a4,a5
   11db4:	6786                	ld	a5,64(sp)
   11db6:	fffdc813          	not	a6,s11
   11dba:	43f85813          	sra	a6,a6,0x3f
   11dbe:	bff7f913          	and	s2,a5,-1025
   11dc2:	2901                	sext.w	s2,s2
   11dc4:	010df833          	and	a6,s11,a6
   11dc8:	10096913          	or	s2,s2,256
   11dcc:	00080c1b          	sext.w	s8,a6
   11dd0:	e482                	sd	zero,72(sp)
   11dd2:	e082                	sd	zero,64(sp)
   11dd4:	f802                	sd	zero,48(sp)
   11dd6:	67ea                	ld	a5,152(sp)
   11dd8:	1e078663          	beqz	a5,11fc4 <_svfprintf_r+0x170a>
   11ddc:	02d00713          	li	a4,45
   11de0:	0ce107a3          	sb	a4,207(sp)
   11de4:	4301                	li	t1,0
   11de6:	2c05                	addw	s8,s8,1
   11de8:	c4bfe06f          	j	10a32 <_svfprintf_r+0x178>
   11dec:	1b82                	sll	s7,s7,0x20
   11dee:	020bdb93          	srl	s7,s7,0x20
   11df2:	f03a                	sd	a4,32(sp)
   11df4:	4785                	li	a5,1
   11df6:	898ff06f          	j	10e8e <_svfprintf_r+0x5d4>
   11dfa:	1b82                	sll	s7,s7,0x20
   11dfc:	020bdb93          	srl	s7,s7,0x20
   11e00:	93eff06f          	j	10f3e <_svfprintf_r+0x684>
   11e04:	67c2                	ld	a5,16(sp)
   11e06:	00f71023          	sh	a5,0(a4)
   11e0a:	95cff06f          	j	10f66 <_svfprintf_r+0x6ac>
   11e0e:	1b82                	sll	s7,s7,0x20
   11e10:	020bdb93          	srl	s7,s7,0x20
   11e14:	ba39                	j	11732 <_svfprintf_r+0xe78>
   11e16:	87de                	mv	a5,s7
   11e18:	8e4ff06f          	j	10efc <_svfprintf_r+0x642>
   11e1c:	0cf14703          	lbu	a4,207(sp)
   11e20:	b3c1                	j	11be0 <_svfprintf_r+0x1326>
   11e22:	6582                	ld	a1,0(sp)
   11e24:	6546                	ld	a0,80(sp)
   11e26:	0210                	add	a2,sp,256
   11e28:	220040ef          	jal	16048 <__ssprint_r>
   11e2c:	cf3fe06f          	j	10b1e <_svfprintf_r+0x264>
   11e30:	6582                	ld	a1,0(sp)
   11e32:	0210                	add	a2,sp,256
   11e34:	854e                	mv	a0,s3
   11e36:	212040ef          	jal	16048 <__ssprint_r>
   11e3a:	c0051663          	bnez	a0,11246 <_svfprintf_r+0x98c>
   11e3e:	466e                	lw	a2,216(sp)
   11e40:	6752                	ld	a4,272(sp)
   11e42:	10812683          	lw	a3,264(sp)
   11e46:	0300                	add	s0,sp,384
   11e48:	b8065ee3          	bgez	a2,119e4 <_svfprintf_r+0x112a>
   11e4c:	b1fd                	j	11b3a <_svfprintf_r+0x1280>
   11e4e:	4319                	li	t1,6
   11e50:	db9fe06f          	j	10c08 <_svfprintf_r+0x34e>
   11e54:	6582                	ld	a1,0(sp)
   11e56:	0210                	add	a2,sp,256
   11e58:	854e                	mv	a0,s3
   11e5a:	1ee040ef          	jal	16048 <__ssprint_r>
   11e5e:	be051463          	bnez	a0,11246 <_svfprintf_r+0x98c>
   11e62:	6bd2                	ld	s7,272(sp)
   11e64:	0300                	add	s0,sp,384
   11e66:	d8eff06f          	j	113f4 <_svfprintf_r+0xb3a>
   11e6a:	0013091b          	addw	s2,t1,1 # ffffffff80000001 <__BSS_END__+0xffffffff7ffe2d19>
   11e6e:	4689                	li	a3,2
   11e70:	bd09                	j	11c82 <_svfprintf_r+0x13c8>
   11e72:	891a                	mv	s2,t1
   11e74:	468d                	li	a3,3
   11e76:	b531                	j	11c82 <_svfprintf_r+0x13c8>
   11e78:	85e6                	mv	a1,s9
   11e7a:	8562                	mv	a0,s8
   11e7c:	f81a                	sd	t1,48(sp)
   11e7e:	72b080ef          	jal	1ada8 <__trunctfdf2>
   11e82:	09a8                	add	a0,sp,216
   11e84:	6c3030ef          	jal	15d46 <frexp>
   11e88:	65d080ef          	jal	1ace4 <__extenddftf2>
   11e8c:	676d                	lui	a4,0x1b
   11e8e:	30873683          	ld	a3,776(a4) # 1b308 <blanks.1+0x20>
   11e92:	4601                	li	a2,0
   11e94:	611070ef          	jal	19ca4 <__multf3>
   11e98:	4601                	li	a2,0
   11e9a:	4681                	li	a3,0
   11e9c:	8daa                	mv	s11,a0
   11e9e:	892e                	mv	s2,a1
   11ea0:	3eb070ef          	jal	19a8a <__eqtf2>
   11ea4:	7342                	ld	t1,48(sp)
   11ea6:	e119                	bnez	a0,11eac <_svfprintf_r+0x15f2>
   11ea8:	4705                	li	a4,1
   11eaa:	cdba                	sw	a4,216(sp)
   11eac:	676d                	lui	a4,0x1b
   11eae:	09870793          	add	a5,a4,152 # 1b098 <__clzdi2+0x76>
   11eb2:	fc3e                	sd	a5,56(sp)
   11eb4:	66ed                	lui	a3,0x1b
   11eb6:	3186b783          	ld	a5,792(a3) # 1b318 <blanks.1+0x30>
   11eba:	02031713          	sll	a4,t1,0x20
   11ebe:	9301                	srl	a4,a4,0x20
   11ec0:	0705                	add	a4,a4,1
   11ec2:	f83e                	sd	a5,48(sp)
   11ec4:	0003061b          	sext.w	a2,t1
   11ec8:	00eb07b3          	add	a5,s6,a4
   11ecc:	e4a6                	sd	s1,72(sp)
   11ece:	f152                	sd	s4,160(sp)
   11ed0:	f922                	sd	s0,176(sp)
   11ed2:	84be                	mv	s1,a5
   11ed4:	7462                	ld	s0,56(sp)
   11ed6:	fd32                	sd	a2,184(sp)
   11ed8:	f51a                	sd	t1,168(sp)
   11eda:	8a5a                	mv	s4,s6
   11edc:	8bce                	mv	s7,s3
   11ede:	8cda                	mv	s9,s6
   11ee0:	a039                	j	11eee <_svfprintf_r+0x1634>
   11ee2:	4601                	li	a2,0
   11ee4:	4681                	li	a3,0
   11ee6:	3a5070ef          	jal	19a8a <__eqtf2>
   11eea:	3a050263          	beqz	a0,1228e <_svfprintf_r+0x19d4>
   11eee:	76c2                	ld	a3,48(sp)
   11ef0:	4601                	li	a2,0
   11ef2:	856e                	mv	a0,s11
   11ef4:	85ca                	mv	a1,s2
   11ef6:	5af070ef          	jal	19ca4 <__multf3>
   11efa:	892e                	mv	s2,a1
   11efc:	89aa                	mv	s3,a0
   11efe:	501080ef          	jal	1abfe <__fixtfsi>
   11f02:	00050c1b          	sext.w	s8,a0
   11f06:	8562                	mv	a0,s8
   11f08:	587080ef          	jal	1ac8e <__floatsitf>
   11f0c:	86ae                	mv	a3,a1
   11f0e:	862a                	mv	a2,a0
   11f10:	85ca                	mv	a1,s2
   11f12:	854e                	mv	a0,s3
   11f14:	3b2080ef          	jal	1a2c6 <__subtf3>
   11f18:	01840733          	add	a4,s0,s8
   11f1c:	00074683          	lbu	a3,0(a4)
   11f20:	89d2                	mv	s3,s4
   11f22:	0a05                	add	s4,s4,1
   11f24:	feda0fa3          	sb	a3,-1(s4)
   11f28:	8aaa                	mv	s5,a0
   11f2a:	8daa                	mv	s11,a0
   11f2c:	892e                	mv	s2,a1
   11f2e:	fb449ae3          	bne	s1,s4,11ee2 <_svfprintf_r+0x1628>
   11f32:	8ad2                	mv	s5,s4
   11f34:	64a6                	ld	s1,72(sp)
   11f36:	732a                	ld	t1,168(sp)
   11f38:	744a                	ld	s0,176(sp)
   11f3a:	7a0a                	ld	s4,160(sp)
   11f3c:	f84e                	sd	s3,48(sp)
   11f3e:	8b66                	mv	s6,s9
   11f40:	89de                	mv	s3,s7
   11f42:	8cae                	mv	s9,a1
   11f44:	8baa                	mv	s7,a0
   11f46:	5dfd                	li	s11,-1
   11f48:	66ed                	lui	a3,0x1b
   11f4a:	3286b903          	ld	s2,808(a3) # 1b328 <blanks.1+0x40>
   11f4e:	4601                	li	a2,0
   11f50:	855e                	mv	a0,s7
   11f52:	86ca                	mv	a3,s2
   11f54:	85e6                	mv	a1,s9
   11f56:	e49a                	sd	t1,72(sp)
   11f58:	3cd070ef          	jal	19b24 <__getf2>
   11f5c:	6326                	ld	t1,72(sp)
   11f5e:	28a04a63          	bgtz	a0,121f2 <_svfprintf_r+0x1938>
   11f62:	4601                	li	a2,0
   11f64:	86ca                	mv	a3,s2
   11f66:	855e                	mv	a0,s7
   11f68:	85e6                	mv	a1,s9
   11f6a:	321070ef          	jal	19a8a <__eqtf2>
   11f6e:	6326                	ld	t1,72(sp)
   11f70:	e509                	bnez	a0,11f7a <_svfprintf_r+0x16c0>
   11f72:	001c7c13          	and	s8,s8,1
   11f76:	260c1e63          	bnez	s8,121f2 <_svfprintf_r+0x1938>
   11f7a:	001d8c1b          	addw	s8,s11,1
   11f7e:	9c56                	add	s8,s8,s5
   11f80:	03000693          	li	a3,48
   11f84:	2a0dc763          	bltz	s11,12232 <_svfprintf_r+0x1978>
   11f88:	0a85                	add	s5,s5,1
   11f8a:	feda8fa3          	sb	a3,-1(s5)
   11f8e:	ff5c1de3          	bne	s8,s5,11f88 <_svfprintf_r+0x16ce>
   11f92:	416c07bb          	subw	a5,s8,s6
   11f96:	fc3e                	sd	a5,56(sp)
   11f98:	fdfd7d93          	and	s11,s10,-33
   11f9c:	bb99                	j	11cf2 <_svfprintf_r+0x1438>
   11f9e:	7c2e                	ld	s8,232(sp)
   11fa0:	466e                	lw	a2,216(sp)
   11fa2:	416c07bb          	subw	a5,s8,s6
   11fa6:	fc3e                	sd	a5,56(sp)
   11fa8:	5775                	li	a4,-3
   11faa:	f832                	sd	a2,48(sp)
   11fac:	00e64463          	blt	a2,a4,11fb4 <_svfprintf_r+0x16fa>
   11fb0:	02c35263          	bge	t1,a2,11fd4 <_svfprintf_r+0x171a>
   11fb4:	fff6071b          	addw	a4,a2,-1
   11fb8:	3d79                	addw	s10,s10,-2
   11fba:	cdba                	sw	a4,216(sp)
   11fbc:	0ffd7693          	zext.b	a3,s10
   11fc0:	4581                	li	a1,0
   11fc2:	b385                	j	11d22 <_svfprintf_r+0x1468>
   11fc4:	0cf14703          	lbu	a4,207(sp)
   11fc8:	4301                	li	t1,0
   11fca:	c319                	beqz	a4,11fd0 <_svfprintf_r+0x1716>
   11fcc:	dc7fe06f          	j	10d92 <_svfprintf_r+0x4d8>
   11fd0:	a63fe06f          	j	10a32 <_svfprintf_r+0x178>
   11fd4:	77e2                	ld	a5,56(sp)
   11fd6:	1af64463          	blt	a2,a5,1217e <_svfprintf_r+0x18c4>
   11fda:	6786                	ld	a5,64(sp)
   11fdc:	8db2                	mv	s11,a2
   11fde:	0017f713          	and	a4,a5,1
   11fe2:	c701                	beqz	a4,11fea <_svfprintf_r+0x1730>
   11fe4:	67e6                	ld	a5,88(sp)
   11fe6:	00c78dbb          	addw	s11,a5,a2
   11fea:	6786                	ld	a5,64(sp)
   11fec:	4007f713          	and	a4,a5,1024
   11ff0:	c319                	beqz	a4,11ff6 <_svfprintf_r+0x173c>
   11ff2:	2ec04863          	bgtz	a2,122e2 <_svfprintf_r+0x1a28>
   11ff6:	fffdc813          	not	a6,s11
   11ffa:	43f85813          	sra	a6,a6,0x3f
   11ffe:	694a                	ld	s2,144(sp)
   12000:	010df833          	and	a6,s11,a6
   12004:	00080c1b          	sext.w	s8,a6
   12008:	06700d13          	li	s10,103
   1200c:	e482                	sd	zero,72(sp)
   1200e:	e082                	sd	zero,64(sp)
   12010:	b3d9                	j	11dd6 <_svfprintf_r+0x151c>
   12012:	6786                	ld	a5,64(sp)
   12014:	0017f713          	and	a4,a5,1
   12018:	d359                	beqz	a4,11f9e <_svfprintf_r+0x16e4>
   1201a:	012b0ab3          	add	s5,s6,s2
   1201e:	04700d93          	li	s11,71
   12022:	b971                	j	11cbe <_svfprintf_r+0x1404>
   12024:	0210                	add	a2,sp,256
   12026:	85e6                	mv	a1,s9
   12028:	854e                	mv	a0,s3
   1202a:	01e040ef          	jal	16048 <__ssprint_r>
   1202e:	a0051c63          	bnez	a0,11246 <_svfprintf_r+0x98c>
   12032:	00094683          	lbu	a3,0(s2)
   12036:	6752                	ld	a4,272(sp)
   12038:	0300                	add	s0,sp,384
   1203a:	48c1                	li	a7,16
   1203c:	431d                	li	t1,7
   1203e:	9a36                	add	s4,s4,a3
   12040:	b061                	j	118c8 <_svfprintf_r+0x100e>
   12042:	07800713          	li	a4,120
   12046:	00296793          	or	a5,s2,2
   1204a:	03000693          	li	a3,48
   1204e:	2781                	sext.w	a5,a5
   12050:	0ce108a3          	sb	a4,209(sp)
   12054:	0cd10823          	sb	a3,208(sp)
   12058:	06300713          	li	a4,99
   1205c:	e0be                	sd	a5,64(sp)
   1205e:	ec02                	sd	zero,24(sp)
   12060:	11810b13          	add	s6,sp,280
   12064:	1c674963          	blt	a4,t1,12236 <_svfprintf_r+0x197c>
   12068:	10296913          	or	s2,s2,258
   1206c:	7cee                	ld	s9,248(sp)
   1206e:	0009079b          	sext.w	a5,s2
   12072:	e93e                	sd	a5,144(sp)
   12074:	ed02                	sd	zero,152(sp)
   12076:	7c4e                	ld	s8,240(sp)
   12078:	040cc863          	bltz	s9,120c8 <_svfprintf_r+0x180e>
   1207c:	06100713          	li	a4,97
   12080:	00ed0463          	beq	s10,a4,12088 <_svfprintf_r+0x17ce>
   12084:	ba1fe06f          	j	10c24 <_svfprintf_r+0x36a>
   12088:	85e6                	mv	a1,s9
   1208a:	8562                	mv	a0,s8
   1208c:	f81a                	sd	t1,48(sp)
   1208e:	51b080ef          	jal	1ada8 <__trunctfdf2>
   12092:	09a8                	add	a0,sp,216
   12094:	4b3030ef          	jal	15d46 <frexp>
   12098:	44d080ef          	jal	1ace4 <__extenddftf2>
   1209c:	676d                	lui	a4,0x1b
   1209e:	30873683          	ld	a3,776(a4) # 1b308 <blanks.1+0x20>
   120a2:	4601                	li	a2,0
   120a4:	401070ef          	jal	19ca4 <__multf3>
   120a8:	4601                	li	a2,0
   120aa:	4681                	li	a3,0
   120ac:	8daa                	mv	s11,a0
   120ae:	892e                	mv	s2,a1
   120b0:	1db070ef          	jal	19a8a <__eqtf2>
   120b4:	7342                	ld	t1,48(sp)
   120b6:	e119                	bnez	a0,120bc <_svfprintf_r+0x1802>
   120b8:	4705                	li	a4,1
   120ba:	cdba                	sw	a4,216(sp)
   120bc:	676d                	lui	a4,0x1b
   120be:	0b070793          	add	a5,a4,176 # 1b0b0 <__clzdi2+0x8e>
   120c2:	fc3e                	sd	a5,56(sp)
   120c4:	bbc5                	j	11eb4 <_svfprintf_r+0x15fa>
   120c6:	ec02                	sd	zero,24(sp)
   120c8:	577d                	li	a4,-1
   120ca:	177e                	sll	a4,a4,0x3f
   120cc:	02d00793          	li	a5,45
   120d0:	00ecccb3          	xor	s9,s9,a4
   120d4:	ed3e                	sd	a5,152(sp)
   120d6:	b75d                	j	1207c <_svfprintf_r+0x17c2>
   120d8:	6582                	ld	a1,0(sp)
   120da:	0210                	add	a2,sp,256
   120dc:	854e                	mv	a0,s3
   120de:	76b030ef          	jal	16048 <__ssprint_r>
   120e2:	96051263          	bnez	a0,11246 <_svfprintf_r+0x98c>
   120e6:	46ee                	lw	a3,216(sp)
   120e8:	6752                	ld	a4,272(sp)
   120ea:	0300                	add	s0,sp,384
   120ec:	b4aff06f          	j	11436 <_svfprintf_r+0xb7c>
   120f0:	02d00793          	li	a5,45
   120f4:	0cf107a3          	sb	a5,207(sp)
   120f8:	02d00713          	li	a4,45
   120fc:	ba65                	j	11ab4 <_svfprintf_r+0x11fa>
   120fe:	00054683          	lbu	a3,0(a0) # 1c000 <__EH_FRAME_BEGIN__>
   12102:	03000713          	li	a4,48
   12106:	00e68563          	beq	a3,a4,12110 <_svfprintf_r+0x1856>
   1210a:	46ee                	lw	a3,216(sp)
   1210c:	9ab6                	add	s5,s5,a3
   1210e:	be45                	j	11cbe <_svfprintf_r+0x1404>
   12110:	4601                	li	a2,0
   12112:	4681                	li	a3,0
   12114:	8562                	mv	a0,s8
   12116:	85e6                	mv	a1,s9
   12118:	f81a                	sd	t1,48(sp)
   1211a:	171070ef          	jal	19a8a <__eqtf2>
   1211e:	7342                	ld	t1,48(sp)
   12120:	d56d                	beqz	a0,1210a <_svfprintf_r+0x1850>
   12122:	4705                	li	a4,1
   12124:	412706bb          	subw	a3,a4,s2
   12128:	cdb6                	sw	a3,216(sp)
   1212a:	9ab6                	add	s5,s5,a3
   1212c:	be49                	j	11cbe <_svfprintf_r+0x1404>
   1212e:	0cf14703          	lbu	a4,207(sp)
   12132:	f056                	sd	s5,32(sp)
   12134:	e482                	sd	zero,72(sp)
   12136:	e082                	sd	zero,64(sp)
   12138:	f802                	sd	zero,48(sp)
   1213a:	8c1a                	mv	s8,t1
   1213c:	8d9a                	mv	s11,t1
   1213e:	4301                	li	t1,0
   12140:	c319                	beqz	a4,12146 <_svfprintf_r+0x188c>
   12142:	c51fe06f          	j	10d92 <_svfprintf_r+0x4d8>
   12146:	8edfe06f          	j	10a32 <_svfprintf_r+0x178>
   1214a:	6582                	ld	a1,0(sp)
   1214c:	0210                	add	a2,sp,256
   1214e:	854e                	mv	a0,s3
   12150:	6f9030ef          	jal	16048 <__ssprint_r>
   12154:	c119                	beqz	a0,1215a <_svfprintf_r+0x18a0>
   12156:	8f0ff06f          	j	11246 <_svfprintf_r+0x98c>
   1215a:	466e                	lw	a2,216(sp)
   1215c:	77e2                	ld	a5,56(sp)
   1215e:	6752                	ld	a4,272(sp)
   12160:	0300                	add	s0,sp,384
   12162:	40c7863b          	subw	a2,a5,a2
   12166:	b08ff06f          	j	1146e <_svfprintf_r+0xbb4>
   1216a:	67ed                	lui	a5,0x1b
   1216c:	08878b13          	add	s6,a5,136 # 1b088 <__clzdi2+0x66>
   12170:	ba89                	j	11ac2 <_svfprintf_r+0x1208>
   12172:	05800713          	li	a4,88
   12176:	bdc1                	j	12046 <_svfprintf_r+0x178c>
   12178:	8cca                	mv	s9,s2
   1217a:	980ff06f          	j	112fa <_svfprintf_r+0xa40>
   1217e:	67e6                	ld	a5,88(sp)
   12180:	7762                	ld	a4,56(sp)
   12182:	06700d13          	li	s10,103
   12186:	00e78dbb          	addw	s11,a5,a4
   1218a:	77c2                	ld	a5,48(sp)
   1218c:	1af05f63          	blez	a5,1234a <_svfprintf_r+0x1a90>
   12190:	6786                	ld	a5,64(sp)
   12192:	4007f713          	and	a4,a5,1024
   12196:	14071863          	bnez	a4,122e6 <_svfprintf_r+0x1a2c>
   1219a:	fffdc813          	not	a6,s11
   1219e:	43f85813          	sra	a6,a6,0x3f
   121a2:	010df833          	and	a6,s11,a6
   121a6:	694a                	ld	s2,144(sp)
   121a8:	00080c1b          	sext.w	s8,a6
   121ac:	b585                	j	1200c <_svfprintf_r+0x1752>
   121ae:	6786                	ld	a5,64(sp)
   121b0:	0017f713          	and	a4,a5,1
   121b4:	77c2                	ld	a5,48(sp)
   121b6:	00e36733          	or	a4,t1,a4
   121ba:	1cf05f63          	blez	a5,12398 <_svfprintf_r+0x1ade>
   121be:	1a071363          	bnez	a4,12364 <_svfprintf_r+0x1aaa>
   121c2:	7dc2                	ld	s11,48(sp)
   121c4:	06600d13          	li	s10,102
   121c8:	b7e1                	j	12190 <_svfprintf_r+0x18d6>
   121ca:	0e210693          	add	a3,sp,226
   121ce:	e599                	bnez	a1,121dc <_svfprintf_r+0x1922>
   121d0:	03000693          	li	a3,48
   121d4:	0ed10123          	sb	a3,226(sp)
   121d8:	0e310693          	add	a3,sp,227
   121dc:	041c                	add	a5,sp,512
   121de:	40f68633          	sub	a2,a3,a5
   121e2:	0307071b          	addw	a4,a4,48
   121e6:	1216079b          	addw	a5,a2,289
   121ea:	00e68023          	sb	a4,0(a3)
   121ee:	f8be                	sd	a5,112(sp)
   121f0:	b67d                	j	11d9e <_svfprintf_r+0x14e4>
   121f2:	77c2                	ld	a5,48(sp)
   121f4:	86d6                	mv	a3,s5
   121f6:	f5be                	sd	a5,232(sp)
   121f8:	77e2                	ld	a5,56(sp)
   121fa:	fffac603          	lbu	a2,-1(s5)
   121fe:	00f7c583          	lbu	a1,15(a5)
   12202:	00c59e63          	bne	a1,a2,1221e <_svfprintf_r+0x1964>
   12206:	03000513          	li	a0,48
   1220a:	fea68fa3          	sb	a0,-1(a3)
   1220e:	76ae                	ld	a3,232(sp)
   12210:	fff68793          	add	a5,a3,-1
   12214:	f5be                	sd	a5,232(sp)
   12216:	fff6c603          	lbu	a2,-1(a3)
   1221a:	fec588e3          	beq	a1,a2,1220a <_svfprintf_r+0x1950>
   1221e:	0016059b          	addw	a1,a2,1
   12222:	03900513          	li	a0,57
   12226:	0ff5f593          	zext.b	a1,a1
   1222a:	02a60263          	beq	a2,a0,1224e <_svfprintf_r+0x1994>
   1222e:	feb68fa3          	sb	a1,-1(a3)
   12232:	8c56                	mv	s8,s5
   12234:	bbb9                	j	11f92 <_svfprintf_r+0x16d8>
   12236:	0013059b          	addw	a1,t1,1
   1223a:	854e                	mv	a0,s3
   1223c:	ec1a                	sd	t1,24(sp)
   1223e:	76c020ef          	jal	149aa <_malloc_r>
   12242:	6362                	ld	t1,24(sp)
   12244:	8b2a                	mv	s6,a0
   12246:	18050763          	beqz	a0,123d4 <_svfprintf_r+0x1b1a>
   1224a:	ec2a                	sd	a0,24(sp)
   1224c:	bd31                	j	12068 <_svfprintf_r+0x17ae>
   1224e:	77e2                	ld	a5,56(sp)
   12250:	00a7c583          	lbu	a1,10(a5)
   12254:	feb68fa3          	sb	a1,-1(a3)
   12258:	bfe9                	j	12232 <_svfprintf_r+0x1978>
   1225a:	2685                	addw	a3,a3,1
   1225c:	9766                	add	a4,a4,s9
   1225e:	01743023          	sd	s7,0(s0)
   12262:	01943423          	sd	s9,8(s0)
   12266:	ea3a                	sd	a4,272(sp)
   12268:	10d12423          	sw	a3,264(sp)
   1226c:	461d                	li	a2,7
   1226e:	f6d65a63          	bge	a2,a3,119e2 <_svfprintf_r+0x1128>
   12272:	6582                	ld	a1,0(sp)
   12274:	0210                	add	a2,sp,256
   12276:	854e                	mv	a0,s3
   12278:	5d1030ef          	jal	16048 <__ssprint_r>
   1227c:	c119                	beqz	a0,12282 <_svfprintf_r+0x19c8>
   1227e:	fc9fe06f          	j	11246 <_svfprintf_r+0x98c>
   12282:	6752                	ld	a4,272(sp)
   12284:	10812683          	lw	a3,264(sp)
   12288:	0300                	add	s0,sp,384
   1228a:	f5aff06f          	j	119e4 <_svfprintf_r+0x112a>
   1228e:	766a                	ld	a2,184(sp)
   12290:	8b66                	mv	s6,s9
   12292:	f84e                	sd	s3,48(sp)
   12294:	00cb063b          	addw	a2,s6,a2
   12298:	89de                	mv	s3,s7
   1229a:	8bd6                	mv	s7,s5
   1229c:	8ad2                	mv	s5,s4
   1229e:	64a6                	ld	s1,72(sp)
   122a0:	732a                	ld	t1,168(sp)
   122a2:	744a                	ld	s0,176(sp)
   122a4:	7a0a                	ld	s4,160(sp)
   122a6:	8cca                	mv	s9,s2
   122a8:	41560dbb          	subw	s11,a2,s5
   122ac:	b971                	j	11f48 <_svfprintf_r+0x168e>
   122ae:	6746                	ld	a4,80(sp)
   122b0:	47b1                	li	a5,12
   122b2:	c31c                	sw	a5,0(a4)
   122b4:	57fd                	li	a5,-1
   122b6:	e83e                	sd	a5,16(sp)
   122b8:	877fe06f          	j	10b2e <_svfprintf_r+0x274>
   122bc:	f03a                	sd	a4,32(sp)
   122be:	83cff06f          	j	112fa <_svfprintf_r+0xa40>
   122c2:	6786                	ld	a5,64(sp)
   122c4:	0017f613          	and	a2,a5,1
   122c8:	ae0606e3          	beqz	a2,11db4 <_svfprintf_r+0x14fa>
   122cc:	b4cd                	j	11dae <_svfprintf_r+0x14f4>
   122ce:	c31c                	sw	a5,0(a4)
   122d0:	c97fe06f          	j	10f66 <_svfprintf_r+0x6ac>
   122d4:	00030463          	beqz	t1,122dc <_svfprintf_r+0x1a22>
   122d8:	931fe06f          	j	10c08 <_svfprintf_r+0x34e>
   122dc:	4305                	li	t1,1
   122de:	92bfe06f          	j	10c08 <_svfprintf_r+0x34e>
   122e2:	06700d13          	li	s10,103
   122e6:	76e6                	ld	a3,120(sp)
   122e8:	0ff00613          	li	a2,255
   122ec:	0006c703          	lbu	a4,0(a3)
   122f0:	0cc70f63          	beq	a4,a2,123ce <_svfprintf_r+0x1b14>
   122f4:	77c2                	ld	a5,48(sp)
   122f6:	4801                	li	a6,0
   122f8:	4501                	li	a0,0
   122fa:	0ff00593          	li	a1,255
   122fe:	0007061b          	sext.w	a2,a4
   12302:	00f75a63          	bge	a4,a5,12316 <_svfprintf_r+0x1a5c>
   12306:	0016c703          	lbu	a4,1(a3)
   1230a:	9f91                	subw	a5,a5,a2
   1230c:	cb1d                	beqz	a4,12342 <_svfprintf_r+0x1a88>
   1230e:	2505                	addw	a0,a0,1
   12310:	0685                	add	a3,a3,1
   12312:	feb716e3          	bne	a4,a1,122fe <_svfprintf_r+0x1a44>
   12316:	fcb6                	sd	a3,120(sp)
   12318:	f83e                	sd	a5,48(sp)
   1231a:	e0aa                	sd	a0,64(sp)
   1231c:	e4c2                	sd	a6,72(sp)
   1231e:	67a6                	ld	a5,72(sp)
   12320:	6706                	ld	a4,64(sp)
   12322:	694a                	ld	s2,144(sp)
   12324:	9f3d                	addw	a4,a4,a5
   12326:	678a                	ld	a5,128(sp)
   12328:	02f7073b          	mulw	a4,a4,a5
   1232c:	01b7073b          	addw	a4,a4,s11
   12330:	00070d9b          	sext.w	s11,a4
   12334:	fffdc613          	not	a2,s11
   12338:	967d                	sra	a2,a2,0x3f
   1233a:	8f71                	and	a4,a4,a2
   1233c:	00070c1b          	sext.w	s8,a4
   12340:	bc59                	j	11dd6 <_svfprintf_r+0x151c>
   12342:	0006c703          	lbu	a4,0(a3)
   12346:	2805                	addw	a6,a6,1
   12348:	b7e9                	j	12312 <_svfprintf_r+0x1a58>
   1234a:	40fd873b          	subw	a4,s11,a5
   1234e:	2705                	addw	a4,a4,1
   12350:	00070d9b          	sext.w	s11,a4
   12354:	fffdc613          	not	a2,s11
   12358:	967d                	sra	a2,a2,0x3f
   1235a:	8f71                	and	a4,a4,a2
   1235c:	694a                	ld	s2,144(sp)
   1235e:	00070c1b          	sext.w	s8,a4
   12362:	b16d                	j	1200c <_svfprintf_r+0x1752>
   12364:	6766                	ld	a4,88(sp)
   12366:	06600d13          	li	s10,102
   1236a:	00f706bb          	addw	a3,a4,a5
   1236e:	00668dbb          	addw	s11,a3,t1
   12372:	bd39                	j	12190 <_svfprintf_r+0x18d6>
   12374:	07000693          	li	a3,112
   12378:	b265                	j	11d20 <_svfprintf_r+0x1466>
   1237a:	7682                	ld	a3,32(sp)
   1237c:	4298                	lw	a4,0(a3)
   1237e:	06a1                	add	a3,a3,8
   12380:	833a                	mv	t1,a4
   12382:	00075363          	bgez	a4,12388 <_svfprintf_r+0x1ace>
   12386:	537d                	li	t1,-1
   12388:	0014ce03          	lbu	t3,1(s1)
   1238c:	00030a9b          	sext.w	s5,t1
   12390:	f036                	sd	a3,32(sp)
   12392:	84be                	mv	s1,a5
   12394:	e28fe06f          	j	109bc <_svfprintf_r+0x102>
   12398:	e719                	bnez	a4,123a6 <_svfprintf_r+0x1aec>
   1239a:	694a                	ld	s2,144(sp)
   1239c:	4c05                	li	s8,1
   1239e:	06600d13          	li	s10,102
   123a2:	4d85                	li	s11,1
   123a4:	b1a5                	j	1200c <_svfprintf_r+0x1752>
   123a6:	67e6                	ld	a5,88(sp)
   123a8:	694a                	ld	s2,144(sp)
   123aa:	06600d13          	li	s10,102
   123ae:	0017871b          	addw	a4,a5,1
   123b2:	0067073b          	addw	a4,a4,t1
   123b6:	00070d9b          	sext.w	s11,a4
   123ba:	fffdc613          	not	a2,s11
   123be:	967d                	sra	a2,a2,0x3f
   123c0:	8f71                	and	a4,a4,a2
   123c2:	00070c1b          	sext.w	s8,a4
   123c6:	b199                	j	1200c <_svfprintf_r+0x1752>
   123c8:	4789                	li	a5,2
   123ca:	f8be                	sd	a5,112(sp)
   123cc:	bac9                	j	11d9e <_svfprintf_r+0x14e4>
   123ce:	e482                	sd	zero,72(sp)
   123d0:	e082                	sd	zero,64(sp)
   123d2:	b7b1                	j	1231e <_svfprintf_r+0x1a64>
   123d4:	6702                	ld	a4,0(sp)
   123d6:	01075783          	lhu	a5,16(a4)
   123da:	0407e793          	or	a5,a5,64
   123de:	00f71823          	sh	a5,16(a4)
   123e2:	f3cfe06f          	j	10b1e <_svfprintf_r+0x264>

00000000000123e6 <__call_exitprocs>:
   123e6:	715d                	add	sp,sp,-80
   123e8:	f052                	sd	s4,32(sp)
   123ea:	7481ba03          	ld	s4,1864(gp) # 1d230 <_global_impure_ptr>
   123ee:	f84a                	sd	s2,48(sp)
   123f0:	e486                	sd	ra,72(sp)
   123f2:	1f8a3903          	ld	s2,504(s4)
   123f6:	e0a2                	sd	s0,64(sp)
   123f8:	fc26                	sd	s1,56(sp)
   123fa:	f44e                	sd	s3,40(sp)
   123fc:	ec56                	sd	s5,24(sp)
   123fe:	e85a                	sd	s6,16(sp)
   12400:	e45e                	sd	s7,8(sp)
   12402:	e062                	sd	s8,0(sp)
   12404:	02090863          	beqz	s2,12434 <__call_exitprocs+0x4e>
   12408:	8b2a                	mv	s6,a0
   1240a:	8bae                	mv	s7,a1
   1240c:	4a85                	li	s5,1
   1240e:	59fd                	li	s3,-1
   12410:	00892483          	lw	s1,8(s2)
   12414:	fff4841b          	addw	s0,s1,-1
   12418:	00044e63          	bltz	s0,12434 <__call_exitprocs+0x4e>
   1241c:	048e                	sll	s1,s1,0x3
   1241e:	94ca                	add	s1,s1,s2
   12420:	020b8663          	beqz	s7,1244c <__call_exitprocs+0x66>
   12424:	2084b783          	ld	a5,520(s1)
   12428:	03778263          	beq	a5,s7,1244c <__call_exitprocs+0x66>
   1242c:	347d                	addw	s0,s0,-1
   1242e:	14e1                	add	s1,s1,-8
   12430:	ff3418e3          	bne	s0,s3,12420 <__call_exitprocs+0x3a>
   12434:	60a6                	ld	ra,72(sp)
   12436:	6406                	ld	s0,64(sp)
   12438:	74e2                	ld	s1,56(sp)
   1243a:	7942                	ld	s2,48(sp)
   1243c:	79a2                	ld	s3,40(sp)
   1243e:	7a02                	ld	s4,32(sp)
   12440:	6ae2                	ld	s5,24(sp)
   12442:	6b42                	ld	s6,16(sp)
   12444:	6ba2                	ld	s7,8(sp)
   12446:	6c02                	ld	s8,0(sp)
   12448:	6161                	add	sp,sp,80
   1244a:	8082                	ret
   1244c:	00892783          	lw	a5,8(s2)
   12450:	6498                	ld	a4,8(s1)
   12452:	37fd                	addw	a5,a5,-1
   12454:	04878463          	beq	a5,s0,1249c <__call_exitprocs+0xb6>
   12458:	0004b423          	sd	zero,8(s1)
   1245c:	db61                	beqz	a4,1242c <__call_exitprocs+0x46>
   1245e:	31092783          	lw	a5,784(s2)
   12462:	008a96bb          	sllw	a3,s5,s0
   12466:	00892c03          	lw	s8,8(s2)
   1246a:	8ff5                	and	a5,a5,a3
   1246c:	2781                	sext.w	a5,a5
   1246e:	ef89                	bnez	a5,12488 <__call_exitprocs+0xa2>
   12470:	9702                	jalr	a4
   12472:	00892703          	lw	a4,8(s2)
   12476:	1f8a3783          	ld	a5,504(s4)
   1247a:	01871463          	bne	a4,s8,12482 <__call_exitprocs+0x9c>
   1247e:	fb2787e3          	beq	a5,s2,1242c <__call_exitprocs+0x46>
   12482:	dbcd                	beqz	a5,12434 <__call_exitprocs+0x4e>
   12484:	893e                	mv	s2,a5
   12486:	b769                	j	12410 <__call_exitprocs+0x2a>
   12488:	31492783          	lw	a5,788(s2)
   1248c:	1084b583          	ld	a1,264(s1)
   12490:	8ff5                	and	a5,a5,a3
   12492:	2781                	sext.w	a5,a5
   12494:	e799                	bnez	a5,124a2 <__call_exitprocs+0xbc>
   12496:	855a                	mv	a0,s6
   12498:	9702                	jalr	a4
   1249a:	bfe1                	j	12472 <__call_exitprocs+0x8c>
   1249c:	00892423          	sw	s0,8(s2)
   124a0:	bf75                	j	1245c <__call_exitprocs+0x76>
   124a2:	852e                	mv	a0,a1
   124a4:	9702                	jalr	a4
   124a6:	b7f1                	j	12472 <__call_exitprocs+0x8c>

00000000000124a8 <__libc_fini_array>:
   124a8:	1101                	add	sp,sp,-32
   124aa:	e822                	sd	s0,16(sp)
   124ac:	67f1                	lui	a5,0x1c
   124ae:	6471                	lui	s0,0x1c
   124b0:	01878793          	add	a5,a5,24 # 1c018 <__do_global_dtors_aux_fini_array_entry>
   124b4:	02040413          	add	s0,s0,32 # 1c020 <impure_data>
   124b8:	8c1d                	sub	s0,s0,a5
   124ba:	e426                	sd	s1,8(sp)
   124bc:	ec06                	sd	ra,24(sp)
   124be:	40345493          	sra	s1,s0,0x3
   124c2:	c881                	beqz	s1,124d2 <__libc_fini_array+0x2a>
   124c4:	1461                	add	s0,s0,-8
   124c6:	943e                	add	s0,s0,a5
   124c8:	601c                	ld	a5,0(s0)
   124ca:	14fd                	add	s1,s1,-1
   124cc:	1461                	add	s0,s0,-8
   124ce:	9782                	jalr	a5
   124d0:	fce5                	bnez	s1,124c8 <__libc_fini_array+0x20>
   124d2:	60e2                	ld	ra,24(sp)
   124d4:	6442                	ld	s0,16(sp)
   124d6:	64a2                	ld	s1,8(sp)
   124d8:	6105                	add	sp,sp,32
   124da:	8082                	ret

00000000000124dc <_malloc_trim_r>:
   124dc:	7179                	add	sp,sp,-48
   124de:	e44e                	sd	s3,8(sp)
   124e0:	69f5                	lui	s3,0x1d
   124e2:	f022                	sd	s0,32(sp)
   124e4:	ec26                	sd	s1,24(sp)
   124e6:	e84a                	sd	s2,16(sp)
   124e8:	e052                	sd	s4,0(sp)
   124ea:	f406                	sd	ra,40(sp)
   124ec:	8a2e                	mv	s4,a1
   124ee:	892a                	mv	s2,a0
   124f0:	91098993          	add	s3,s3,-1776 # 1c910 <__malloc_av_>
   124f4:	373020ef          	jal	15066 <__malloc_lock>
   124f8:	0109b703          	ld	a4,16(s3)
   124fc:	6785                	lui	a5,0x1
   124fe:	fdf78413          	add	s0,a5,-33 # fdf <exit-0xf109>
   12502:	6704                	ld	s1,8(a4)
   12504:	98f1                	and	s1,s1,-4
   12506:	9426                	add	s0,s0,s1
   12508:	41440433          	sub	s0,s0,s4
   1250c:	8031                	srl	s0,s0,0xc
   1250e:	147d                	add	s0,s0,-1
   12510:	0432                	sll	s0,s0,0xc
   12512:	00f44b63          	blt	s0,a5,12528 <_malloc_trim_r+0x4c>
   12516:	4581                	li	a1,0
   12518:	854a                	mv	a0,s2
   1251a:	7f6030ef          	jal	15d10 <_sbrk_r>
   1251e:	0109b783          	ld	a5,16(s3)
   12522:	97a6                	add	a5,a5,s1
   12524:	00f50e63          	beq	a0,a5,12540 <_malloc_trim_r+0x64>
   12528:	854a                	mv	a0,s2
   1252a:	33f020ef          	jal	15068 <__malloc_unlock>
   1252e:	70a2                	ld	ra,40(sp)
   12530:	7402                	ld	s0,32(sp)
   12532:	64e2                	ld	s1,24(sp)
   12534:	6942                	ld	s2,16(sp)
   12536:	69a2                	ld	s3,8(sp)
   12538:	6a02                	ld	s4,0(sp)
   1253a:	4501                	li	a0,0
   1253c:	6145                	add	sp,sp,48
   1253e:	8082                	ret
   12540:	408005b3          	neg	a1,s0
   12544:	854a                	mv	a0,s2
   12546:	7ca030ef          	jal	15d10 <_sbrk_r>
   1254a:	57fd                	li	a5,-1
   1254c:	02f50a63          	beq	a0,a5,12580 <_malloc_trim_r+0xa4>
   12550:	67f5                	lui	a5,0x1d
   12552:	2c078793          	add	a5,a5,704 # 1d2c0 <__malloc_current_mallinfo>
   12556:	4398                	lw	a4,0(a5)
   12558:	0109b683          	ld	a3,16(s3)
   1255c:	8c81                	sub	s1,s1,s0
   1255e:	0014e493          	or	s1,s1,1
   12562:	9f01                	subw	a4,a4,s0
   12564:	854a                	mv	a0,s2
   12566:	e684                	sd	s1,8(a3)
   12568:	c398                	sw	a4,0(a5)
   1256a:	2ff020ef          	jal	15068 <__malloc_unlock>
   1256e:	70a2                	ld	ra,40(sp)
   12570:	7402                	ld	s0,32(sp)
   12572:	64e2                	ld	s1,24(sp)
   12574:	6942                	ld	s2,16(sp)
   12576:	69a2                	ld	s3,8(sp)
   12578:	6a02                	ld	s4,0(sp)
   1257a:	4505                	li	a0,1
   1257c:	6145                	add	sp,sp,48
   1257e:	8082                	ret
   12580:	4581                	li	a1,0
   12582:	854a                	mv	a0,s2
   12584:	78c030ef          	jal	15d10 <_sbrk_r>
   12588:	0109b703          	ld	a4,16(s3)
   1258c:	46fd                	li	a3,31
   1258e:	40e507b3          	sub	a5,a0,a4
   12592:	f8f6dbe3          	bge	a3,a5,12528 <_malloc_trim_r+0x4c>
   12596:	7601b683          	ld	a3,1888(gp) # 1d248 <__malloc_sbrk_base>
   1259a:	0017e793          	or	a5,a5,1
   1259e:	e71c                	sd	a5,8(a4)
   125a0:	8d15                	sub	a0,a0,a3
   125a2:	66f5                	lui	a3,0x1d
   125a4:	2ca6a023          	sw	a0,704(a3) # 1d2c0 <__malloc_current_mallinfo>
   125a8:	b741                	j	12528 <_malloc_trim_r+0x4c>

00000000000125aa <_free_r>:
   125aa:	12058363          	beqz	a1,126d0 <_free_r+0x126>
   125ae:	1101                	add	sp,sp,-32
   125b0:	e822                	sd	s0,16(sp)
   125b2:	e426                	sd	s1,8(sp)
   125b4:	842e                	mv	s0,a1
   125b6:	84aa                	mv	s1,a0
   125b8:	ec06                	sd	ra,24(sp)
   125ba:	2ad020ef          	jal	15066 <__malloc_lock>
   125be:	ff843503          	ld	a0,-8(s0)
   125c2:	ff040713          	add	a4,s0,-16
   125c6:	65f5                	lui	a1,0x1d
   125c8:	ffe57793          	and	a5,a0,-2
   125cc:	00f70633          	add	a2,a4,a5
   125d0:	91058593          	add	a1,a1,-1776 # 1c910 <__malloc_av_>
   125d4:	6614                	ld	a3,8(a2)
   125d6:	0105b803          	ld	a6,16(a1)
   125da:	9af1                	and	a3,a3,-4
   125dc:	12c80c63          	beq	a6,a2,12714 <_free_r+0x16a>
   125e0:	e614                	sd	a3,8(a2)
   125e2:	8905                	and	a0,a0,1
   125e4:	00d60833          	add	a6,a2,a3
   125e8:	e141                	bnez	a0,12668 <_free_r+0xbe>
   125ea:	ff043303          	ld	t1,-16(s0)
   125ee:	00883803          	ld	a6,8(a6)
   125f2:	6575                	lui	a0,0x1d
   125f4:	40670733          	sub	a4,a4,t1
   125f8:	01073883          	ld	a7,16(a4)
   125fc:	92050513          	add	a0,a0,-1760 # 1c920 <__malloc_av_+0x10>
   12600:	979a                	add	a5,a5,t1
   12602:	00187813          	and	a6,a6,1
   12606:	0ea88a63          	beq	a7,a0,126fa <_free_r+0x150>
   1260a:	01873303          	ld	t1,24(a4)
   1260e:	0068bc23          	sd	t1,24(a7)
   12612:	01133823          	sd	a7,16(t1)
   12616:	12080863          	beqz	a6,12746 <_free_r+0x19c>
   1261a:	0017e693          	or	a3,a5,1
   1261e:	e714                	sd	a3,8(a4)
   12620:	e21c                	sd	a5,0(a2)
   12622:	1ff00693          	li	a3,511
   12626:	04f6ee63          	bltu	a3,a5,12682 <_free_r+0xd8>
   1262a:	838d                	srl	a5,a5,0x3
   1262c:	0017869b          	addw	a3,a5,1
   12630:	0016969b          	sllw	a3,a3,0x1
   12634:	068e                	sll	a3,a3,0x3
   12636:	0085b803          	ld	a6,8(a1)
   1263a:	96ae                	add	a3,a3,a1
   1263c:	6288                	ld	a0,0(a3)
   1263e:	4027d61b          	sraw	a2,a5,0x2
   12642:	4785                	li	a5,1
   12644:	00c797b3          	sll	a5,a5,a2
   12648:	0107e7b3          	or	a5,a5,a6
   1264c:	ff068613          	add	a2,a3,-16
   12650:	ef10                	sd	a2,24(a4)
   12652:	eb08                	sd	a0,16(a4)
   12654:	e59c                	sd	a5,8(a1)
   12656:	e298                	sd	a4,0(a3)
   12658:	ed18                	sd	a4,24(a0)
   1265a:	6442                	ld	s0,16(sp)
   1265c:	60e2                	ld	ra,24(sp)
   1265e:	8526                	mv	a0,s1
   12660:	64a2                	ld	s1,8(sp)
   12662:	6105                	add	sp,sp,32
   12664:	2050206f          	j	15068 <__malloc_unlock>
   12668:	00883503          	ld	a0,8(a6)
   1266c:	8905                	and	a0,a0,1
   1266e:	c135                	beqz	a0,126d2 <_free_r+0x128>
   12670:	0017e693          	or	a3,a5,1
   12674:	fed43c23          	sd	a3,-8(s0)
   12678:	e21c                	sd	a5,0(a2)
   1267a:	1ff00693          	li	a3,511
   1267e:	faf6f6e3          	bgeu	a3,a5,1262a <_free_r+0x80>
   12682:	0097d693          	srl	a3,a5,0x9
   12686:	4611                	li	a2,4
   12688:	0cd66163          	bltu	a2,a3,1274a <_free_r+0x1a0>
   1268c:	0067d693          	srl	a3,a5,0x6
   12690:	0396851b          	addw	a0,a3,57
   12694:	0015151b          	sllw	a0,a0,0x1
   12698:	0386861b          	addw	a2,a3,56
   1269c:	050e                	sll	a0,a0,0x3
   1269e:	952e                	add	a0,a0,a1
   126a0:	6114                	ld	a3,0(a0)
   126a2:	1541                	add	a0,a0,-16
   126a4:	00d51663          	bne	a0,a3,126b0 <_free_r+0x106>
   126a8:	a0e5                	j	12790 <_free_r+0x1e6>
   126aa:	6a94                	ld	a3,16(a3)
   126ac:	00d50663          	beq	a0,a3,126b8 <_free_r+0x10e>
   126b0:	6690                	ld	a2,8(a3)
   126b2:	9a71                	and	a2,a2,-4
   126b4:	fec7ebe3          	bltu	a5,a2,126aa <_free_r+0x100>
   126b8:	6e88                	ld	a0,24(a3)
   126ba:	ef08                	sd	a0,24(a4)
   126bc:	eb14                	sd	a3,16(a4)
   126be:	6442                	ld	s0,16(sp)
   126c0:	e918                	sd	a4,16(a0)
   126c2:	60e2                	ld	ra,24(sp)
   126c4:	8526                	mv	a0,s1
   126c6:	64a2                	ld	s1,8(sp)
   126c8:	ee98                	sd	a4,24(a3)
   126ca:	6105                	add	sp,sp,32
   126cc:	19d0206f          	j	15068 <__malloc_unlock>
   126d0:	8082                	ret
   126d2:	6575                	lui	a0,0x1d
   126d4:	97b6                	add	a5,a5,a3
   126d6:	92050513          	add	a0,a0,-1760 # 1c920 <__malloc_av_+0x10>
   126da:	6a14                	ld	a3,16(a2)
   126dc:	0aa68063          	beq	a3,a0,1277c <_free_r+0x1d2>
   126e0:	01863803          	ld	a6,24(a2)
   126e4:	0017e513          	or	a0,a5,1
   126e8:	00f70633          	add	a2,a4,a5
   126ec:	0106bc23          	sd	a6,24(a3)
   126f0:	00d83823          	sd	a3,16(a6)
   126f4:	e708                	sd	a0,8(a4)
   126f6:	e21c                	sd	a5,0(a2)
   126f8:	b72d                	j	12622 <_free_r+0x78>
   126fa:	0e081763          	bnez	a6,127e8 <_free_r+0x23e>
   126fe:	6a0c                	ld	a1,16(a2)
   12700:	6e10                	ld	a2,24(a2)
   12702:	96be                	add	a3,a3,a5
   12704:	0016e793          	or	a5,a3,1
   12708:	ed90                	sd	a2,24(a1)
   1270a:	ea0c                	sd	a1,16(a2)
   1270c:	e71c                	sd	a5,8(a4)
   1270e:	9736                	add	a4,a4,a3
   12710:	e314                	sd	a3,0(a4)
   12712:	b7a1                	j	1265a <_free_r+0xb0>
   12714:	8905                	and	a0,a0,1
   12716:	96be                	add	a3,a3,a5
   12718:	e909                	bnez	a0,1272a <_free_r+0x180>
   1271a:	ff043503          	ld	a0,-16(s0)
   1271e:	8f09                	sub	a4,a4,a0
   12720:	6f1c                	ld	a5,24(a4)
   12722:	6b10                	ld	a2,16(a4)
   12724:	96aa                	add	a3,a3,a0
   12726:	ee1c                	sd	a5,24(a2)
   12728:	eb90                	sd	a2,16(a5)
   1272a:	0016e613          	or	a2,a3,1
   1272e:	7681b783          	ld	a5,1896(gp) # 1d250 <__malloc_trim_threshold>
   12732:	e710                	sd	a2,8(a4)
   12734:	e998                	sd	a4,16(a1)
   12736:	f2f6e2e3          	bltu	a3,a5,1265a <_free_r+0xb0>
   1273a:	7881b583          	ld	a1,1928(gp) # 1d270 <__malloc_top_pad>
   1273e:	8526                	mv	a0,s1
   12740:	d9dff0ef          	jal	124dc <_malloc_trim_r>
   12744:	bf19                	j	1265a <_free_r+0xb0>
   12746:	97b6                	add	a5,a5,a3
   12748:	bf49                	j	126da <_free_r+0x130>
   1274a:	4651                	li	a2,20
   1274c:	02d67063          	bgeu	a2,a3,1276c <_free_r+0x1c2>
   12750:	05400613          	li	a2,84
   12754:	04d66963          	bltu	a2,a3,127a6 <_free_r+0x1fc>
   12758:	00c7d693          	srl	a3,a5,0xc
   1275c:	06f6851b          	addw	a0,a3,111
   12760:	0015151b          	sllw	a0,a0,0x1
   12764:	06e6861b          	addw	a2,a3,110
   12768:	050e                	sll	a0,a0,0x3
   1276a:	bf15                	j	1269e <_free_r+0xf4>
   1276c:	05c6851b          	addw	a0,a3,92
   12770:	0015151b          	sllw	a0,a0,0x1
   12774:	05b6861b          	addw	a2,a3,91
   12778:	050e                	sll	a0,a0,0x3
   1277a:	b715                	j	1269e <_free_r+0xf4>
   1277c:	f598                	sd	a4,40(a1)
   1277e:	f198                	sd	a4,32(a1)
   12780:	0017e693          	or	a3,a5,1
   12784:	ef08                	sd	a0,24(a4)
   12786:	eb08                	sd	a0,16(a4)
   12788:	e714                	sd	a3,8(a4)
   1278a:	973e                	add	a4,a4,a5
   1278c:	e31c                	sd	a5,0(a4)
   1278e:	b5f1                	j	1265a <_free_r+0xb0>
   12790:	0085b803          	ld	a6,8(a1)
   12794:	4026561b          	sraw	a2,a2,0x2
   12798:	4785                	li	a5,1
   1279a:	00c797b3          	sll	a5,a5,a2
   1279e:	0107e7b3          	or	a5,a5,a6
   127a2:	e59c                	sd	a5,8(a1)
   127a4:	bf19                	j	126ba <_free_r+0x110>
   127a6:	15400613          	li	a2,340
   127aa:	00d66c63          	bltu	a2,a3,127c2 <_free_r+0x218>
   127ae:	00f7d693          	srl	a3,a5,0xf
   127b2:	0786851b          	addw	a0,a3,120
   127b6:	0015151b          	sllw	a0,a0,0x1
   127ba:	0776861b          	addw	a2,a3,119
   127be:	050e                	sll	a0,a0,0x3
   127c0:	bdf9                	j	1269e <_free_r+0xf4>
   127c2:	55400613          	li	a2,1364
   127c6:	00d66c63          	bltu	a2,a3,127de <_free_r+0x234>
   127ca:	0127d693          	srl	a3,a5,0x12
   127ce:	07d6851b          	addw	a0,a3,125
   127d2:	0015151b          	sllw	a0,a0,0x1
   127d6:	07c6861b          	addw	a2,a3,124
   127da:	050e                	sll	a0,a0,0x3
   127dc:	b5c9                	j	1269e <_free_r+0xf4>
   127de:	7f000513          	li	a0,2032
   127e2:	07e00613          	li	a2,126
   127e6:	bd65                	j	1269e <_free_r+0xf4>
   127e8:	0017e693          	or	a3,a5,1
   127ec:	e714                	sd	a3,8(a4)
   127ee:	e21c                	sd	a5,0(a2)
   127f0:	b5ad                	j	1265a <_free_r+0xb0>

00000000000127f2 <eshdn1>:
   127f2:	00450693          	add	a3,a0,4
   127f6:	4701                	li	a4,0
   127f8:	0569                	add	a0,a0,26
   127fa:	7861                	lui	a6,0xffff8
   127fc:	0006d783          	lhu	a5,0(a3)
   12800:	0017f613          	and	a2,a5,1
   12804:	c219                	beqz	a2,1280a <eshdn1+0x18>
   12806:	00176713          	or	a4,a4,1
   1280a:	00277613          	and	a2,a4,2
   1280e:	8385                	srl	a5,a5,0x1
   12810:	0017171b          	sllw	a4,a4,0x1
   12814:	0107e5b3          	or	a1,a5,a6
   12818:	c601                	beqz	a2,12820 <eshdn1+0x2e>
   1281a:	03059793          	sll	a5,a1,0x30
   1281e:	93c1                	srl	a5,a5,0x30
   12820:	00f69023          	sh	a5,0(a3)
   12824:	1742                	sll	a4,a4,0x30
   12826:	0689                	add	a3,a3,2
   12828:	9341                	srl	a4,a4,0x30
   1282a:	fcd519e3          	bne	a0,a3,127fc <eshdn1+0xa>
   1282e:	8082                	ret

0000000000012830 <eshup1>:
   12830:	01850693          	add	a3,a0,24
   12834:	4701                	li	a4,0
   12836:	0509                	add	a0,a0,2
   12838:	0006d783          	lhu	a5,0(a3)
   1283c:	00f7d613          	srl	a2,a5,0xf
   12840:	0017979b          	sllw	a5,a5,0x1
   12844:	c219                	beqz	a2,1284a <eshup1+0x1a>
   12846:	00176713          	or	a4,a4,1
   1284a:	00277613          	and	a2,a4,2
   1284e:	17c2                	sll	a5,a5,0x30
   12850:	0017171b          	sllw	a4,a4,0x1
   12854:	93c1                	srl	a5,a5,0x30
   12856:	c219                	beqz	a2,1285c <eshup1+0x2c>
   12858:	0017e793          	or	a5,a5,1
   1285c:	00f69023          	sh	a5,0(a3)
   12860:	1742                	sll	a4,a4,0x30
   12862:	16f9                	add	a3,a3,-2
   12864:	9341                	srl	a4,a4,0x30
   12866:	fcd519e3          	bne	a0,a3,12838 <eshup1+0x8>
   1286a:	8082                	ret

000000000001286c <m16m>:
   1286c:	1101                	add	sp,sp,-32
   1286e:	6e41                	lui	t3,0x10
   12870:	00011b23          	sh	zero,22(sp)
   12874:	00011c23          	sh	zero,24(sp)
   12878:	05e1                	add	a1,a1,24
   1287a:	083c                	add	a5,sp,24
   1287c:	00410813          	add	a6,sp,4
   12880:	1e7d                	add	t3,t3,-1 # ffff <exit-0xe9>
   12882:	0005d703          	lhu	a4,0(a1)
   12886:	17f9                	add	a5,a5,-2
   12888:	15f9                	add	a1,a1,-2
   1288a:	c705                	beqz	a4,128b2 <m16m+0x46>
   1288c:	02a70733          	mul	a4,a4,a0
   12890:	0027d883          	lhu	a7,2(a5)
   12894:	0007d303          	lhu	t1,0(a5)
   12898:	01c776b3          	and	a3,a4,t3
   1289c:	96c6                	add	a3,a3,a7
   1289e:	8341                	srl	a4,a4,0x10
   128a0:	0106d893          	srl	a7,a3,0x10
   128a4:	971a                	add	a4,a4,t1
   128a6:	9746                	add	a4,a4,a7
   128a8:	00e79023          	sh	a4,0(a5)
   128ac:	00d79123          	sh	a3,2(a5)
   128b0:	8341                	srl	a4,a4,0x10
   128b2:	fee79f23          	sh	a4,-2(a5)
   128b6:	fd0796e3          	bne	a5,a6,12882 <m16m+0x16>
   128ba:	0611                	add	a2,a2,4
   128bc:	01a10693          	add	a3,sp,26
   128c0:	0007d703          	lhu	a4,0(a5)
   128c4:	0789                	add	a5,a5,2
   128c6:	0609                	add	a2,a2,2
   128c8:	fee61f23          	sh	a4,-2(a2)
   128cc:	fef69ae3          	bne	a3,a5,128c0 <m16m+0x54>
   128d0:	6105                	add	sp,sp,32
   128d2:	8082                	ret

00000000000128d4 <emovo.constprop.0>:
   128d4:	00055703          	lhu	a4,0(a0)
   128d8:	00255783          	lhu	a5,2(a0)
   128dc:	c319                	beqz	a4,128e2 <emovo.constprop.0+0xe>
   128de:	6721                	lui	a4,0x8
   128e0:	8fd9                	or	a5,a5,a4
   128e2:	00f59923          	sh	a5,18(a1)
   128e6:	00255703          	lhu	a4,2(a0)
   128ea:	67a1                	lui	a5,0x8
   128ec:	17fd                	add	a5,a5,-1 # 7fff <exit-0x80e9>
   128ee:	00f70f63          	beq	a4,a5,1290c <emovo.constprop.0+0x38>
   128f2:	00650793          	add	a5,a0,6
   128f6:	05c1                	add	a1,a1,16
   128f8:	0561                	add	a0,a0,24
   128fa:	0007d703          	lhu	a4,0(a5)
   128fe:	0789                	add	a5,a5,2
   12900:	15f9                	add	a1,a1,-2
   12902:	00e59123          	sh	a4,2(a1)
   12906:	fea79ae3          	bne	a5,a0,128fa <emovo.constprop.0+0x26>
   1290a:	8082                	ret
   1290c:	00650793          	add	a5,a0,6
   12910:	0569                	add	a0,a0,26
   12912:	0007d703          	lhu	a4,0(a5)
   12916:	0789                	add	a5,a5,2
   12918:	e31d                	bnez	a4,1293e <emovo.constprop.0+0x6a>
   1291a:	fef51ce3          	bne	a0,a5,12912 <emovo.constprop.0+0x3e>
   1291e:	01258713          	add	a4,a1,18
   12922:	87ae                	mv	a5,a1
   12924:	0789                	add	a5,a5,2
   12926:	fe079f23          	sh	zero,-2(a5)
   1292a:	fee79de3          	bne	a5,a4,12924 <emovo.constprop.0+0x50>
   1292e:	0125d783          	lhu	a5,18(a1)
   12932:	6721                	lui	a4,0x8
   12934:	177d                	add	a4,a4,-1 # 7fff <exit-0x80e9>
   12936:	8fd9                	or	a5,a5,a4
   12938:	00f59923          	sh	a5,18(a1)
   1293c:	8082                	ret
   1293e:	01058713          	add	a4,a1,16
   12942:	87ae                	mv	a5,a1
   12944:	0789                	add	a5,a5,2
   12946:	fe079f23          	sh	zero,-2(a5)
   1294a:	fee79de3          	bne	a5,a4,12944 <emovo.constprop.0+0x70>
   1294e:	77f1                	lui	a5,0xffffc
   12950:	00f59823          	sh	a5,16(a1)
   12954:	77e1                	lui	a5,0xffff8
   12956:	fff7c793          	not	a5,a5
   1295a:	00f59923          	sh	a5,18(a1)
   1295e:	8082                	ret

0000000000012960 <enormlz>:
   12960:	00455783          	lhu	a5,4(a0)
   12964:	1101                	add	sp,sp,-32
   12966:	e426                	sd	s1,8(sp)
   12968:	ec06                	sd	ra,24(sp)
   1296a:	e822                	sd	s0,16(sp)
   1296c:	e04a                	sd	s2,0(sp)
   1296e:	84aa                	mv	s1,a0
   12970:	efd1                	bnez	a5,12a0c <enormlz+0xac>
   12972:	00655783          	lhu	a5,6(a0)
   12976:	4401                	li	s0,0
   12978:	00f7d713          	srl	a4,a5,0xf
   1297c:	e349                	bnez	a4,129fe <enormlz+0x9e>
   1297e:	01850693          	add	a3,a0,24
   12982:	0a000613          	li	a2,160
   12986:	e395                	bnez	a5,129aa <enormlz+0x4a>
   12988:	00448793          	add	a5,s1,4
   1298c:	0027d703          	lhu	a4,2(a5) # ffffffffffff8002 <__BSS_END__+0xfffffffffffdad1a>
   12990:	0789                	add	a5,a5,2
   12992:	fee79f23          	sh	a4,-2(a5)
   12996:	fed79be3          	bne	a5,a3,1298c <enormlz+0x2c>
   1299a:	00049c23          	sh	zero,24(s1)
   1299e:	2441                	addw	s0,s0,16
   129a0:	04c40f63          	beq	s0,a2,129fe <enormlz+0x9e>
   129a4:	0064d783          	lhu	a5,6(s1)
   129a8:	d3e5                	beqz	a5,12988 <enormlz+0x28>
   129aa:	0ff00713          	li	a4,255
   129ae:	02f76b63          	bltu	a4,a5,129e4 <enormlz+0x84>
   129b2:	01848813          	add	a6,s1,24
   129b6:	00248593          	add	a1,s1,2
   129ba:	0ff00513          	li	a0,255
   129be:	4781                	li	a5,0
   129c0:	8742                	mv	a4,a6
   129c2:	00075683          	lhu	a3,0(a4)
   129c6:	1779                	add	a4,a4,-2
   129c8:	0086961b          	sllw	a2,a3,0x8
   129cc:	8fd1                	or	a5,a5,a2
   129ce:	00f71123          	sh	a5,2(a4)
   129d2:	0086d793          	srl	a5,a3,0x8
   129d6:	feb716e3          	bne	a4,a1,129c2 <enormlz+0x62>
   129da:	0064d783          	lhu	a5,6(s1)
   129de:	2421                	addw	s0,s0,8
   129e0:	fcf57fe3          	bgeu	a0,a5,129be <enormlz+0x5e>
   129e4:	0a000913          	li	s2,160
   129e8:	a801                	j	129f8 <enormlz+0x98>
   129ea:	2405                	addw	s0,s0,1
   129ec:	e45ff0ef          	jal	12830 <eshup1>
   129f0:	00894763          	blt	s2,s0,129fe <enormlz+0x9e>
   129f4:	0064d783          	lhu	a5,6(s1)
   129f8:	83bd                	srl	a5,a5,0xf
   129fa:	8526                	mv	a0,s1
   129fc:	d7fd                	beqz	a5,129ea <enormlz+0x8a>
   129fe:	60e2                	ld	ra,24(sp)
   12a00:	8522                	mv	a0,s0
   12a02:	6442                	ld	s0,16(sp)
   12a04:	64a2                	ld	s1,8(sp)
   12a06:	6902                	ld	s2,0(sp)
   12a08:	6105                	add	sp,sp,32
   12a0a:	8082                	ret
   12a0c:	0ff00713          	li	a4,255
   12a10:	4401                	li	s0,0
   12a12:	02f76563          	bltu	a4,a5,12a3c <enormlz+0xdc>
   12a16:	f6f00913          	li	s2,-145
   12a1a:	a801                	j	12a2a <enormlz+0xca>
   12a1c:	347d                	addw	s0,s0,-1
   12a1e:	dd5ff0ef          	jal	127f2 <eshdn1>
   12a22:	fd240ee3          	beq	s0,s2,129fe <enormlz+0x9e>
   12a26:	0044d783          	lhu	a5,4(s1)
   12a2a:	8526                	mv	a0,s1
   12a2c:	fbe5                	bnez	a5,12a1c <enormlz+0xbc>
   12a2e:	60e2                	ld	ra,24(sp)
   12a30:	8522                	mv	a0,s0
   12a32:	6442                	ld	s0,16(sp)
   12a34:	64a2                	ld	s1,8(sp)
   12a36:	6902                	ld	s2,0(sp)
   12a38:	6105                	add	sp,sp,32
   12a3a:	8082                	ret
   12a3c:	00450713          	add	a4,a0,4
   12a40:	01a50593          	add	a1,a0,26
   12a44:	4781                	li	a5,0
   12a46:	00075683          	lhu	a3,0(a4)
   12a4a:	0709                	add	a4,a4,2
   12a4c:	0086d61b          	srlw	a2,a3,0x8
   12a50:	8fd1                	or	a5,a5,a2
   12a52:	0086969b          	sllw	a3,a3,0x8
   12a56:	fef71f23          	sh	a5,-2(a4)
   12a5a:	03069793          	sll	a5,a3,0x30
   12a5e:	93c1                	srl	a5,a5,0x30
   12a60:	feb713e3          	bne	a4,a1,12a46 <enormlz+0xe6>
   12a64:	0044d783          	lhu	a5,4(s1)
   12a68:	5461                	li	s0,-8
   12a6a:	b775                	j	12a16 <enormlz+0xb6>

0000000000012a6c <eshift.part.0>:
   12a6c:	7179                	add	sp,sp,-48
   12a6e:	f022                	sd	s0,32(sp)
   12a70:	ec26                	sd	s1,24(sp)
   12a72:	f406                	sd	ra,40(sp)
   12a74:	e84a                	sd	s2,16(sp)
   12a76:	e44e                	sd	s3,8(sp)
   12a78:	84ae                	mv	s1,a1
   12a7a:	842a                	mv	s0,a0
   12a7c:	0605cb63          	bltz	a1,12af2 <eshift.part.0+0x86>
   12a80:	47bd                	li	a5,15
   12a82:	862e                	mv	a2,a1
   12a84:	0511                	add	a0,a0,4
   12a86:	01840693          	add	a3,s0,24
   12a8a:	45bd                	li	a1,15
   12a8c:	0297d063          	bge	a5,s1,12aac <eshift.part.0+0x40>
   12a90:	87aa                	mv	a5,a0
   12a92:	0027d703          	lhu	a4,2(a5)
   12a96:	0789                	add	a5,a5,2
   12a98:	fee79f23          	sh	a4,-2(a5)
   12a9c:	fef69be3          	bne	a3,a5,12a92 <eshift.part.0+0x26>
   12aa0:	00041c23          	sh	zero,24(s0)
   12aa4:	3641                	addw	a2,a2,-16
   12aa6:	fec5c5e3          	blt	a1,a2,12a90 <eshift.part.0+0x24>
   12aaa:	88bd                	and	s1,s1,15
   12aac:	479d                	li	a5,7
   12aae:	0297d463          	bge	a5,s1,12ad6 <eshift.part.0+0x6a>
   12ab2:	01840713          	add	a4,s0,24
   12ab6:	00240593          	add	a1,s0,2
   12aba:	4781                	li	a5,0
   12abc:	00075683          	lhu	a3,0(a4)
   12ac0:	1779                	add	a4,a4,-2
   12ac2:	0086961b          	sllw	a2,a3,0x8
   12ac6:	8fd1                	or	a5,a5,a2
   12ac8:	00f71123          	sh	a5,2(a4)
   12acc:	0086d793          	srl	a5,a3,0x8
   12ad0:	feb716e3          	bne	a4,a1,12abc <eshift.part.0+0x50>
   12ad4:	34e1                	addw	s1,s1,-8
   12ad6:	c491                	beqz	s1,12ae2 <eshift.part.0+0x76>
   12ad8:	34fd                	addw	s1,s1,-1
   12ada:	8522                	mv	a0,s0
   12adc:	d55ff0ef          	jal	12830 <eshup1>
   12ae0:	fce5                	bnez	s1,12ad8 <eshift.part.0+0x6c>
   12ae2:	4501                	li	a0,0
   12ae4:	70a2                	ld	ra,40(sp)
   12ae6:	7402                	ld	s0,32(sp)
   12ae8:	64e2                	ld	s1,24(sp)
   12aea:	6942                	ld	s2,16(sp)
   12aec:	69a2                	ld	s3,8(sp)
   12aee:	6145                	add	sp,sp,48
   12af0:	8082                	ret
   12af2:	57c5                	li	a5,-15
   12af4:	40b0093b          	negw	s2,a1
   12af8:	4981                	li	s3,0
   12afa:	01850593          	add	a1,a0,24
   12afe:	00450693          	add	a3,a0,4
   12b02:	463d                	li	a2,15
   12b04:	0af4d463          	bge	s1,a5,12bac <eshift.part.0+0x140>
   12b08:	01845703          	lhu	a4,24(s0)
   12b0c:	87ae                	mv	a5,a1
   12b0e:	00e9e9b3          	or	s3,s3,a4
   12b12:	ffe7d703          	lhu	a4,-2(a5)
   12b16:	17f9                	add	a5,a5,-2
   12b18:	00e79123          	sh	a4,2(a5)
   12b1c:	fed79be3          	bne	a5,a3,12b12 <eshift.part.0+0xa6>
   12b20:	00041223          	sh	zero,4(s0)
   12b24:	3941                	addw	s2,s2,-16
   12b26:	ff2641e3          	blt	a2,s2,12b08 <eshift.part.0+0x9c>
   12b2a:	5941                	li	s2,-16
   12b2c:	5745                	li	a4,-15
   12b2e:	4099093b          	subw	s2,s2,s1
   12b32:	4781                	li	a5,0
   12b34:	06e4c763          	blt	s1,a4,12ba2 <eshift.part.0+0x136>
   12b38:	00f9093b          	addw	s2,s2,a5
   12b3c:	479d                	li	a5,7
   12b3e:	0327d963          	bge	a5,s2,12b70 <eshift.part.0+0x104>
   12b42:	01844783          	lbu	a5,24(s0)
   12b46:	01a40593          	add	a1,s0,26
   12b4a:	00f9e9b3          	or	s3,s3,a5
   12b4e:	4781                	li	a5,0
   12b50:	0006d703          	lhu	a4,0(a3)
   12b54:	0689                	add	a3,a3,2
   12b56:	0087561b          	srlw	a2,a4,0x8
   12b5a:	8fd1                	or	a5,a5,a2
   12b5c:	0087171b          	sllw	a4,a4,0x8
   12b60:	fef69f23          	sh	a5,-2(a3)
   12b64:	03071793          	sll	a5,a4,0x30
   12b68:	93c1                	srl	a5,a5,0x30
   12b6a:	feb693e3          	bne	a3,a1,12b50 <eshift.part.0+0xe4>
   12b6e:	3961                	addw	s2,s2,-8
   12b70:	01303533          	snez	a0,s3
   12b74:	f60908e3          	beqz	s2,12ae4 <eshift.part.0+0x78>
   12b78:	01845783          	lhu	a5,24(s0)
   12b7c:	397d                	addw	s2,s2,-1
   12b7e:	8522                	mv	a0,s0
   12b80:	8b85                	and	a5,a5,1
   12b82:	00f9e9b3          	or	s3,s3,a5
   12b86:	c6dff0ef          	jal	127f2 <eshdn1>
   12b8a:	fe0917e3          	bnez	s2,12b78 <eshift.part.0+0x10c>
   12b8e:	70a2                	ld	ra,40(sp)
   12b90:	7402                	ld	s0,32(sp)
   12b92:	2981                	sext.w	s3,s3
   12b94:	64e2                	ld	s1,24(sp)
   12b96:	6942                	ld	s2,16(sp)
   12b98:	01303533          	snez	a0,s3
   12b9c:	69a2                	ld	s3,8(sp)
   12b9e:	6145                	add	sp,sp,48
   12ba0:	8082                	ret
   12ba2:	ff097793          	and	a5,s2,-16
   12ba6:	40f007bb          	negw	a5,a5
   12baa:	b779                	j	12b38 <eshift.part.0+0xcc>
   12bac:	57e5                	li	a5,-7
   12bae:	f8f4cae3          	blt	s1,a5,12b42 <eshift.part.0+0xd6>
   12bb2:	b7d9                	j	12b78 <eshift.part.0+0x10c>

0000000000012bb4 <emovi>:
   12bb4:	01255783          	lhu	a5,18(a0)
   12bb8:	66a1                	lui	a3,0x8
   12bba:	16fd                	add	a3,a3,-1 # 7fff <exit-0x80e9>
   12bbc:	00f7d79b          	srlw	a5,a5,0xf
   12bc0:	40f007bb          	negw	a5,a5
   12bc4:	00f59023          	sh	a5,0(a1)
   12bc8:	01255703          	lhu	a4,18(a0)
   12bcc:	01050793          	add	a5,a0,16
   12bd0:	8f75                	and	a4,a4,a3
   12bd2:	00e59123          	sh	a4,2(a1)
   12bd6:	0007061b          	sext.w	a2,a4
   12bda:	02d70263          	beq	a4,a3,12bfe <emovi+0x4a>
   12bde:	00658713          	add	a4,a1,6
   12be2:	00059223          	sh	zero,4(a1)
   12be6:	1579                	add	a0,a0,-2
   12be8:	0007d683          	lhu	a3,0(a5)
   12bec:	17f9                	add	a5,a5,-2
   12bee:	0709                	add	a4,a4,2
   12bf0:	fed71f23          	sh	a3,-2(a4)
   12bf4:	fea79ae3          	bne	a5,a0,12be8 <emovi+0x34>
   12bf8:	00059c23          	sh	zero,24(a1)
   12bfc:	8082                	ret
   12bfe:	01255703          	lhu	a4,18(a0)
   12c02:	8f71                	and	a4,a4,a2
   12c04:	00c71b63          	bne	a4,a2,12c1a <emovi+0x66>
   12c08:	01250613          	add	a2,a0,18
   12c0c:	872a                	mv	a4,a0
   12c0e:	00075683          	lhu	a3,0(a4)
   12c12:	0709                	add	a4,a4,2
   12c14:	ee81                	bnez	a3,12c2c <emovi+0x78>
   12c16:	fec71ce3          	bne	a4,a2,12c0e <emovi+0x5a>
   12c1a:	00458793          	add	a5,a1,4
   12c1e:	05e9                	add	a1,a1,26
   12c20:	0789                	add	a5,a5,2
   12c22:	fe079f23          	sh	zero,-2(a5)
   12c26:	feb79de3          	bne	a5,a1,12c20 <emovi+0x6c>
   12c2a:	8082                	ret
   12c2c:	00658713          	add	a4,a1,6
   12c30:	00059223          	sh	zero,4(a1)
   12c34:	1571                	add	a0,a0,-4
   12c36:	0007d683          	lhu	a3,0(a5)
   12c3a:	17f9                	add	a5,a5,-2
   12c3c:	0709                	add	a4,a4,2
   12c3e:	fed71f23          	sh	a3,-2(a4)
   12c42:	fef51ae3          	bne	a0,a5,12c36 <emovi+0x82>
   12c46:	8082                	ret

0000000000012c48 <ecmp>:
   12c48:	01255783          	lhu	a5,18(a0)
   12c4c:	715d                	add	sp,sp,-80
   12c4e:	e0a2                	sd	s0,64(sp)
   12c50:	fff7c793          	not	a5,a5
   12c54:	e486                	sd	ra,72(sp)
   12c56:	03179713          	sll	a4,a5,0x31
   12c5a:	842e                	mv	s0,a1
   12c5c:	eb11                	bnez	a4,12c70 <ecmp+0x28>
   12c5e:	01250693          	add	a3,a0,18
   12c62:	87aa                	mv	a5,a0
   12c64:	0007d703          	lhu	a4,0(a5)
   12c68:	0789                	add	a5,a5,2
   12c6a:	eb25                	bnez	a4,12cda <ecmp+0x92>
   12c6c:	fed79ce3          	bne	a5,a3,12c64 <ecmp+0x1c>
   12c70:	01245783          	lhu	a5,18(s0)
   12c74:	fff7c793          	not	a5,a5
   12c78:	03179713          	sll	a4,a5,0x31
   12c7c:	c331                	beqz	a4,12cc0 <ecmp+0x78>
   12c7e:	858a                	mv	a1,sp
   12c80:	f35ff0ef          	jal	12bb4 <emovi>
   12c84:	100c                	add	a1,sp,32
   12c86:	8522                	mv	a0,s0
   12c88:	f2dff0ef          	jal	12bb4 <emovi>
   12c8c:	00015583          	lhu	a1,0(sp)
   12c90:	02015783          	lhu	a5,32(sp)
   12c94:	04b78863          	beq	a5,a1,12ce4 <ecmp+0x9c>
   12c98:	00210793          	add	a5,sp,2
   12c9c:	02210713          	add	a4,sp,34
   12ca0:	0830                	add	a2,sp,24
   12ca2:	0007d683          	lhu	a3,0(a5)
   12ca6:	0789                	add	a5,a5,2
   12ca8:	eab5                	bnez	a3,12d1c <ecmp+0xd4>
   12caa:	00075683          	lhu	a3,0(a4)
   12cae:	0709                	add	a4,a4,2
   12cb0:	e6b5                	bnez	a3,12d1c <ecmp+0xd4>
   12cb2:	fef618e3          	bne	a2,a5,12ca2 <ecmp+0x5a>
   12cb6:	4501                	li	a0,0
   12cb8:	60a6                	ld	ra,72(sp)
   12cba:	6406                	ld	s0,64(sp)
   12cbc:	6161                	add	sp,sp,80
   12cbe:	8082                	ret
   12cc0:	87a2                	mv	a5,s0
   12cc2:	0007d703          	lhu	a4,0(a5)
   12cc6:	01240693          	add	a3,s0,18
   12cca:	0789                	add	a5,a5,2
   12ccc:	e719                	bnez	a4,12cda <ecmp+0x92>
   12cce:	fad788e3          	beq	a5,a3,12c7e <ecmp+0x36>
   12cd2:	0007d703          	lhu	a4,0(a5)
   12cd6:	0789                	add	a5,a5,2
   12cd8:	db7d                	beqz	a4,12cce <ecmp+0x86>
   12cda:	60a6                	ld	ra,72(sp)
   12cdc:	6406                	ld	s0,64(sp)
   12cde:	5579                	li	a0,-2
   12ce0:	6161                	add	sp,sp,80
   12ce2:	8082                	ret
   12ce4:	557d                	li	a0,-1
   12ce6:	c1a9                	beqz	a1,12d28 <ecmp+0xe0>
   12ce8:	878a                	mv	a5,sp
   12cea:	0007d603          	lhu	a2,0(a5)
   12cee:	02015683          	lhu	a3,32(sp)
   12cf2:	1018                	add	a4,sp,32
   12cf4:	082c                	add	a1,sp,24
   12cf6:	0789                	add	a5,a5,2
   12cf8:	0709                	add	a4,a4,2
   12cfa:	00d61c63          	bne	a2,a3,12d12 <ecmp+0xca>
   12cfe:	fab78ce3          	beq	a5,a1,12cb6 <ecmp+0x6e>
   12d02:	0007d603          	lhu	a2,0(a5)
   12d06:	00075683          	lhu	a3,0(a4)
   12d0a:	0789                	add	a5,a5,2
   12d0c:	0709                	add	a4,a4,2
   12d0e:	fed608e3          	beq	a2,a3,12cfe <ecmp+0xb6>
   12d12:	fac6e3e3          	bltu	a3,a2,12cb8 <ecmp+0x70>
   12d16:	40a0053b          	negw	a0,a0
   12d1a:	bf79                	j	12cb8 <ecmp+0x70>
   12d1c:	e981                	bnez	a1,12d2c <ecmp+0xe4>
   12d1e:	60a6                	ld	ra,72(sp)
   12d20:	6406                	ld	s0,64(sp)
   12d22:	4505                	li	a0,1
   12d24:	6161                	add	sp,sp,80
   12d26:	8082                	ret
   12d28:	4505                	li	a0,1
   12d2a:	bf7d                	j	12ce8 <ecmp+0xa0>
   12d2c:	557d                	li	a0,-1
   12d2e:	b769                	j	12cb8 <ecmp+0x70>

0000000000012d30 <emdnorm>:
   12d30:	7139                	add	sp,sp,-64
   12d32:	f822                	sd	s0,48(sp)
   12d34:	f426                	sd	s1,40(sp)
   12d36:	f04a                	sd	s2,32(sp)
   12d38:	ec4e                	sd	s3,24(sp)
   12d3a:	e852                	sd	s4,16(sp)
   12d3c:	e456                	sd	s5,8(sp)
   12d3e:	8936                	mv	s2,a3
   12d40:	843e                	mv	s0,a5
   12d42:	fc06                	sd	ra,56(sp)
   12d44:	84aa                	mv	s1,a0
   12d46:	89ae                	mv	s3,a1
   12d48:	8a32                	mv	s4,a2
   12d4a:	8aba                	mv	s5,a4
   12d4c:	c15ff0ef          	jal	12960 <enormlz>
   12d50:	09000793          	li	a5,144
   12d54:	40a90933          	sub	s2,s2,a0
   12d58:	12a7d863          	bge	a5,a0,12e88 <emdnorm+0x158>
   12d5c:	67a1                	lui	a5,0x8
   12d5e:	17f9                	add	a5,a5,-2 # 7ffe <exit-0x80ea>
   12d60:	2327dd63          	bge	a5,s2,12f9a <emdnorm+0x26a>
   12d64:	1a0a8c63          	beqz	s5,12f1c <emdnorm+0x1ec>
   12d68:	00442a83          	lw	s5,4(s0)
   12d6c:	401c                	lw	a5,0(s0)
   12d6e:	20fa8363          	beq	s5,a5,12f74 <emdnorm+0x244>
   12d72:	01a40713          	add	a4,s0,26
   12d76:	03440793          	add	a5,s0,52
   12d7a:	0709                	add	a4,a4,2
   12d7c:	fe071f23          	sh	zero,-2(a4)
   12d80:	fee79de3          	bne	a5,a4,12d7a <emdnorm+0x4a>
   12d84:	03800793          	li	a5,56
   12d88:	2afa8f63          	beq	s5,a5,13046 <emdnorm+0x316>
   12d8c:	1557d663          	bge	a5,s5,12ed8 <emdnorm+0x1a8>
   12d90:	04000793          	li	a5,64
   12d94:	20fa8c63          	beq	s5,a5,12fac <emdnorm+0x27c>
   12d98:	07100793          	li	a5,113
   12d9c:	2cfa9d63          	bne	s5,a5,13076 <emdnorm+0x346>
   12da0:	400087b7          	lui	a5,0x40008
   12da4:	46a9                	li	a3,10
   12da6:	7761                	lui	a4,0xffff8
   12da8:	17fd                	add	a5,a5,-1 # 40007fff <__BSS_END__+0x3ffead17>
   12daa:	c414                	sw	a3,8(s0)
   12dac:	c85c                	sw	a5,20(s0)
   12dae:	00e41c23          	sh	a4,24(s0)
   12db2:	c454                	sw	a3,12(s0)
   12db4:	02e41723          	sh	a4,46(s0)
   12db8:	01542023          	sw	s5,0(s0)
   12dbc:	1b205263          	blez	s2,12f60 <emdnorm+0x230>
   12dc0:	0144d603          	lhu	a2,20(s1)
   12dc4:	01448593          	add	a1,s1,20
   12dc8:	47ad                	li	a5,11
   12dca:	1646                	sll	a2,a2,0x31
   12dcc:	9245                	srl	a2,a2,0x31
   12dce:	4731                	li	a4,12
   12dd0:	9f1d                	subw	a4,a4,a5
   12dd2:	1702                	sll	a4,a4,0x20
   12dd4:	9301                	srl	a4,a4,0x20
   12dd6:	973e                	add	a4,a4,a5
   12dd8:	0706                	sll	a4,a4,0x1
   12dda:	0786                	sll	a5,a5,0x1
   12ddc:	00248693          	add	a3,s1,2
   12de0:	97a6                	add	a5,a5,s1
   12de2:	9736                	add	a4,a4,a3
   12de4:	0007d683          	lhu	a3,0(a5)
   12de8:	c299                	beqz	a3,12dee <emdnorm+0xbe>
   12dea:	00166613          	or	a2,a2,1
   12dee:	00079023          	sh	zero,0(a5)
   12df2:	0789                	add	a5,a5,2
   12df4:	fef718e3          	bne	a4,a5,12de4 <emdnorm+0xb4>
   12df8:	0005d703          	lhu	a4,0(a1)
   12dfc:	01445683          	lhu	a3,20(s0)
   12e00:	fff6c693          	not	a3,a3
   12e04:	8f75                	and	a4,a4,a3
   12e06:	00e59023          	sh	a4,0(a1)
   12e0a:	01645783          	lhu	a5,22(s0)
   12e0e:	00c7f733          	and	a4,a5,a2
   12e12:	c721                	beqz	a4,12e5a <emdnorm+0x12a>
   12e14:	00c79d63          	bne	a5,a2,12e2e <emdnorm+0xfe>
   12e18:	22099463          	bnez	s3,13040 <emdnorm+0x310>
   12e1c:	445c                	lw	a5,12(s0)
   12e1e:	01845703          	lhu	a4,24(s0)
   12e22:	0786                	sll	a5,a5,0x1
   12e24:	97a6                	add	a5,a5,s1
   12e26:	0007d783          	lhu	a5,0(a5)
   12e2a:	8ff9                	and	a5,a5,a4
   12e2c:	c79d                	beqz	a5,12e5a <emdnorm+0x12a>
   12e2e:	03240793          	add	a5,s0,50
   12e32:	01848613          	add	a2,s1,24
   12e36:	00248513          	add	a0,s1,2
   12e3a:	4581                	li	a1,0
   12e3c:	0007d703          	lhu	a4,0(a5)
   12e40:	00065683          	lhu	a3,0(a2)
   12e44:	1679                	add	a2,a2,-2
   12e46:	17f9                	add	a5,a5,-2
   12e48:	9736                	add	a4,a4,a3
   12e4a:	972e                	add	a4,a4,a1
   12e4c:	01075593          	srl	a1,a4,0x10
   12e50:	00e61123          	sh	a4,2(a2)
   12e54:	8985                	and	a1,a1,1
   12e56:	fec513e3          	bne	a0,a2,12e3c <emdnorm+0x10c>
   12e5a:	1b205a63          	blez	s2,1300e <emdnorm+0x2de>
   12e5e:	0044d783          	lhu	a5,4(s1)
   12e62:	18079b63          	bnez	a5,12ff8 <emdnorm+0x2c8>
   12e66:	67a1                	lui	a5,0x8
   12e68:	00049c23          	sh	zero,24(s1)
   12e6c:	17f9                	add	a5,a5,-2 # 7ffe <exit-0x80ea>
   12e6e:	0b27c963          	blt	a5,s2,12f20 <emdnorm+0x1f0>
   12e72:	01249123          	sh	s2,2(s1)
   12e76:	70e2                	ld	ra,56(sp)
   12e78:	7442                	ld	s0,48(sp)
   12e7a:	74a2                	ld	s1,40(sp)
   12e7c:	7902                	ld	s2,32(sp)
   12e7e:	69e2                	ld	s3,24(sp)
   12e80:	6a42                	ld	s4,16(sp)
   12e82:	6aa2                	ld	s5,8(sp)
   12e84:	6121                	add	sp,sp,64
   12e86:	8082                	ret
   12e88:	02094b63          	bltz	s2,12ebe <emdnorm+0x18e>
   12e8c:	fc0a8de3          	beqz	s5,12e66 <emdnorm+0x136>
   12e90:	00442a83          	lw	s5,4(s0)
   12e94:	401c                	lw	a5,0(s0)
   12e96:	ecfa9ee3          	bne	s5,a5,12d72 <emdnorm+0x42>
   12e9a:	23204263          	bgtz	s2,130be <emdnorm+0x38e>
   12e9e:	09000713          	li	a4,144
   12ea2:	22e79063          	bne	a5,a4,130c2 <emdnorm+0x392>
   12ea6:	440c                	lw	a1,8(s0)
   12ea8:	01445683          	lhu	a3,20(s0)
   12eac:	09000a93          	li	s5,144
   12eb0:	0586                	sll	a1,a1,0x1
   12eb2:	95a6                	add	a1,a1,s1
   12eb4:	0005d703          	lhu	a4,0(a1)
   12eb8:	00d77633          	and	a2,a4,a3
   12ebc:	b791                	j	12e00 <emdnorm+0xd0>
   12ebe:	f7000793          	li	a5,-144
   12ec2:	10f95c63          	bge	s2,a5,12fda <emdnorm+0x2aa>
   12ec6:	00248793          	add	a5,s1,2
   12eca:	04e9                	add	s1,s1,26
   12ecc:	0789                	add	a5,a5,2
   12ece:	fe079f23          	sh	zero,-2(a5)
   12ed2:	fe979de3          	bne	a5,s1,12ecc <emdnorm+0x19c>
   12ed6:	b745                	j	12e76 <emdnorm+0x146>
   12ed8:	47e1                	li	a5,24
   12eda:	06fa8163          	beq	s5,a5,12f3c <emdnorm+0x20c>
   12ede:	03500793          	li	a5,53
   12ee2:	18fa9a63          	bne	s5,a5,13076 <emdnorm+0x346>
   12ee6:	6785                	lui	a5,0x1
   12ee8:	04000737          	lui	a4,0x4000
   12eec:	4699                	li	a3,6
   12eee:	80078793          	add	a5,a5,-2048 # 800 <exit-0xf8e8>
   12ef2:	7ff70713          	add	a4,a4,2047 # 40007ff <__BSS_END__+0x3fe3517>
   12ef6:	c414                	sw	a3,8(s0)
   12ef8:	c858                	sw	a4,20(s0)
   12efa:	00f41c23          	sh	a5,24(s0)
   12efe:	c454                	sw	a3,12(s0)
   12f00:	02f41323          	sh	a5,38(s0)
   12f04:	01542023          	sw	s5,0(s0)
   12f08:	05205c63          	blez	s2,12f60 <emdnorm+0x230>
   12f0c:	00c4d603          	lhu	a2,12(s1)
   12f10:	00c48593          	add	a1,s1,12
   12f14:	479d                	li	a5,7
   12f16:	7ff67613          	and	a2,a2,2047
   12f1a:	bd55                	j	12dce <emdnorm+0x9e>
   12f1c:	00049c23          	sh	zero,24(s1)
   12f20:	77e1                	lui	a5,0xffff8
   12f22:	fff7c793          	not	a5,a5
   12f26:	00f49123          	sh	a5,2(s1)
   12f2a:	00448793          	add	a5,s1,4
   12f2e:	04e1                	add	s1,s1,24
   12f30:	00079023          	sh	zero,0(a5) # ffffffffffff8000 <__BSS_END__+0xfffffffffffdad18>
   12f34:	0789                	add	a5,a5,2
   12f36:	fe979de3          	bne	a5,s1,12f30 <emdnorm+0x200>
   12f3a:	bf35                	j	12e76 <emdnorm+0x146>
   12f3c:	008007b7          	lui	a5,0x800
   12f40:	4691                	li	a3,4
   12f42:	10000713          	li	a4,256
   12f46:	0ff78793          	add	a5,a5,255 # 8000ff <__BSS_END__+0x7e2e17>
   12f4a:	c414                	sw	a3,8(s0)
   12f4c:	c85c                	sw	a5,20(s0)
   12f4e:	00e41c23          	sh	a4,24(s0)
   12f52:	c454                	sw	a3,12(s0)
   12f54:	02e41123          	sh	a4,34(s0)
   12f58:	01542023          	sw	s5,0(s0)
   12f5c:	15204663          	bgtz	s2,130a8 <emdnorm+0x378>
   12f60:	0184d783          	lhu	a5,24(s1)
   12f64:	8526                	mv	a0,s1
   12f66:	8b85                	and	a5,a5,1
   12f68:	00f9e7b3          	or	a5,s3,a5
   12f6c:	0007899b          	sext.w	s3,a5
   12f70:	883ff0ef          	jal	127f2 <eshdn1>
   12f74:	441c                	lw	a5,8(s0)
   12f76:	01445683          	lhu	a3,20(s0)
   12f7a:	08f00513          	li	a0,143
   12f7e:	00179593          	sll	a1,a5,0x1
   12f82:	95a6                	add	a1,a1,s1
   12f84:	0005d703          	lhu	a4,0(a1)
   12f88:	00d77633          	and	a2,a4,a3
   12f8c:	e7554ae3          	blt	a0,s5,12e00 <emdnorm+0xd0>
   12f90:	2785                	addw	a5,a5,1
   12f92:	4531                	li	a0,12
   12f94:	e2f55de3          	bge	a0,a5,12dce <emdnorm+0x9e>
   12f98:	b5a5                	j	12e00 <emdnorm+0xd0>
   12f9a:	00248793          	add	a5,s1,2
   12f9e:	04e9                	add	s1,s1,26
   12fa0:	0789                	add	a5,a5,2
   12fa2:	fe079f23          	sh	zero,-2(a5)
   12fa6:	fe979de3          	bne	a5,s1,12fa0 <emdnorm+0x270>
   12faa:	b5f1                	j	12e76 <emdnorm+0x146>
   12fac:	479d                	li	a5,7
   12fae:	c41c                	sw	a5,8(s0)
   12fb0:	800107b7          	lui	a5,0x80010
   12fb4:	17fd                	add	a5,a5,-1 # ffffffff8000ffff <__BSS_END__+0xffffffff7fff2d17>
   12fb6:	4705                	li	a4,1
   12fb8:	c85c                	sw	a5,20(s0)
   12fba:	4799                	li	a5,6
   12fbc:	00e41c23          	sh	a4,24(s0)
   12fc0:	c45c                	sw	a5,12(s0)
   12fc2:	02e41323          	sh	a4,38(s0)
   12fc6:	01542023          	sw	s5,0(s0)
   12fca:	f9205be3          	blez	s2,12f60 <emdnorm+0x230>
   12fce:	00e4d603          	lhu	a2,14(s1)
   12fd2:	00e48593          	add	a1,s1,14
   12fd6:	47a1                	li	a5,8
   12fd8:	bbdd                	j	12dce <emdnorm+0x9e>
   12fda:	0009059b          	sext.w	a1,s2
   12fde:	8526                	mv	a0,s1
   12fe0:	a8dff0ef          	jal	12a6c <eshift.part.0>
   12fe4:	c955                	beqz	a0,13098 <emdnorm+0x368>
   12fe6:	0c0a8763          	beqz	s5,130b4 <emdnorm+0x384>
   12fea:	00442a83          	lw	s5,4(s0)
   12fee:	401c                	lw	a5,0(s0)
   12ff0:	4985                	li	s3,1
   12ff2:	d8fa90e3          	bne	s5,a5,12d72 <emdnorm+0x42>
   12ff6:	b565                	j	12e9e <emdnorm+0x16e>
   12ff8:	8526                	mv	a0,s1
   12ffa:	ff8ff0ef          	jal	127f2 <eshdn1>
   12ffe:	67a1                	lui	a5,0x8
   13000:	0905                	add	s2,s2,1
   13002:	00049c23          	sh	zero,24(s1)
   13006:	17f9                	add	a5,a5,-2 # 7ffe <exit-0x80ea>
   13008:	f127cce3          	blt	a5,s2,12f20 <emdnorm+0x1f0>
   1300c:	b59d                	j	12e72 <emdnorm+0x142>
   1300e:	09000793          	li	a5,144
   13012:	00fa8f63          	beq	s5,a5,13030 <emdnorm+0x300>
   13016:	8526                	mv	a0,s1
   13018:	819ff0ef          	jal	12830 <eshup1>
   1301c:	0044d783          	lhu	a5,4(s1)
   13020:	eb99                	bnez	a5,13036 <emdnorm+0x306>
   13022:	00049c23          	sh	zero,24(s1)
   13026:	e40956e3          	bgez	s2,12e72 <emdnorm+0x142>
   1302a:	00049123          	sh	zero,2(s1)
   1302e:	b5a1                	j	12e76 <emdnorm+0x146>
   13030:	0044d783          	lhu	a5,4(s1)
   13034:	d7fd                	beqz	a5,13022 <emdnorm+0x2f2>
   13036:	8526                	mv	a0,s1
   13038:	fbaff0ef          	jal	127f2 <eshdn1>
   1303c:	0905                	add	s2,s2,1
   1303e:	b7d5                	j	13022 <emdnorm+0x2f2>
   13040:	de0a07e3          	beqz	s4,12e2e <emdnorm+0xfe>
   13044:	bd19                	j	12e5a <emdnorm+0x12a>
   13046:	008007b7          	lui	a5,0x800
   1304a:	4699                	li	a3,6
   1304c:	10000713          	li	a4,256
   13050:	0ff78793          	add	a5,a5,255 # 8000ff <__BSS_END__+0x7e2e17>
   13054:	c414                	sw	a3,8(s0)
   13056:	c85c                	sw	a5,20(s0)
   13058:	00e41c23          	sh	a4,24(s0)
   1305c:	c454                	sw	a3,12(s0)
   1305e:	02e41323          	sh	a4,38(s0)
   13062:	01542023          	sw	s5,0(s0)
   13066:	ef205de3          	blez	s2,12f60 <emdnorm+0x230>
   1306a:	00c4c603          	lbu	a2,12(s1)
   1306e:	00c48593          	add	a1,s1,12
   13072:	479d                	li	a5,7
   13074:	bba9                	j	12dce <emdnorm+0x9e>
   13076:	47b1                	li	a5,12
   13078:	c41c                	sw	a5,8(s0)
   1307a:	800107b7          	lui	a5,0x80010
   1307e:	17fd                	add	a5,a5,-1 # ffffffff8000ffff <__BSS_END__+0xffffffff7fff2d17>
   13080:	4705                	li	a4,1
   13082:	c85c                	sw	a5,20(s0)
   13084:	47ad                	li	a5,11
   13086:	c45c                	sw	a5,12(s0)
   13088:	00e41c23          	sh	a4,24(s0)
   1308c:	02e41823          	sh	a4,48(s0)
   13090:	01542023          	sw	s5,0(s0)
   13094:	87d6                	mv	a5,s5
   13096:	b511                	j	12e9a <emdnorm+0x16a>
   13098:	000a8e63          	beqz	s5,130b4 <emdnorm+0x384>
   1309c:	00442a83          	lw	s5,4(s0)
   130a0:	401c                	lw	a5,0(s0)
   130a2:	ccfa98e3          	bne	s5,a5,12d72 <emdnorm+0x42>
   130a6:	bbe5                	j	12e9e <emdnorm+0x16e>
   130a8:	0084c603          	lbu	a2,8(s1)
   130ac:	00848593          	add	a1,s1,8
   130b0:	4795                	li	a5,5
   130b2:	bb31                	j	12dce <emdnorm+0x9e>
   130b4:	00049c23          	sh	zero,24(s1)
   130b8:	00049123          	sh	zero,2(s1)
   130bc:	bb6d                	j	12e76 <emdnorm+0x146>
   130be:	8abe                	mv	s5,a5
   130c0:	bd55                	j	12f74 <emdnorm+0x244>
   130c2:	8abe                	mv	s5,a5
   130c4:	bd71                	j	12f60 <emdnorm+0x230>

00000000000130c6 <eiremain>:
   130c6:	711d                	add	sp,sp,-96
   130c8:	e0ca                	sd	s2,64(sp)
   130ca:	fc4e                	sd	s3,56(sp)
   130cc:	892e                	mv	s2,a1
   130ce:	00255983          	lhu	s3,2(a0)
   130d2:	ec86                	sd	ra,88(sp)
   130d4:	e8a2                	sd	s0,80(sp)
   130d6:	e4a6                	sd	s1,72(sp)
   130d8:	f852                	sd	s4,48(sp)
   130da:	84b2                	mv	s1,a2
   130dc:	ec5e                	sd	s7,24(sp)
   130de:	f456                	sd	s5,40(sp)
   130e0:	f05a                	sd	s6,32(sp)
   130e2:	e862                	sd	s8,16(sp)
   130e4:	e466                	sd	s9,8(sp)
   130e6:	e06a                	sd	s10,0(sp)
   130e8:	8baa                	mv	s7,a0
   130ea:	877ff0ef          	jal	12960 <enormlz>
   130ee:	00295403          	lhu	s0,2(s2)
   130f2:	87aa                	mv	a5,a0
   130f4:	854a                	mv	a0,s2
   130f6:	40f989b3          	sub	s3,s3,a5
   130fa:	03448a13          	add	s4,s1,52
   130fe:	863ff0ef          	jal	12960 <enormlz>
   13102:	8c09                	sub	s0,s0,a0
   13104:	04e48713          	add	a4,s1,78
   13108:	87d2                	mv	a5,s4
   1310a:	0789                	add	a5,a5,2
   1310c:	fe079f23          	sh	zero,-2(a5)
   13110:	fee79de3          	bne	a5,a4,1310a <eiremain+0x44>
   13114:	07344a63          	blt	s0,s3,13188 <eiremain+0xc2>
   13118:	004b8b13          	add	s6,s7,4
   1311c:	00490a93          	add	s5,s2,4
   13120:	01ab8c13          	add	s8,s7,26
   13124:	00290d13          	add	s10,s2,2
   13128:	8756                	mv	a4,s5
   1312a:	87da                	mv	a5,s6
   1312c:	0007d603          	lhu	a2,0(a5)
   13130:	00075683          	lhu	a3,0(a4)
   13134:	0789                	add	a5,a5,2
   13136:	0709                	add	a4,a4,2
   13138:	06d61c63          	bne	a2,a3,131b0 <eiremain+0xea>
   1313c:	fefc18e3          	bne	s8,a5,1312c <eiremain+0x66>
   13140:	018b8613          	add	a2,s7,24
   13144:	01890713          	add	a4,s2,24
   13148:	4681                	li	a3,0
   1314a:	00075783          	lhu	a5,0(a4)
   1314e:	00065583          	lhu	a1,0(a2)
   13152:	1779                	add	a4,a4,-2
   13154:	1679                	add	a2,a2,-2
   13156:	8f8d                	sub	a5,a5,a1
   13158:	8f95                	sub	a5,a5,a3
   1315a:	0107d693          	srl	a3,a5,0x10
   1315e:	00f71123          	sh	a5,2(a4)
   13162:	8a85                	and	a3,a3,1
   13164:	ffa713e3          	bne	a4,s10,1314a <eiremain+0x84>
   13168:	4c85                	li	s9,1
   1316a:	8552                	mv	a0,s4
   1316c:	ec4ff0ef          	jal	12830 <eshup1>
   13170:	04c4d783          	lhu	a5,76(s1)
   13174:	147d                	add	s0,s0,-1
   13176:	854a                	mv	a0,s2
   13178:	00fce7b3          	or	a5,s9,a5
   1317c:	04f49623          	sh	a5,76(s1)
   13180:	eb0ff0ef          	jal	12830 <eshup1>
   13184:	fb3452e3          	bge	s0,s3,13128 <eiremain+0x62>
   13188:	86a2                	mv	a3,s0
   1318a:	6446                	ld	s0,80(sp)
   1318c:	60e6                	ld	ra,88(sp)
   1318e:	79e2                	ld	s3,56(sp)
   13190:	7a42                	ld	s4,48(sp)
   13192:	7aa2                	ld	s5,40(sp)
   13194:	7b02                	ld	s6,32(sp)
   13196:	6be2                	ld	s7,24(sp)
   13198:	6c42                	ld	s8,16(sp)
   1319a:	6ca2                	ld	s9,8(sp)
   1319c:	6d02                	ld	s10,0(sp)
   1319e:	87a6                	mv	a5,s1
   131a0:	854a                	mv	a0,s2
   131a2:	64a6                	ld	s1,72(sp)
   131a4:	6906                	ld	s2,64(sp)
   131a6:	4701                	li	a4,0
   131a8:	4601                	li	a2,0
   131aa:	4581                	li	a1,0
   131ac:	6125                	add	sp,sp,96
   131ae:	b649                	j	12d30 <emdnorm>
   131b0:	4c81                	li	s9,0
   131b2:	fac6ece3          	bltu	a3,a2,1316a <eiremain+0xa4>
   131b6:	b769                	j	13140 <eiremain+0x7a>

00000000000131b8 <e113toe.isra.0>:
   131b8:	7179                	add	sp,sp,-48
   131ba:	f022                	sd	s0,32(sp)
   131bc:	f406                	sd	ra,40(sp)
   131be:	842e                	mv	s0,a1
   131c0:	878a                	mv	a5,sp
   131c2:	01a10713          	add	a4,sp,26
   131c6:	0789                	add	a5,a5,2
   131c8:	fe079f23          	sh	zero,-2(a5)
   131cc:	fee79de3          	bne	a5,a4,131c6 <e113toe.isra.0+0xe>
   131d0:	00e55783          	lhu	a5,14(a0)
   131d4:	6721                	lui	a4,0x8
   131d6:	177d                	add	a4,a4,-1 # 7fff <exit-0x80e9>
   131d8:	03079693          	sll	a3,a5,0x30
   131dc:	96fd                	sra	a3,a3,0x3f
   131de:	00d11023          	sh	a3,0(sp)
   131e2:	00e7f6b3          	and	a3,a5,a4
   131e6:	8636                	mv	a2,a3
   131e8:	04e68363          	beq	a3,a4,1322e <e113toe.isra.0+0x76>
   131ec:	00e50793          	add	a5,a0,14
   131f0:	00d11123          	sh	a3,2(sp)
   131f4:	00610713          	add	a4,sp,6
   131f8:	ffe7d683          	lhu	a3,-2(a5)
   131fc:	17f9                	add	a5,a5,-2
   131fe:	0709                	add	a4,a4,2
   13200:	fed71f23          	sh	a3,-2(a4)
   13204:	fef51ae3          	bne	a0,a5,131f8 <e113toe.isra.0+0x40>
   13208:	ea19                	bnez	a2,1321e <e113toe.isra.0+0x66>
   1320a:	00011223          	sh	zero,4(sp)
   1320e:	85a2                	mv	a1,s0
   13210:	850a                	mv	a0,sp
   13212:	ec2ff0ef          	jal	128d4 <emovo.constprop.0>
   13216:	70a2                	ld	ra,40(sp)
   13218:	7402                	ld	s0,32(sp)
   1321a:	6145                	add	sp,sp,48
   1321c:	8082                	ret
   1321e:	4785                	li	a5,1
   13220:	55fd                	li	a1,-1
   13222:	850a                	mv	a0,sp
   13224:	00f11223          	sh	a5,4(sp)
   13228:	845ff0ef          	jal	12a6c <eshift.part.0>
   1322c:	b7cd                	j	1320e <e113toe.isra.0+0x56>
   1322e:	87aa                	mv	a5,a0
   13230:	00e50693          	add	a3,a0,14
   13234:	0007d703          	lhu	a4,0(a5)
   13238:	0789                	add	a5,a5,2
   1323a:	ef21                	bnez	a4,13292 <e113toe.isra.0+0xda>
   1323c:	fed79ce3          	bne	a5,a3,13234 <e113toe.isra.0+0x7c>
   13240:	01440713          	add	a4,s0,20
   13244:	87a2                	mv	a5,s0
   13246:	0789                	add	a5,a5,2
   13248:	fe079f23          	sh	zero,-2(a5)
   1324c:	fee79de3          	bne	a5,a4,13246 <e113toe.isra.0+0x8e>
   13250:	01240713          	add	a4,s0,18
   13254:	87a2                	mv	a5,s0
   13256:	0789                	add	a5,a5,2
   13258:	fe079f23          	sh	zero,-2(a5)
   1325c:	fee79de3          	bne	a5,a4,13256 <e113toe.isra.0+0x9e>
   13260:	01245783          	lhu	a5,18(s0)
   13264:	66a1                	lui	a3,0x8
   13266:	16fd                	add	a3,a3,-1 # 7fff <exit-0x80e9>
   13268:	8fd5                	or	a5,a5,a3
   1326a:	17c2                	sll	a5,a5,0x30
   1326c:	93c1                	srl	a5,a5,0x30
   1326e:	00f41923          	sh	a5,18(s0)
   13272:	00e51683          	lh	a3,14(a0)
   13276:	fa06d0e3          	bgez	a3,13216 <e113toe.isra.0+0x5e>
   1327a:	86a2                	mv	a3,s0
   1327c:	0006d603          	lhu	a2,0(a3)
   13280:	0689                	add	a3,a3,2
   13282:	fa51                	bnez	a2,13216 <e113toe.isra.0+0x5e>
   13284:	fee69ce3          	bne	a3,a4,1327c <e113toe.isra.0+0xc4>
   13288:	7761                	lui	a4,0xffff8
   1328a:	8fb9                	xor	a5,a5,a4
   1328c:	00f41923          	sh	a5,18(s0)
   13290:	b759                	j	13216 <e113toe.isra.0+0x5e>
   13292:	01040713          	add	a4,s0,16
   13296:	87a2                	mv	a5,s0
   13298:	0789                	add	a5,a5,2
   1329a:	fe079f23          	sh	zero,-2(a5)
   1329e:	fee79de3          	bne	a5,a4,13298 <e113toe.isra.0+0xe0>
   132a2:	77f1                	lui	a5,0xffffc
   132a4:	00f41823          	sh	a5,16(s0)
   132a8:	77e1                	lui	a5,0xffff8
   132aa:	fff7c793          	not	a5,a5
   132ae:	00f41923          	sh	a5,18(s0)
   132b2:	b795                	j	13216 <e113toe.isra.0+0x5e>

00000000000132b4 <ediv>:
   132b4:	01255783          	lhu	a5,18(a0)
   132b8:	7151                	add	sp,sp,-240
   132ba:	f1a2                	sd	s0,224(sp)
   132bc:	fff7c793          	not	a5,a5
   132c0:	eda6                	sd	s1,216(sp)
   132c2:	e9ca                	sd	s2,208(sp)
   132c4:	e5ce                	sd	s3,200(sp)
   132c6:	f586                	sd	ra,232(sp)
   132c8:	e1d2                	sd	s4,192(sp)
   132ca:	fd56                	sd	s5,184(sp)
   132cc:	f95a                	sd	s6,176(sp)
   132ce:	f55e                	sd	s7,168(sp)
   132d0:	f162                	sd	s8,160(sp)
   132d2:	ed66                	sd	s9,152(sp)
   132d4:	e96a                	sd	s10,144(sp)
   132d6:	e56e                	sd	s11,136(sp)
   132d8:	03179713          	sll	a4,a5,0x31
   132dc:	84aa                	mv	s1,a0
   132de:	89ae                	mv	s3,a1
   132e0:	8432                	mv	s0,a2
   132e2:	8936                	mv	s2,a3
   132e4:	eb11                	bnez	a4,132f8 <ediv+0x44>
   132e6:	01250693          	add	a3,a0,18
   132ea:	87aa                	mv	a5,a0
   132ec:	0007d703          	lhu	a4,0(a5) # ffffffffffff8000 <__BSS_END__+0xfffffffffffdad18>
   132f0:	0789                	add	a5,a5,2
   132f2:	ef45                	bnez	a4,133aa <ediv+0xf6>
   132f4:	fed79ce3          	bne	a5,a3,132ec <ediv+0x38>
   132f8:	0129d783          	lhu	a5,18(s3)
   132fc:	fff7c793          	not	a5,a5
   13300:	03179713          	sll	a4,a5,0x31
   13304:	eb11                	bnez	a4,13318 <ediv+0x64>
   13306:	01298693          	add	a3,s3,18
   1330a:	87ce                	mv	a5,s3
   1330c:	0007d703          	lhu	a4,0(a5)
   13310:	0789                	add	a5,a5,2
   13312:	e75d                	bnez	a4,133c0 <ediv+0x10c>
   13314:	fed79ce3          	bne	a5,a3,1330c <ediv+0x58>
   13318:	6a6d                	lui	s4,0x1b
   1331a:	628a0593          	add	a1,s4,1576 # 1b628 <ezero>
   1331e:	8526                	mv	a0,s1
   13320:	929ff0ef          	jal	12c48 <ecmp>
   13324:	12050763          	beqz	a0,13452 <ediv+0x19e>
   13328:	0124d603          	lhu	a2,18(s1)
   1332c:	67a1                	lui	a5,0x8
   1332e:	17fd                	add	a5,a5,-1 # 7fff <exit-0x80e9>
   13330:	00f67533          	and	a0,a2,a5
   13334:	0af51163          	bne	a0,a5,133d6 <ediv+0x122>
   13338:	01248693          	add	a3,s1,18
   1333c:	87a6                	mv	a5,s1
   1333e:	0007d703          	lhu	a4,0(a5)
   13342:	0789                	add	a5,a5,2
   13344:	eb49                	bnez	a4,133d6 <ediv+0x122>
   13346:	fed79ce3          	bne	a5,a3,1333e <ediv+0x8a>
   1334a:	0129d703          	lhu	a4,18(s3)
   1334e:	fff74793          	not	a5,a4
   13352:	03179693          	sll	a3,a5,0x31
   13356:	e6f5                	bnez	a3,13442 <ediv+0x18e>
   13358:	01298693          	add	a3,s3,18
   1335c:	87ce                	mv	a5,s3
   1335e:	0007d583          	lhu	a1,0(a5)
   13362:	0789                	add	a5,a5,2
   13364:	36059a63          	bnez	a1,136d8 <ediv+0x424>
   13368:	fed79be3          	bne	a5,a3,1335e <ediv+0xaa>
   1336c:	01040713          	add	a4,s0,16
   13370:	87a2                	mv	a5,s0
   13372:	0789                	add	a5,a5,2
   13374:	fe079f23          	sh	zero,-2(a5)
   13378:	fee79de3          	bne	a5,a4,13372 <ediv+0xbe>
   1337c:	77f1                	lui	a5,0xffffc
   1337e:	00f41823          	sh	a5,16(s0)
   13382:	77e1                	lui	a5,0xffff8
   13384:	fff7c793          	not	a5,a5
   13388:	00f41923          	sh	a5,18(s0)
   1338c:	70ae                	ld	ra,232(sp)
   1338e:	740e                	ld	s0,224(sp)
   13390:	64ee                	ld	s1,216(sp)
   13392:	694e                	ld	s2,208(sp)
   13394:	69ae                	ld	s3,200(sp)
   13396:	6a0e                	ld	s4,192(sp)
   13398:	7aea                	ld	s5,184(sp)
   1339a:	7b4a                	ld	s6,176(sp)
   1339c:	7baa                	ld	s7,168(sp)
   1339e:	7c0a                	ld	s8,160(sp)
   133a0:	6cea                	ld	s9,152(sp)
   133a2:	6d4a                	ld	s10,144(sp)
   133a4:	6daa                	ld	s11,136(sp)
   133a6:	616d                	add	sp,sp,240
   133a8:	8082                	ret
   133aa:	01448713          	add	a4,s1,20
   133ae:	0004d783          	lhu	a5,0(s1)
   133b2:	0489                	add	s1,s1,2
   133b4:	0409                	add	s0,s0,2
   133b6:	fef41f23          	sh	a5,-2(s0)
   133ba:	fee49ae3          	bne	s1,a4,133ae <ediv+0xfa>
   133be:	b7f9                	j	1338c <ediv+0xd8>
   133c0:	01440713          	add	a4,s0,20
   133c4:	0009d783          	lhu	a5,0(s3)
   133c8:	0409                	add	s0,s0,2
   133ca:	0989                	add	s3,s3,2
   133cc:	fef41f23          	sh	a5,-2(s0)
   133d0:	fee41ae3          	bne	s0,a4,133c4 <ediv+0x110>
   133d4:	bf65                	j	1338c <ediv+0xd8>
   133d6:	0129d703          	lhu	a4,18(s3)
   133da:	fff74793          	not	a5,a4
   133de:	03179693          	sll	a3,a5,0x31
   133e2:	e2c1                	bnez	a3,13462 <ediv+0x1ae>
   133e4:	4801                	li	a6,0
   133e6:	01298693          	add	a3,s3,18
   133ea:	87ce                	mv	a5,s3
   133ec:	0007d583          	lhu	a1,0(a5) # ffffffffffff8000 <__BSS_END__+0xfffffffffffdad18>
   133f0:	0789                	add	a5,a5,2
   133f2:	e5b1                	bnez	a1,1343e <ediv+0x18a>
   133f4:	fed79ce3          	bne	a5,a3,133ec <ediv+0x138>
   133f8:	67a1                	lui	a5,0x8
   133fa:	17fd                	add	a5,a5,-1 # 7fff <exit-0x80e9>
   133fc:	0af50463          	beq	a0,a5,134a4 <ediv+0x1f0>
   13400:	823d                	srl	a2,a2,0xf
   13402:	0009d783          	lhu	a5,0(s3)
   13406:	0989                	add	s3,s3,2
   13408:	2c079463          	bnez	a5,136d0 <ediv+0x41c>
   1340c:	fed99be3          	bne	s3,a3,13402 <ediv+0x14e>
   13410:	00f75793          	srl	a5,a4,0xf
   13414:	8fb1                	xor	a5,a5,a2
   13416:	00f7979b          	sllw	a5,a5,0xf
   1341a:	00f41923          	sh	a5,18(s0)
   1341e:	01240713          	add	a4,s0,18
   13422:	87a2                	mv	a5,s0
   13424:	0789                	add	a5,a5,2
   13426:	fe079f23          	sh	zero,-2(a5)
   1342a:	fee79de3          	bne	a5,a4,13424 <ediv+0x170>
   1342e:	01245783          	lhu	a5,18(s0)
   13432:	6721                	lui	a4,0x8
   13434:	177d                	add	a4,a4,-1 # 7fff <exit-0x80e9>
   13436:	8fd9                	or	a5,a5,a4
   13438:	00f41923          	sh	a5,18(s0)
   1343c:	bf81                	j	1338c <ediv+0xd8>
   1343e:	02080263          	beqz	a6,13462 <ediv+0x1ae>
   13442:	01440793          	add	a5,s0,20
   13446:	0409                	add	s0,s0,2
   13448:	fe041f23          	sh	zero,-2(s0)
   1344c:	fef41de3          	bne	s0,a5,13446 <ediv+0x192>
   13450:	bf35                	j	1338c <ediv+0xd8>
   13452:	628a0593          	add	a1,s4,1576
   13456:	854e                	mv	a0,s3
   13458:	ff0ff0ef          	jal	12c48 <ecmp>
   1345c:	ec0516e3          	bnez	a0,13328 <ediv+0x74>
   13460:	b731                	j	1336c <ediv+0xb8>
   13462:	100c                	add	a1,sp,32
   13464:	8526                	mv	a0,s1
   13466:	f4eff0ef          	jal	12bb4 <emovi>
   1346a:	008c                	add	a1,sp,64
   1346c:	854e                	mv	a0,s3
   1346e:	f46ff0ef          	jal	12bb4 <emovi>
   13472:	04215b03          	lhu	s6,66(sp)
   13476:	02215c03          	lhu	s8,34(sp)
   1347a:	020b1f63          	bnez	s6,134b8 <ediv+0x204>
   1347e:	04210793          	add	a5,sp,66
   13482:	05810c93          	add	s9,sp,88
   13486:	0007d703          	lhu	a4,0(a5)
   1348a:	0789                	add	a5,a5,2
   1348c:	22071463          	bnez	a4,136b4 <ediv+0x400>
   13490:	fefc9be3          	bne	s9,a5,13486 <ediv+0x1d2>
   13494:	01440793          	add	a5,s0,20
   13498:	0409                	add	s0,s0,2
   1349a:	fe041f23          	sh	zero,-2(s0)
   1349e:	fef41de3          	bne	s0,a5,13498 <ediv+0x1e4>
   134a2:	b5ed                	j	1338c <ediv+0xd8>
   134a4:	01248593          	add	a1,s1,18
   134a8:	0004d783          	lhu	a5,0(s1)
   134ac:	0489                	add	s1,s1,2
   134ae:	22079363          	bnez	a5,136d4 <ediv+0x420>
   134b2:	feb49be3          	bne	s1,a1,134a8 <ediv+0x1f4>
   134b6:	b7a9                	j	13400 <ediv+0x14c>
   134b8:	e45a                	sd	s6,8(sp)
   134ba:	040c1063          	bnez	s8,134fa <ediv+0x246>
   134be:	02210793          	add	a5,sp,34
   134c2:	1834                	add	a3,sp,56
   134c4:	0007d703          	lhu	a4,0(a5)
   134c8:	0789                	add	a5,a5,2
   134ca:	1e071c63          	bnez	a4,136c2 <ediv+0x40e>
   134ce:	fed79be3          	bne	a5,a3,134c4 <ediv+0x210>
   134d2:	02015683          	lhu	a3,32(sp)
   134d6:	04015603          	lhu	a2,64(sp)
   134da:	01240713          	add	a4,s0,18
   134de:	87a2                	mv	a5,s0
   134e0:	8e91                	sub	a3,a3,a2
   134e2:	00d036b3          	snez	a3,a3
   134e6:	00f6969b          	sllw	a3,a3,0xf
   134ea:	00d41923          	sh	a3,18(s0)
   134ee:	0789                	add	a5,a5,2
   134f0:	fe079f23          	sh	zero,-2(a5)
   134f4:	fee79de3          	bne	a5,a4,134ee <ediv+0x23a>
   134f8:	bf1d                	j	1342e <ediv+0x17a>
   134fa:	e862                	sd	s8,16(sp)
   134fc:	4786                	lw	a5,64(sp)
   134fe:	03890493          	add	s1,s2,56
   13502:	03490713          	add	a4,s2,52
   13506:	02f92a23          	sw	a5,52(s2)
   1350a:	ec3a                	sd	a4,24(sp)
   1350c:	04e90993          	add	s3,s2,78
   13510:	87a6                	mv	a5,s1
   13512:	0789                	add	a5,a5,2
   13514:	fe079f23          	sh	zero,-2(a5)
   13518:	ff379de3          	bne	a5,s3,13512 <ediv+0x25e>
   1351c:	0088                	add	a0,sp,64
   1351e:	ad4ff0ef          	jal	127f2 <eshdn1>
   13522:	02615b83          	lhu	s7,38(sp)
   13526:	6a41                	lui	s4,0x10
   13528:	04210d13          	add	s10,sp,66
   1352c:	010b9a93          	sll	s5,s7,0x10
   13530:	417a8ab3          	sub	s5,s5,s7
   13534:	05810c93          	add	s9,sp,88
   13538:	1a7d                	add	s4,s4,-1 # ffff <exit-0xe9>
   1353a:	07a10d93          	add	s11,sp,122
   1353e:	06210c13          	add	s8,sp,98
   13542:	04415783          	lhu	a5,68(sp)
   13546:	04615703          	lhu	a4,70(sp)
   1354a:	8b52                	mv	s6,s4
   1354c:	07c2                	sll	a5,a5,0x10
   1354e:	97ba                	add	a5,a5,a4
   13550:	00fae863          	bltu	s5,a5,13560 <ediv+0x2ac>
   13554:	0377d7b3          	divu	a5,a5,s7
   13558:	03079b13          	sll	s6,a5,0x30
   1355c:	030b5b13          	srl	s6,s6,0x30
   13560:	1090                	add	a2,sp,96
   13562:	100c                	add	a1,sp,32
   13564:	855a                	mv	a0,s6
   13566:	b06ff0ef          	jal	1286c <m16m>
   1356a:	00d8                	add	a4,sp,68
   1356c:	10dc                	add	a5,sp,100
   1356e:	0007d603          	lhu	a2,0(a5)
   13572:	00075683          	lhu	a3,0(a4)
   13576:	0789                	add	a5,a5,2
   13578:	0709                	add	a4,a4,2
   1357a:	0ad61a63          	bne	a2,a3,1362e <ediv+0x37a>
   1357e:	ffb798e3          	bne	a5,s11,1356e <ediv+0x2ba>
   13582:	4681                	li	a3,0
   13584:	18b0                	add	a2,sp,120
   13586:	87e6                	mv	a5,s9
   13588:	0007d703          	lhu	a4,0(a5)
   1358c:	00065583          	lhu	a1,0(a2)
   13590:	17f9                	add	a5,a5,-2
   13592:	1679                	add	a2,a2,-2
   13594:	8f0d                	sub	a4,a4,a1
   13596:	8f15                	sub	a4,a4,a3
   13598:	01075693          	srl	a3,a4,0x10
   1359c:	00e79123          	sh	a4,2(a5)
   135a0:	8a85                	and	a3,a3,1
   135a2:	ffa793e3          	bne	a5,s10,13588 <ediv+0x2d4>
   135a6:	01649023          	sh	s6,0(s1)
   135aa:	00dc                	add	a5,sp,68
   135ac:	0027d703          	lhu	a4,2(a5)
   135b0:	0789                	add	a5,a5,2
   135b2:	fee79f23          	sh	a4,-2(a5)
   135b6:	ff979be3          	bne	a5,s9,135ac <ediv+0x2f8>
   135ba:	04011c23          	sh	zero,88(sp)
   135be:	0489                	add	s1,s1,2
   135c0:	f89991e3          	bne	s3,s1,13542 <ediv+0x28e>
   135c4:	4701                	li	a4,0
   135c6:	00dc                	add	a5,sp,68
   135c8:	05a10693          	add	a3,sp,90
   135cc:	0007d603          	lhu	a2,0(a5)
   135d0:	0789                	add	a5,a5,2
   135d2:	8f51                	or	a4,a4,a2
   135d4:	fed79ce3          	bne	a5,a3,135cc <ediv+0x318>
   135d8:	64e2                	ld	s1,24(sp)
   135da:	2701                	sext.w	a4,a4
   135dc:	00e035b3          	snez	a1,a4
   135e0:	009c                	add	a5,sp,64
   135e2:	0004d703          	lhu	a4,0(s1)
   135e6:	0789                	add	a5,a5,2
   135e8:	0489                	add	s1,s1,2
   135ea:	fee79f23          	sh	a4,-2(a5)
   135ee:	fed79ae3          	bne	a5,a3,135e2 <ediv+0x32e>
   135f2:	67a2                	ld	a5,8(sp)
   135f4:	6742                	ld	a4,16(sp)
   135f6:	6691                	lui	a3,0x4
   135f8:	16fd                	add	a3,a3,-1 # 3fff <exit-0xc0e9>
   135fa:	40e78b33          	sub	s6,a5,a4
   135fe:	0088                	add	a0,sp,64
   13600:	87ca                	mv	a5,s2
   13602:	04000713          	li	a4,64
   13606:	96da                	add	a3,a3,s6
   13608:	4601                	li	a2,0
   1360a:	f26ff0ef          	jal	12d30 <emdnorm>
   1360e:	04015703          	lhu	a4,64(sp)
   13612:	02015783          	lhu	a5,32(sp)
   13616:	85a2                	mv	a1,s0
   13618:	0088                	add	a0,sp,64
   1361a:	8f99                	sub	a5,a5,a4
   1361c:	00f037b3          	snez	a5,a5
   13620:	40f007bb          	negw	a5,a5
   13624:	04f11023          	sh	a5,64(sp)
   13628:	aacff0ef          	jal	128d4 <emovo.constprop.0>
   1362c:	b385                	j	1338c <ediv+0xd8>
   1362e:	f4c6fae3          	bgeu	a3,a2,13582 <ediv+0x2ce>
   13632:	fffb079b          	addw	a5,s6,-1
   13636:	03079313          	sll	t1,a5,0x30
   1363a:	03035313          	srl	t1,t1,0x30
   1363e:	4681                	li	a3,0
   13640:	1830                	add	a2,sp,56
   13642:	18b8                	add	a4,sp,120
   13644:	00075783          	lhu	a5,0(a4)
   13648:	00065583          	lhu	a1,0(a2)
   1364c:	1779                	add	a4,a4,-2
   1364e:	1679                	add	a2,a2,-2
   13650:	8f8d                	sub	a5,a5,a1
   13652:	8f95                	sub	a5,a5,a3
   13654:	0107d693          	srl	a3,a5,0x10
   13658:	00f71123          	sh	a5,2(a4)
   1365c:	8a85                	and	a3,a3,1
   1365e:	ff8713e3          	bne	a4,s8,13644 <ediv+0x390>
   13662:	00d8                	add	a4,sp,68
   13664:	10dc                	add	a5,sp,100
   13666:	0007d603          	lhu	a2,0(a5)
   1366a:	00075683          	lhu	a3,0(a4)
   1366e:	0789                	add	a5,a5,2
   13670:	0709                	add	a4,a4,2
   13672:	00d61663          	bne	a2,a3,1367e <ediv+0x3ca>
   13676:	ffb798e3          	bne	a5,s11,13666 <ediv+0x3b2>
   1367a:	8b1a                	mv	s6,t1
   1367c:	b719                	j	13582 <ediv+0x2ce>
   1367e:	fec6fee3          	bgeu	a3,a2,1367a <ediv+0x3c6>
   13682:	ffeb051b          	addw	a0,s6,-2
   13686:	03051b13          	sll	s6,a0,0x30
   1368a:	030b5b13          	srl	s6,s6,0x30
   1368e:	4681                	li	a3,0
   13690:	1830                	add	a2,sp,56
   13692:	18b8                	add	a4,sp,120
   13694:	00075783          	lhu	a5,0(a4)
   13698:	00065583          	lhu	a1,0(a2)
   1369c:	1779                	add	a4,a4,-2
   1369e:	1679                	add	a2,a2,-2
   136a0:	8f8d                	sub	a5,a5,a1
   136a2:	8f95                	sub	a5,a5,a3
   136a4:	0107d693          	srl	a3,a5,0x10
   136a8:	00f71123          	sh	a5,2(a4)
   136ac:	8a85                	and	a3,a3,1
   136ae:	ff8713e3          	bne	a4,s8,13694 <ediv+0x3e0>
   136b2:	bdc1                	j	13582 <ediv+0x2ce>
   136b4:	0088                	add	a0,sp,64
   136b6:	aaaff0ef          	jal	12960 <enormlz>
   136ba:	40a007b3          	neg	a5,a0
   136be:	e43e                	sd	a5,8(sp)
   136c0:	bbed                	j	134ba <ediv+0x206>
   136c2:	1008                	add	a0,sp,32
   136c4:	a9cff0ef          	jal	12960 <enormlz>
   136c8:	40a007b3          	neg	a5,a0
   136cc:	e83e                	sd	a5,16(sp)
   136ce:	b53d                	j	134fc <ediv+0x248>
   136d0:	4781                	li	a5,0
   136d2:	b389                	j	13414 <ediv+0x160>
   136d4:	4601                	li	a2,0
   136d6:	b335                	j	13402 <ediv+0x14e>
   136d8:	4805                	li	a6,1
   136da:	bb01                	j	133ea <ediv+0x136>

00000000000136dc <emul>:
   136dc:	01255803          	lhu	a6,18(a0)
   136e0:	6721                	lui	a4,0x8
   136e2:	7131                	add	sp,sp,-192
   136e4:	177d                	add	a4,a4,-1 # 7fff <exit-0x80e9>
   136e6:	f922                	sd	s0,176(sp)
   136e8:	f526                	sd	s1,168(sp)
   136ea:	f14a                	sd	s2,160(sp)
   136ec:	e556                	sd	s5,136(sp)
   136ee:	84aa                	mv	s1,a0
   136f0:	fd06                	sd	ra,184(sp)
   136f2:	ed4e                	sd	s3,152(sp)
   136f4:	e952                	sd	s4,144(sp)
   136f6:	e15a                	sd	s6,128(sp)
   136f8:	fcde                	sd	s7,120(sp)
   136fa:	f8e2                	sd	s8,112(sp)
   136fc:	f4e6                	sd	s9,104(sp)
   136fe:	f0ea                	sd	s10,96(sp)
   13700:	00e87533          	and	a0,a6,a4
   13704:	892e                	mv	s2,a1
   13706:	8432                	mv	s0,a2
   13708:	8ab6                	mv	s5,a3
   1370a:	12e51663          	bne	a0,a4,13836 <emul+0x15a>
   1370e:	01248993          	add	s3,s1,18
   13712:	8726                	mv	a4,s1
   13714:	00075603          	lhu	a2,0(a4)
   13718:	0709                	add	a4,a4,2
   1371a:	18061863          	bnez	a2,138aa <emul+0x1ce>
   1371e:	ff371be3          	bne	a4,s3,13714 <emul+0x38>
   13722:	01295603          	lhu	a2,18(s2)
   13726:	fff64793          	not	a5,a2
   1372a:	03179713          	sll	a4,a5,0x31
   1372e:	10070a63          	beqz	a4,13842 <emul+0x166>
   13732:	87a6                	mv	a5,s1
   13734:	0007d703          	lhu	a4,0(a5)
   13738:	0789                	add	a5,a5,2
   1373a:	1e071563          	bnez	a4,13924 <emul+0x248>
   1373e:	ff379be3          	bne	a5,s3,13734 <emul+0x58>
   13742:	65ed                	lui	a1,0x1b
   13744:	62858593          	add	a1,a1,1576 # 1b628 <ezero>
   13748:	854a                	mv	a0,s2
   1374a:	cfeff0ef          	jal	12c48 <ecmp>
   1374e:	1e050e63          	beqz	a0,1394a <emul+0x26e>
   13752:	01295603          	lhu	a2,18(s2)
   13756:	65a1                	lui	a1,0x8
   13758:	15fd                	add	a1,a1,-1 # 7fff <exit-0x80e9>
   1375a:	00b67733          	and	a4,a2,a1
   1375e:	86ba                	mv	a3,a4
   13760:	01290793          	add	a5,s2,18
   13764:	30b71c63          	bne	a4,a1,13a7c <emul+0x3a0>
   13768:	874a                	mv	a4,s2
   1376a:	00075683          	lhu	a3,0(a4)
   1376e:	0709                	add	a4,a4,2
   13770:	18069563          	bnez	a3,138fa <emul+0x21e>
   13774:	fee79be3          	bne	a5,a4,1376a <emul+0x8e>
   13778:	65ed                	lui	a1,0x1b
   1377a:	62858593          	add	a1,a1,1576 # 1b628 <ezero>
   1377e:	8526                	mv	a0,s1
   13780:	cc8ff0ef          	jal	12c48 <ecmp>
   13784:	1c050363          	beqz	a0,1394a <emul+0x26e>
   13788:	0124d803          	lhu	a6,18(s1)
   1378c:	01295603          	lhu	a2,18(s2)
   13790:	67a1                	lui	a5,0x8
   13792:	17fd                	add	a5,a5,-1 # 7fff <exit-0x80e9>
   13794:	00f87733          	and	a4,a6,a5
   13798:	00f676b3          	and	a3,a2,a5
   1379c:	85ba                	mv	a1,a4
   1379e:	16f70763          	beq	a4,a5,1390c <emul+0x230>
   137a2:	8736                	mv	a4,a3
   137a4:	86ae                	mv	a3,a1
   137a6:	67a1                	lui	a5,0x8
   137a8:	2701                	sext.w	a4,a4
   137aa:	17fd                	add	a5,a5,-1 # 7fff <exit-0x80e9>
   137ac:	0af71e63          	bne	a4,a5,13868 <emul+0x18c>
   137b0:	01290793          	add	a5,s2,18
   137b4:	874a                	mv	a4,s2
   137b6:	00075583          	lhu	a1,0(a4)
   137ba:	0709                	add	a4,a4,2
   137bc:	e5d5                	bnez	a1,13868 <emul+0x18c>
   137be:	fee79ce3          	bne	a5,a4,137b6 <emul+0xda>
   137c2:	65a1                	lui	a1,0x8
   137c4:	15fd                	add	a1,a1,-1 # 7fff <exit-0x80e9>
   137c6:	0006871b          	sext.w	a4,a3
   137ca:	01248993          	add	s3,s1,18
   137ce:	18b69f63          	bne	a3,a1,1396c <emul+0x290>
   137d2:	0004d783          	lhu	a5,0(s1)
   137d6:	0489                	add	s1,s1,2
   137d8:	18079d63          	bnez	a5,13972 <emul+0x296>
   137dc:	fe999be3          	bne	s3,s1,137d2 <emul+0xf6>
   137e0:	00f85813          	srl	a6,a6,0xf
   137e4:	67a1                	lui	a5,0x8
   137e6:	17fd                	add	a5,a5,-1 # 7fff <exit-0x80e9>
   137e8:	14f70863          	beq	a4,a5,13938 <emul+0x25c>
   137ec:	00f65793          	srl	a5,a2,0xf
   137f0:	0107c7b3          	xor	a5,a5,a6
   137f4:	00f7979b          	sllw	a5,a5,0xf
   137f8:	00f41923          	sh	a5,18(s0)
   137fc:	01240713          	add	a4,s0,18
   13800:	87a2                	mv	a5,s0
   13802:	0789                	add	a5,a5,2
   13804:	fe079f23          	sh	zero,-2(a5)
   13808:	fee79de3          	bne	a5,a4,13802 <emul+0x126>
   1380c:	01245783          	lhu	a5,18(s0)
   13810:	6721                	lui	a4,0x8
   13812:	177d                	add	a4,a4,-1 # 7fff <exit-0x80e9>
   13814:	8fd9                	or	a5,a5,a4
   13816:	00f41923          	sh	a5,18(s0)
   1381a:	70ea                	ld	ra,184(sp)
   1381c:	744a                	ld	s0,176(sp)
   1381e:	74aa                	ld	s1,168(sp)
   13820:	790a                	ld	s2,160(sp)
   13822:	69ea                	ld	s3,152(sp)
   13824:	6a4a                	ld	s4,144(sp)
   13826:	6aaa                	ld	s5,136(sp)
   13828:	6b0a                	ld	s6,128(sp)
   1382a:	7be6                	ld	s7,120(sp)
   1382c:	7c46                	ld	s8,112(sp)
   1382e:	7ca6                	ld	s9,104(sp)
   13830:	7d06                	ld	s10,96(sp)
   13832:	6129                	add	sp,sp,192
   13834:	8082                	ret
   13836:	0125d603          	lhu	a2,18(a1)
   1383a:	00e677b3          	and	a5,a2,a4
   1383e:	02e79563          	bne	a5,a4,13868 <emul+0x18c>
   13842:	01290793          	add	a5,s2,18
   13846:	874a                	mv	a4,s2
   13848:	00075683          	lhu	a3,0(a4)
   1384c:	0709                	add	a4,a4,2
   1384e:	eaad                	bnez	a3,138c0 <emul+0x1e4>
   13850:	fef71ce3          	bne	a4,a5,13848 <emul+0x16c>
   13854:	6721                	lui	a4,0x8
   13856:	177d                	add	a4,a4,-1 # 7fff <exit-0x80e9>
   13858:	01248993          	add	s3,s1,18
   1385c:	ece50be3          	beq	a0,a4,13732 <emul+0x56>
   13860:	00e676b3          	and	a3,a2,a4
   13864:	f0e682e3          	beq	a3,a4,13768 <emul+0x8c>
   13868:	8526                	mv	a0,s1
   1386a:	858a                	mv	a1,sp
   1386c:	b48ff0ef          	jal	12bb4 <emovi>
   13870:	854a                	mv	a0,s2
   13872:	100c                	add	a1,sp,32
   13874:	b40ff0ef          	jal	12bb4 <emovi>
   13878:	00215903          	lhu	s2,2(sp)
   1387c:	02215483          	lhu	s1,34(sp)
   13880:	04090b63          	beqz	s2,138d6 <emul+0x1fa>
   13884:	ecfd                	bnez	s1,13982 <emul+0x2a6>
   13886:	02210793          	add	a5,sp,34
   1388a:	1834                	add	a3,sp,56
   1388c:	0007d703          	lhu	a4,0(a5)
   13890:	0789                	add	a5,a5,2
   13892:	1c071d63          	bnez	a4,13a6c <emul+0x390>
   13896:	fed79be3          	bne	a5,a3,1388c <emul+0x1b0>
   1389a:	01440793          	add	a5,s0,20
   1389e:	0409                	add	s0,s0,2
   138a0:	fe041f23          	sh	zero,-2(s0)
   138a4:	fe879de3          	bne	a5,s0,1389e <emul+0x1c2>
   138a8:	bf8d                	j	1381a <emul+0x13e>
   138aa:	01440713          	add	a4,s0,20
   138ae:	0004d783          	lhu	a5,0(s1)
   138b2:	0409                	add	s0,s0,2
   138b4:	0489                	add	s1,s1,2
   138b6:	fef41f23          	sh	a5,-2(s0)
   138ba:	fee41ae3          	bne	s0,a4,138ae <emul+0x1d2>
   138be:	bfb1                	j	1381a <emul+0x13e>
   138c0:	01490713          	add	a4,s2,20
   138c4:	00095783          	lhu	a5,0(s2)
   138c8:	0909                	add	s2,s2,2
   138ca:	0409                	add	s0,s0,2
   138cc:	fef41f23          	sh	a5,-2(s0)
   138d0:	ff271ae3          	bne	a4,s2,138c4 <emul+0x1e8>
   138d4:	b799                	j	1381a <emul+0x13e>
   138d6:	00210793          	add	a5,sp,2
   138da:	0834                	add	a3,sp,24
   138dc:	0007d703          	lhu	a4,0(a5)
   138e0:	0789                	add	a5,a5,2
   138e2:	16071f63          	bnez	a4,13a60 <emul+0x384>
   138e6:	fef69be3          	bne	a3,a5,138dc <emul+0x200>
   138ea:	01440793          	add	a5,s0,20
   138ee:	0409                	add	s0,s0,2
   138f0:	fe041f23          	sh	zero,-2(s0)
   138f4:	fef41de3          	bne	s0,a5,138ee <emul+0x212>
   138f8:	b70d                	j	1381a <emul+0x13e>
   138fa:	0124d803          	lhu	a6,18(s1)
   138fe:	65a1                	lui	a1,0x8
   13900:	15fd                	add	a1,a1,-1 # 7fff <exit-0x80e9>
   13902:	00b87733          	and	a4,a6,a1
   13906:	86ba                	mv	a3,a4
   13908:	eab716e3          	bne	a4,a1,137b4 <emul+0xd8>
   1390c:	01248993          	add	s3,s1,18
   13910:	87a6                	mv	a5,s1
   13912:	0007d703          	lhu	a4,0(a5)
   13916:	0789                	add	a5,a5,2
   13918:	e32d                	bnez	a4,1397a <emul+0x29e>
   1391a:	fef99ce3          	bne	s3,a5,13912 <emul+0x236>
   1391e:	0006871b          	sext.w	a4,a3
   13922:	bd45                	j	137d2 <emul+0xf6>
   13924:	65a1                	lui	a1,0x8
   13926:	15fd                	add	a1,a1,-1 # 7fff <exit-0x80e9>
   13928:	00b67733          	and	a4,a2,a1
   1392c:	86ba                	mv	a3,a4
   1392e:	01290793          	add	a5,s2,18
   13932:	e2b70be3          	beq	a4,a1,13768 <emul+0x8c>
   13936:	bfe9                	j	13910 <emul+0x234>
   13938:	01290793          	add	a5,s2,18
   1393c:	00095703          	lhu	a4,0(s2)
   13940:	0909                	add	s2,s2,2
   13942:	eb15                	bnez	a4,13976 <emul+0x29a>
   13944:	fef91ce3          	bne	s2,a5,1393c <emul+0x260>
   13948:	b555                	j	137ec <emul+0x110>
   1394a:	01040713          	add	a4,s0,16
   1394e:	87a2                	mv	a5,s0
   13950:	0789                	add	a5,a5,2
   13952:	fe079f23          	sh	zero,-2(a5)
   13956:	fef71de3          	bne	a4,a5,13950 <emul+0x274>
   1395a:	77f1                	lui	a5,0xffffc
   1395c:	00f41823          	sh	a5,16(s0)
   13960:	77e1                	lui	a5,0xffff8
   13962:	fff7c793          	not	a5,a5
   13966:	00f41923          	sh	a5,18(s0)
   1396a:	bd45                	j	1381a <emul+0x13e>
   1396c:	00f85813          	srl	a6,a6,0xf
   13970:	b7f1                	j	1393c <emul+0x260>
   13972:	4801                	li	a6,0
   13974:	bd85                	j	137e4 <emul+0x108>
   13976:	4781                	li	a5,0
   13978:	bda5                	j	137f0 <emul+0x114>
   1397a:	8736                	mv	a4,a3
   1397c:	66a1                	lui	a3,0x8
   1397e:	16fd                	add	a3,a3,-1 # 7fff <exit-0x80e9>
   13980:	b51d                	j	137a6 <emul+0xca>
   13982:	89a6                	mv	s3,s1
   13984:	02015783          	lhu	a5,32(sp)
   13988:	0104949b          	sllw	s1,s1,0x10
   1398c:	038a8a13          	add	s4,s5,56
   13990:	8fc5                	or	a5,a5,s1
   13992:	02faaa23          	sw	a5,52(s5)
   13996:	034a8493          	add	s1,s5,52
   1399a:	87d2                	mv	a5,s4
   1399c:	04ea8713          	add	a4,s5,78
   139a0:	00079023          	sh	zero,0(a5) # ffffffffffff8000 <__BSS_END__+0xfffffffffffdad18>
   139a4:	0789                	add	a5,a5,2
   139a6:	fee79de3          	bne	a5,a4,139a0 <emul+0x2c4>
   139aa:	04ca8c93          	add	s9,s5,76
   139ae:	4c01                	li	s8,0
   139b0:	01810b13          	add	s6,sp,24
   139b4:	00410d13          	add	s10,sp,4
   139b8:	04210b93          	add	s7,sp,66
   139bc:	000b5503          	lhu	a0,0(s6)
   139c0:	1b79                	add	s6,s6,-2
   139c2:	e925                	bnez	a0,13a32 <emul+0x356>
   139c4:	04cad783          	lhu	a5,76(s5)
   139c8:	8766                	mv	a4,s9
   139ca:	00fc6c33          	or	s8,s8,a5
   139ce:	ffe75603          	lhu	a2,-2(a4)
   139d2:	1779                	add	a4,a4,-2
   139d4:	00c71123          	sh	a2,2(a4)
   139d8:	feea1be3          	bne	s4,a4,139ce <emul+0x2f2>
   139dc:	020a9c23          	sh	zero,56(s5)
   139e0:	fdab1ee3          	bne	s6,s10,139bc <emul+0x2e0>
   139e4:	101c                	add	a5,sp,32
   139e6:	03a10693          	add	a3,sp,58
   139ea:	0004d703          	lhu	a4,0(s1)
   139ee:	0789                	add	a5,a5,2
   139f0:	0489                	add	s1,s1,2
   139f2:	fee79f23          	sh	a4,-2(a5)
   139f6:	fef69ae3          	bne	a3,a5,139ea <emul+0x30e>
   139fa:	76f1                	lui	a3,0xffffc
   139fc:	994e                	add	s2,s2,s3
   139fe:	0689                	add	a3,a3,2 # ffffffffffffc002 <__BSS_END__+0xfffffffffffded1a>
   13a00:	85e2                	mv	a1,s8
   13a02:	1008                	add	a0,sp,32
   13a04:	87d6                	mv	a5,s5
   13a06:	04000713          	li	a4,64
   13a0a:	96ca                	add	a3,a3,s2
   13a0c:	4601                	li	a2,0
   13a0e:	b22ff0ef          	jal	12d30 <emdnorm>
   13a12:	02015703          	lhu	a4,32(sp)
   13a16:	00015783          	lhu	a5,0(sp)
   13a1a:	85a2                	mv	a1,s0
   13a1c:	1008                	add	a0,sp,32
   13a1e:	8f99                	sub	a5,a5,a4
   13a20:	00f037b3          	snez	a5,a5
   13a24:	40f007bb          	negw	a5,a5
   13a28:	02f11023          	sh	a5,32(sp)
   13a2c:	ea9fe0ef          	jal	128d4 <emovo.constprop.0>
   13a30:	b3ed                	j	1381a <emul+0x13e>
   13a32:	0090                	add	a2,sp,64
   13a34:	100c                	add	a1,sp,32
   13a36:	e37fe0ef          	jal	1286c <m16m>
   13a3a:	8566                	mv	a0,s9
   13a3c:	4581                	li	a1,0
   13a3e:	08b0                	add	a2,sp,88
   13a40:	00055783          	lhu	a5,0(a0)
   13a44:	00065703          	lhu	a4,0(a2)
   13a48:	1579                	add	a0,a0,-2
   13a4a:	1679                	add	a2,a2,-2
   13a4c:	973e                	add	a4,a4,a5
   13a4e:	972e                	add	a4,a4,a1
   13a50:	01075593          	srl	a1,a4,0x10
   13a54:	00e51123          	sh	a4,2(a0)
   13a58:	8985                	and	a1,a1,1
   13a5a:	ff7613e3          	bne	a2,s7,13a40 <emul+0x364>
   13a5e:	b79d                	j	139c4 <emul+0x2e8>
   13a60:	850a                	mv	a0,sp
   13a62:	efffe0ef          	jal	12960 <enormlz>
   13a66:	40a00933          	neg	s2,a0
   13a6a:	bd29                	j	13884 <emul+0x1a8>
   13a6c:	1008                	add	a0,sp,32
   13a6e:	ef3fe0ef          	jal	12960 <enormlz>
   13a72:	40a009b3          	neg	s3,a0
   13a76:	02215483          	lhu	s1,34(sp)
   13a7a:	b729                	j	13984 <emul+0x2a8>
   13a7c:	0124d803          	lhu	a6,18(s1)
   13a80:	00b877b3          	and	a5,a6,a1
   13a84:	e8b786e3          	beq	a5,a1,13910 <emul+0x234>
   13a88:	b3c5                	j	13868 <emul+0x18c>

0000000000013a8a <_ldtoa_r>:
   13a8a:	d8010113          	add	sp,sp,-640
   13a8e:	09100313          	li	t1,145
   13a92:	fcb2                	sd	a2,120(sp)
   13a94:	06053e03          	ld	t3,96(a0)
   13a98:	02031613          	sll	a2,t1,0x20
   13a9c:	167d                	add	a2,a2,-1
   13a9e:	26813823          	sd	s0,624(sp)
   13aa2:	27213023          	sd	s2,608(sp)
   13aa6:	26113c23          	sd	ra,632(sp)
   13aaa:	26913423          	sd	s1,616(sp)
   13aae:	25313c23          	sd	s3,600(sp)
   13ab2:	25413823          	sd	s4,592(sp)
   13ab6:	25513423          	sd	s5,584(sp)
   13aba:	25613023          	sd	s6,576(sp)
   13abe:	23713c23          	sd	s7,568(sp)
   13ac2:	23813823          	sd	s8,560(sp)
   13ac6:	23913423          	sd	s9,552(sp)
   13aca:	23a13023          	sd	s10,544(sp)
   13ace:	21b13c23          	sd	s11,536(sp)
   13ad2:	f8ae                	sd	a1,112(sp)
   13ad4:	e3b2                	sd	a2,448(sp)
   13ad6:	e436                	sd	a3,8(sp)
   13ad8:	ec3a                	sd	a4,24(sp)
   13ada:	f03e                	sd	a5,32(sp)
   13adc:	f446                	sd	a7,40(sp)
   13ade:	892a                	mv	s2,a0
   13ae0:	8442                	mv	s0,a6
   13ae2:	020e0163          	beqz	t3,13b04 <_ldtoa_r+0x7a>
   13ae6:	553c                	lw	a5,104(a0)
   13ae8:	4705                	li	a4,1
   13aea:	85f2                	mv	a1,t3
   13aec:	00f7173b          	sllw	a4,a4,a5
   13af0:	1782                	sll	a5,a5,0x20
   13af2:	1702                	sll	a4,a4,0x20
   13af4:	9381                	srl	a5,a5,0x20
   13af6:	8fd9                	or	a5,a5,a4
   13af8:	00fe3423          	sd	a5,8(t3)
   13afc:	5d2010ef          	jal	150ce <_Bfree>
   13b00:	06093023          	sd	zero,96(s2)
   13b04:	110c                	add	a1,sp,160
   13b06:	1888                	add	a0,sp,112
   13b08:	eb0ff0ef          	jal	131b8 <e113toe.isra.0>
   13b0c:	0b215683          	lhu	a3,178(sp)
   13b10:	67a1                	lui	a5,0x8
   13b12:	17fd                	add	a5,a5,-1 # 7fff <exit-0x80e9>
   13b14:	00f6f733          	and	a4,a3,a5
   13b18:	f83a                	sd	a4,48(sp)
   13b1a:	34f70b63          	beq	a4,a5,13e70 <_ldtoa_r+0x3e6>
   13b1e:	0106979b          	sllw	a5,a3,0x10
   13b22:	4107d79b          	sraw	a5,a5,0x10
   13b26:	6722                	ld	a4,8(sp)
   13b28:	01f7d79b          	srlw	a5,a5,0x1f
   13b2c:	c01c                	sw	a5,0(s0)
   13b2e:	478d                	li	a5,3
   13b30:	70f70563          	beq	a4,a5,1423a <_ldtoa_r+0x7b0>
   13b34:	47d1                	li	a5,20
   13b36:	e83e                	sd	a5,16(sp)
   13b38:	67a2                	ld	a5,8(sp)
   13b3a:	70079c63          	bnez	a5,14252 <_ldtoa_r+0x7c8>
   13b3e:	019c                	add	a5,sp,192
   13b40:	1118                	add	a4,sp,160
   13b42:	09c0                	add	s0,sp,212
   13b44:	00075683          	lhu	a3,0(a4)
   13b48:	0789                	add	a5,a5,2
   13b4a:	0709                	add	a4,a4,2
   13b4c:	fed79f23          	sh	a3,-2(a5)
   13b50:	fe879ae3          	bne	a5,s0,13b44 <_ldtoa_r+0xba>
   13b54:	0d215a83          	lhu	s5,210(sp)
   13b58:	4981                	li	s3,0
   13b5a:	00fad793          	srl	a5,s5,0xf
   13b5e:	cb91                	beqz	a5,13b72 <_ldtoa_r+0xe8>
   13b60:	031a9f13          	sll	t5,s5,0x31
   13b64:	031f5a93          	srl	s5,t5,0x31
   13b68:	67c1                	lui	a5,0x10
   13b6a:	0d511923          	sh	s5,210(sp)
   13b6e:	fff78993          	add	s3,a5,-1 # ffff <exit-0xe9>
   13b72:	6bed                	lui	s7,0x1b
   13b74:	64ed                	lui	s1,0x1b
   13b76:	1198                	add	a4,sp,224
   13b78:	610b8793          	add	a5,s7,1552 # 1b610 <eone>
   13b7c:	62448493          	add	s1,s1,1572 # 1b624 <eone+0x14>
   13b80:	0007d683          	lhu	a3,0(a5)
   13b84:	0789                	add	a5,a5,2
   13b86:	0709                	add	a4,a4,2
   13b88:	fed71f23          	sh	a3,-2(a4)
   13b8c:	fe979ae3          	bne	a5,s1,13b80 <_ldtoa_r+0xf6>
   13b90:	520a9763          	bnez	s5,140be <_ldtoa_r+0x634>
   13b94:	019c                	add	a5,sp,192
   13b96:	0d210693          	add	a3,sp,210
   13b9a:	0007d703          	lhu	a4,0(a5)
   13b9e:	52071863          	bnez	a4,140ce <_ldtoa_r+0x644>
   13ba2:	0789                	add	a5,a5,2
   13ba4:	fef69be3          	bne	a3,a5,13b9a <_ldtoa_r+0x110>
   13ba8:	4401                	li	s0,0
   13baa:	18010c13          	add	s8,sp,384
   13bae:	1c010b13          	add	s6,sp,448
   13bb2:	12010a13          	add	s4,sp,288
   13bb6:	13810d93          	add	s11,sp,312
   13bba:	85d2                	mv	a1,s4
   13bbc:	1188                	add	a0,sp,224
   13bbe:	ff7fe0ef          	jal	12bb4 <emovi>
   13bc2:	84d2                	mv	s1,s4
   13bc4:	1194                	add	a3,sp,224
   13bc6:	87d2                	mv	a5,s4
   13bc8:	6398                	ld	a4,0(a5)
   13bca:	07a1                	add	a5,a5,8
   13bcc:	06a1                	add	a3,a3,8
   13bce:	fee6bc23          	sd	a4,-8(a3)
   13bd2:	fefd9be3          	bne	s11,a5,13bc8 <_ldtoa_r+0x13e>
   13bd6:	85d2                	mv	a1,s4
   13bd8:	0188                	add	a0,sp,192
   13bda:	0e011c23          	sh	zero,248(sp)
   13bde:	fd7fe0ef          	jal	12bb4 <emovi>
   13be2:	0d810b93          	add	s7,sp,216
   13be6:	019c                	add	a5,sp,192
   13be8:	6098                	ld	a4,0(s1)
   13bea:	07a1                	add	a5,a5,8
   13bec:	04a1                	add	s1,s1,8
   13bee:	fee7bc23          	sd	a4,-8(a5)
   13bf2:	fefb9be3          	bne	s7,a5,13be8 <_ldtoa_r+0x15e>
   13bf6:	865a                	mv	a2,s6
   13bf8:	018c                	add	a1,sp,192
   13bfa:	1188                	add	a0,sp,224
   13bfc:	0c011c23          	sh	zero,216(sp)
   13c00:	cc6ff0ef          	jal	130c6 <eiremain>
   13c04:	20c15d83          	lhu	s11,524(sp)
   13c08:	64ed                	lui	s1,0x1b
   13c0a:	0c210d13          	add	s10,sp,194
   13c0e:	10210c93          	add	s9,sp,258
   13c12:	100d9063          	bnez	s11,13d12 <_ldtoa_r+0x288>
   13c16:	62848593          	add	a1,s1,1576 # 1b628 <ezero>
   13c1a:	0188                	add	a0,sp,192
   13c1c:	82cff0ef          	jal	12c48 <ecmp>
   13c20:	c96d                	beqz	a0,13d12 <_ldtoa_r+0x288>
   13c22:	4701                	li	a4,0
   13c24:	86de                	mv	a3,s7
   13c26:	0006d783          	lhu	a5,0(a3)
   13c2a:	00f7d613          	srl	a2,a5,0xf
   13c2e:	c219                	beqz	a2,13c34 <_ldtoa_r+0x1aa>
   13c30:	00176713          	or	a4,a4,1
   13c34:	0017979b          	sllw	a5,a5,0x1
   13c38:	17c2                	sll	a5,a5,0x30
   13c3a:	00277613          	and	a2,a4,2
   13c3e:	93c1                	srl	a5,a5,0x30
   13c40:	c219                	beqz	a2,13c46 <_ldtoa_r+0x1bc>
   13c42:	0017e793          	or	a5,a5,1
   13c46:	0017171b          	sllw	a4,a4,0x1
   13c4a:	00f69023          	sh	a5,0(a3)
   13c4e:	1742                	sll	a4,a4,0x30
   13c50:	16f9                	add	a3,a3,-2
   13c52:	9341                	srl	a4,a4,0x30
   13c54:	fda699e3          	bne	a3,s10,13c26 <_ldtoa_r+0x19c>
   13c58:	0218                	add	a4,sp,256
   13c5a:	019c                	add	a5,sp,192
   13c5c:	6394                	ld	a3,0(a5)
   13c5e:	07a1                	add	a5,a5,8
   13c60:	0721                	add	a4,a4,8
   13c62:	fed73c23          	sd	a3,-8(a4)
   13c66:	fefb9be3          	bne	s7,a5,13c5c <_ldtoa_r+0x1d2>
   13c6a:	10011c23          	sh	zero,280(sp)
   13c6e:	4701                	li	a4,0
   13c70:	0a34                	add	a3,sp,280
   13c72:	0006d783          	lhu	a5,0(a3)
   13c76:	00f7d613          	srl	a2,a5,0xf
   13c7a:	c219                	beqz	a2,13c80 <_ldtoa_r+0x1f6>
   13c7c:	00176713          	or	a4,a4,1
   13c80:	0017979b          	sllw	a5,a5,0x1
   13c84:	17c2                	sll	a5,a5,0x30
   13c86:	00277613          	and	a2,a4,2
   13c8a:	93c1                	srl	a5,a5,0x30
   13c8c:	c219                	beqz	a2,13c92 <_ldtoa_r+0x208>
   13c8e:	0017e793          	or	a5,a5,1
   13c92:	0017171b          	sllw	a4,a4,0x1
   13c96:	00f69023          	sh	a5,0(a3)
   13c9a:	1742                	sll	a4,a4,0x30
   13c9c:	16f9                	add	a3,a3,-2
   13c9e:	9341                	srl	a4,a4,0x30
   13ca0:	fd9699e3          	bne	a3,s9,13c72 <_ldtoa_r+0x1e8>
   13ca4:	4701                	li	a4,0
   13ca6:	0a34                	add	a3,sp,280
   13ca8:	0006d783          	lhu	a5,0(a3)
   13cac:	00f7d613          	srl	a2,a5,0xf
   13cb0:	c219                	beqz	a2,13cb6 <_ldtoa_r+0x22c>
   13cb2:	00176713          	or	a4,a4,1
   13cb6:	0017979b          	sllw	a5,a5,0x1
   13cba:	17c2                	sll	a5,a5,0x30
   13cbc:	00277613          	and	a2,a4,2
   13cc0:	93c1                	srl	a5,a5,0x30
   13cc2:	c219                	beqz	a2,13cc8 <_ldtoa_r+0x23e>
   13cc4:	0017e793          	or	a5,a5,1
   13cc8:	0017171b          	sllw	a4,a4,0x1
   13ccc:	00f69023          	sh	a5,0(a3)
   13cd0:	1742                	sll	a4,a4,0x30
   13cd2:	16f9                	add	a3,a3,-2
   13cd4:	9341                	srl	a4,a4,0x30
   13cd6:	fd9699e3          	bne	a3,s9,13ca8 <_ldtoa_r+0x21e>
   13cda:	4601                	li	a2,0
   13cdc:	86de                	mv	a3,s7
   13cde:	0a38                	add	a4,sp,280
   13ce0:	0006d583          	lhu	a1,0(a3)
   13ce4:	00075783          	lhu	a5,0(a4)
   13ce8:	16f9                	add	a3,a3,-2
   13cea:	1779                	add	a4,a4,-2
   13cec:	97ae                	add	a5,a5,a1
   13cee:	97b2                	add	a5,a5,a2
   13cf0:	0107d613          	srl	a2,a5,0x10
   13cf4:	00f69123          	sh	a5,2(a3)
   13cf8:	8a05                	and	a2,a2,1
   13cfa:	ff9713e3          	bne	a4,s9,13ce0 <_ldtoa_r+0x256>
   13cfe:	865a                	mv	a2,s6
   13d00:	018c                	add	a1,sp,192
   13d02:	1188                	add	a0,sp,224
   13d04:	bc2ff0ef          	jal	130c6 <eiremain>
   13d08:	20c15783          	lhu	a5,524(sp)
   13d0c:	347d                	addw	s0,s0,-1
   13d0e:	d781                	beqz	a5,13c16 <_ldtoa_r+0x18c>
   13d10:	8dbe                	mv	s11,a5
   13d12:	02000793          	li	a5,32
   13d16:	00098463          	beqz	s3,13d1e <_ldtoa_r+0x294>
   13d1a:	02d00793          	li	a5,45
   13d1e:	6722                	ld	a4,8(sp)
   13d20:	18f10023          	sb	a5,384(sp)
   13d24:	468d                	li	a3,3
   13d26:	67c2                	ld	a5,16(sp)
   13d28:	00d71363          	bne	a4,a3,13d2e <_ldtoa_r+0x2a4>
   13d2c:	9fa1                	addw	a5,a5,s0
   13d2e:	02a00693          	li	a3,42
   13d32:	863e                	mv	a2,a5
   13d34:	00f6d463          	bge	a3,a5,13d3c <_ldtoa_r+0x2b2>
   13d38:	02a00613          	li	a2,42
   13d3c:	46a9                	li	a3,10
   13d3e:	00060a1b          	sext.w	s4,a2
   13d42:	4cdd8963          	beq	s11,a3,14214 <_ldtoa_r+0x78a>
   13d46:	030d8d9b          	addw	s11,s11,48
   13d4a:	02e00693          	li	a3,46
   13d4e:	19b100a3          	sb	s11,385(sp)
   13d52:	18d10123          	sb	a3,386(sp)
   13d56:	1a07c863          	bltz	a5,13f06 <_ldtoa_r+0x47c>
   13d5a:	18310a93          	add	s5,sp,387
   13d5e:	4981                	li	s3,0
   13d60:	10010c93          	add	s9,sp,256
   13d64:	11810d93          	add	s11,sp,280
   13d68:	0c210d13          	add	s10,sp,194
   13d6c:	10210493          	add	s1,sp,258
   13d70:	4701                	li	a4,0
   13d72:	86de                	mv	a3,s7
   13d74:	0006d783          	lhu	a5,0(a3)
   13d78:	00f7d613          	srl	a2,a5,0xf
   13d7c:	c219                	beqz	a2,13d82 <_ldtoa_r+0x2f8>
   13d7e:	00176713          	or	a4,a4,1
   13d82:	0017979b          	sllw	a5,a5,0x1
   13d86:	17c2                	sll	a5,a5,0x30
   13d88:	00277613          	and	a2,a4,2
   13d8c:	93c1                	srl	a5,a5,0x30
   13d8e:	c219                	beqz	a2,13d94 <_ldtoa_r+0x30a>
   13d90:	0017e793          	or	a5,a5,1
   13d94:	0017171b          	sllw	a4,a4,0x1
   13d98:	00f69023          	sh	a5,0(a3)
   13d9c:	1742                	sll	a4,a4,0x30
   13d9e:	16f9                	add	a3,a3,-2
   13da0:	9341                	srl	a4,a4,0x30
   13da2:	fda699e3          	bne	a3,s10,13d74 <_ldtoa_r+0x2ea>
   13da6:	87e6                	mv	a5,s9
   13da8:	0198                	add	a4,sp,192
   13daa:	6314                	ld	a3,0(a4)
   13dac:	07a1                	add	a5,a5,8
   13dae:	0721                	add	a4,a4,8
   13db0:	fed7bc23          	sd	a3,-8(a5)
   13db4:	fefd9be3          	bne	s11,a5,13daa <_ldtoa_r+0x320>
   13db8:	10011c23          	sh	zero,280(sp)
   13dbc:	4701                	li	a4,0
   13dbe:	86ee                	mv	a3,s11
   13dc0:	0006d783          	lhu	a5,0(a3)
   13dc4:	00f7d613          	srl	a2,a5,0xf
   13dc8:	c219                	beqz	a2,13dce <_ldtoa_r+0x344>
   13dca:	00176713          	or	a4,a4,1
   13dce:	0017979b          	sllw	a5,a5,0x1
   13dd2:	17c2                	sll	a5,a5,0x30
   13dd4:	00277613          	and	a2,a4,2
   13dd8:	93c1                	srl	a5,a5,0x30
   13dda:	c219                	beqz	a2,13de0 <_ldtoa_r+0x356>
   13ddc:	0017e793          	or	a5,a5,1
   13de0:	0017171b          	sllw	a4,a4,0x1
   13de4:	00f69023          	sh	a5,0(a3)
   13de8:	1742                	sll	a4,a4,0x30
   13dea:	16f9                	add	a3,a3,-2
   13dec:	9341                	srl	a4,a4,0x30
   13dee:	fc9699e3          	bne	a3,s1,13dc0 <_ldtoa_r+0x336>
   13df2:	4701                	li	a4,0
   13df4:	86ee                	mv	a3,s11
   13df6:	0006d783          	lhu	a5,0(a3)
   13dfa:	00f7d613          	srl	a2,a5,0xf
   13dfe:	c219                	beqz	a2,13e04 <_ldtoa_r+0x37a>
   13e00:	00176713          	or	a4,a4,1
   13e04:	0017979b          	sllw	a5,a5,0x1
   13e08:	17c2                	sll	a5,a5,0x30
   13e0a:	00277613          	and	a2,a4,2
   13e0e:	93c1                	srl	a5,a5,0x30
   13e10:	c219                	beqz	a2,13e16 <_ldtoa_r+0x38c>
   13e12:	0017e793          	or	a5,a5,1
   13e16:	0017171b          	sllw	a4,a4,0x1
   13e1a:	00f69023          	sh	a5,0(a3)
   13e1e:	1742                	sll	a4,a4,0x30
   13e20:	16f9                	add	a3,a3,-2
   13e22:	9341                	srl	a4,a4,0x30
   13e24:	fc9699e3          	bne	a3,s1,13df6 <_ldtoa_r+0x36c>
   13e28:	4601                	li	a2,0
   13e2a:	86de                	mv	a3,s7
   13e2c:	876e                	mv	a4,s11
   13e2e:	0006d583          	lhu	a1,0(a3)
   13e32:	00075783          	lhu	a5,0(a4)
   13e36:	16f9                	add	a3,a3,-2
   13e38:	1779                	add	a4,a4,-2
   13e3a:	97ae                	add	a5,a5,a1
   13e3c:	97b2                	add	a5,a5,a2
   13e3e:	0107d613          	srl	a2,a5,0x10
   13e42:	00f69123          	sh	a5,2(a3)
   13e46:	8a05                	and	a2,a2,1
   13e48:	fe9713e3          	bne	a4,s1,13e2e <_ldtoa_r+0x3a4>
   13e4c:	018c                	add	a1,sp,192
   13e4e:	865a                	mv	a2,s6
   13e50:	1188                	add	a0,sp,224
   13e52:	a74ff0ef          	jal	130c6 <eiremain>
   13e56:	20c15583          	lhu	a1,524(sp)
   13e5a:	001a8793          	add	a5,s5,1
   13e5e:	2985                	addw	s3,s3,1
   13e60:	0305871b          	addw	a4,a1,48
   13e64:	fee78fa3          	sb	a4,-1(a5)
   13e68:	0b3a4563          	blt	s4,s3,13f12 <_ldtoa_r+0x488>
   13e6c:	8abe                	mv	s5,a5
   13e6e:	b709                	j	13d70 <_ldtoa_r+0x2e6>
   13e70:	111c                	add	a5,sp,160
   13e72:	0b210613          	add	a2,sp,178
   13e76:	0007d703          	lhu	a4,0(a5)
   13e7a:	0789                	add	a5,a5,2
   13e7c:	5e071a63          	bnez	a4,14470 <_ldtoa_r+0x9e6>
   13e80:	fec79be3          	bne	a5,a2,13e76 <_ldtoa_r+0x3ec>
   13e84:	82bd                	srl	a3,a3,0xf
   13e86:	6722                	ld	a4,8(sp)
   13e88:	c014                	sw	a3,0(s0)
   13e8a:	478d                	li	a5,3
   13e8c:	5cf70663          	beq	a4,a5,14458 <_ldtoa_r+0x9ce>
   13e90:	47d1                	li	a5,20
   13e92:	e83e                	sd	a5,16(sp)
   13e94:	cb19                	beqz	a4,13eaa <_ldtoa_r+0x420>
   13e96:	67e2                	ld	a5,24(sp)
   13e98:	fff78a1b          	addw	s4,a5,-1
   13e9c:	02a00793          	li	a5,42
   13ea0:	0147d463          	bge	a5,s4,13ea8 <_ldtoa_r+0x41e>
   13ea4:	02a00a13          	li	s4,42
   13ea8:	e852                	sd	s4,16(sp)
   13eaa:	0a015703          	lhu	a4,160(sp)
   13eae:	111c                	add	a5,sp,160
   13eb0:	0b210693          	add	a3,sp,178
   13eb4:	0789                	add	a5,a5,2
   13eb6:	e719                	bnez	a4,13ec4 <_ldtoa_r+0x43a>
   13eb8:	c8d783e3          	beq	a5,a3,13b3e <_ldtoa_r+0xb4>
   13ebc:	0007d703          	lhu	a4,0(a5)
   13ec0:	0789                	add	a5,a5,2
   13ec2:	db7d                	beqz	a4,13eb8 <_ldtoa_r+0x42e>
   13ec4:	18010c13          	add	s8,sp,384
   13ec8:	65ed                	lui	a1,0x1b
   13eca:	3d058593          	add	a1,a1,976 # 1b3d0 <blanks.1+0xe8>
   13ece:	8562                	mv	a0,s8
   13ed0:	9a1fc0ef          	jal	10870 <sprintf>
   13ed4:	6409                	lui	s0,0x2
   13ed6:	70f40413          	add	s0,s0,1807 # 270f <exit-0xd9d9>
   13eda:	09000793          	li	a5,144
   13ede:	1cf12223          	sw	a5,452(sp)
   13ee2:	1c812823          	sw	s0,464(sp)
   13ee6:	111c                	add	a5,sp,160
   13ee8:	0b210613          	add	a2,sp,178
   13eec:	0007d703          	lhu	a4,0(a5)
   13ef0:	0789                	add	a5,a5,2
   13ef2:	70071463          	bnez	a4,145fa <_ldtoa_r+0xb70>
   13ef6:	fec79be3          	bne	a5,a2,13eec <_ldtoa_r+0x462>
   13efa:	7702                	ld	a4,32(sp)
   13efc:	6789                	lui	a5,0x2
   13efe:	70f78793          	add	a5,a5,1807 # 270f <exit-0xd9d9>
   13f02:	c31c                	sw	a5,0(a4)
   13f04:	a86d                	j	13fbe <_ldtoa_r+0x534>
   13f06:	20c15583          	lhu	a1,524(sp)
   13f0a:	18210a93          	add	s5,sp,386
   13f0e:	18310793          	add	a5,sp,387
   13f12:	4691                	li	a3,4
   13f14:	04b6d463          	bge	a3,a1,13f5c <_ldtoa_r+0x4d2>
   13f18:	4695                	li	a3,5
   13f1a:	70d58963          	beq	a1,a3,1462c <_ldtoa_r+0xba2>
   13f1e:	ffe7c683          	lbu	a3,-2(a5)
   13f22:	ffe78593          	add	a1,a5,-2
   13f26:	07f6f693          	and	a3,a3,127
   13f2a:	020a4463          	bltz	s4,13f52 <_ldtoa_r+0x4c8>
   13f2e:	02e00793          	li	a5,46
   13f32:	03800613          	li	a2,56
   13f36:	03000513          	li	a0,48
   13f3a:	6af68463          	beq	a3,a5,145e2 <_ldtoa_r+0xb58>
   13f3e:	68d67e63          	bgeu	a2,a3,145da <_ldtoa_r+0xb50>
   13f42:	fff5c683          	lbu	a3,-1(a1)
   13f46:	00a58023          	sb	a0,0(a1)
   13f4a:	15fd                	add	a1,a1,-1
   13f4c:	07f6f693          	and	a3,a3,127
   13f50:	b7ed                	j	13f3a <_ldtoa_r+0x4b0>
   13f52:	03100693          	li	a3,49
   13f56:	fed78f23          	sb	a3,-2(a5)
   13f5a:	2405                	addw	s0,s0,1
   13f5c:	65ed                	lui	a1,0x1b
   13f5e:	8622                	mv	a2,s0
   13f60:	35858593          	add	a1,a1,856 # 1b358 <blanks.1+0x70>
   13f64:	8556                	mv	a0,s5
   13f66:	90bfc0ef          	jal	10870 <sprintf>
   13f6a:	09000793          	li	a5,144
   13f6e:	7742                	ld	a4,48(sp)
   13f70:	1cf12223          	sw	a5,452(sp)
   13f74:	67a1                	lui	a5,0x8
   13f76:	1c812823          	sw	s0,464(sp)
   13f7a:	17fd                	add	a5,a5,-1 # 7fff <exit-0x80e9>
   13f7c:	f6f705e3          	beq	a4,a5,13ee6 <_ldtoa_r+0x45c>
   13f80:	7702                	ld	a4,32(sp)
   13f82:	18014683          	lbu	a3,384(sp)
   13f86:	0014079b          	addw	a5,s0,1
   13f8a:	c31c                	sw	a5,0(a4)
   13f8c:	4c068463          	beqz	a3,14454 <_ldtoa_r+0x9ca>
   13f90:	87e2                	mv	a5,s8
   13f92:	02e00613          	li	a2,46
   13f96:	24c68d63          	beq	a3,a2,141f0 <_ldtoa_r+0x766>
   13f9a:	0017c683          	lbu	a3,1(a5)
   13f9e:	0785                	add	a5,a5,1
   13fa0:	fafd                	bnez	a3,13f96 <_ldtoa_r+0x50c>
   13fa2:	04500613          	li	a2,69
   13fa6:	00fc6563          	bltu	s8,a5,13fb0 <_ldtoa_r+0x526>
   13faa:	a801                	j	13fba <_ldtoa_r+0x530>
   13fac:	4b878463          	beq	a5,s8,14454 <_ldtoa_r+0x9ca>
   13fb0:	fff7c703          	lbu	a4,-1(a5)
   13fb4:	17fd                	add	a5,a5,-1
   13fb6:	fec71be3          	bne	a4,a2,13fac <_ldtoa_r+0x522>
   13fba:	00078023          	sb	zero,0(a5)
   13fbe:	87e2                	mv	a5,s8
   13fc0:	02000613          	li	a2,32
   13fc4:	02d00593          	li	a1,45
   13fc8:	0007c703          	lbu	a4,0(a5)
   13fcc:	00c70463          	beq	a4,a2,13fd4 <_ldtoa_r+0x54a>
   13fd0:	00b71463          	bne	a4,a1,13fd8 <_ldtoa_r+0x54e>
   13fd4:	0785                	add	a5,a5,1
   13fd6:	bfcd                	j	13fc8 <_ldtoa_r+0x53e>
   13fd8:	8662                	mv	a2,s8
   13fda:	0007c703          	lbu	a4,0(a5)
   13fde:	84b2                	mv	s1,a2
   13fe0:	0785                	add	a5,a5,1
   13fe2:	00e60023          	sb	a4,0(a2)
   13fe6:	0605                	add	a2,a2,1
   13fe8:	fb6d                	bnez	a4,13fda <_ldtoa_r+0x550>
   13fea:	6722                	ld	a4,8(sp)
   13fec:	4789                	li	a5,2
   13fee:	fff4c603          	lbu	a2,-1(s1)
   13ff2:	1ef70563          	beq	a4,a5,141dc <_ldtoa_r+0x752>
   13ff6:	6742                	ld	a4,16(sp)
   13ff8:	87ba                	mv	a5,a4
   13ffa:	00875363          	bge	a4,s0,14000 <_ldtoa_r+0x576>
   13ffe:	87a2                	mv	a5,s0
   14000:	03000593          	li	a1,48
   14004:	0007869b          	sext.w	a3,a5
   14008:	02b61463          	bne	a2,a1,14030 <_ldtoa_r+0x5a6>
   1400c:	418487b3          	sub	a5,s1,s8
   14010:	02f6d063          	bge	a3,a5,14030 <_ldtoa_r+0x5a6>
   14014:	03000613          	li	a2,48
   14018:	a029                	j	14022 <_ldtoa_r+0x598>
   1401a:	418487b3          	sub	a5,s1,s8
   1401e:	00f6d963          	bge	a3,a5,14030 <_ldtoa_r+0x5a6>
   14022:	ffe4c783          	lbu	a5,-2(s1)
   14026:	fe048fa3          	sb	zero,-1(s1)
   1402a:	14fd                	add	s1,s1,-1
   1402c:	fec787e3          	beq	a5,a2,1401a <_ldtoa_r+0x590>
   14030:	6722                	ld	a4,8(sp)
   14032:	478d                	li	a5,3
   14034:	16f70f63          	beq	a4,a5,141b2 <_ldtoa_r+0x728>
   14038:	67e2                	ld	a5,24(sp)
   1403a:	467d                	li	a2,31
   1403c:	4685                	li	a3,1
   1403e:	0097851b          	addw	a0,a5,9
   14042:	4791                	li	a5,4
   14044:	18a67863          	bgeu	a2,a0,141d4 <_ldtoa_r+0x74a>
   14048:	0017979b          	sllw	a5,a5,0x1
   1404c:	01c78713          	add	a4,a5,28
   14050:	0006859b          	sext.w	a1,a3
   14054:	2685                	addw	a3,a3,1
   14056:	fee579e3          	bgeu	a0,a4,14048 <_ldtoa_r+0x5be>
   1405a:	2581                	sext.w	a1,a1
   1405c:	06b92423          	sw	a1,104(s2)
   14060:	854a                	mv	a0,s2
   14062:	008010ef          	jal	1506a <_Balloc>
   14066:	842a                	mv	s0,a0
   14068:	74050863          	beqz	a0,147b8 <_ldtoa_r+0xd2e>
   1406c:	06a93023          	sd	a0,96(s2)
   14070:	85e2                	mv	a1,s8
   14072:	639010ef          	jal	15eaa <strcpy>
   14076:	7722                	ld	a4,40(sp)
   14078:	c709                	beqz	a4,14082 <_ldtoa_r+0x5f8>
   1407a:	418487b3          	sub	a5,s1,s8
   1407e:	97a2                	add	a5,a5,s0
   14080:	e31c                	sd	a5,0(a4)
   14082:	27813083          	ld	ra,632(sp)
   14086:	8522                	mv	a0,s0
   14088:	27013403          	ld	s0,624(sp)
   1408c:	26813483          	ld	s1,616(sp)
   14090:	26013903          	ld	s2,608(sp)
   14094:	25813983          	ld	s3,600(sp)
   14098:	25013a03          	ld	s4,592(sp)
   1409c:	24813a83          	ld	s5,584(sp)
   140a0:	24013b03          	ld	s6,576(sp)
   140a4:	23813b83          	ld	s7,568(sp)
   140a8:	23013c03          	ld	s8,560(sp)
   140ac:	22813c83          	ld	s9,552(sp)
   140b0:	22013d03          	ld	s10,544(sp)
   140b4:	21813d83          	ld	s11,536(sp)
   140b8:	28010113          	add	sp,sp,640
   140bc:	8082                	ret
   140be:	67a1                	lui	a5,0x8
   140c0:	17fd                	add	a5,a5,-1 # 7fff <exit-0x80e9>
   140c2:	4efa8a63          	beq	s5,a5,145b6 <_ldtoa_r+0xb2c>
   140c6:	0d011783          	lh	a5,208(sp)
   140ca:	5407d863          	bgez	a5,1461a <_ldtoa_r+0xb90>
   140ce:	018c                	add	a1,sp,192
   140d0:	610b8513          	add	a0,s7,1552
   140d4:	b75fe0ef          	jal	12c48 <ecmp>
   140d8:	ac0508e3          	beqz	a0,13ba8 <_ldtoa_r+0x11e>
   140dc:	18054663          	bltz	a0,14268 <_ldtoa_r+0x7de>
   140e0:	5a0a9463          	bnez	s5,14688 <_ldtoa_r+0xbfe>
   140e4:	0d011783          	lh	a5,208(sp)
   140e8:	4401                	li	s0,0
   140ea:	1c010b13          	add	s6,sp,448
   140ee:	0007cf63          	bltz	a5,1410c <_ldtoa_r+0x682>
   140f2:	6d6d                	lui	s10,0x1b
   140f4:	0190                	add	a2,sp,192
   140f6:	86da                	mv	a3,s6
   140f8:	85b2                	mv	a1,a2
   140fa:	5f8d0513          	add	a0,s10,1528 # 1b5f8 <etens+0xf0>
   140fe:	ddeff0ef          	jal	136dc <emul>
   14102:	0d011783          	lh	a5,208(sp)
   14106:	347d                	addw	s0,s0,-1
   14108:	fe07d6e3          	bgez	a5,140f4 <_ldtoa_r+0x66a>
   1410c:	12010a13          	add	s4,sp,288
   14110:	13810d93          	add	s11,sp,312
   14114:	87d2                	mv	a5,s4
   14116:	0198                	add	a4,sp,192
   14118:	1a50                	add	a2,sp,308
   1411a:	00075683          	lhu	a3,0(a4)
   1411e:	0789                	add	a5,a5,2
   14120:	0709                	add	a4,a4,2
   14122:	fed79f23          	sh	a3,-2(a5)
   14126:	fec79ae3          	bne	a5,a2,1411a <_ldtoa_r+0x690>
   1412a:	67ed                	lui	a5,0x1b
   1412c:	1198                	add	a4,sp,224
   1412e:	61078793          	add	a5,a5,1552 # 1b610 <eone>
   14132:	0007d683          	lhu	a3,0(a5)
   14136:	0789                	add	a5,a5,2
   14138:	0709                	add	a4,a4,2
   1413a:	fed71f23          	sh	a3,-2(a4)
   1413e:	fe979ae3          	bne	a5,s1,14132 <_ldtoa_r+0x6a8>
   14142:	6d6d                	lui	s10,0x1b
   14144:	6ced                	lui	s9,0x1b
   14146:	67ed                	lui	a5,0x1b
   14148:	74fd                	lui	s1,0xfffff
   1414a:	508d0d13          	add	s10,s10,1288 # 1b508 <etens>
   1414e:	400c8c93          	add	s9,s9,1024 # 1b400 <emtens>
   14152:	4f078a93          	add	s5,a5,1264 # 1b4f0 <emtens+0xf0>
   14156:	a019                	j	1415c <_ldtoa_r+0x6d2>
   14158:	0cd1                	add	s9,s9,20
   1415a:	0d51                	add	s10,s10,20
   1415c:	85d2                	mv	a1,s4
   1415e:	610b8513          	add	a0,s7,1552
   14162:	ae7fe0ef          	jal	12c48 <ecmp>
   14166:	02a05c63          	blez	a0,1419e <_ldtoa_r+0x714>
   1416a:	85d2                	mv	a1,s4
   1416c:	8566                	mv	a0,s9
   1416e:	adbfe0ef          	jal	12c48 <ecmp>
   14172:	00054f63          	bltz	a0,14190 <_ldtoa_r+0x706>
   14176:	86da                	mv	a3,s6
   14178:	8652                	mv	a2,s4
   1417a:	85d2                	mv	a1,s4
   1417c:	856a                	mv	a0,s10
   1417e:	d5eff0ef          	jal	136dc <emul>
   14182:	1190                	add	a2,sp,224
   14184:	86da                	mv	a3,s6
   14186:	85b2                	mv	a1,a2
   14188:	856a                	mv	a0,s10
   1418a:	d52ff0ef          	jal	136dc <emul>
   1418e:	9c25                	addw	s0,s0,s1
   14190:	01f4d79b          	srlw	a5,s1,0x1f
   14194:	9fa5                	addw	a5,a5,s1
   14196:	4017d49b          	sraw	s1,a5,0x1
   1419a:	fb5c9fe3          	bne	s9,s5,14158 <_ldtoa_r+0x6ce>
   1419e:	1190                	add	a2,sp,224
   141a0:	86da                	mv	a3,s6
   141a2:	610b8593          	add	a1,s7,1552
   141a6:	8532                	mv	a0,a2
   141a8:	90cff0ef          	jal	132b4 <ediv>
   141ac:	18010c13          	add	s8,sp,384
   141b0:	b429                	j	13bba <_ldtoa_r+0x130>
   141b2:	67c2                	ld	a5,16(sp)
   141b4:	9c3d                	addw	s0,s0,a5
   141b6:	3e044163          	bltz	s0,14598 <_ldtoa_r+0xb0e>
   141ba:	7782                	ld	a5,32(sp)
   141bc:	6762                	ld	a4,24(sp)
   141be:	439c                	lw	a5,0(a5)
   141c0:	9fb9                	addw	a5,a5,a4
   141c2:	ec3e                	sd	a5,24(sp)
   141c4:	67e2                	ld	a5,24(sp)
   141c6:	467d                	li	a2,31
   141c8:	4685                	li	a3,1
   141ca:	0037851b          	addw	a0,a5,3
   141ce:	4791                	li	a5,4
   141d0:	e6a66ce3          	bltu	a2,a0,14048 <_ldtoa_r+0x5be>
   141d4:	06092423          	sw	zero,104(s2)
   141d8:	4581                	li	a1,0
   141da:	b559                	j	14060 <_ldtoa_r+0x5d6>
   141dc:	03000793          	li	a5,48
   141e0:	e4f61ce3          	bne	a2,a5,14038 <_ldtoa_r+0x5ae>
   141e4:	418487b3          	sub	a5,s1,s8
   141e8:	4685                	li	a3,1
   141ea:	e2f6c5e3          	blt	a3,a5,14014 <_ldtoa_r+0x58a>
   141ee:	b5a9                	j	14038 <_ldtoa_r+0x5ae>
   141f0:	0007c683          	lbu	a3,0(a5)
   141f4:	da0687e3          	beqz	a3,13fa2 <_ldtoa_r+0x518>
   141f8:	0017c703          	lbu	a4,1(a5)
   141fc:	0785                	add	a5,a5,1
   141fe:	fee78fa3          	sb	a4,-1(a5)
   14202:	da0700e3          	beqz	a4,13fa2 <_ldtoa_r+0x518>
   14206:	0017c703          	lbu	a4,1(a5)
   1420a:	0785                	add	a5,a5,1
   1420c:	fee78fa3          	sb	a4,-1(a5)
   14210:	f765                	bnez	a4,141f8 <_ldtoa_r+0x76e>
   14212:	bb41                	j	13fa2 <_ldtoa_r+0x518>
   14214:	03100693          	li	a3,49
   14218:	18d100a3          	sb	a3,385(sp)
   1421c:	02e00693          	li	a3,46
   14220:	18d10123          	sb	a3,386(sp)
   14224:	2405                	addw	s0,s0,1
   14226:	22f05163          	blez	a5,14448 <_ldtoa_r+0x9be>
   1422a:	03000793          	li	a5,48
   1422e:	18f101a3          	sb	a5,387(sp)
   14232:	3a7d                	addw	s4,s4,-1
   14234:	18410a93          	add	s5,sp,388
   14238:	b61d                	j	13d5e <_ldtoa_r+0x2d4>
   1423a:	6762                	ld	a4,24(sp)
   1423c:	02a00793          	li	a5,42
   14240:	8a3a                	mv	s4,a4
   14242:	00e7d463          	bge	a5,a4,1424a <_ldtoa_r+0x7c0>
   14246:	02a00a13          	li	s4,42
   1424a:	000a079b          	sext.w	a5,s4
   1424e:	e83e                	sd	a5,16(sp)
   14250:	b0fd                	j	13b3e <_ldtoa_r+0xb4>
   14252:	67e2                	ld	a5,24(sp)
   14254:	fff78a1b          	addw	s4,a5,-1
   14258:	02a00793          	li	a5,42
   1425c:	0147d463          	bge	a5,s4,14264 <_ldtoa_r+0x7da>
   14260:	02a00a13          	li	s4,42
   14264:	e852                	sd	s4,16(sp)
   14266:	b8e1                	j	13b3e <_ldtoa_r+0xb4>
   14268:	10010c93          	add	s9,sp,256
   1426c:	8766                	mv	a4,s9
   1426e:	019c                	add	a5,sp,192
   14270:	0007d683          	lhu	a3,0(a5)
   14274:	0789                	add	a5,a5,2
   14276:	0709                	add	a4,a4,2
   14278:	fed71f23          	sh	a3,-2(a4)
   1427c:	fe879ae3          	bne	a5,s0,14270 <_ldtoa_r+0x7e6>
   14280:	6791                	lui	a5,0x4
   14282:	08e78793          	add	a5,a5,142 # 408e <exit-0xc05a>
   14286:	10f11923          	sh	a5,274(sp)
   1428a:	67ed                	lui	a5,0x1b
   1428c:	60c78793          	add	a5,a5,1548 # 1b60c <etens+0x104>
   14290:	e4be                	sd	a5,72(sp)
   14292:	67a1                	lui	a5,0x8
   14294:	17fd                	add	a5,a5,-1 # 7fff <exit-0x80e9>
   14296:	fc3e                	sd	a5,56(sp)
   14298:	77f1                	lui	a5,0xffffc
   1429a:	2789                	addw	a5,a5,2 # ffffffffffffc002 <__BSS_END__+0xfffffffffffded1a>
   1429c:	6eed                	lui	t4,0x1b
   1429e:	c2be                	sw	a5,68(sp)
   142a0:	67ed                	lui	a5,0x1b
   142a2:	4401                	li	s0,0
   142a4:	4741                	li	a4,16
   142a6:	5a8e8e93          	add	t4,t4,1448 # 1b5a8 <etens+0xa0>
   142aa:	3d878793          	add	a5,a5,984 # 1b3d8 <bmask>
   142ae:	ecce                	sd	s3,88(sp)
   142b0:	f0ca                	sd	s2,96(sp)
   142b2:	18010c13          	add	s8,sp,384
   142b6:	8922                	mv	s2,s0
   142b8:	1c010b13          	add	s6,sp,448
   142bc:	12010a13          	add	s4,sp,288
   142c0:	0f210d93          	add	s11,sp,242
   142c4:	e8be                	sd	a5,80(sp)
   142c6:	0f410d13          	add	s10,sp,244
   142ca:	89f6                	mv	s3,t4
   142cc:	843a                	mv	s0,a4
   142ce:	86da                	mv	a3,s6
   142d0:	1190                	add	a2,sp,224
   142d2:	85e6                	mv	a1,s9
   142d4:	854e                	mv	a0,s3
   142d6:	fdffe0ef          	jal	132b4 <ediv>
   142da:	013c                	add	a5,sp,136
   142dc:	1198                	add	a4,sp,224
   142de:	09c10893          	add	a7,sp,156
   142e2:	00075683          	lhu	a3,0(a4)
   142e6:	0789                	add	a5,a5,2
   142e8:	0709                	add	a4,a4,2
   142ea:	fed79f23          	sh	a3,-2(a5)
   142ee:	ff179ae3          	bne	a5,a7,142e2 <_ldtoa_r+0x858>
   142f2:	77e2                	ld	a5,56(sp)
   142f4:	09a15503          	lhu	a0,154(sp)
   142f8:	00f575b3          	and	a1,a0,a5
   142fc:	4796                	lw	a5,68(sp)
   142fe:	9fad                	addw	a5,a5,a1
   14300:	85be                	mv	a1,a5
   14302:	2af05263          	blez	a5,145a6 <_ldtoa_r+0xb1c>
   14306:	09000793          	li	a5,144
   1430a:	40b7863b          	subw	a2,a5,a1
   1430e:	8752                	mv	a4,s4
   14310:	013c                	add	a5,sp,136
   14312:	0007d683          	lhu	a3,0(a5)
   14316:	0789                	add	a5,a5,2
   14318:	0709                	add	a4,a4,2
   1431a:	fed71f23          	sh	a3,-2(a4)
   1431e:	ff179ae3          	bne	a5,a7,14312 <_ldtoa_r+0x888>
   14322:	04c05963          	blez	a2,14374 <_ldtoa_r+0x8ea>
   14326:	47bd                	li	a5,15
   14328:	8752                	mv	a4,s4
   1432a:	02c7d763          	bge	a5,a2,14358 <_ldtoa_r+0x8ce>
   1432e:	08000693          	li	a3,128
   14332:	9e8d                	subw	a3,a3,a1
   14334:	0046d69b          	srlw	a3,a3,0x4
   14338:	0016871b          	addw	a4,a3,1
   1433c:	0706                	sll	a4,a4,0x1
   1433e:	9752                	add	a4,a4,s4
   14340:	87d2                	mv	a5,s4
   14342:	0789                	add	a5,a5,2
   14344:	fe079f23          	sh	zero,-2(a5)
   14348:	fee79de3          	bne	a5,a4,14342 <_ldtoa_r+0x8b8>
   1434c:	08000613          	li	a2,128
   14350:	9e0d                	subw	a2,a2,a1
   14352:	0046969b          	sllw	a3,a3,0x4
   14356:	9e15                	subw	a2,a2,a3
   14358:	66c6                	ld	a3,80(sp)
   1435a:	00161793          	sll	a5,a2,0x1
   1435e:	97b6                	add	a5,a5,a3
   14360:	0007d783          	lhu	a5,0(a5)
   14364:	00075683          	lhu	a3,0(a4)
   14368:	8ff5                	and	a5,a5,a3
   1436a:	00f71023          	sh	a5,0(a4)
   1436e:	813d                	srl	a0,a0,0xf
   14370:	10051263          	bnez	a0,14474 <_ldtoa_r+0x9ea>
   14374:	119c                	add	a5,sp,224
   14376:	8752                	mv	a4,s4
   14378:	0007d603          	lhu	a2,0(a5)
   1437c:	00075683          	lhu	a3,0(a4)
   14380:	02d61263          	bne	a2,a3,143a4 <_ldtoa_r+0x91a>
   14384:	0789                	add	a5,a5,2
   14386:	0709                	add	a4,a4,2
   14388:	ffb798e3          	bne	a5,s11,14378 <_ldtoa_r+0x8ee>
   1438c:	8766                	mv	a4,s9
   1438e:	119c                	add	a5,sp,224
   14390:	0007d683          	lhu	a3,0(a5)
   14394:	0789                	add	a5,a5,2
   14396:	0709                	add	a4,a4,2
   14398:	fed71f23          	sh	a3,-2(a4)
   1439c:	ffa79ae3          	bne	a5,s10,14390 <_ldtoa_r+0x906>
   143a0:	0124093b          	addw	s2,s0,s2
   143a4:	67a6                	ld	a5,72(sp)
   143a6:	09d1                	add	s3,s3,20
   143a8:	8005                	srl	s0,s0,0x1
   143aa:	f2f992e3          	bne	s3,a5,142ce <_ldtoa_r+0x844>
   143ae:	11215683          	lhu	a3,274(sp)
   143b2:	77f1                	lui	a5,0xffffc
   143b4:	f727879b          	addw	a5,a5,-142 # ffffffffffffbf72 <__BSS_END__+0xfffffffffffdec8a>
   143b8:	9fb5                	addw	a5,a5,a3
   143ba:	844a                	mv	s0,s2
   143bc:	69e6                	ld	s3,88(sp)
   143be:	7906                	ld	s2,96(sp)
   143c0:	015787bb          	addw	a5,a5,s5
   143c4:	10f11923          	sh	a5,274(sp)
   143c8:	0194                	add	a3,sp,192
   143ca:	87e6                	mv	a5,s9
   143cc:	0a4c                	add	a1,sp,276
   143ce:	0007d703          	lhu	a4,0(a5)
   143d2:	0789                	add	a5,a5,2
   143d4:	0689                	add	a3,a3,2
   143d6:	fee69f23          	sh	a4,-2(a3)
   143da:	feb79ae3          	bne	a5,a1,143ce <_ldtoa_r+0x944>
   143de:	67ed                	lui	a5,0x1b
   143e0:	1194                	add	a3,sp,224
   143e2:	61078793          	add	a5,a5,1552 # 1b610 <eone>
   143e6:	0007d703          	lhu	a4,0(a5)
   143ea:	0789                	add	a5,a5,2
   143ec:	0689                	add	a3,a3,2
   143ee:	fee69f23          	sh	a4,-2(a3)
   143f2:	fe979ae3          	bne	a5,s1,143e6 <_ldtoa_r+0x95c>
   143f6:	64ed                	lui	s1,0x1b
   143f8:	6b85                	lui	s7,0x1
   143fa:	50848493          	add	s1,s1,1288 # 1b508 <etens>
   143fe:	6d6d                	lui	s10,0x1b
   14400:	a801                	j	14410 <_ldtoa_r+0x986>
   14402:	5f8d0793          	add	a5,s10,1528 # 1b5f8 <etens+0xf0>
   14406:	001bdb93          	srl	s7,s7,0x1
   1440a:	1cf48463          	beq	s1,a5,145d2 <_ldtoa_r+0xb48>
   1440e:	04d1                	add	s1,s1,20
   14410:	85e6                	mv	a1,s9
   14412:	5f8d0513          	add	a0,s10,1528
   14416:	833fe0ef          	jal	12c48 <ecmp>
   1441a:	1aa04c63          	bgtz	a0,145d2 <_ldtoa_r+0xb48>
   1441e:	85e6                	mv	a1,s9
   14420:	8526                	mv	a0,s1
   14422:	827fe0ef          	jal	12c48 <ecmp>
   14426:	fca04ee3          	bgtz	a0,14402 <_ldtoa_r+0x978>
   1442a:	86da                	mv	a3,s6
   1442c:	8666                	mv	a2,s9
   1442e:	85e6                	mv	a1,s9
   14430:	8526                	mv	a0,s1
   14432:	e83fe0ef          	jal	132b4 <ediv>
   14436:	1190                	add	a2,sp,224
   14438:	86da                	mv	a3,s6
   1443a:	85b2                	mv	a1,a2
   1443c:	8526                	mv	a0,s1
   1443e:	a9eff0ef          	jal	136dc <emul>
   14442:	008b843b          	addw	s0,s7,s0
   14446:	bf75                	j	14402 <_ldtoa_r+0x978>
   14448:	18310a93          	add	s5,sp,387
   1444c:	4a01                	li	s4,0
   1444e:	b00797e3          	bnez	a5,13f5c <_ldtoa_r+0x4d2>
   14452:	b231                	j	13d5e <_ldtoa_r+0x2d4>
   14454:	87e2                	mv	a5,s8
   14456:	b695                	j	13fba <_ldtoa_r+0x530>
   14458:	6762                	ld	a4,24(sp)
   1445a:	02a00793          	li	a5,42
   1445e:	8a3a                	mv	s4,a4
   14460:	00e7d463          	bge	a5,a4,14468 <_ldtoa_r+0x9de>
   14464:	02a00a13          	li	s4,42
   14468:	000a079b          	sext.w	a5,s4
   1446c:	e83e                	sd	a5,16(sp)
   1446e:	bc35                	j	13eaa <_ldtoa_r+0x420>
   14470:	4681                	li	a3,0
   14472:	bc11                	j	13e86 <_ldtoa_r+0x3fc>
   14474:	013c                	add	a5,sp,136
   14476:	8752                	mv	a4,s4
   14478:	a039                	j	14486 <_ldtoa_r+0x9fc>
   1447a:	0789                	add	a5,a5,2
   1447c:	09a10693          	add	a3,sp,154
   14480:	0709                	add	a4,a4,2
   14482:	eed789e3          	beq	a5,a3,14374 <_ldtoa_r+0x8ea>
   14486:	0007d603          	lhu	a2,0(a5)
   1448a:	00075683          	lhu	a3,0(a4)
   1448e:	fed606e3          	beq	a2,a3,1447a <_ldtoa_r+0x9f0>
   14492:	13215783          	lhu	a5,306(sp)
   14496:	fff7c793          	not	a5,a5
   1449a:	03179713          	sll	a4,a5,0x31
   1449e:	2a070e63          	beqz	a4,1475a <_ldtoa_r+0xcd0>
   144a2:	028c                	add	a1,sp,320
   144a4:	610b8513          	add	a0,s7,1552 # 1610 <exit-0xead8>
   144a8:	f0cfe0ef          	jal	12bb4 <emovi>
   144ac:	128c                	add	a1,sp,352
   144ae:	8552                	mv	a0,s4
   144b0:	f04fe0ef          	jal	12bb4 <emovi>
   144b4:	14015783          	lhu	a5,320(sp)
   144b8:	16215703          	lhu	a4,354(sp)
   144bc:	14215303          	lhu	t1,322(sp)
   144c0:	fff7c793          	not	a5,a5
   144c4:	14f11023          	sh	a5,320(sp)
   144c8:	40e305b3          	sub	a1,t1,a4
   144cc:	86ba                	mv	a3,a4
   144ce:	04b05e63          	blez	a1,1452a <_ldtoa_r+0xaa0>
   144d2:	128c                	add	a1,sp,352
   144d4:	86e2                	mv	a3,s8
   144d6:	1abc                	add	a5,sp,376
   144d8:	8562                	mv	a0,s8
   144da:	862e                	mv	a2,a1
   144dc:	00063803          	ld	a6,0(a2)
   144e0:	0621                	add	a2,a2,8
   144e2:	0521                	add	a0,a0,8
   144e4:	ff053c23          	sd	a6,-8(a0)
   144e8:	fec79ae3          	bne	a5,a2,144dc <_ldtoa_r+0xa52>
   144ec:	0290                	add	a2,sp,320
   144ee:	18011c23          	sh	zero,408(sp)
   144f2:	0aa8                	add	a0,sp,344
   144f4:	87b2                	mv	a5,a2
   144f6:	0007b803          	ld	a6,0(a5)
   144fa:	07a1                	add	a5,a5,8
   144fc:	05a1                	add	a1,a1,8
   144fe:	ff05bc23          	sd	a6,-8(a1)
   14502:	fea79ae3          	bne	a5,a0,144f6 <_ldtoa_r+0xa6c>
   14506:	16011c23          	sh	zero,376(sp)
   1450a:	018c0793          	add	a5,s8,24
   1450e:	628c                	ld	a1,0(a3)
   14510:	06a1                	add	a3,a3,8
   14512:	0621                	add	a2,a2,8
   14514:	feb63c23          	sd	a1,-8(a2)
   14518:	fef69be3          	bne	a3,a5,1450e <_ldtoa_r+0xa84>
   1451c:	16215683          	lhu	a3,354(sp)
   14520:	406705b3          	sub	a1,a4,t1
   14524:	14011c23          	sh	zero,344(sp)
   14528:	8736                	mv	a4,a3
   1452a:	24058b63          	beqz	a1,14780 <_ldtoa_r+0xcf6>
   1452e:	f4b6                	sd	a3,104(sp)
   14530:	f6f00793          	li	a5,-145
   14534:	04f5cd63          	blt	a1,a5,1458e <_ldtoa_r+0xb04>
   14538:	2581                	sext.w	a1,a1
   1453a:	0288                	add	a0,sp,320
   1453c:	d30fe0ef          	jal	12a6c <eshift.part.0>
   14540:	76a6                	ld	a3,104(sp)
   14542:	85aa                	mv	a1,a0
   14544:	1abc                	add	a5,sp,376
   14546:	14015603          	lhu	a2,320(sp)
   1454a:	16015703          	lhu	a4,352(sp)
   1454e:	32e60f63          	beq	a2,a4,1488c <_ldtoa_r+0xe02>
   14552:	4701                	li	a4,0
   14554:	15810313          	add	t1,sp,344
   14558:	16210513          	add	a0,sp,354
   1455c:	0007d603          	lhu	a2,0(a5)
   14560:	00035803          	lhu	a6,0(t1)
   14564:	17f9                	add	a5,a5,-2
   14566:	1379                	add	t1,t1,-2
   14568:	41060633          	sub	a2,a2,a6
   1456c:	40e60733          	sub	a4,a2,a4
   14570:	01075613          	srl	a2,a4,0x10
   14574:	00e79123          	sh	a4,2(a5)
   14578:	00167713          	and	a4,a2,1
   1457c:	fea790e3          	bne	a5,a0,1455c <_ldtoa_r+0xad2>
   14580:	4605                	li	a2,1
   14582:	87da                	mv	a5,s6
   14584:	04000713          	li	a4,64
   14588:	1288                	add	a0,sp,352
   1458a:	fa6fe0ef          	jal	12d30 <emdnorm>
   1458e:	85d2                	mv	a1,s4
   14590:	1288                	add	a0,sp,352
   14592:	b42fe0ef          	jal	128d4 <emovo.constprop.0>
   14596:	bbf9                	j	14374 <_ldtoa_r+0x8ea>
   14598:	7782                	ld	a5,32(sp)
   1459a:	18010023          	sb	zero,384(sp)
   1459e:	84e2                	mv	s1,s8
   145a0:	0007a023          	sw	zero,0(a5)
   145a4:	b105                	j	141c4 <_ldtoa_r+0x73a>
   145a6:	87d2                	mv	a5,s4
   145a8:	0789                	add	a5,a5,2
   145aa:	1a58                	add	a4,sp,308
   145ac:	fe079f23          	sh	zero,-2(a5)
   145b0:	fee79ce3          	bne	a5,a4,145a8 <_ldtoa_r+0xb1e>
   145b4:	bb6d                	j	1436e <_ldtoa_r+0x8e4>
   145b6:	18010c13          	add	s8,sp,384
   145ba:	0a098c63          	beqz	s3,14672 <_ldtoa_r+0xbe8>
   145be:	65ed                	lui	a1,0x1b
   145c0:	33058593          	add	a1,a1,816 # 1b330 <blanks.1+0x48>
   145c4:	8562                	mv	a0,s8
   145c6:	aaafc0ef          	jal	10870 <sprintf>
   145ca:	6409                	lui	s0,0x2
   145cc:	70f40413          	add	s0,s0,1807 # 270f <exit-0xd9d9>
   145d0:	ba69                	j	13f6a <_ldtoa_r+0x4e0>
   145d2:	13810d93          	add	s11,sp,312
   145d6:	de4ff06f          	j	13bba <_ldtoa_r+0x130>
   145da:	2685                	addw	a3,a3,1
   145dc:	00d58023          	sb	a3,0(a1)
   145e0:	bab5                	j	13f5c <_ldtoa_r+0x4d2>
   145e2:	fff5c783          	lbu	a5,-1(a1)
   145e6:	03800693          	li	a3,56
   145ea:	08f6fb63          	bgeu	a3,a5,14680 <_ldtoa_r+0xbf6>
   145ee:	03100793          	li	a5,49
   145f2:	2405                	addw	s0,s0,1
   145f4:	fef58fa3          	sb	a5,-1(a1)
   145f8:	b295                	j	13f5c <_ldtoa_r+0x4d2>
   145fa:	111c                	add	a5,sp,160
   145fc:	0b210613          	add	a2,sp,178
   14600:	a019                	j	14606 <_ldtoa_r+0xb7c>
   14602:	96c78fe3          	beq	a5,a2,13f80 <_ldtoa_r+0x4f6>
   14606:	0007d703          	lhu	a4,0(a5)
   1460a:	0789                	add	a5,a5,2
   1460c:	db7d                	beqz	a4,14602 <_ldtoa_r+0xb78>
   1460e:	7702                	ld	a4,32(sp)
   14610:	6789                	lui	a5,0x2
   14612:	70f78793          	add	a5,a5,1807 # 270f <exit-0xd9d9>
   14616:	c31c                	sw	a5,0(a4)
   14618:	b25d                	j	13fbe <_ldtoa_r+0x534>
   1461a:	18010c13          	add	s8,sp,384
   1461e:	65ed                	lui	a1,0x1b
   14620:	35058593          	add	a1,a1,848 # 1b350 <blanks.1+0x68>
   14624:	8562                	mv	a0,s8
   14626:	a4afc0ef          	jal	10870 <sprintf>
   1462a:	b745                	j	145ca <_ldtoa_r+0xb40>
   1462c:	118c                	add	a1,sp,224
   1462e:	0188                	add	a0,sp,192
   14630:	fc3e                	sd	a5,56(sp)
   14632:	aa2fe0ef          	jal	128d4 <emovo.constprop.0>
   14636:	65ed                	lui	a1,0x1b
   14638:	62858593          	add	a1,a1,1576 # 1b628 <ezero>
   1463c:	1188                	add	a0,sp,224
   1463e:	e0afe0ef          	jal	12c48 <ecmp>
   14642:	77e2                	ld	a5,56(sp)
   14644:	8c051de3          	bnez	a0,13f1e <_ldtoa_r+0x494>
   14648:	900a4ae3          	bltz	s4,13f5c <_ldtoa_r+0x4d2>
   1464c:	ffe7c683          	lbu	a3,-2(a5)
   14650:	ffe78593          	add	a1,a5,-2
   14654:	fd268613          	add	a2,a3,-46
   14658:	00163613          	seqz	a2,a2
   1465c:	fff64613          	not	a2,a2
   14660:	9656                	add	a2,a2,s5
   14662:	00064603          	lbu	a2,0(a2)
   14666:	07f6f693          	and	a3,a3,127
   1466a:	8a05                	and	a2,a2,1
   1466c:	8c0611e3          	bnez	a2,13f2e <_ldtoa_r+0x4a4>
   14670:	b0f5                	j	13f5c <_ldtoa_r+0x4d2>
   14672:	65ed                	lui	a1,0x1b
   14674:	34058593          	add	a1,a1,832 # 1b340 <blanks.1+0x58>
   14678:	8562                	mv	a0,s8
   1467a:	9f6fc0ef          	jal	10870 <sprintf>
   1467e:	b7b1                	j	145ca <_ldtoa_r+0xb40>
   14680:	2785                	addw	a5,a5,1
   14682:	fef58fa3          	sb	a5,-1(a1)
   14686:	b8d9                	j	13f5c <_ldtoa_r+0x4d2>
   14688:	12010a13          	add	s4,sp,288
   1468c:	85d2                	mv	a1,s4
   1468e:	0188                	add	a0,sp,192
   14690:	6d11                	lui	s10,0x4
   14692:	d22fe0ef          	jal	12bb4 <emovi>
   14696:	4401                	li	s0,0
   14698:	13810d93          	add	s11,sp,312
   1469c:	12210b13          	add	s6,sp,290
   146a0:	1d79                	add	s10,s10,-2 # 3ffe <exit-0xc0ea>
   146a2:	11810c93          	add	s9,sp,280
   146a6:	13815783          	lhu	a5,312(sp)
   146aa:	8b9d                	and	a5,a5,7
   146ac:	e3c5                	bnez	a5,1474c <_ldtoa_r+0xcc2>
   146ae:	10010a93          	add	s5,sp,256
   146b2:	8c52                	mv	s8,s4
   146b4:	8756                	mv	a4,s5
   146b6:	87d2                	mv	a5,s4
   146b8:	6394                	ld	a3,0(a5)
   146ba:	07a1                	add	a5,a5,8
   146bc:	0721                	add	a4,a4,8
   146be:	fed73c23          	sd	a3,-8(a4)
   146c2:	ffb79be3          	bne	a5,s11,146b8 <_ldtoa_r+0xc2e>
   146c6:	0208                	add	a0,sp,256
   146c8:	10011c23          	sh	zero,280(sp)
   146cc:	926fe0ef          	jal	127f2 <eshdn1>
   146d0:	0208                	add	a0,sp,256
   146d2:	920fe0ef          	jal	127f2 <eshdn1>
   146d6:	4601                	li	a2,0
   146d8:	0a34                	add	a3,sp,280
   146da:	876e                	mv	a4,s11
   146dc:	0006d583          	lhu	a1,0(a3)
   146e0:	00075783          	lhu	a5,0(a4)
   146e4:	16f9                	add	a3,a3,-2
   146e6:	1779                	add	a4,a4,-2
   146e8:	97ae                	add	a5,a5,a1
   146ea:	97b2                	add	a5,a5,a2
   146ec:	0107d613          	srl	a2,a5,0x10
   146f0:	00f69123          	sh	a5,2(a3)
   146f4:	8a05                	and	a2,a2,1
   146f6:	ff6713e3          	bne	a4,s6,146dc <_ldtoa_r+0xc52>
   146fa:	10215783          	lhu	a5,258(sp)
   146fe:	10415703          	lhu	a4,260(sp)
   14702:	278d                	addw	a5,a5,3
   14704:	10f11123          	sh	a5,258(sp)
   14708:	cf01                	beqz	a4,14720 <_ldtoa_r+0xc96>
   1470a:	0208                	add	a0,sp,256
   1470c:	8e6fe0ef          	jal	127f2 <eshdn1>
   14710:	10215783          	lhu	a5,258(sp)
   14714:	10415703          	lhu	a4,260(sp)
   14718:	2785                	addw	a5,a5,1
   1471a:	10f11123          	sh	a5,258(sp)
   1471e:	f775                	bnez	a4,1470a <_ldtoa_r+0xc80>
   14720:	11815783          	lhu	a5,280(sp)
   14724:	e785                	bnez	a5,1474c <_ldtoa_r+0xcc2>
   14726:	10215783          	lhu	a5,258(sp)
   1472a:	02fd6163          	bltu	s10,a5,1474c <_ldtoa_r+0xcc2>
   1472e:	000ab783          	ld	a5,0(s5)
   14732:	0aa1                	add	s5,s5,8
   14734:	0c21                	add	s8,s8,8
   14736:	fefc3c23          	sd	a5,-8(s8)
   1473a:	ff9a9ae3          	bne	s5,s9,1472e <_ldtoa_r+0xca4>
   1473e:	12011c23          	sh	zero,312(sp)
   14742:	347d                	addw	s0,s0,-1
   14744:	fd500793          	li	a5,-43
   14748:	f4f41fe3          	bne	s0,a5,146a6 <_ldtoa_r+0xc1c>
   1474c:	018c                	add	a1,sp,192
   1474e:	8552                	mv	a0,s4
   14750:	984fe0ef          	jal	128d4 <emovo.constprop.0>
   14754:	1c010b13          	add	s6,sp,448
   14758:	ba75                	j	14114 <_ldtoa_r+0x68a>
   1475a:	87d2                	mv	a5,s4
   1475c:	13210713          	add	a4,sp,306
   14760:	0007d683          	lhu	a3,0(a5)
   14764:	0789                	add	a5,a5,2
   14766:	c00697e3          	bnez	a3,14374 <_ldtoa_r+0x8ea>
   1476a:	fee79be3          	bne	a5,a4,14760 <_ldtoa_r+0xcd6>
   1476e:	87d2                	mv	a5,s4
   14770:	0007d683          	lhu	a3,0(a5)
   14774:	0789                	add	a5,a5,2
   14776:	d20696e3          	bnez	a3,144a2 <_ldtoa_r+0xa18>
   1477a:	fee79be3          	bne	a5,a4,14770 <_ldtoa_r+0xce6>
   1477e:	bedd                	j	14374 <_ldtoa_r+0x8ea>
   14780:	12d0                	add	a2,sp,356
   14782:	02dc                	add	a5,sp,324
   14784:	15a10313          	add	t1,sp,346
   14788:	0007d503          	lhu	a0,0(a5)
   1478c:	00065583          	lhu	a1,0(a2)
   14790:	0789                	add	a5,a5,2
   14792:	0609                	add	a2,a2,2
   14794:	02b51e63          	bne	a0,a1,147d0 <_ldtoa_r+0xd46>
   14798:	fe6798e3          	bne	a5,t1,14788 <_ldtoa_r+0xcfe>
   1479c:	14015603          	lhu	a2,320(sp)
   147a0:	16015783          	lhu	a5,352(sp)
   147a4:	08f60063          	beq	a2,a5,14824 <_ldtoa_r+0xd9a>
   147a8:	87d2                	mv	a5,s4
   147aa:	1a58                	add	a4,sp,308
   147ac:	0789                	add	a5,a5,2
   147ae:	fe079f23          	sh	zero,-2(a5)
   147b2:	fee79de3          	bne	a5,a4,147ac <_ldtoa_r+0xd22>
   147b6:	be7d                	j	14374 <_ldtoa_r+0x8ea>
   147b8:	66ed                	lui	a3,0x1b
   147ba:	6585                	lui	a1,0x1
   147bc:	656d                	lui	a0,0x1b
   147be:	36068693          	add	a3,a3,864 # 1b360 <blanks.1+0x78>
   147c2:	4601                	li	a2,0
   147c4:	b6e58593          	add	a1,a1,-1170 # b6e <exit-0xf57a>
   147c8:	37850513          	add	a0,a0,888 # 1b378 <blanks.1+0x90>
   147cc:	584020ef          	jal	16d50 <__assert_func>
   147d0:	1abc                	add	a5,sp,376
   147d2:	04a5f763          	bgeu	a1,a0,14820 <_ldtoa_r+0xd96>
   147d6:	1298                	add	a4,sp,352
   147d8:	85e2                	mv	a1,s8
   147da:	1abc                	add	a5,sp,376
   147dc:	8562                	mv	a0,s8
   147de:	863a                	mv	a2,a4
   147e0:	00063803          	ld	a6,0(a2)
   147e4:	0621                	add	a2,a2,8
   147e6:	0521                	add	a0,a0,8
   147e8:	ff053c23          	sd	a6,-8(a0)
   147ec:	fec79ae3          	bne	a5,a2,147e0 <_ldtoa_r+0xd56>
   147f0:	0290                	add	a2,sp,320
   147f2:	18011c23          	sh	zero,408(sp)
   147f6:	8532                	mv	a0,a2
   147f8:	00053803          	ld	a6,0(a0)
   147fc:	0721                	add	a4,a4,8
   147fe:	0521                	add	a0,a0,8
   14800:	ff073c23          	sd	a6,-8(a4)
   14804:	fee79ae3          	bne	a5,a4,147f8 <_ldtoa_r+0xd6e>
   14808:	16011c23          	sh	zero,376(sp)
   1480c:	0ab8                	add	a4,sp,344
   1480e:	6188                	ld	a0,0(a1)
   14810:	0621                	add	a2,a2,8
   14812:	05a1                	add	a1,a1,8
   14814:	fea63c23          	sd	a0,-8(a2)
   14818:	fec71be3          	bne	a4,a2,1480e <_ldtoa_r+0xd84>
   1481c:	14011c23          	sh	zero,344(sp)
   14820:	4581                	li	a1,0
   14822:	b315                	j	14546 <_ldtoa_r+0xabc>
   14824:	87b6                	mv	a5,a3
   14826:	e689                	bnez	a3,14830 <_ldtoa_r+0xda6>
   14828:	16611603          	lh	a2,358(sp)
   1482c:	00065e63          	bgez	a2,14848 <_ldtoa_r+0xdbe>
   14830:	16210613          	add	a2,sp,354
   14834:	1abc                	add	a5,sp,376
   14836:	00065583          	lhu	a1,0(a2)
   1483a:	e5a1                	bnez	a1,14882 <_ldtoa_r+0xdf8>
   1483c:	0609                	add	a2,a2,2
   1483e:	fec79ce3          	bne	a5,a2,14836 <_ldtoa_r+0xdac>
   14842:	16e11123          	sh	a4,354(sp)
   14846:	b3a1                	j	1458e <_ldtoa_r+0xb04>
   14848:	1ab4                	add	a3,sp,376
   1484a:	16210513          	add	a0,sp,354
   1484e:	0006d703          	lhu	a4,0(a3)
   14852:	00f75613          	srl	a2,a4,0xf
   14856:	c219                	beqz	a2,1485c <_ldtoa_r+0xdd2>
   14858:	0017e793          	or	a5,a5,1
   1485c:	0017171b          	sllw	a4,a4,0x1
   14860:	1742                	sll	a4,a4,0x30
   14862:	0027f613          	and	a2,a5,2
   14866:	9341                	srl	a4,a4,0x30
   14868:	c219                	beqz	a2,1486e <_ldtoa_r+0xde4>
   1486a:	00176713          	or	a4,a4,1
   1486e:	0017979b          	sllw	a5,a5,0x1
   14872:	00e69023          	sh	a4,0(a3)
   14876:	17c2                	sll	a5,a5,0x30
   14878:	16f9                	add	a3,a3,-2
   1487a:	93c1                	srl	a5,a5,0x30
   1487c:	fca699e3          	bne	a3,a0,1484e <_ldtoa_r+0xdc4>
   14880:	b339                	j	1458e <_ldtoa_r+0xb04>
   14882:	00168713          	add	a4,a3,1
   14886:	16e11123          	sh	a4,354(sp)
   1488a:	b311                	j	1458e <_ldtoa_r+0xb04>
   1488c:	4701                	li	a4,0
   1488e:	0aa8                	add	a0,sp,344
   14890:	14210313          	add	t1,sp,322
   14894:	0007d803          	lhu	a6,0(a5)
   14898:	00055603          	lhu	a2,0(a0)
   1489c:	17f9                	add	a5,a5,-2
   1489e:	1579                	add	a0,a0,-2
   148a0:	9642                	add	a2,a2,a6
   148a2:	9732                	add	a4,a4,a2
   148a4:	01075613          	srl	a2,a4,0x10
   148a8:	00e79123          	sh	a4,2(a5)
   148ac:	00167713          	and	a4,a2,1
   148b0:	fe6512e3          	bne	a0,t1,14894 <_ldtoa_r+0xe0a>
   148b4:	4601                	li	a2,0
   148b6:	b1f1                	j	14582 <_ldtoa_r+0xaf8>

00000000000148b8 <_ldcheck>:
   148b8:	6118                	ld	a4,0(a0)
   148ba:	651c                	ld	a5,8(a0)
   148bc:	7139                	add	sp,sp,-64
   148be:	850a                	mv	a0,sp
   148c0:	080c                	add	a1,sp,16
   148c2:	e03a                	sd	a4,0(sp)
   148c4:	e43e                	sd	a5,8(sp)
   148c6:	fc06                	sd	ra,56(sp)
   148c8:	8f1fe0ef          	jal	131b8 <e113toe.isra.0>
   148cc:	02215783          	lhu	a5,34(sp)
   148d0:	4501                	li	a0,0
   148d2:	fff7c793          	not	a5,a5
   148d6:	03179713          	sll	a4,a5,0x31
   148da:	eb19                	bnez	a4,148f0 <_ldcheck+0x38>
   148dc:	081c                	add	a5,sp,16
   148de:	02210693          	add	a3,sp,34
   148e2:	0007d703          	lhu	a4,0(a5)
   148e6:	0789                	add	a5,a5,2
   148e8:	e719                	bnez	a4,148f6 <_ldcheck+0x3e>
   148ea:	fed79ce3          	bne	a5,a3,148e2 <_ldcheck+0x2a>
   148ee:	4509                	li	a0,2
   148f0:	70e2                	ld	ra,56(sp)
   148f2:	6121                	add	sp,sp,64
   148f4:	8082                	ret
   148f6:	4505                	li	a0,1
   148f8:	bfe5                	j	148f0 <_ldcheck+0x38>

00000000000148fa <__localeconv_l>:
   148fa:	10050513          	add	a0,a0,256
   148fe:	8082                	ret

0000000000014900 <_localeconv_r>:
   14900:	d8018513          	add	a0,gp,-640 # 1c868 <__global_locale+0x100>
   14904:	8082                	ret

0000000000014906 <localeconv>:
   14906:	d8018513          	add	a0,gp,-640 # 1c868 <__global_locale+0x100>
   1490a:	8082                	ret

000000000001490c <_setlocale_r>:
   1490c:	1101                	add	sp,sp,-32
   1490e:	ec06                	sd	ra,24(sp)
   14910:	e822                	sd	s0,16(sp)
   14912:	e426                	sd	s1,8(sp)
   14914:	c20d                	beqz	a2,14936 <_setlocale_r+0x2a>
   14916:	65ed                	lui	a1,0x1b
   14918:	64858593          	add	a1,a1,1608 # 1b648 <ezero+0x20>
   1491c:	8532                	mv	a0,a2
   1491e:	8432                	mv	s0,a2
   14920:	4a0010ef          	jal	15dc0 <strcmp>
   14924:	64ed                	lui	s1,0x1b
   14926:	e911                	bnez	a0,1493a <_setlocale_r+0x2e>
   14928:	64048513          	add	a0,s1,1600 # 1b640 <ezero+0x18>
   1492c:	60e2                	ld	ra,24(sp)
   1492e:	6442                	ld	s0,16(sp)
   14930:	64a2                	ld	s1,8(sp)
   14932:	6105                	add	sp,sp,32
   14934:	8082                	ret
   14936:	64ed                	lui	s1,0x1b
   14938:	bfc5                	j	14928 <_setlocale_r+0x1c>
   1493a:	64048593          	add	a1,s1,1600 # 1b640 <ezero+0x18>
   1493e:	8522                	mv	a0,s0
   14940:	480010ef          	jal	15dc0 <strcmp>
   14944:	d175                	beqz	a0,14928 <_setlocale_r+0x1c>
   14946:	65ed                	lui	a1,0x1b
   14948:	0a858593          	add	a1,a1,168 # 1b0a8 <__clzdi2+0x86>
   1494c:	8522                	mv	a0,s0
   1494e:	472010ef          	jal	15dc0 <strcmp>
   14952:	d979                	beqz	a0,14928 <_setlocale_r+0x1c>
   14954:	4501                	li	a0,0
   14956:	bfd9                	j	1492c <_setlocale_r+0x20>

0000000000014958 <__locale_mb_cur_max>:
   14958:	de01c503          	lbu	a0,-544(gp) # 1c8c8 <__global_locale+0x160>
   1495c:	8082                	ret

000000000001495e <setlocale>:
   1495e:	1101                	add	sp,sp,-32
   14960:	ec06                	sd	ra,24(sp)
   14962:	e822                	sd	s0,16(sp)
   14964:	e426                	sd	s1,8(sp)
   14966:	c18d                	beqz	a1,14988 <setlocale+0x2a>
   14968:	842e                	mv	s0,a1
   1496a:	65ed                	lui	a1,0x1b
   1496c:	64858593          	add	a1,a1,1608 # 1b648 <ezero+0x20>
   14970:	8522                	mv	a0,s0
   14972:	44e010ef          	jal	15dc0 <strcmp>
   14976:	64ed                	lui	s1,0x1b
   14978:	e911                	bnez	a0,1498c <setlocale+0x2e>
   1497a:	64048513          	add	a0,s1,1600 # 1b640 <ezero+0x18>
   1497e:	60e2                	ld	ra,24(sp)
   14980:	6442                	ld	s0,16(sp)
   14982:	64a2                	ld	s1,8(sp)
   14984:	6105                	add	sp,sp,32
   14986:	8082                	ret
   14988:	64ed                	lui	s1,0x1b
   1498a:	bfc5                	j	1497a <setlocale+0x1c>
   1498c:	64048593          	add	a1,s1,1600 # 1b640 <ezero+0x18>
   14990:	8522                	mv	a0,s0
   14992:	42e010ef          	jal	15dc0 <strcmp>
   14996:	d175                	beqz	a0,1497a <setlocale+0x1c>
   14998:	65ed                	lui	a1,0x1b
   1499a:	0a858593          	add	a1,a1,168 # 1b0a8 <__clzdi2+0x86>
   1499e:	8522                	mv	a0,s0
   149a0:	420010ef          	jal	15dc0 <strcmp>
   149a4:	d979                	beqz	a0,1497a <setlocale+0x1c>
   149a6:	4501                	li	a0,0
   149a8:	bfd9                	j	1497e <setlocale+0x20>

00000000000149aa <_malloc_r>:
   149aa:	711d                	add	sp,sp,-96
   149ac:	e4a6                	sd	s1,72(sp)
   149ae:	e0ca                	sd	s2,64(sp)
   149b0:	ec86                	sd	ra,88(sp)
   149b2:	e8a2                	sd	s0,80(sp)
   149b4:	fc4e                	sd	s3,56(sp)
   149b6:	f852                	sd	s4,48(sp)
   149b8:	f456                	sd	s5,40(sp)
   149ba:	f05a                	sd	s6,32(sp)
   149bc:	ec5e                	sd	s7,24(sp)
   149be:	e862                	sd	s8,16(sp)
   149c0:	e466                	sd	s9,8(sp)
   149c2:	01758493          	add	s1,a1,23
   149c6:	02e00793          	li	a5,46
   149ca:	892a                	mv	s2,a0
   149cc:	0697e363          	bltu	a5,s1,14a32 <_malloc_r+0x88>
   149d0:	02000793          	li	a5,32
   149d4:	18b7ee63          	bltu	a5,a1,14b70 <_malloc_r+0x1c6>
   149d8:	68e000ef          	jal	15066 <__malloc_lock>
   149dc:	02000493          	li	s1,32
   149e0:	05000793          	li	a5,80
   149e4:	4611                	li	a2,4
   149e6:	69f5                	lui	s3,0x1d
   149e8:	91098993          	add	s3,s3,-1776 # 1c910 <__malloc_av_>
   149ec:	97ce                	add	a5,a5,s3
   149ee:	6780                	ld	s0,8(a5)
   149f0:	ff078713          	add	a4,a5,-16
   149f4:	24e40b63          	beq	s0,a4,14c4a <_malloc_r+0x2a0>
   149f8:	641c                	ld	a5,8(s0)
   149fa:	6c14                	ld	a3,24(s0)
   149fc:	6810                	ld	a2,16(s0)
   149fe:	9bf1                	and	a5,a5,-4
   14a00:	97a2                	add	a5,a5,s0
   14a02:	6798                	ld	a4,8(a5)
   14a04:	ee14                	sd	a3,24(a2)
   14a06:	ea90                	sd	a2,16(a3)
   14a08:	00176713          	or	a4,a4,1
   14a0c:	854a                	mv	a0,s2
   14a0e:	e798                	sd	a4,8(a5)
   14a10:	658000ef          	jal	15068 <__malloc_unlock>
   14a14:	01040513          	add	a0,s0,16
   14a18:	60e6                	ld	ra,88(sp)
   14a1a:	6446                	ld	s0,80(sp)
   14a1c:	64a6                	ld	s1,72(sp)
   14a1e:	6906                	ld	s2,64(sp)
   14a20:	79e2                	ld	s3,56(sp)
   14a22:	7a42                	ld	s4,48(sp)
   14a24:	7aa2                	ld	s5,40(sp)
   14a26:	7b02                	ld	s6,32(sp)
   14a28:	6be2                	ld	s7,24(sp)
   14a2a:	6c42                	ld	s8,16(sp)
   14a2c:	6ca2                	ld	s9,8(sp)
   14a2e:	6125                	add	sp,sp,96
   14a30:	8082                	ret
   14a32:	800007b7          	lui	a5,0x80000
   14a36:	98c1                	and	s1,s1,-16
   14a38:	fff7c793          	not	a5,a5
   14a3c:	1297ea63          	bltu	a5,s1,14b70 <_malloc_r+0x1c6>
   14a40:	12b4e863          	bltu	s1,a1,14b70 <_malloc_r+0x1c6>
   14a44:	622000ef          	jal	15066 <__malloc_lock>
   14a48:	1f700793          	li	a5,503
   14a4c:	2e97fa63          	bgeu	a5,s1,14d40 <_malloc_r+0x396>
   14a50:	0094d793          	srl	a5,s1,0x9
   14a54:	12078363          	beqz	a5,14b7a <_malloc_r+0x1d0>
   14a58:	4711                	li	a4,4
   14a5a:	22f76f63          	bltu	a4,a5,14c98 <_malloc_r+0x2ee>
   14a5e:	0064d793          	srl	a5,s1,0x6
   14a62:	0397861b          	addw	a2,a5,57 # ffffffff80000039 <__BSS_END__+0xffffffff7ffe2d51>
   14a66:	0016169b          	sllw	a3,a2,0x1
   14a6a:	0387851b          	addw	a0,a5,56
   14a6e:	068e                	sll	a3,a3,0x3
   14a70:	69f5                	lui	s3,0x1d
   14a72:	91098993          	add	s3,s3,-1776 # 1c910 <__malloc_av_>
   14a76:	96ce                	add	a3,a3,s3
   14a78:	6680                	ld	s0,8(a3)
   14a7a:	16c1                	add	a3,a3,-16
   14a7c:	02868063          	beq	a3,s0,14a9c <_malloc_r+0xf2>
   14a80:	45fd                	li	a1,31
   14a82:	a031                	j	14a8e <_malloc_r+0xe4>
   14a84:	1c075063          	bgez	a4,14c44 <_malloc_r+0x29a>
   14a88:	6c00                	ld	s0,24(s0)
   14a8a:	00868963          	beq	a3,s0,14a9c <_malloc_r+0xf2>
   14a8e:	641c                	ld	a5,8(s0)
   14a90:	9bf1                	and	a5,a5,-4
   14a92:	40978733          	sub	a4,a5,s1
   14a96:	fee5d7e3          	bge	a1,a4,14a84 <_malloc_r+0xda>
   14a9a:	862a                	mv	a2,a0
   14a9c:	0209b403          	ld	s0,32(s3)
   14aa0:	6875                	lui	a6,0x1d
   14aa2:	92080813          	add	a6,a6,-1760 # 1c920 <__malloc_av_+0x10>
   14aa6:	19040c63          	beq	s0,a6,14c3e <_malloc_r+0x294>
   14aaa:	641c                	ld	a5,8(s0)
   14aac:	46fd                	li	a3,31
   14aae:	9bf1                	and	a5,a5,-4
   14ab0:	40978733          	sub	a4,a5,s1
   14ab4:	24e6cf63          	blt	a3,a4,14d12 <_malloc_r+0x368>
   14ab8:	0309b423          	sd	a6,40(s3)
   14abc:	0309b023          	sd	a6,32(s3)
   14ac0:	22075e63          	bgez	a4,14cfc <_malloc_r+0x352>
   14ac4:	1ff00713          	li	a4,511
   14ac8:	0089b503          	ld	a0,8(s3)
   14acc:	18f76463          	bltu	a4,a5,14c54 <_malloc_r+0x2aa>
   14ad0:	838d                	srl	a5,a5,0x3
   14ad2:	0017871b          	addw	a4,a5,1
   14ad6:	0017171b          	sllw	a4,a4,0x1
   14ada:	070e                	sll	a4,a4,0x3
   14adc:	974e                	add	a4,a4,s3
   14ade:	630c                	ld	a1,0(a4)
   14ae0:	4027d79b          	sraw	a5,a5,0x2
   14ae4:	4685                	li	a3,1
   14ae6:	00f697b3          	sll	a5,a3,a5
   14aea:	8d5d                	or	a0,a0,a5
   14aec:	ff070793          	add	a5,a4,-16
   14af0:	ec1c                	sd	a5,24(s0)
   14af2:	e80c                	sd	a1,16(s0)
   14af4:	00a9b423          	sd	a0,8(s3)
   14af8:	e300                	sd	s0,0(a4)
   14afa:	ed80                	sd	s0,24(a1)
   14afc:	4026579b          	sraw	a5,a2,0x2
   14b00:	4585                	li	a1,1
   14b02:	00f595b3          	sll	a1,a1,a5
   14b06:	08b56163          	bltu	a0,a1,14b88 <_malloc_r+0x1de>
   14b0a:	00a5f7b3          	and	a5,a1,a0
   14b0e:	ef81                	bnez	a5,14b26 <_malloc_r+0x17c>
   14b10:	0586                	sll	a1,a1,0x1
   14b12:	9a71                	and	a2,a2,-4
   14b14:	00a5f7b3          	and	a5,a1,a0
   14b18:	2611                	addw	a2,a2,4
   14b1a:	e791                	bnez	a5,14b26 <_malloc_r+0x17c>
   14b1c:	0586                	sll	a1,a1,0x1
   14b1e:	00a5f7b3          	and	a5,a1,a0
   14b22:	2611                	addw	a2,a2,4
   14b24:	dfe5                	beqz	a5,14b1c <_malloc_r+0x172>
   14b26:	48fd                	li	a7,31
   14b28:	0016031b          	addw	t1,a2,1
   14b2c:	0013131b          	sllw	t1,t1,0x1
   14b30:	030e                	sll	t1,t1,0x3
   14b32:	1341                	add	t1,t1,-16
   14b34:	934e                	add	t1,t1,s3
   14b36:	851a                	mv	a0,t1
   14b38:	6d1c                	ld	a5,24(a0)
   14b3a:	8e32                	mv	t3,a2
   14b3c:	16f50f63          	beq	a0,a5,14cba <_malloc_r+0x310>
   14b40:	6798                	ld	a4,8(a5)
   14b42:	843e                	mv	s0,a5
   14b44:	6f9c                	ld	a5,24(a5)
   14b46:	9b71                	and	a4,a4,-4
   14b48:	409706b3          	sub	a3,a4,s1
   14b4c:	16d8ce63          	blt	a7,a3,14cc8 <_malloc_r+0x31e>
   14b50:	fe06c6e3          	bltz	a3,14b3c <_malloc_r+0x192>
   14b54:	9722                	add	a4,a4,s0
   14b56:	6714                	ld	a3,8(a4)
   14b58:	6810                	ld	a2,16(s0)
   14b5a:	854a                	mv	a0,s2
   14b5c:	0016e693          	or	a3,a3,1
   14b60:	e714                	sd	a3,8(a4)
   14b62:	ee1c                	sd	a5,24(a2)
   14b64:	eb90                	sd	a2,16(a5)
   14b66:	502000ef          	jal	15068 <__malloc_unlock>
   14b6a:	01040513          	add	a0,s0,16
   14b6e:	b56d                	j	14a18 <_malloc_r+0x6e>
   14b70:	47b1                	li	a5,12
   14b72:	00f92023          	sw	a5,0(s2)
   14b76:	4501                	li	a0,0
   14b78:	b545                	j	14a18 <_malloc_r+0x6e>
   14b7a:	40000693          	li	a3,1024
   14b7e:	04000613          	li	a2,64
   14b82:	03f00513          	li	a0,63
   14b86:	b5ed                	j	14a70 <_malloc_r+0xc6>
   14b88:	0109b403          	ld	s0,16(s3)
   14b8c:	641c                	ld	a5,8(s0)
   14b8e:	ffc7fa93          	and	s5,a5,-4
   14b92:	009ae763          	bltu	s5,s1,14ba0 <_malloc_r+0x1f6>
   14b96:	409a8733          	sub	a4,s5,s1
   14b9a:	47fd                	li	a5,31
   14b9c:	08e7c263          	blt	a5,a4,14c20 <_malloc_r+0x276>
   14ba0:	7881ba03          	ld	s4,1928(gp) # 1d270 <__malloc_top_pad>
   14ba4:	7601b703          	ld	a4,1888(gp) # 1d248 <__malloc_sbrk_base>
   14ba8:	57fd                	li	a5,-1
   14baa:	01540c33          	add	s8,s0,s5
   14bae:	9a26                	add	s4,s4,s1
   14bb0:	2ef70363          	beq	a4,a5,14e96 <_malloc_r+0x4ec>
   14bb4:	6785                	lui	a5,0x1
   14bb6:	07fd                	add	a5,a5,31 # 101f <exit-0xf0c9>
   14bb8:	9a3e                	add	s4,s4,a5
   14bba:	77fd                	lui	a5,0xfffff
   14bbc:	00fa7a33          	and	s4,s4,a5
   14bc0:	85d2                	mv	a1,s4
   14bc2:	854a                	mv	a0,s2
   14bc4:	14c010ef          	jal	15d10 <_sbrk_r>
   14bc8:	57fd                	li	a5,-1
   14bca:	8b2a                	mv	s6,a0
   14bcc:	18f50f63          	beq	a0,a5,14d6a <_malloc_r+0x3c0>
   14bd0:	19856b63          	bltu	a0,s8,14d66 <_malloc_r+0x3bc>
   14bd4:	6bf5                	lui	s7,0x1d
   14bd6:	2c0b8b93          	add	s7,s7,704 # 1d2c0 <__malloc_current_mallinfo>
   14bda:	000ba783          	lw	a5,0(s7)
   14bde:	0147873b          	addw	a4,a5,s4
   14be2:	00eba023          	sw	a4,0(s7)
   14be6:	86ba                	mv	a3,a4
   14be8:	20ac1163          	bne	s8,a0,14dea <_malloc_r+0x440>
   14bec:	03451793          	sll	a5,a0,0x34
   14bf0:	1e079d63          	bnez	a5,14dea <_malloc_r+0x440>
   14bf4:	0109bb03          	ld	s6,16(s3)
   14bf8:	014a87b3          	add	a5,s5,s4
   14bfc:	0017e793          	or	a5,a5,1
   14c00:	00fb3423          	sd	a5,8(s6)
   14c04:	7801b603          	ld	a2,1920(gp) # 1d268 <__malloc_max_sbrked_mem>
   14c08:	00e67463          	bgeu	a2,a4,14c10 <_malloc_r+0x266>
   14c0c:	78e1b023          	sd	a4,1920(gp) # 1d268 <__malloc_max_sbrked_mem>
   14c10:	7781b603          	ld	a2,1912(gp) # 1d260 <__malloc_max_total_mem>
   14c14:	00e67463          	bgeu	a2,a4,14c1c <_malloc_r+0x272>
   14c18:	76e1bc23          	sd	a4,1912(gp) # 1d260 <__malloc_max_total_mem>
   14c1c:	845a                	mv	s0,s6
   14c1e:	aa89                	j	14d70 <_malloc_r+0x3c6>
   14c20:	0014e793          	or	a5,s1,1
   14c24:	e41c                	sd	a5,8(s0)
   14c26:	94a2                	add	s1,s1,s0
   14c28:	0099b823          	sd	s1,16(s3)
   14c2c:	00176713          	or	a4,a4,1
   14c30:	854a                	mv	a0,s2
   14c32:	e498                	sd	a4,8(s1)
   14c34:	434000ef          	jal	15068 <__malloc_unlock>
   14c38:	01040513          	add	a0,s0,16
   14c3c:	bbf1                	j	14a18 <_malloc_r+0x6e>
   14c3e:	0089b503          	ld	a0,8(s3)
   14c42:	bd6d                	j	14afc <_malloc_r+0x152>
   14c44:	6c14                	ld	a3,24(s0)
   14c46:	6810                	ld	a2,16(s0)
   14c48:	bb65                	j	14a00 <_malloc_r+0x56>
   14c4a:	6f80                	ld	s0,24(a5)
   14c4c:	2609                	addw	a2,a2,2
   14c4e:	e48787e3          	beq	a5,s0,14a9c <_malloc_r+0xf2>
   14c52:	b35d                	j	149f8 <_malloc_r+0x4e>
   14c54:	0097d713          	srl	a4,a5,0x9
   14c58:	4691                	li	a3,4
   14c5a:	0ee6fc63          	bgeu	a3,a4,14d52 <_malloc_r+0x3a8>
   14c5e:	46d1                	li	a3,20
   14c60:	26e6e763          	bltu	a3,a4,14ece <_malloc_r+0x524>
   14c64:	05c7059b          	addw	a1,a4,92
   14c68:	0015959b          	sllw	a1,a1,0x1
   14c6c:	05b7069b          	addw	a3,a4,91
   14c70:	058e                	sll	a1,a1,0x3
   14c72:	95ce                	add	a1,a1,s3
   14c74:	6198                	ld	a4,0(a1)
   14c76:	15c1                	add	a1,a1,-16
   14c78:	00e59663          	bne	a1,a4,14c84 <_malloc_r+0x2da>
   14c7c:	a405                	j	14e9c <_malloc_r+0x4f2>
   14c7e:	6b18                	ld	a4,16(a4)
   14c80:	00e58663          	beq	a1,a4,14c8c <_malloc_r+0x2e2>
   14c84:	6714                	ld	a3,8(a4)
   14c86:	9af1                	and	a3,a3,-4
   14c88:	fed7ebe3          	bltu	a5,a3,14c7e <_malloc_r+0x2d4>
   14c8c:	6f0c                	ld	a1,24(a4)
   14c8e:	ec0c                	sd	a1,24(s0)
   14c90:	e818                	sd	a4,16(s0)
   14c92:	e980                	sd	s0,16(a1)
   14c94:	ef00                	sd	s0,24(a4)
   14c96:	b59d                	j	14afc <_malloc_r+0x152>
   14c98:	4751                	li	a4,20
   14c9a:	0ef77863          	bgeu	a4,a5,14d8a <_malloc_r+0x3e0>
   14c9e:	05400713          	li	a4,84
   14ca2:	24f76463          	bltu	a4,a5,14eea <_malloc_r+0x540>
   14ca6:	00c4d793          	srl	a5,s1,0xc
   14caa:	06f7861b          	addw	a2,a5,111 # fffffffffffff06f <__BSS_END__+0xfffffffffffe1d87>
   14cae:	0016169b          	sllw	a3,a2,0x1
   14cb2:	06e7851b          	addw	a0,a5,110
   14cb6:	068e                	sll	a3,a3,0x3
   14cb8:	bb65                	j	14a70 <_malloc_r+0xc6>
   14cba:	2e05                	addw	t3,t3,1
   14cbc:	003e7793          	and	a5,t3,3
   14cc0:	0541                	add	a0,a0,16
   14cc2:	c3ed                	beqz	a5,14da4 <_malloc_r+0x3fa>
   14cc4:	6d1c                	ld	a5,24(a0)
   14cc6:	bd9d                	j	14b3c <_malloc_r+0x192>
   14cc8:	6810                	ld	a2,16(s0)
   14cca:	0014e593          	or	a1,s1,1
   14cce:	e40c                	sd	a1,8(s0)
   14cd0:	ee1c                	sd	a5,24(a2)
   14cd2:	eb90                	sd	a2,16(a5)
   14cd4:	94a2                	add	s1,s1,s0
   14cd6:	0299b423          	sd	s1,40(s3)
   14cda:	0299b023          	sd	s1,32(s3)
   14cde:	0016e793          	or	a5,a3,1
   14ce2:	0104bc23          	sd	a6,24(s1)
   14ce6:	0104b823          	sd	a6,16(s1)
   14cea:	e49c                	sd	a5,8(s1)
   14cec:	9722                	add	a4,a4,s0
   14cee:	854a                	mv	a0,s2
   14cf0:	e314                	sd	a3,0(a4)
   14cf2:	376000ef          	jal	15068 <__malloc_unlock>
   14cf6:	01040513          	add	a0,s0,16
   14cfa:	bb39                	j	14a18 <_malloc_r+0x6e>
   14cfc:	97a2                	add	a5,a5,s0
   14cfe:	6798                	ld	a4,8(a5)
   14d00:	854a                	mv	a0,s2
   14d02:	00176713          	or	a4,a4,1
   14d06:	e798                	sd	a4,8(a5)
   14d08:	360000ef          	jal	15068 <__malloc_unlock>
   14d0c:	01040513          	add	a0,s0,16
   14d10:	b321                	j	14a18 <_malloc_r+0x6e>
   14d12:	0014e693          	or	a3,s1,1
   14d16:	e414                	sd	a3,8(s0)
   14d18:	94a2                	add	s1,s1,s0
   14d1a:	0299b423          	sd	s1,40(s3)
   14d1e:	0299b023          	sd	s1,32(s3)
   14d22:	00176693          	or	a3,a4,1
   14d26:	0104bc23          	sd	a6,24(s1)
   14d2a:	0104b823          	sd	a6,16(s1)
   14d2e:	e494                	sd	a3,8(s1)
   14d30:	97a2                	add	a5,a5,s0
   14d32:	854a                	mv	a0,s2
   14d34:	e398                	sd	a4,0(a5)
   14d36:	332000ef          	jal	15068 <__malloc_unlock>
   14d3a:	01040513          	add	a0,s0,16
   14d3e:	b9e9                	j	14a18 <_malloc_r+0x6e>
   14d40:	0034d613          	srl	a2,s1,0x3
   14d44:	0016079b          	addw	a5,a2,1
   14d48:	0017979b          	sllw	a5,a5,0x1
   14d4c:	2601                	sext.w	a2,a2
   14d4e:	078e                	sll	a5,a5,0x3
   14d50:	b959                	j	149e6 <_malloc_r+0x3c>
   14d52:	0067d713          	srl	a4,a5,0x6
   14d56:	0397059b          	addw	a1,a4,57
   14d5a:	0015959b          	sllw	a1,a1,0x1
   14d5e:	0387069b          	addw	a3,a4,56
   14d62:	058e                	sll	a1,a1,0x3
   14d64:	b739                	j	14c72 <_malloc_r+0x2c8>
   14d66:	07340963          	beq	s0,s3,14dd8 <_malloc_r+0x42e>
   14d6a:	0109b403          	ld	s0,16(s3)
   14d6e:	641c                	ld	a5,8(s0)
   14d70:	9bf1                	and	a5,a5,-4
   14d72:	40978733          	sub	a4,a5,s1
   14d76:	0097e563          	bltu	a5,s1,14d80 <_malloc_r+0x3d6>
   14d7a:	47fd                	li	a5,31
   14d7c:	eae7c2e3          	blt	a5,a4,14c20 <_malloc_r+0x276>
   14d80:	854a                	mv	a0,s2
   14d82:	2e6000ef          	jal	15068 <__malloc_unlock>
   14d86:	4501                	li	a0,0
   14d88:	b941                	j	14a18 <_malloc_r+0x6e>
   14d8a:	05c7861b          	addw	a2,a5,92
   14d8e:	0016169b          	sllw	a3,a2,0x1
   14d92:	05b7851b          	addw	a0,a5,91
   14d96:	068e                	sll	a3,a3,0x3
   14d98:	b9e1                	j	14a70 <_malloc_r+0xc6>
   14d9a:	01033783          	ld	a5,16(t1)
   14d9e:	367d                	addw	a2,a2,-1
   14da0:	1e679663          	bne	a5,t1,14f8c <_malloc_r+0x5e2>
   14da4:	00367793          	and	a5,a2,3
   14da8:	1341                	add	t1,t1,-16
   14daa:	fbe5                	bnez	a5,14d9a <_malloc_r+0x3f0>
   14dac:	0089b703          	ld	a4,8(s3)
   14db0:	fff5c793          	not	a5,a1
   14db4:	8ff9                	and	a5,a5,a4
   14db6:	00f9b423          	sd	a5,8(s3)
   14dba:	0586                	sll	a1,a1,0x1
   14dbc:	dcb7e6e3          	bltu	a5,a1,14b88 <_malloc_r+0x1de>
   14dc0:	dc0584e3          	beqz	a1,14b88 <_malloc_r+0x1de>
   14dc4:	00f5f733          	and	a4,a1,a5
   14dc8:	e711                	bnez	a4,14dd4 <_malloc_r+0x42a>
   14dca:	0586                	sll	a1,a1,0x1
   14dcc:	00f5f733          	and	a4,a1,a5
   14dd0:	2e11                	addw	t3,t3,4
   14dd2:	df65                	beqz	a4,14dca <_malloc_r+0x420>
   14dd4:	8672                	mv	a2,t3
   14dd6:	bb89                	j	14b28 <_malloc_r+0x17e>
   14dd8:	6bf5                	lui	s7,0x1d
   14dda:	2c0b8b93          	add	s7,s7,704 # 1d2c0 <__malloc_current_mallinfo>
   14dde:	000ba783          	lw	a5,0(s7)
   14de2:	014786bb          	addw	a3,a5,s4
   14de6:	00dba023          	sw	a3,0(s7)
   14dea:	7601b703          	ld	a4,1888(gp) # 1d248 <__malloc_sbrk_base>
   14dee:	57fd                	li	a5,-1
   14df0:	10f70b63          	beq	a4,a5,14f06 <_malloc_r+0x55c>
   14df4:	418b07b3          	sub	a5,s6,s8
   14df8:	9fb5                	addw	a5,a5,a3
   14dfa:	00fba023          	sw	a5,0(s7)
   14dfe:	00fb7c93          	and	s9,s6,15
   14e02:	0a0c8663          	beqz	s9,14eae <_malloc_r+0x504>
   14e06:	6705                	lui	a4,0x1
   14e08:	419b0b33          	sub	s6,s6,s9
   14e0c:	01070c13          	add	s8,a4,16 # 1010 <exit-0xf0d8>
   14e10:	0b41                	add	s6,s6,16
   14e12:	419c0c33          	sub	s8,s8,s9
   14e16:	9a5a                	add	s4,s4,s6
   14e18:	177d                	add	a4,a4,-1
   14e1a:	414c0c33          	sub	s8,s8,s4
   14e1e:	00ec7c33          	and	s8,s8,a4
   14e22:	85e2                	mv	a1,s8
   14e24:	854a                	mv	a0,s2
   14e26:	6eb000ef          	jal	15d10 <_sbrk_r>
   14e2a:	57fd                	li	a5,-1
   14e2c:	12f50063          	beq	a0,a5,14f4c <_malloc_r+0x5a2>
   14e30:	41650533          	sub	a0,a0,s6
   14e34:	000c069b          	sext.w	a3,s8
   14e38:	01850a33          	add	s4,a0,s8
   14e3c:	000ba703          	lw	a4,0(s7)
   14e40:	0169b823          	sd	s6,16(s3)
   14e44:	001a6793          	or	a5,s4,1
   14e48:	9f35                	addw	a4,a4,a3
   14e4a:	00eba023          	sw	a4,0(s7)
   14e4e:	00fb3423          	sd	a5,8(s6)
   14e52:	db3409e3          	beq	s0,s3,14c04 <_malloc_r+0x25a>
   14e56:	467d                	li	a2,31
   14e58:	0b567a63          	bgeu	a2,s5,14f0c <_malloc_r+0x562>
   14e5c:	6414                	ld	a3,8(s0)
   14e5e:	fe8a8793          	add	a5,s5,-24
   14e62:	9bc1                	and	a5,a5,-16
   14e64:	8a85                	and	a3,a3,1
   14e66:	8edd                	or	a3,a3,a5
   14e68:	e414                	sd	a3,8(s0)
   14e6a:	45a5                	li	a1,9
   14e6c:	00f406b3          	add	a3,s0,a5
   14e70:	e68c                	sd	a1,8(a3)
   14e72:	ea8c                	sd	a1,16(a3)
   14e74:	00f66563          	bltu	a2,a5,14e7e <_malloc_r+0x4d4>
   14e78:	008b3783          	ld	a5,8(s6)
   14e7c:	b361                	j	14c04 <_malloc_r+0x25a>
   14e7e:	01040593          	add	a1,s0,16
   14e82:	854a                	mv	a0,s2
   14e84:	f26fd0ef          	jal	125aa <_free_r>
   14e88:	0109bb03          	ld	s6,16(s3)
   14e8c:	000ba703          	lw	a4,0(s7)
   14e90:	008b3783          	ld	a5,8(s6)
   14e94:	bb85                	j	14c04 <_malloc_r+0x25a>
   14e96:	020a0a13          	add	s4,s4,32
   14e9a:	b31d                	j	14bc0 <_malloc_r+0x216>
   14e9c:	4026d69b          	sraw	a3,a3,0x2
   14ea0:	4785                	li	a5,1
   14ea2:	00d797b3          	sll	a5,a5,a3
   14ea6:	8d5d                	or	a0,a0,a5
   14ea8:	00a9b423          	sd	a0,8(s3)
   14eac:	b3cd                	j	14c8e <_malloc_r+0x2e4>
   14eae:	014b0c33          	add	s8,s6,s4
   14eb2:	41800c33          	neg	s8,s8
   14eb6:	1c52                	sll	s8,s8,0x34
   14eb8:	034c5c13          	srl	s8,s8,0x34
   14ebc:	85e2                	mv	a1,s8
   14ebe:	854a                	mv	a0,s2
   14ec0:	651000ef          	jal	15d10 <_sbrk_r>
   14ec4:	57fd                	li	a5,-1
   14ec6:	4681                	li	a3,0
   14ec8:	f6f514e3          	bne	a0,a5,14e30 <_malloc_r+0x486>
   14ecc:	bf85                	j	14e3c <_malloc_r+0x492>
   14ece:	05400693          	li	a3,84
   14ed2:	04e6e163          	bltu	a3,a4,14f14 <_malloc_r+0x56a>
   14ed6:	00c7d713          	srl	a4,a5,0xc
   14eda:	06f7059b          	addw	a1,a4,111
   14ede:	0015959b          	sllw	a1,a1,0x1
   14ee2:	06e7069b          	addw	a3,a4,110
   14ee6:	058e                	sll	a1,a1,0x3
   14ee8:	b369                	j	14c72 <_malloc_r+0x2c8>
   14eea:	15400713          	li	a4,340
   14eee:	04f76163          	bltu	a4,a5,14f30 <_malloc_r+0x586>
   14ef2:	00f4d793          	srl	a5,s1,0xf
   14ef6:	0787861b          	addw	a2,a5,120
   14efa:	0016169b          	sllw	a3,a2,0x1
   14efe:	0777851b          	addw	a0,a5,119
   14f02:	068e                	sll	a3,a3,0x3
   14f04:	b6b5                	j	14a70 <_malloc_r+0xc6>
   14f06:	7761b023          	sd	s6,1888(gp) # 1d248 <__malloc_sbrk_base>
   14f0a:	bdd5                	j	14dfe <_malloc_r+0x454>
   14f0c:	4785                	li	a5,1
   14f0e:	00fb3423          	sd	a5,8(s6)
   14f12:	b5bd                	j	14d80 <_malloc_r+0x3d6>
   14f14:	15400693          	li	a3,340
   14f18:	04e6e063          	bltu	a3,a4,14f58 <_malloc_r+0x5ae>
   14f1c:	00f7d713          	srl	a4,a5,0xf
   14f20:	0787059b          	addw	a1,a4,120
   14f24:	0015959b          	sllw	a1,a1,0x1
   14f28:	0777069b          	addw	a3,a4,119
   14f2c:	058e                	sll	a1,a1,0x3
   14f2e:	b391                	j	14c72 <_malloc_r+0x2c8>
   14f30:	55400713          	li	a4,1364
   14f34:	04f76063          	bltu	a4,a5,14f74 <_malloc_r+0x5ca>
   14f38:	0124d793          	srl	a5,s1,0x12
   14f3c:	07d7861b          	addw	a2,a5,125
   14f40:	0016169b          	sllw	a3,a2,0x1
   14f44:	07c7851b          	addw	a0,a5,124
   14f48:	068e                	sll	a3,a3,0x3
   14f4a:	b61d                	j	14a70 <_malloc_r+0xc6>
   14f4c:	1cc1                	add	s9,s9,-16
   14f4e:	9a66                	add	s4,s4,s9
   14f50:	416a0a33          	sub	s4,s4,s6
   14f54:	4681                	li	a3,0
   14f56:	b5dd                	j	14e3c <_malloc_r+0x492>
   14f58:	55400693          	li	a3,1364
   14f5c:	02e6e363          	bltu	a3,a4,14f82 <_malloc_r+0x5d8>
   14f60:	0127d713          	srl	a4,a5,0x12
   14f64:	07d7059b          	addw	a1,a4,125
   14f68:	0015959b          	sllw	a1,a1,0x1
   14f6c:	07c7069b          	addw	a3,a4,124
   14f70:	058e                	sll	a1,a1,0x3
   14f72:	b301                	j	14c72 <_malloc_r+0x2c8>
   14f74:	7f000693          	li	a3,2032
   14f78:	07f00613          	li	a2,127
   14f7c:	07e00513          	li	a0,126
   14f80:	bcc5                	j	14a70 <_malloc_r+0xc6>
   14f82:	7f000593          	li	a1,2032
   14f86:	07e00693          	li	a3,126
   14f8a:	b1e5                	j	14c72 <_malloc_r+0x2c8>
   14f8c:	0089b783          	ld	a5,8(s3)
   14f90:	b52d                	j	14dba <_malloc_r+0x410>

0000000000014f92 <_mbtowc_r>:
   14f92:	d681b783          	ld	a5,-664(gp) # 1c850 <__global_locale+0xe8>
   14f96:	8782                	jr	a5

0000000000014f98 <__ascii_mbtowc>:
   14f98:	c999                	beqz	a1,14fae <__ascii_mbtowc+0x16>
   14f9a:	c61d                	beqz	a2,14fc8 <__ascii_mbtowc+0x30>
   14f9c:	ca95                	beqz	a3,14fd0 <__ascii_mbtowc+0x38>
   14f9e:	00064783          	lbu	a5,0(a2)
   14fa2:	c19c                	sw	a5,0(a1)
   14fa4:	00064503          	lbu	a0,0(a2)
   14fa8:	00a03533          	snez	a0,a0
   14fac:	8082                	ret
   14fae:	1141                	add	sp,sp,-16
   14fb0:	006c                	add	a1,sp,12
   14fb2:	ce09                	beqz	a2,14fcc <__ascii_mbtowc+0x34>
   14fb4:	c285                	beqz	a3,14fd4 <__ascii_mbtowc+0x3c>
   14fb6:	00064783          	lbu	a5,0(a2)
   14fba:	c19c                	sw	a5,0(a1)
   14fbc:	00064503          	lbu	a0,0(a2)
   14fc0:	00a03533          	snez	a0,a0
   14fc4:	0141                	add	sp,sp,16
   14fc6:	8082                	ret
   14fc8:	4501                	li	a0,0
   14fca:	8082                	ret
   14fcc:	4501                	li	a0,0
   14fce:	bfdd                	j	14fc4 <__ascii_mbtowc+0x2c>
   14fd0:	5579                	li	a0,-2
   14fd2:	8082                	ret
   14fd4:	5579                	li	a0,-2
   14fd6:	b7fd                	j	14fc4 <__ascii_mbtowc+0x2c>

0000000000014fd8 <memchr>:
   14fd8:	00757793          	and	a5,a0,7
   14fdc:	0ff5f693          	zext.b	a3,a1
   14fe0:	c785                	beqz	a5,15008 <memchr+0x30>
   14fe2:	fff60793          	add	a5,a2,-1
   14fe6:	ce19                	beqz	a2,15004 <memchr+0x2c>
   14fe8:	567d                	li	a2,-1
   14fea:	a801                	j	14ffa <memchr+0x22>
   14fec:	0505                	add	a0,a0,1
   14fee:	00757713          	and	a4,a0,7
   14ff2:	cf01                	beqz	a4,1500a <memchr+0x32>
   14ff4:	17fd                	add	a5,a5,-1
   14ff6:	00c78763          	beq	a5,a2,15004 <memchr+0x2c>
   14ffa:	00054703          	lbu	a4,0(a0)
   14ffe:	fed717e3          	bne	a4,a3,14fec <memchr+0x14>
   15002:	8082                	ret
   15004:	4501                	li	a0,0
   15006:	8082                	ret
   15008:	87b2                	mv	a5,a2
   1500a:	471d                	li	a4,7
   1500c:	04f77163          	bgeu	a4,a5,1504e <memchr+0x76>
   15010:	0ff5f593          	zext.b	a1,a1
   15014:	00859713          	sll	a4,a1,0x8
   15018:	972e                	add	a4,a4,a1
   1501a:	01071593          	sll	a1,a4,0x10
   1501e:	95ba                	add	a1,a1,a4
   15020:	6381b883          	ld	a7,1592(gp) # 1d120 <__SDATA_BEGIN__>
   15024:	6401b803          	ld	a6,1600(gp) # 1d128 <__SDATA_BEGIN__+0x8>
   15028:	02059713          	sll	a4,a1,0x20
   1502c:	95ba                	add	a1,a1,a4
   1502e:	431d                	li	t1,7
   15030:	a029                	j	1503a <memchr+0x62>
   15032:	17e1                	add	a5,a5,-8
   15034:	0521                	add	a0,a0,8
   15036:	00f37c63          	bgeu	t1,a5,1504e <memchr+0x76>
   1503a:	6118                	ld	a4,0(a0)
   1503c:	8f2d                	xor	a4,a4,a1
   1503e:	01170633          	add	a2,a4,a7
   15042:	fff74713          	not	a4,a4
   15046:	8f71                	and	a4,a4,a2
   15048:	01077733          	and	a4,a4,a6
   1504c:	d37d                	beqz	a4,15032 <memchr+0x5a>
   1504e:	00f50733          	add	a4,a0,a5
   15052:	e789                	bnez	a5,1505c <memchr+0x84>
   15054:	bf45                	j	15004 <memchr+0x2c>
   15056:	0505                	add	a0,a0,1
   15058:	faa706e3          	beq	a4,a0,15004 <memchr+0x2c>
   1505c:	00054783          	lbu	a5,0(a0)
   15060:	fed79be3          	bne	a5,a3,15056 <memchr+0x7e>
   15064:	8082                	ret

0000000000015066 <__malloc_lock>:
   15066:	8082                	ret

0000000000015068 <__malloc_unlock>:
   15068:	8082                	ret

000000000001506a <_Balloc>:
   1506a:	7d3c                	ld	a5,120(a0)
   1506c:	1101                	add	sp,sp,-32
   1506e:	e822                	sd	s0,16(sp)
   15070:	e426                	sd	s1,8(sp)
   15072:	ec06                	sd	ra,24(sp)
   15074:	84aa                	mv	s1,a0
   15076:	842e                	mv	s0,a1
   15078:	cf99                	beqz	a5,15096 <_Balloc+0x2c>
   1507a:	00341713          	sll	a4,s0,0x3
   1507e:	97ba                	add	a5,a5,a4
   15080:	6388                	ld	a0,0(a5)
   15082:	c505                	beqz	a0,150aa <_Balloc+0x40>
   15084:	6118                	ld	a4,0(a0)
   15086:	e398                	sd	a4,0(a5)
   15088:	00053823          	sd	zero,16(a0)
   1508c:	60e2                	ld	ra,24(sp)
   1508e:	6442                	ld	s0,16(sp)
   15090:	64a2                	ld	s1,8(sp)
   15092:	6105                	add	sp,sp,32
   15094:	8082                	ret
   15096:	04100613          	li	a2,65
   1509a:	45a1                	li	a1,8
   1509c:	509010ef          	jal	16da4 <_calloc_r>
   150a0:	fca8                	sd	a0,120(s1)
   150a2:	87aa                	mv	a5,a0
   150a4:	f979                	bnez	a0,1507a <_Balloc+0x10>
   150a6:	4501                	li	a0,0
   150a8:	b7d5                	j	1508c <_Balloc+0x22>
   150aa:	4785                	li	a5,1
   150ac:	008797bb          	sllw	a5,a5,s0
   150b0:	0007861b          	sext.w	a2,a5
   150b4:	061d                	add	a2,a2,7
   150b6:	1402                	sll	s0,s0,0x20
   150b8:	1782                	sll	a5,a5,0x20
   150ba:	9001                	srl	s0,s0,0x20
   150bc:	060a                	sll	a2,a2,0x2
   150be:	4585                	li	a1,1
   150c0:	8526                	mv	a0,s1
   150c2:	8c5d                	or	s0,s0,a5
   150c4:	4e1010ef          	jal	16da4 <_calloc_r>
   150c8:	dd79                	beqz	a0,150a6 <_Balloc+0x3c>
   150ca:	e500                	sd	s0,8(a0)
   150cc:	bf75                	j	15088 <_Balloc+0x1e>

00000000000150ce <_Bfree>:
   150ce:	c981                	beqz	a1,150de <_Bfree+0x10>
   150d0:	4598                	lw	a4,8(a1)
   150d2:	7d3c                	ld	a5,120(a0)
   150d4:	070e                	sll	a4,a4,0x3
   150d6:	97ba                	add	a5,a5,a4
   150d8:	6398                	ld	a4,0(a5)
   150da:	e198                	sd	a4,0(a1)
   150dc:	e38c                	sd	a1,0(a5)
   150de:	8082                	ret

00000000000150e0 <__multadd>:
   150e0:	7179                	add	sp,sp,-48
   150e2:	f022                	sd	s0,32(sp)
   150e4:	49c0                	lw	s0,20(a1)
   150e6:	6341                	lui	t1,0x10
   150e8:	e84a                	sd	s2,16(sp)
   150ea:	e44e                	sd	s3,8(sp)
   150ec:	f406                	sd	ra,40(sp)
   150ee:	ec26                	sd	s1,24(sp)
   150f0:	e052                	sd	s4,0(sp)
   150f2:	892e                	mv	s2,a1
   150f4:	89aa                	mv	s3,a0
   150f6:	01858813          	add	a6,a1,24
   150fa:	4881                	li	a7,0
   150fc:	137d                	add	t1,t1,-1 # ffff <exit-0xe9>
   150fe:	00082783          	lw	a5,0(a6)
   15102:	0811                	add	a6,a6,4
   15104:	2885                	addw	a7,a7,1
   15106:	0067f733          	and	a4,a5,t1
   1510a:	02c7073b          	mulw	a4,a4,a2
   1510e:	0107d79b          	srlw	a5,a5,0x10
   15112:	02c787bb          	mulw	a5,a5,a2
   15116:	9f35                	addw	a4,a4,a3
   15118:	0107569b          	srlw	a3,a4,0x10
   1511c:	00e37733          	and	a4,t1,a4
   15120:	9fb5                	addw	a5,a5,a3
   15122:	0107969b          	sllw	a3,a5,0x10
   15126:	9f35                	addw	a4,a4,a3
   15128:	fee82e23          	sw	a4,-4(a6)
   1512c:	0107d49b          	srlw	s1,a5,0x10
   15130:	0107d69b          	srlw	a3,a5,0x10
   15134:	fc88c5e3          	blt	a7,s0,150fe <__multadd+0x1e>
   15138:	ce89                	beqz	a3,15152 <__multadd+0x72>
   1513a:	00c92783          	lw	a5,12(s2)
   1513e:	02f45363          	bge	s0,a5,15164 <__multadd+0x84>
   15142:	00440793          	add	a5,s0,4
   15146:	078a                	sll	a5,a5,0x2
   15148:	97ca                	add	a5,a5,s2
   1514a:	c784                	sw	s1,8(a5)
   1514c:	2405                	addw	s0,s0,1
   1514e:	00892a23          	sw	s0,20(s2)
   15152:	70a2                	ld	ra,40(sp)
   15154:	7402                	ld	s0,32(sp)
   15156:	64e2                	ld	s1,24(sp)
   15158:	69a2                	ld	s3,8(sp)
   1515a:	6a02                	ld	s4,0(sp)
   1515c:	854a                	mv	a0,s2
   1515e:	6942                	ld	s2,16(sp)
   15160:	6145                	add	sp,sp,48
   15162:	8082                	ret
   15164:	00892583          	lw	a1,8(s2)
   15168:	854e                	mv	a0,s3
   1516a:	2585                	addw	a1,a1,1
   1516c:	effff0ef          	jal	1506a <_Balloc>
   15170:	8a2a                	mv	s4,a0
   15172:	cd1d                	beqz	a0,151b0 <__multadd+0xd0>
   15174:	01492603          	lw	a2,20(s2)
   15178:	01090593          	add	a1,s2,16
   1517c:	0541                	add	a0,a0,16
   1517e:	0609                	add	a2,a2,2
   15180:	060a                	sll	a2,a2,0x2
   15182:	521010ef          	jal	16ea2 <memcpy>
   15186:	00892703          	lw	a4,8(s2)
   1518a:	0789b783          	ld	a5,120(s3)
   1518e:	070e                	sll	a4,a4,0x3
   15190:	97ba                	add	a5,a5,a4
   15192:	6398                	ld	a4,0(a5)
   15194:	00e93023          	sd	a4,0(s2)
   15198:	0127b023          	sd	s2,0(a5)
   1519c:	00440793          	add	a5,s0,4
   151a0:	8952                	mv	s2,s4
   151a2:	078a                	sll	a5,a5,0x2
   151a4:	97ca                	add	a5,a5,s2
   151a6:	c784                	sw	s1,8(a5)
   151a8:	2405                	addw	s0,s0,1
   151aa:	00892a23          	sw	s0,20(s2)
   151ae:	b755                	j	15152 <__multadd+0x72>
   151b0:	66ed                	lui	a3,0x1b
   151b2:	656d                	lui	a0,0x1b
   151b4:	36068693          	add	a3,a3,864 # 1b360 <blanks.1+0x78>
   151b8:	4601                	li	a2,0
   151ba:	0b500593          	li	a1,181
   151be:	65850513          	add	a0,a0,1624 # 1b658 <ezero+0x30>
   151c2:	38f010ef          	jal	16d50 <__assert_func>

00000000000151c6 <__s2b>:
   151c6:	7139                	add	sp,sp,-64
   151c8:	f822                	sd	s0,48(sp)
   151ca:	f426                	sd	s1,40(sp)
   151cc:	f04a                	sd	s2,32(sp)
   151ce:	ec4e                	sd	s3,24(sp)
   151d0:	e852                	sd	s4,16(sp)
   151d2:	84b6                	mv	s1,a3
   151d4:	842e                	mv	s0,a1
   151d6:	26a1                	addw	a3,a3,8
   151d8:	45a5                	li	a1,9
   151da:	fc06                	sd	ra,56(sp)
   151dc:	e456                	sd	s5,8(sp)
   151de:	e05a                	sd	s6,0(sp)
   151e0:	47a5                	li	a5,9
   151e2:	02b6c6bb          	divw	a3,a3,a1
   151e6:	892a                	mv	s2,a0
   151e8:	8a32                	mv	s4,a2
   151ea:	89ba                	mv	s3,a4
   151ec:	0a97d163          	bge	a5,s1,1528e <__s2b+0xc8>
   151f0:	4785                	li	a5,1
   151f2:	4581                	li	a1,0
   151f4:	0017979b          	sllw	a5,a5,0x1
   151f8:	2585                	addw	a1,a1,1
   151fa:	fed7cde3          	blt	a5,a3,151f4 <__s2b+0x2e>
   151fe:	854a                	mv	a0,s2
   15200:	e6bff0ef          	jal	1506a <_Balloc>
   15204:	85aa                	mv	a1,a0
   15206:	c551                	beqz	a0,15292 <__s2b+0xcc>
   15208:	4785                	li	a5,1
   1520a:	c95c                	sw	a5,20(a0)
   1520c:	01352c23          	sw	s3,24(a0)
   15210:	47a5                	li	a5,9
   15212:	0747db63          	bge	a5,s4,15288 <__s2b+0xc2>
   15216:	020a1793          	sll	a5,s4,0x20
   1521a:	00940b13          	add	s6,s0,9
   1521e:	9381                	srl	a5,a5,0x20
   15220:	000a0a9b          	sext.w	s5,s4
   15224:	943e                	add	s0,s0,a5
   15226:	89da                	mv	s3,s6
   15228:	0009c683          	lbu	a3,0(s3)
   1522c:	4629                	li	a2,10
   1522e:	854a                	mv	a0,s2
   15230:	fd06869b          	addw	a3,a3,-48
   15234:	eadff0ef          	jal	150e0 <__multadd>
   15238:	0985                	add	s3,s3,1
   1523a:	85aa                	mv	a1,a0
   1523c:	fe8996e3          	bne	s3,s0,15228 <__s2b+0x62>
   15240:	3ae1                	addw	s5,s5,-8
   15242:	1a82                	sll	s5,s5,0x20
   15244:	020ada93          	srl	s5,s5,0x20
   15248:	015b0433          	add	s0,s6,s5
   1524c:	029a5363          	bge	s4,s1,15272 <__s2b+0xac>
   15250:	414484bb          	subw	s1,s1,s4
   15254:	1482                	sll	s1,s1,0x20
   15256:	9081                	srl	s1,s1,0x20
   15258:	94a2                	add	s1,s1,s0
   1525a:	00044683          	lbu	a3,0(s0)
   1525e:	4629                	li	a2,10
   15260:	854a                	mv	a0,s2
   15262:	fd06869b          	addw	a3,a3,-48
   15266:	e7bff0ef          	jal	150e0 <__multadd>
   1526a:	0405                	add	s0,s0,1
   1526c:	85aa                	mv	a1,a0
   1526e:	fe9416e3          	bne	s0,s1,1525a <__s2b+0x94>
   15272:	70e2                	ld	ra,56(sp)
   15274:	7442                	ld	s0,48(sp)
   15276:	74a2                	ld	s1,40(sp)
   15278:	7902                	ld	s2,32(sp)
   1527a:	69e2                	ld	s3,24(sp)
   1527c:	6a42                	ld	s4,16(sp)
   1527e:	6aa2                	ld	s5,8(sp)
   15280:	6b02                	ld	s6,0(sp)
   15282:	852e                	mv	a0,a1
   15284:	6121                	add	sp,sp,64
   15286:	8082                	ret
   15288:	0429                	add	s0,s0,10
   1528a:	4a25                	li	s4,9
   1528c:	b7c1                	j	1524c <__s2b+0x86>
   1528e:	4581                	li	a1,0
   15290:	b7bd                	j	151fe <__s2b+0x38>
   15292:	66ed                	lui	a3,0x1b
   15294:	656d                	lui	a0,0x1b
   15296:	36068693          	add	a3,a3,864 # 1b360 <blanks.1+0x78>
   1529a:	4601                	li	a2,0
   1529c:	0ce00593          	li	a1,206
   152a0:	65850513          	add	a0,a0,1624 # 1b658 <ezero+0x30>
   152a4:	2ad010ef          	jal	16d50 <__assert_func>

00000000000152a8 <__hi0bits>:
   152a8:	87aa                	mv	a5,a0
   152aa:	6741                	lui	a4,0x10
   152ac:	4501                	li	a0,0
   152ae:	00e7f563          	bgeu	a5,a4,152b8 <__hi0bits+0x10>
   152b2:	0107979b          	sllw	a5,a5,0x10
   152b6:	4541                	li	a0,16
   152b8:	01000737          	lui	a4,0x1000
   152bc:	00e7f563          	bgeu	a5,a4,152c6 <__hi0bits+0x1e>
   152c0:	0087979b          	sllw	a5,a5,0x8
   152c4:	2521                	addw	a0,a0,8
   152c6:	10000737          	lui	a4,0x10000
   152ca:	00e7f563          	bgeu	a5,a4,152d4 <__hi0bits+0x2c>
   152ce:	0047979b          	sllw	a5,a5,0x4
   152d2:	2511                	addw	a0,a0,4
   152d4:	40000737          	lui	a4,0x40000
   152d8:	00e7e663          	bltu	a5,a4,152e4 <__hi0bits+0x3c>
   152dc:	0207c063          	bltz	a5,152fc <__hi0bits+0x54>
   152e0:	2505                	addw	a0,a0,1
   152e2:	8082                	ret
   152e4:	0027979b          	sllw	a5,a5,0x2
   152e8:	0007871b          	sext.w	a4,a5
   152ec:	00074963          	bltz	a4,152fe <__hi0bits+0x56>
   152f0:	40000737          	lui	a4,0x40000
   152f4:	8ff9                	and	a5,a5,a4
   152f6:	e791                	bnez	a5,15302 <__hi0bits+0x5a>
   152f8:	02000513          	li	a0,32
   152fc:	8082                	ret
   152fe:	2509                	addw	a0,a0,2
   15300:	8082                	ret
   15302:	250d                	addw	a0,a0,3
   15304:	8082                	ret

0000000000015306 <__lo0bits>:
   15306:	411c                	lw	a5,0(a0)
   15308:	872a                	mv	a4,a0
   1530a:	0077f693          	and	a3,a5,7
   1530e:	863e                	mv	a2,a5
   15310:	ce81                	beqz	a3,15328 <__lo0bits+0x22>
   15312:	0017f693          	and	a3,a5,1
   15316:	4501                	li	a0,0
   15318:	ee9d                	bnez	a3,15356 <__lo0bits+0x50>
   1531a:	8a09                	and	a2,a2,2
   1531c:	ce25                	beqz	a2,15394 <__lo0bits+0x8e>
   1531e:	0017d79b          	srlw	a5,a5,0x1
   15322:	c31c                	sw	a5,0(a4)
   15324:	4505                	li	a0,1
   15326:	8082                	ret
   15328:	03079693          	sll	a3,a5,0x30
   1532c:	92c1                	srl	a3,a3,0x30
   1532e:	4501                	li	a0,0
   15330:	cab9                	beqz	a3,15386 <__lo0bits+0x80>
   15332:	0ff7f693          	zext.b	a3,a5
   15336:	c2a9                	beqz	a3,15378 <__lo0bits+0x72>
   15338:	00f7f693          	and	a3,a5,15
   1533c:	c69d                	beqz	a3,1536a <__lo0bits+0x64>
   1533e:	0037f693          	and	a3,a5,3
   15342:	ce89                	beqz	a3,1535c <__lo0bits+0x56>
   15344:	0017f693          	and	a3,a5,1
   15348:	ea81                	bnez	a3,15358 <__lo0bits+0x52>
   1534a:	0017d79b          	srlw	a5,a5,0x1
   1534e:	2505                	addw	a0,a0,1
   15350:	e781                	bnez	a5,15358 <__lo0bits+0x52>
   15352:	02000513          	li	a0,32
   15356:	8082                	ret
   15358:	c31c                	sw	a5,0(a4)
   1535a:	8082                	ret
   1535c:	0027d79b          	srlw	a5,a5,0x2
   15360:	0017f693          	and	a3,a5,1
   15364:	2509                	addw	a0,a0,2
   15366:	faed                	bnez	a3,15358 <__lo0bits+0x52>
   15368:	b7cd                	j	1534a <__lo0bits+0x44>
   1536a:	0047d79b          	srlw	a5,a5,0x4
   1536e:	0037f693          	and	a3,a5,3
   15372:	2511                	addw	a0,a0,4
   15374:	fae1                	bnez	a3,15344 <__lo0bits+0x3e>
   15376:	b7dd                	j	1535c <__lo0bits+0x56>
   15378:	0087d79b          	srlw	a5,a5,0x8
   1537c:	00f7f693          	and	a3,a5,15
   15380:	2521                	addw	a0,a0,8
   15382:	fed5                	bnez	a3,1533e <__lo0bits+0x38>
   15384:	b7dd                	j	1536a <__lo0bits+0x64>
   15386:	0107d79b          	srlw	a5,a5,0x10
   1538a:	0ff7f693          	zext.b	a3,a5
   1538e:	4541                	li	a0,16
   15390:	f6c5                	bnez	a3,15338 <__lo0bits+0x32>
   15392:	b7dd                	j	15378 <__lo0bits+0x72>
   15394:	0027d79b          	srlw	a5,a5,0x2
   15398:	c31c                	sw	a5,0(a4)
   1539a:	4509                	li	a0,2
   1539c:	8082                	ret

000000000001539e <__i2b>:
   1539e:	7d3c                	ld	a5,120(a0)
   153a0:	1101                	add	sp,sp,-32
   153a2:	e822                	sd	s0,16(sp)
   153a4:	e426                	sd	s1,8(sp)
   153a6:	ec06                	sd	ra,24(sp)
   153a8:	842a                	mv	s0,a0
   153aa:	84ae                	mv	s1,a1
   153ac:	cf91                	beqz	a5,153c8 <__i2b+0x2a>
   153ae:	6788                	ld	a0,8(a5)
   153b0:	cd1d                	beqz	a0,153ee <__i2b+0x50>
   153b2:	6118                	ld	a4,0(a0)
   153b4:	e798                	sd	a4,8(a5)
   153b6:	60e2                	ld	ra,24(sp)
   153b8:	6442                	ld	s0,16(sp)
   153ba:	4785                	li	a5,1
   153bc:	1782                	sll	a5,a5,0x20
   153be:	cd04                	sw	s1,24(a0)
   153c0:	e91c                	sd	a5,16(a0)
   153c2:	64a2                	ld	s1,8(sp)
   153c4:	6105                	add	sp,sp,32
   153c6:	8082                	ret
   153c8:	04100613          	li	a2,65
   153cc:	45a1                	li	a1,8
   153ce:	1d7010ef          	jal	16da4 <_calloc_r>
   153d2:	fc28                	sd	a0,120(s0)
   153d4:	87aa                	mv	a5,a0
   153d6:	fd61                	bnez	a0,153ae <__i2b+0x10>
   153d8:	66ed                	lui	a3,0x1b
   153da:	656d                	lui	a0,0x1b
   153dc:	36068693          	add	a3,a3,864 # 1b360 <blanks.1+0x78>
   153e0:	4601                	li	a2,0
   153e2:	14000593          	li	a1,320
   153e6:	65850513          	add	a0,a0,1624 # 1b658 <ezero+0x30>
   153ea:	167010ef          	jal	16d50 <__assert_func>
   153ee:	02400613          	li	a2,36
   153f2:	4585                	li	a1,1
   153f4:	8522                	mv	a0,s0
   153f6:	1af010ef          	jal	16da4 <_calloc_r>
   153fa:	dd79                	beqz	a0,153d8 <__i2b+0x3a>
   153fc:	4785                	li	a5,1
   153fe:	1786                	sll	a5,a5,0x21
   15400:	0785                	add	a5,a5,1
   15402:	e51c                	sd	a5,8(a0)
   15404:	bf4d                	j	153b6 <__i2b+0x18>

0000000000015406 <__multiply>:
   15406:	7179                	add	sp,sp,-48
   15408:	e84a                	sd	s2,16(sp)
   1540a:	e44e                	sd	s3,8(sp)
   1540c:	01462903          	lw	s2,20(a2)
   15410:	0145a983          	lw	s3,20(a1)
   15414:	ec26                	sd	s1,24(sp)
   15416:	e052                	sd	s4,0(sp)
   15418:	f406                	sd	ra,40(sp)
   1541a:	f022                	sd	s0,32(sp)
   1541c:	8a2e                	mv	s4,a1
   1541e:	84b2                	mv	s1,a2
   15420:	0129c763          	blt	s3,s2,1542e <__multiply+0x28>
   15424:	87ca                	mv	a5,s2
   15426:	84ae                	mv	s1,a1
   15428:	894e                	mv	s2,s3
   1542a:	8a32                	mv	s4,a2
   1542c:	89be                	mv	s3,a5
   1542e:	44dc                	lw	a5,12(s1)
   15430:	0139043b          	addw	s0,s2,s3
   15434:	448c                	lw	a1,8(s1)
   15436:	0087d363          	bge	a5,s0,1543c <__multiply+0x36>
   1543a:	2585                	addw	a1,a1,1
   1543c:	c2fff0ef          	jal	1506a <_Balloc>
   15440:	14050c63          	beqz	a0,15598 <__multiply+0x192>
   15444:	01850313          	add	t1,a0,24
   15448:	00241893          	sll	a7,s0,0x2
   1544c:	989a                	add	a7,a7,t1
   1544e:	879a                	mv	a5,t1
   15450:	01137763          	bgeu	t1,a7,1545e <__multiply+0x58>
   15454:	0007a023          	sw	zero,0(a5)
   15458:	0791                	add	a5,a5,4
   1545a:	ff17ede3          	bltu	a5,a7,15454 <__multiply+0x4e>
   1545e:	018a0813          	add	a6,s4,24
   15462:	00299e13          	sll	t3,s3,0x2
   15466:	01848e93          	add	t4,s1,24
   1546a:	00291593          	sll	a1,s2,0x2
   1546e:	9e42                	add	t3,t3,a6
   15470:	95f6                	add	a1,a1,t4
   15472:	0fc87a63          	bgeu	a6,t3,15566 <__multiply+0x160>
   15476:	01948793          	add	a5,s1,25
   1547a:	4f11                	li	t5,4
   1547c:	10f5f763          	bgeu	a1,a5,1558a <__multiply+0x184>
   15480:	66c1                	lui	a3,0x10
   15482:	16fd                	add	a3,a3,-1 # ffff <exit-0xe9>
   15484:	a809                	j	15496 <__multiply+0x90>
   15486:	010fdf9b          	srlw	t6,t6,0x10
   1548a:	060f9d63          	bnez	t6,15504 <__multiply+0xfe>
   1548e:	0811                	add	a6,a6,4
   15490:	0311                	add	t1,t1,4
   15492:	0dc87a63          	bgeu	a6,t3,15566 <__multiply+0x160>
   15496:	00082f83          	lw	t6,0(a6)
   1549a:	00dff3b3          	and	t2,t6,a3
   1549e:	fe0384e3          	beqz	t2,15486 <__multiply+0x80>
   154a2:	829a                	mv	t0,t1
   154a4:	8ff6                	mv	t6,t4
   154a6:	4481                	li	s1,0
   154a8:	000fa783          	lw	a5,0(t6)
   154ac:	0002a603          	lw	a2,0(t0) # 10814 <memset+0x90>
   154b0:	0291                	add	t0,t0,4
   154b2:	00d7f733          	and	a4,a5,a3
   154b6:	0277073b          	mulw	a4,a4,t2
   154ba:	0107d79b          	srlw	a5,a5,0x10
   154be:	00d67933          	and	s2,a2,a3
   154c2:	0106561b          	srlw	a2,a2,0x10
   154c6:	0f91                	add	t6,t6,4
   154c8:	027787bb          	mulw	a5,a5,t2
   154cc:	0127073b          	addw	a4,a4,s2
   154d0:	9f25                	addw	a4,a4,s1
   154d2:	0107549b          	srlw	s1,a4,0x10
   154d6:	8f75                	and	a4,a4,a3
   154d8:	9fb1                	addw	a5,a5,a2
   154da:	9fa5                	addw	a5,a5,s1
   154dc:	0107961b          	sllw	a2,a5,0x10
   154e0:	8f51                	or	a4,a4,a2
   154e2:	fee2ae23          	sw	a4,-4(t0)
   154e6:	0107d49b          	srlw	s1,a5,0x10
   154ea:	0107d71b          	srlw	a4,a5,0x10
   154ee:	fabfede3          	bltu	t6,a1,154a8 <__multiply+0xa2>
   154f2:	01e307b3          	add	a5,t1,t5
   154f6:	c398                	sw	a4,0(a5)
   154f8:	00082f83          	lw	t6,0(a6)
   154fc:	010fdf9b          	srlw	t6,t6,0x10
   15500:	f80f87e3          	beqz	t6,1548e <__multiply+0x88>
   15504:	00032703          	lw	a4,0(t1)
   15508:	829a                	mv	t0,t1
   1550a:	8676                	mv	a2,t4
   1550c:	83ba                	mv	t2,a4
   1550e:	4481                	li	s1,0
   15510:	421c                	lw	a5,0(a2)
   15512:	0103d99b          	srlw	s3,t2,0x10
   15516:	8f75                	and	a4,a4,a3
   15518:	8ff5                	and	a5,a5,a3
   1551a:	03f787bb          	mulw	a5,a5,t6
   1551e:	0042a383          	lw	t2,4(t0)
   15522:	0291                	add	t0,t0,4
   15524:	0611                	add	a2,a2,4
   15526:	00d3f933          	and	s2,t2,a3
   1552a:	9fa5                	addw	a5,a5,s1
   1552c:	013787bb          	addw	a5,a5,s3
   15530:	0107949b          	sllw	s1,a5,0x10
   15534:	8f45                	or	a4,a4,s1
   15536:	fee2ae23          	sw	a4,-4(t0)
   1553a:	ffe65703          	lhu	a4,-2(a2)
   1553e:	0107d79b          	srlw	a5,a5,0x10
   15542:	03f7073b          	mulw	a4,a4,t6
   15546:	0127073b          	addw	a4,a4,s2
   1554a:	9fb9                	addw	a5,a5,a4
   1554c:	0007871b          	sext.w	a4,a5
   15550:	0107d49b          	srlw	s1,a5,0x10
   15554:	fab66ee3          	bltu	a2,a1,15510 <__multiply+0x10a>
   15558:	01e30733          	add	a4,t1,t5
   1555c:	c31c                	sw	a5,0(a4)
   1555e:	0811                	add	a6,a6,4
   15560:	0311                	add	t1,t1,4
   15562:	f3c86ae3          	bltu	a6,t3,15496 <__multiply+0x90>
   15566:	00804563          	bgtz	s0,15570 <__multiply+0x16a>
   1556a:	a039                	j	15578 <__multiply+0x172>
   1556c:	347d                	addw	s0,s0,-1
   1556e:	c409                	beqz	s0,15578 <__multiply+0x172>
   15570:	ffc8a783          	lw	a5,-4(a7)
   15574:	18f1                	add	a7,a7,-4
   15576:	dbfd                	beqz	a5,1556c <__multiply+0x166>
   15578:	70a2                	ld	ra,40(sp)
   1557a:	c940                	sw	s0,20(a0)
   1557c:	7402                	ld	s0,32(sp)
   1557e:	64e2                	ld	s1,24(sp)
   15580:	6942                	ld	s2,16(sp)
   15582:	69a2                	ld	s3,8(sp)
   15584:	6a02                	ld	s4,0(sp)
   15586:	6145                	add	sp,sp,48
   15588:	8082                	ret
   1558a:	409587b3          	sub	a5,a1,s1
   1558e:	179d                	add	a5,a5,-25
   15590:	9bf1                	and	a5,a5,-4
   15592:	00478f13          	add	t5,a5,4
   15596:	b5ed                	j	15480 <__multiply+0x7a>
   15598:	66ed                	lui	a3,0x1b
   1559a:	656d                	lui	a0,0x1b
   1559c:	36068693          	add	a3,a3,864 # 1b360 <blanks.1+0x78>
   155a0:	4601                	li	a2,0
   155a2:	15d00593          	li	a1,349
   155a6:	65850513          	add	a0,a0,1624 # 1b658 <ezero+0x30>
   155aa:	7a6010ef          	jal	16d50 <__assert_func>

00000000000155ae <__pow5mult>:
   155ae:	7179                	add	sp,sp,-48
   155b0:	f022                	sd	s0,32(sp)
   155b2:	e84a                	sd	s2,16(sp)
   155b4:	e44e                	sd	s3,8(sp)
   155b6:	f406                	sd	ra,40(sp)
   155b8:	ec26                	sd	s1,24(sp)
   155ba:	00367793          	and	a5,a2,3
   155be:	8432                	mv	s0,a2
   155c0:	89aa                	mv	s3,a0
   155c2:	892e                	mv	s2,a1
   155c4:	eba5                	bnez	a5,15634 <__pow5mult+0x86>
   155c6:	8409                	sra	s0,s0,0x2
   155c8:	c421                	beqz	s0,15610 <__pow5mult+0x62>
   155ca:	0709b483          	ld	s1,112(s3)
   155ce:	ccbd                	beqz	s1,1564c <__pow5mult+0x9e>
   155d0:	00147793          	and	a5,s0,1
   155d4:	eb89                	bnez	a5,155e6 <__pow5mult+0x38>
   155d6:	8405                	sra	s0,s0,0x1
   155d8:	cc05                	beqz	s0,15610 <__pow5mult+0x62>
   155da:	6088                	ld	a0,0(s1)
   155dc:	c131                	beqz	a0,15620 <__pow5mult+0x72>
   155de:	84aa                	mv	s1,a0
   155e0:	00147793          	and	a5,s0,1
   155e4:	dbed                	beqz	a5,155d6 <__pow5mult+0x28>
   155e6:	8626                	mv	a2,s1
   155e8:	85ca                	mv	a1,s2
   155ea:	854e                	mv	a0,s3
   155ec:	e1bff0ef          	jal	15406 <__multiply>
   155f0:	00090d63          	beqz	s2,1560a <__pow5mult+0x5c>
   155f4:	00892703          	lw	a4,8(s2)
   155f8:	0789b783          	ld	a5,120(s3)
   155fc:	070e                	sll	a4,a4,0x3
   155fe:	97ba                	add	a5,a5,a4
   15600:	6398                	ld	a4,0(a5)
   15602:	00e93023          	sd	a4,0(s2)
   15606:	0127b023          	sd	s2,0(a5)
   1560a:	8405                	sra	s0,s0,0x1
   1560c:	892a                	mv	s2,a0
   1560e:	f471                	bnez	s0,155da <__pow5mult+0x2c>
   15610:	70a2                	ld	ra,40(sp)
   15612:	7402                	ld	s0,32(sp)
   15614:	64e2                	ld	s1,24(sp)
   15616:	69a2                	ld	s3,8(sp)
   15618:	854a                	mv	a0,s2
   1561a:	6942                	ld	s2,16(sp)
   1561c:	6145                	add	sp,sp,48
   1561e:	8082                	ret
   15620:	8626                	mv	a2,s1
   15622:	85a6                	mv	a1,s1
   15624:	854e                	mv	a0,s3
   15626:	de1ff0ef          	jal	15406 <__multiply>
   1562a:	e088                	sd	a0,0(s1)
   1562c:	00053023          	sd	zero,0(a0)
   15630:	84aa                	mv	s1,a0
   15632:	b77d                	j	155e0 <__pow5mult+0x32>
   15634:	37fd                	addw	a5,a5,-1
   15636:	676d                	lui	a4,0x1b
   15638:	6b070713          	add	a4,a4,1712 # 1b6b0 <p05.0>
   1563c:	078a                	sll	a5,a5,0x2
   1563e:	97ba                	add	a5,a5,a4
   15640:	4390                	lw	a2,0(a5)
   15642:	4681                	li	a3,0
   15644:	a9dff0ef          	jal	150e0 <__multadd>
   15648:	892a                	mv	s2,a0
   1564a:	bfb5                	j	155c6 <__pow5mult+0x18>
   1564c:	4585                	li	a1,1
   1564e:	854e                	mv	a0,s3
   15650:	a1bff0ef          	jal	1506a <_Balloc>
   15654:	84aa                	mv	s1,a0
   15656:	c919                	beqz	a0,1566c <__pow5mult+0xbe>
   15658:	27100793          	li	a5,625
   1565c:	cd1c                	sw	a5,24(a0)
   1565e:	4785                	li	a5,1
   15660:	c95c                	sw	a5,20(a0)
   15662:	06a9b823          	sd	a0,112(s3)
   15666:	00053023          	sd	zero,0(a0)
   1566a:	b79d                	j	155d0 <__pow5mult+0x22>
   1566c:	66ed                	lui	a3,0x1b
   1566e:	656d                	lui	a0,0x1b
   15670:	36068693          	add	a3,a3,864 # 1b360 <blanks.1+0x78>
   15674:	4601                	li	a2,0
   15676:	14000593          	li	a1,320
   1567a:	65850513          	add	a0,a0,1624 # 1b658 <ezero+0x30>
   1567e:	6d2010ef          	jal	16d50 <__assert_func>

0000000000015682 <__lshift>:
   15682:	7139                	add	sp,sp,-64
   15684:	f822                	sd	s0,48(sp)
   15686:	49c0                	lw	s0,20(a1)
   15688:	45dc                	lw	a5,12(a1)
   1568a:	e456                	sd	s5,8(sp)
   1568c:	40565a9b          	sraw	s5,a2,0x5
   15690:	008a843b          	addw	s0,s5,s0
   15694:	f426                	sd	s1,40(sp)
   15696:	f04a                	sd	s2,32(sp)
   15698:	ec4e                	sd	s3,24(sp)
   1569a:	e852                	sd	s4,16(sp)
   1569c:	e05a                	sd	s6,0(sp)
   1569e:	fc06                	sd	ra,56(sp)
   156a0:	0014091b          	addw	s2,s0,1
   156a4:	84ae                	mv	s1,a1
   156a6:	8a32                	mv	s4,a2
   156a8:	458c                	lw	a1,8(a1)
   156aa:	89aa                	mv	s3,a0
   156ac:	40565b13          	sra	s6,a2,0x5
   156b0:	0127d763          	bge	a5,s2,156be <__lshift+0x3c>
   156b4:	0017979b          	sllw	a5,a5,0x1
   156b8:	2585                	addw	a1,a1,1
   156ba:	ff27cde3          	blt	a5,s2,156b4 <__lshift+0x32>
   156be:	854e                	mv	a0,s3
   156c0:	9abff0ef          	jal	1506a <_Balloc>
   156c4:	c571                	beqz	a0,15790 <__lshift+0x10e>
   156c6:	01850713          	add	a4,a0,24
   156ca:	03605163          	blez	s6,156ec <__lshift+0x6a>
   156ce:	006a869b          	addw	a3,s5,6
   156d2:	068a                	sll	a3,a3,0x2
   156d4:	96aa                	add	a3,a3,a0
   156d6:	87ba                	mv	a5,a4
   156d8:	0791                	add	a5,a5,4
   156da:	fe07ae23          	sw	zero,-4(a5)
   156de:	fef69de3          	bne	a3,a5,156d8 <__lshift+0x56>
   156e2:	020a9793          	sll	a5,s5,0x20
   156e6:	01e7da93          	srl	s5,a5,0x1e
   156ea:	9756                	add	a4,a4,s5
   156ec:	0144a883          	lw	a7,20(s1)
   156f0:	01848793          	add	a5,s1,24
   156f4:	01fa7613          	and	a2,s4,31
   156f8:	088a                	sll	a7,a7,0x2
   156fa:	98be                	add	a7,a7,a5
   156fc:	ca3d                	beqz	a2,15772 <__lshift+0xf0>
   156fe:	02000593          	li	a1,32
   15702:	9d91                	subw	a1,a1,a2
   15704:	833a                	mv	t1,a4
   15706:	4681                	li	a3,0
   15708:	0007a803          	lw	a6,0(a5)
   1570c:	0311                	add	t1,t1,4
   1570e:	0791                	add	a5,a5,4
   15710:	00c8183b          	sllw	a6,a6,a2
   15714:	0106e6b3          	or	a3,a3,a6
   15718:	fed32e23          	sw	a3,-4(t1)
   1571c:	ffc7a803          	lw	a6,-4(a5)
   15720:	00b856bb          	srlw	a3,a6,a1
   15724:	8836                	mv	a6,a3
   15726:	ff17e1e3          	bltu	a5,a7,15708 <__lshift+0x86>
   1572a:	01948793          	add	a5,s1,25
   1572e:	4611                	li	a2,4
   15730:	00f8e863          	bltu	a7,a5,15740 <__lshift+0xbe>
   15734:	409887b3          	sub	a5,a7,s1
   15738:	179d                	add	a5,a5,-25
   1573a:	9bf1                	and	a5,a5,-4
   1573c:	00478613          	add	a2,a5,4
   15740:	9732                	add	a4,a4,a2
   15742:	01072023          	sw	a6,0(a4)
   15746:	e291                	bnez	a3,1574a <__lshift+0xc8>
   15748:	8922                	mv	s2,s0
   1574a:	4498                	lw	a4,8(s1)
   1574c:	0789b783          	ld	a5,120(s3)
   15750:	70e2                	ld	ra,56(sp)
   15752:	070e                	sll	a4,a4,0x3
   15754:	97ba                	add	a5,a5,a4
   15756:	6398                	ld	a4,0(a5)
   15758:	01252a23          	sw	s2,20(a0)
   1575c:	7442                	ld	s0,48(sp)
   1575e:	e098                	sd	a4,0(s1)
   15760:	e384                	sd	s1,0(a5)
   15762:	7902                	ld	s2,32(sp)
   15764:	74a2                	ld	s1,40(sp)
   15766:	69e2                	ld	s3,24(sp)
   15768:	6a42                	ld	s4,16(sp)
   1576a:	6aa2                	ld	s5,8(sp)
   1576c:	6b02                	ld	s6,0(sp)
   1576e:	6121                	add	sp,sp,64
   15770:	8082                	ret
   15772:	4394                	lw	a3,0(a5)
   15774:	0791                	add	a5,a5,4
   15776:	0711                	add	a4,a4,4
   15778:	fed72e23          	sw	a3,-4(a4)
   1577c:	fd17f6e3          	bgeu	a5,a7,15748 <__lshift+0xc6>
   15780:	4394                	lw	a3,0(a5)
   15782:	0791                	add	a5,a5,4
   15784:	0711                	add	a4,a4,4
   15786:	fed72e23          	sw	a3,-4(a4)
   1578a:	ff17e4e3          	bltu	a5,a7,15772 <__lshift+0xf0>
   1578e:	bf6d                	j	15748 <__lshift+0xc6>
   15790:	66ed                	lui	a3,0x1b
   15792:	656d                	lui	a0,0x1b
   15794:	36068693          	add	a3,a3,864 # 1b360 <blanks.1+0x78>
   15798:	4601                	li	a2,0
   1579a:	1d900593          	li	a1,473
   1579e:	65850513          	add	a0,a0,1624 # 1b658 <ezero+0x30>
   157a2:	5ae010ef          	jal	16d50 <__assert_func>

00000000000157a6 <__mcmp>:
   157a6:	49dc                	lw	a5,20(a1)
   157a8:	882a                	mv	a6,a0
   157aa:	4948                	lw	a0,20(a0)
   157ac:	9d1d                	subw	a0,a0,a5
   157ae:	e51d                	bnez	a0,157dc <__mcmp+0x36>
   157b0:	078a                	sll	a5,a5,0x2
   157b2:	0861                	add	a6,a6,24
   157b4:	05e1                	add	a1,a1,24
   157b6:	00f80733          	add	a4,a6,a5
   157ba:	97ae                	add	a5,a5,a1
   157bc:	a019                	j	157c2 <__mcmp+0x1c>
   157be:	00e87f63          	bgeu	a6,a4,157dc <__mcmp+0x36>
   157c2:	ffc72603          	lw	a2,-4(a4)
   157c6:	ffc7a683          	lw	a3,-4(a5)
   157ca:	1771                	add	a4,a4,-4
   157cc:	17f1                	add	a5,a5,-4
   157ce:	fed608e3          	beq	a2,a3,157be <__mcmp+0x18>
   157d2:	4505                	li	a0,1
   157d4:	00d67463          	bgeu	a2,a3,157dc <__mcmp+0x36>
   157d8:	557d                	li	a0,-1
   157da:	8082                	ret
   157dc:	8082                	ret

00000000000157de <__mdiff>:
   157de:	1101                	add	sp,sp,-32
   157e0:	4a5c                	lw	a5,20(a2)
   157e2:	e04a                	sd	s2,0(sp)
   157e4:	0145a903          	lw	s2,20(a1)
   157e8:	e822                	sd	s0,16(sp)
   157ea:	e426                	sd	s1,8(sp)
   157ec:	ec06                	sd	ra,24(sp)
   157ee:	40f9093b          	subw	s2,s2,a5
   157f2:	84ae                	mv	s1,a1
   157f4:	8432                	mv	s0,a2
   157f6:	02091c63          	bnez	s2,1582e <__mdiff+0x50>
   157fa:	00279693          	sll	a3,a5,0x2
   157fe:	05e1                	add	a1,a1,24
   15800:	01860713          	add	a4,a2,24
   15804:	00d587b3          	add	a5,a1,a3
   15808:	9736                	add	a4,a4,a3
   1580a:	a019                	j	15810 <__mdiff+0x32>
   1580c:	12f5f663          	bgeu	a1,a5,15938 <__mdiff+0x15a>
   15810:	ffc7a603          	lw	a2,-4(a5)
   15814:	ffc72683          	lw	a3,-4(a4)
   15818:	17f1                	add	a5,a5,-4
   1581a:	1771                	add	a4,a4,-4
   1581c:	fed608e3          	beq	a2,a3,1580c <__mdiff+0x2e>
   15820:	00d67a63          	bgeu	a2,a3,15834 <__mdiff+0x56>
   15824:	87a6                	mv	a5,s1
   15826:	4905                	li	s2,1
   15828:	84a2                	mv	s1,s0
   1582a:	843e                	mv	s0,a5
   1582c:	a021                	j	15834 <__mdiff+0x56>
   1582e:	fe094be3          	bltz	s2,15824 <__mdiff+0x46>
   15832:	4901                	li	s2,0
   15834:	448c                	lw	a1,8(s1)
   15836:	835ff0ef          	jal	1506a <_Balloc>
   1583a:	14050163          	beqz	a0,1597c <__mdiff+0x19e>
   1583e:	0144a303          	lw	t1,20(s1)
   15842:	01442f03          	lw	t5,20(s0)
   15846:	01848293          	add	t0,s1,24
   1584a:	00231e13          	sll	t3,t1,0x2
   1584e:	01840813          	add	a6,s0,24
   15852:	0f0a                	sll	t5,t5,0x2
   15854:	01850f93          	add	t6,a0,24
   15858:	68c1                	lui	a7,0x10
   1585a:	01252823          	sw	s2,16(a0)
   1585e:	9e16                	add	t3,t3,t0
   15860:	9f42                	add	t5,t5,a6
   15862:	867e                	mv	a2,t6
   15864:	8e96                	mv	t4,t0
   15866:	4581                	li	a1,0
   15868:	18fd                	add	a7,a7,-1 # ffff <exit-0xe9>
   1586a:	000ea703          	lw	a4,0(t4)
   1586e:	00082683          	lw	a3,0(a6)
   15872:	0611                	add	a2,a2,4
   15874:	011777b3          	and	a5,a4,a7
   15878:	0116f3b3          	and	t2,a3,a7
   1587c:	407787bb          	subw	a5,a5,t2
   15880:	9fad                	addw	a5,a5,a1
   15882:	0106d69b          	srlw	a3,a3,0x10
   15886:	0107571b          	srlw	a4,a4,0x10
   1588a:	9f15                	subw	a4,a4,a3
   1588c:	4107d69b          	sraw	a3,a5,0x10
   15890:	9f35                	addw	a4,a4,a3
   15892:	00f8f7b3          	and	a5,a7,a5
   15896:	0107169b          	sllw	a3,a4,0x10
   1589a:	8fd5                	or	a5,a5,a3
   1589c:	2781                	sext.w	a5,a5
   1589e:	0811                	add	a6,a6,4
   158a0:	fef62e23          	sw	a5,-4(a2)
   158a4:	0e91                	add	t4,t4,4
   158a6:	4107559b          	sraw	a1,a4,0x10
   158aa:	fde860e3          	bltu	a6,t5,1586a <__mdiff+0x8c>
   158ae:	408f0733          	sub	a4,t5,s0
   158b2:	171d                	add	a4,a4,-25
   158b4:	0465                	add	s0,s0,25
   158b6:	00275e93          	srl	t4,a4,0x2
   158ba:	4711                	li	a4,4
   158bc:	008f6563          	bltu	t5,s0,158c6 <__mdiff+0xe8>
   158c0:	001e8713          	add	a4,t4,1
   158c4:	070a                	sll	a4,a4,0x2
   158c6:	92ba                	add	t0,t0,a4
   158c8:	00ef8833          	add	a6,t6,a4
   158cc:	68c1                	lui	a7,0x10
   158ce:	8642                	mv	a2,a6
   158d0:	8696                	mv	a3,t0
   158d2:	18fd                	add	a7,a7,-1 # ffff <exit-0xe9>
   158d4:	09c2f063          	bgeu	t0,t3,15954 <__mdiff+0x176>
   158d8:	429c                	lw	a5,0(a3)
   158da:	00058e9b          	sext.w	t4,a1
   158de:	0611                	add	a2,a2,4
   158e0:	0117f733          	and	a4,a5,a7
   158e4:	9f2d                	addw	a4,a4,a1
   158e6:	4107571b          	sraw	a4,a4,0x10
   158ea:	0107d59b          	srlw	a1,a5,0x10
   158ee:	9f2d                	addw	a4,a4,a1
   158f0:	01d787bb          	addw	a5,a5,t4
   158f4:	0107159b          	sllw	a1,a4,0x10
   158f8:	0117f7b3          	and	a5,a5,a7
   158fc:	8fcd                	or	a5,a5,a1
   158fe:	2781                	sext.w	a5,a5
   15900:	0691                	add	a3,a3,4
   15902:	fef62e23          	sw	a5,-4(a2)
   15906:	4107559b          	sraw	a1,a4,0x10
   1590a:	fdc6e7e3          	bltu	a3,t3,158d8 <__mdiff+0xfa>
   1590e:	1e7d                	add	t3,t3,-1
   15910:	405e0e33          	sub	t3,t3,t0
   15914:	ffce7e13          	and	t3,t3,-4
   15918:	01c80733          	add	a4,a6,t3
   1591c:	e791                	bnez	a5,15928 <__mdiff+0x14a>
   1591e:	ffc72783          	lw	a5,-4(a4)
   15922:	337d                	addw	t1,t1,-1
   15924:	1771                	add	a4,a4,-4
   15926:	dfe5                	beqz	a5,1591e <__mdiff+0x140>
   15928:	60e2                	ld	ra,24(sp)
   1592a:	6442                	ld	s0,16(sp)
   1592c:	00652a23          	sw	t1,20(a0)
   15930:	64a2                	ld	s1,8(sp)
   15932:	6902                	ld	s2,0(sp)
   15934:	6105                	add	sp,sp,32
   15936:	8082                	ret
   15938:	4581                	li	a1,0
   1593a:	f30ff0ef          	jal	1506a <_Balloc>
   1593e:	c505                	beqz	a0,15966 <__mdiff+0x188>
   15940:	60e2                	ld	ra,24(sp)
   15942:	6442                	ld	s0,16(sp)
   15944:	4785                	li	a5,1
   15946:	c95c                	sw	a5,20(a0)
   15948:	00052c23          	sw	zero,24(a0)
   1594c:	64a2                	ld	s1,8(sp)
   1594e:	6902                	ld	s2,0(sp)
   15950:	6105                	add	sp,sp,32
   15952:	8082                	ret
   15954:	4701                	li	a4,0
   15956:	008f7463          	bgeu	t5,s0,1595e <__mdiff+0x180>
   1595a:	977e                	add	a4,a4,t6
   1595c:	b7c1                	j	1591c <__mdiff+0x13e>
   1595e:	002e9713          	sll	a4,t4,0x2
   15962:	977e                	add	a4,a4,t6
   15964:	bf65                	j	1591c <__mdiff+0x13e>
   15966:	66ed                	lui	a3,0x1b
   15968:	656d                	lui	a0,0x1b
   1596a:	36068693          	add	a3,a3,864 # 1b360 <blanks.1+0x78>
   1596e:	4601                	li	a2,0
   15970:	23200593          	li	a1,562
   15974:	65850513          	add	a0,a0,1624 # 1b658 <ezero+0x30>
   15978:	3d8010ef          	jal	16d50 <__assert_func>
   1597c:	66ed                	lui	a3,0x1b
   1597e:	656d                	lui	a0,0x1b
   15980:	36068693          	add	a3,a3,864 # 1b360 <blanks.1+0x78>
   15984:	4601                	li	a2,0
   15986:	24000593          	li	a1,576
   1598a:	65850513          	add	a0,a0,1624 # 1b658 <ezero+0x30>
   1598e:	3c2010ef          	jal	16d50 <__assert_func>

0000000000015992 <__ulp>:
   15992:	e2050753          	fmv.x.d	a4,fa0
   15996:	7ff007b7          	lui	a5,0x7ff00
   1599a:	9301                	srl	a4,a4,0x20
   1599c:	8f7d                	and	a4,a4,a5
   1599e:	fcc007b7          	lui	a5,0xfcc00
   159a2:	00e786bb          	addw	a3,a5,a4
   159a6:	4701                	li	a4,0
   159a8:	00d05963          	blez	a3,159ba <__ulp+0x28>
   159ac:	1702                	sll	a4,a4,0x20
   159ae:	1682                	sll	a3,a3,0x20
   159b0:	9301                	srl	a4,a4,0x20
   159b2:	8f55                	or	a4,a4,a3
   159b4:	f2070553          	fmv.d.x	fa0,a4
   159b8:	8082                	ret
   159ba:	40d007bb          	negw	a5,a3
   159be:	4147d71b          	sraw	a4,a5,0x14
   159c2:	46cd                	li	a3,19
   159c4:	00e6ce63          	blt	a3,a4,159e0 <__ulp+0x4e>
   159c8:	000806b7          	lui	a3,0x80
   159cc:	40e6d6bb          	sraw	a3,a3,a4
   159d0:	4701                	li	a4,0
   159d2:	1702                	sll	a4,a4,0x20
   159d4:	1682                	sll	a3,a3,0x20
   159d6:	9301                	srl	a4,a4,0x20
   159d8:	8f55                	or	a4,a4,a3
   159da:	f2070553          	fmv.d.x	fa0,a4
   159de:	8082                	ret
   159e0:	fec7079b          	addw	a5,a4,-20
   159e4:	46f9                	li	a3,30
   159e6:	4705                	li	a4,1
   159e8:	00f6c663          	blt	a3,a5,159f4 <__ulp+0x62>
   159ec:	80000737          	lui	a4,0x80000
   159f0:	00f7573b          	srlw	a4,a4,a5
   159f4:	4681                	li	a3,0
   159f6:	1702                	sll	a4,a4,0x20
   159f8:	1682                	sll	a3,a3,0x20
   159fa:	9301                	srl	a4,a4,0x20
   159fc:	8f55                	or	a4,a4,a3
   159fe:	f2070553          	fmv.d.x	fa0,a4
   15a02:	8082                	ret

0000000000015a04 <__b2d>:
   15a04:	7179                	add	sp,sp,-48
   15a06:	ec26                	sd	s1,24(sp)
   15a08:	4944                	lw	s1,20(a0)
   15a0a:	f022                	sd	s0,32(sp)
   15a0c:	01850413          	add	s0,a0,24
   15a10:	048a                	sll	s1,s1,0x2
   15a12:	94a2                	add	s1,s1,s0
   15a14:	e84a                	sd	s2,16(sp)
   15a16:	ffc4a903          	lw	s2,-4(s1)
   15a1a:	e44e                	sd	s3,8(sp)
   15a1c:	e052                	sd	s4,0(sp)
   15a1e:	854a                	mv	a0,s2
   15a20:	89ae                	mv	s3,a1
   15a22:	f406                	sd	ra,40(sp)
   15a24:	885ff0ef          	jal	152a8 <__hi0bits>
   15a28:	02000693          	li	a3,32
   15a2c:	40a687bb          	subw	a5,a3,a0
   15a30:	00f9a023          	sw	a5,0(s3)
   15a34:	47a9                	li	a5,10
   15a36:	ffc48a13          	add	s4,s1,-4
   15a3a:	08a7d563          	bge	a5,a0,15ac4 <__b2d+0xc0>
   15a3e:	ff55079b          	addw	a5,a0,-11
   15a42:	05447163          	bgeu	s0,s4,15a84 <__b2d+0x80>
   15a46:	ff84a703          	lw	a4,-8(s1)
   15a4a:	cba9                	beqz	a5,15a9c <__b2d+0x98>
   15a4c:	9e9d                	subw	a3,a3,a5
   15a4e:	00d7563b          	srlw	a2,a4,a3
   15a52:	00f9193b          	sllw	s2,s2,a5
   15a56:	00c96933          	or	s2,s2,a2
   15a5a:	3ff00637          	lui	a2,0x3ff00
   15a5e:	00c96933          	or	s2,s2,a2
   15a62:	00f715bb          	sllw	a1,a4,a5
   15a66:	ff848613          	add	a2,s1,-8
   15a6a:	02091793          	sll	a5,s2,0x20
   15a6e:	0005871b          	sext.w	a4,a1
   15a72:	02c47a63          	bgeu	s0,a2,15aa6 <__b2d+0xa2>
   15a76:	ff44a703          	lw	a4,-12(s1)
   15a7a:	00d7573b          	srlw	a4,a4,a3
   15a7e:	8f4d                	or	a4,a4,a1
   15a80:	2701                	sext.w	a4,a4
   15a82:	a015                	j	15aa6 <__b2d+0xa2>
   15a84:	472d                	li	a4,11
   15a86:	00e50a63          	beq	a0,a4,15a9a <__b2d+0x96>
   15a8a:	3ff00737          	lui	a4,0x3ff00
   15a8e:	00f917bb          	sllw	a5,s2,a5
   15a92:	8fd9                	or	a5,a5,a4
   15a94:	1782                	sll	a5,a5,0x20
   15a96:	4701                	li	a4,0
   15a98:	a039                	j	15aa6 <__b2d+0xa2>
   15a9a:	4701                	li	a4,0
   15a9c:	3ff007b7          	lui	a5,0x3ff00
   15aa0:	00f967b3          	or	a5,s2,a5
   15aa4:	1782                	sll	a5,a5,0x20
   15aa6:	70a2                	ld	ra,40(sp)
   15aa8:	7402                	ld	s0,32(sp)
   15aaa:	9381                	srl	a5,a5,0x20
   15aac:	1702                	sll	a4,a4,0x20
   15aae:	9301                	srl	a4,a4,0x20
   15ab0:	1782                	sll	a5,a5,0x20
   15ab2:	8fd9                	or	a5,a5,a4
   15ab4:	64e2                	ld	s1,24(sp)
   15ab6:	6942                	ld	s2,16(sp)
   15ab8:	69a2                	ld	s3,8(sp)
   15aba:	6a02                	ld	s4,0(sp)
   15abc:	f2078553          	fmv.d.x	fa0,a5
   15ac0:	6145                	add	sp,sp,48
   15ac2:	8082                	ret
   15ac4:	46ad                	li	a3,11
   15ac6:	9e89                	subw	a3,a3,a0
   15ac8:	3ff00737          	lui	a4,0x3ff00
   15acc:	00d957bb          	srlw	a5,s2,a3
   15ad0:	8fd9                	or	a5,a5,a4
   15ad2:	1782                	sll	a5,a5,0x20
   15ad4:	4701                	li	a4,0
   15ad6:	01447663          	bgeu	s0,s4,15ae2 <__b2d+0xde>
   15ada:	ff84a703          	lw	a4,-8(s1)
   15ade:	00d7573b          	srlw	a4,a4,a3
   15ae2:	2555                	addw	a0,a0,21
   15ae4:	00a9153b          	sllw	a0,s2,a0
   15ae8:	8f49                	or	a4,a4,a0
   15aea:	2701                	sext.w	a4,a4
   15aec:	bf6d                	j	15aa6 <__b2d+0xa2>

0000000000015aee <__d2b>:
   15aee:	7139                	add	sp,sp,-64
   15af0:	e852                	sd	s4,16(sp)
   15af2:	8a2e                	mv	s4,a1
   15af4:	4585                	li	a1,1
   15af6:	f822                	sd	s0,48(sp)
   15af8:	f04a                	sd	s2,32(sp)
   15afa:	fc06                	sd	ra,56(sp)
   15afc:	f426                	sd	s1,40(sp)
   15afe:	ec4e                	sd	s3,24(sp)
   15b00:	e2050453          	fmv.x.d	s0,fa0
   15b04:	8932                	mv	s2,a2
   15b06:	d64ff0ef          	jal	1506a <_Balloc>
   15b0a:	c955                	beqz	a0,15bbe <__d2b+0xd0>
   15b0c:	42045793          	sra	a5,s0,0x20
   15b10:	0147d99b          	srlw	s3,a5,0x14
   15b14:	7ff9f993          	and	s3,s3,2047
   15b18:	17b2                	sll	a5,a5,0x2c
   15b1a:	84aa                	mv	s1,a0
   15b1c:	93b1                	srl	a5,a5,0x2c
   15b1e:	00098563          	beqz	s3,15b28 <__d2b+0x3a>
   15b22:	00100737          	lui	a4,0x100
   15b26:	8fd9                	or	a5,a5,a4
   15b28:	c63e                	sw	a5,12(sp)
   15b2a:	2401                	sext.w	s0,s0
   15b2c:	e029                	bnez	s0,15b6e <__d2b+0x80>
   15b2e:	0068                	add	a0,sp,12
   15b30:	fd6ff0ef          	jal	15306 <__lo0bits>
   15b34:	47b2                	lw	a5,12(sp)
   15b36:	4405                	li	s0,1
   15b38:	c8c0                	sw	s0,20(s1)
   15b3a:	cc9c                	sw	a5,24(s1)
   15b3c:	0205051b          	addw	a0,a0,32
   15b40:	06098063          	beqz	s3,15ba0 <__d2b+0xb2>
   15b44:	bcd9899b          	addw	s3,s3,-1075
   15b48:	00a989bb          	addw	s3,s3,a0
   15b4c:	03500413          	li	s0,53
   15b50:	013a2023          	sw	s3,0(s4)
   15b54:	40a4053b          	subw	a0,s0,a0
   15b58:	70e2                	ld	ra,56(sp)
   15b5a:	7442                	ld	s0,48(sp)
   15b5c:	00a92023          	sw	a0,0(s2)
   15b60:	69e2                	ld	s3,24(sp)
   15b62:	7902                	ld	s2,32(sp)
   15b64:	6a42                	ld	s4,16(sp)
   15b66:	8526                	mv	a0,s1
   15b68:	74a2                	ld	s1,40(sp)
   15b6a:	6121                	add	sp,sp,64
   15b6c:	8082                	ret
   15b6e:	0028                	add	a0,sp,8
   15b70:	c422                	sw	s0,8(sp)
   15b72:	f94ff0ef          	jal	15306 <__lo0bits>
   15b76:	47b2                	lw	a5,12(sp)
   15b78:	4722                	lw	a4,8(sp)
   15b7a:	c919                	beqz	a0,15b90 <__d2b+0xa2>
   15b7c:	02000693          	li	a3,32
   15b80:	9e89                	subw	a3,a3,a0
   15b82:	00d796bb          	sllw	a3,a5,a3
   15b86:	8f55                	or	a4,a4,a3
   15b88:	00a7d7bb          	srlw	a5,a5,a0
   15b8c:	2701                	sext.w	a4,a4
   15b8e:	c63e                	sw	a5,12(sp)
   15b90:	00f03433          	snez	s0,a5
   15b94:	0405                	add	s0,s0,1
   15b96:	cc98                	sw	a4,24(s1)
   15b98:	ccdc                	sw	a5,28(s1)
   15b9a:	c8c0                	sw	s0,20(s1)
   15b9c:	fa0994e3          	bnez	s3,15b44 <__d2b+0x56>
   15ba0:	bce5051b          	addw	a0,a0,-1074
   15ba4:	00241793          	sll	a5,s0,0x2
   15ba8:	00aa2023          	sw	a0,0(s4)
   15bac:	97a6                	add	a5,a5,s1
   15bae:	4bc8                	lw	a0,20(a5)
   15bb0:	0054141b          	sllw	s0,s0,0x5
   15bb4:	ef4ff0ef          	jal	152a8 <__hi0bits>
   15bb8:	40a4053b          	subw	a0,s0,a0
   15bbc:	bf71                	j	15b58 <__d2b+0x6a>
   15bbe:	66ed                	lui	a3,0x1b
   15bc0:	656d                	lui	a0,0x1b
   15bc2:	36068693          	add	a3,a3,864 # 1b360 <blanks.1+0x78>
   15bc6:	4601                	li	a2,0
   15bc8:	30a00593          	li	a1,778
   15bcc:	65850513          	add	a0,a0,1624 # 1b658 <ezero+0x30>
   15bd0:	180010ef          	jal	16d50 <__assert_func>

0000000000015bd4 <__ratio>:
   15bd4:	7179                	add	sp,sp,-48
   15bd6:	ec26                	sd	s1,24(sp)
   15bd8:	84ae                	mv	s1,a1
   15bda:	002c                	add	a1,sp,8
   15bdc:	f406                	sd	ra,40(sp)
   15bde:	f022                	sd	s0,32(sp)
   15be0:	e84a                	sd	s2,16(sp)
   15be2:	892a                	mv	s2,a0
   15be4:	e21ff0ef          	jal	15a04 <__b2d>
   15be8:	006c                	add	a1,sp,12
   15bea:	8526                	mv	a0,s1
   15bec:	e2050453          	fmv.x.d	s0,fa0
   15bf0:	e15ff0ef          	jal	15a04 <__b2d>
   15bf4:	01492783          	lw	a5,20(s2)
   15bf8:	48d0                	lw	a2,20(s1)
   15bfa:	46b2                	lw	a3,12(sp)
   15bfc:	4722                	lw	a4,8(sp)
   15bfe:	9f91                	subw	a5,a5,a2
   15c00:	0057979b          	sllw	a5,a5,0x5
   15c04:	9f15                	subw	a4,a4,a3
   15c06:	00e786bb          	addw	a3,a5,a4
   15c0a:	87b6                	mv	a5,a3
   15c0c:	e2050753          	fmv.x.d	a4,fa0
   15c10:	02d05963          	blez	a3,15c42 <__ratio+0x6e>
   15c14:	02045693          	srl	a3,s0,0x20
   15c18:	0147979b          	sllw	a5,a5,0x14
   15c1c:	9fb5                	addw	a5,a5,a3
   15c1e:	56fd                	li	a3,-1
   15c20:	9281                	srl	a3,a3,0x20
   15c22:	1782                	sll	a5,a5,0x20
   15c24:	8ee1                	and	a3,a3,s0
   15c26:	00f6e433          	or	s0,a3,a5
   15c2a:	f20407d3          	fmv.d.x	fa5,s0
   15c2e:	70a2                	ld	ra,40(sp)
   15c30:	7402                	ld	s0,32(sp)
   15c32:	f2070753          	fmv.d.x	fa4,a4
   15c36:	64e2                	ld	s1,24(sp)
   15c38:	6942                	ld	s2,16(sp)
   15c3a:	1ae7f553          	fdiv.d	fa0,fa5,fa4
   15c3e:	6145                	add	sp,sp,48
   15c40:	8082                	ret
   15c42:	02075693          	srl	a3,a4,0x20
   15c46:	0147979b          	sllw	a5,a5,0x14
   15c4a:	40f687bb          	subw	a5,a3,a5
   15c4e:	56fd                	li	a3,-1
   15c50:	9281                	srl	a3,a3,0x20
   15c52:	1782                	sll	a5,a5,0x20
   15c54:	8f75                	and	a4,a4,a3
   15c56:	8f5d                	or	a4,a4,a5
   15c58:	bfc9                	j	15c2a <__ratio+0x56>

0000000000015c5a <_mprec_log10>:
   15c5a:	47dd                	li	a5,23
   15c5c:	00a7db63          	bge	a5,a0,15c72 <_mprec_log10+0x18>
   15c60:	6481b507          	fld	fa0,1608(gp) # 1d130 <__SDATA_BEGIN__+0x10>
   15c64:	6501b787          	fld	fa5,1616(gp) # 1d138 <__SDATA_BEGIN__+0x18>
   15c68:	357d                	addw	a0,a0,-1
   15c6a:	12f57553          	fmul.d	fa0,fa0,fa5
   15c6e:	fd6d                	bnez	a0,15c68 <_mprec_log10+0xe>
   15c70:	8082                	ret
   15c72:	67ed                	lui	a5,0x1b
   15c74:	050e                	sll	a0,a0,0x3
   15c76:	71078793          	add	a5,a5,1808 # 1b710 <__mprec_tens>
   15c7a:	97aa                	add	a5,a5,a0
   15c7c:	2388                	fld	fa0,0(a5)
   15c7e:	8082                	ret

0000000000015c80 <__copybits>:
   15c80:	4a54                	lw	a3,20(a2)
   15c82:	35fd                	addw	a1,a1,-1
   15c84:	4055d59b          	sraw	a1,a1,0x5
   15c88:	2585                	addw	a1,a1,1
   15c8a:	01860793          	add	a5,a2,24 # 3ff00018 <__BSS_END__+0x3fee2d30>
   15c8e:	068a                	sll	a3,a3,0x2
   15c90:	058a                	sll	a1,a1,0x2
   15c92:	96be                	add	a3,a3,a5
   15c94:	95aa                	add	a1,a1,a0
   15c96:	02d7f163          	bgeu	a5,a3,15cb8 <__copybits+0x38>
   15c9a:	872a                	mv	a4,a0
   15c9c:	0007a803          	lw	a6,0(a5)
   15ca0:	0791                	add	a5,a5,4
   15ca2:	0711                	add	a4,a4,4 # 100004 <__BSS_END__+0xe2d1c>
   15ca4:	ff072e23          	sw	a6,-4(a4)
   15ca8:	fed7eae3          	bltu	a5,a3,15c9c <__copybits+0x1c>
   15cac:	40c687b3          	sub	a5,a3,a2
   15cb0:	179d                	add	a5,a5,-25
   15cb2:	9bf1                	and	a5,a5,-4
   15cb4:	0791                	add	a5,a5,4
   15cb6:	953e                	add	a0,a0,a5
   15cb8:	00b57763          	bgeu	a0,a1,15cc6 <__copybits+0x46>
   15cbc:	0511                	add	a0,a0,4
   15cbe:	fe052e23          	sw	zero,-4(a0)
   15cc2:	feb56de3          	bltu	a0,a1,15cbc <__copybits+0x3c>
   15cc6:	8082                	ret

0000000000015cc8 <__any_on>:
   15cc8:	4958                	lw	a4,20(a0)
   15cca:	4055d613          	sra	a2,a1,0x5
   15cce:	01850693          	add	a3,a0,24
   15cd2:	00c75d63          	bge	a4,a2,15cec <__any_on+0x24>
   15cd6:	070a                	sll	a4,a4,0x2
   15cd8:	00e687b3          	add	a5,a3,a4
   15cdc:	02f6f863          	bgeu	a3,a5,15d0c <__any_on+0x44>
   15ce0:	ffc7a703          	lw	a4,-4(a5)
   15ce4:	17f1                	add	a5,a5,-4
   15ce6:	db7d                	beqz	a4,15cdc <__any_on+0x14>
   15ce8:	4505                	li	a0,1
   15cea:	8082                	ret
   15cec:	00261793          	sll	a5,a2,0x2
   15cf0:	97b6                	add	a5,a5,a3
   15cf2:	fee655e3          	bge	a2,a4,15cdc <__any_on+0x14>
   15cf6:	89fd                	and	a1,a1,31
   15cf8:	d1f5                	beqz	a1,15cdc <__any_on+0x14>
   15cfa:	4390                	lw	a2,0(a5)
   15cfc:	4505                	li	a0,1
   15cfe:	00b6573b          	srlw	a4,a2,a1
   15d02:	00b7173b          	sllw	a4,a4,a1
   15d06:	fcc70be3          	beq	a4,a2,15cdc <__any_on+0x14>
   15d0a:	8082                	ret
   15d0c:	4501                	li	a0,0
   15d0e:	8082                	ret

0000000000015d10 <_sbrk_r>:
   15d10:	1101                	add	sp,sp,-32
   15d12:	e822                	sd	s0,16(sp)
   15d14:	e426                	sd	s1,8(sp)
   15d16:	842a                	mv	s0,a0
   15d18:	852e                	mv	a0,a1
   15d1a:	ec06                	sd	ra,24(sp)
   15d1c:	7801a823          	sw	zero,1936(gp) # 1d278 <errno>
   15d20:	49d030ef          	jal	199bc <_sbrk>
   15d24:	57fd                	li	a5,-1
   15d26:	00f50763          	beq	a0,a5,15d34 <_sbrk_r+0x24>
   15d2a:	60e2                	ld	ra,24(sp)
   15d2c:	6442                	ld	s0,16(sp)
   15d2e:	64a2                	ld	s1,8(sp)
   15d30:	6105                	add	sp,sp,32
   15d32:	8082                	ret
   15d34:	7901a783          	lw	a5,1936(gp) # 1d278 <errno>
   15d38:	dbed                	beqz	a5,15d2a <_sbrk_r+0x1a>
   15d3a:	60e2                	ld	ra,24(sp)
   15d3c:	c01c                	sw	a5,0(s0)
   15d3e:	6442                	ld	s0,16(sp)
   15d40:	64a2                	ld	s1,8(sp)
   15d42:	6105                	add	sp,sp,32
   15d44:	8082                	ret

0000000000015d46 <frexp>:
   15d46:	e20507d3          	fmv.x.d	a5,fa0
   15d4a:	80000637          	lui	a2,0x80000
   15d4e:	fff64613          	not	a2,a2
   15d52:	4207d693          	sra	a3,a5,0x20
   15d56:	00c6f733          	and	a4,a3,a2
   15d5a:	00052023          	sw	zero,0(a0)
   15d5e:	7ff005b7          	lui	a1,0x7ff00
   15d62:	02b77f63          	bgeu	a4,a1,15da0 <frexp+0x5a>
   15d66:	00f765b3          	or	a1,a4,a5
   15d6a:	2581                	sext.w	a1,a1
   15d6c:	c995                	beqz	a1,15da0 <frexp+0x5a>
   15d6e:	7ff005b7          	lui	a1,0x7ff00
   15d72:	8df5                	and	a1,a1,a3
   15d74:	c98d                	beqz	a1,15da6 <frexp+0x60>
   15d76:	2681                	sext.w	a3,a3
   15d78:	2701                	sext.w	a4,a4
   15d7a:	4581                	li	a1,0
   15d7c:	80100637          	lui	a2,0x80100
   15d80:	167d                	add	a2,a2,-1 # ffffffff800fffff <__BSS_END__+0xffffffff800e2d17>
   15d82:	8ef1                	and	a3,a3,a2
   15d84:	3fe00637          	lui	a2,0x3fe00
   15d88:	8ed1                	or	a3,a3,a2
   15d8a:	4147571b          	sraw	a4,a4,0x14
   15d8e:	567d                	li	a2,-1
   15d90:	c027071b          	addw	a4,a4,-1022
   15d94:	9201                	srl	a2,a2,0x20
   15d96:	9f2d                	addw	a4,a4,a1
   15d98:	1682                	sll	a3,a3,0x20
   15d9a:	8ff1                	and	a5,a5,a2
   15d9c:	c118                	sw	a4,0(a0)
   15d9e:	8fd5                	or	a5,a5,a3
   15da0:	f2078553          	fmv.d.x	fa0,a5
   15da4:	8082                	ret
   15da6:	6581b787          	fld	fa5,1624(gp) # 1d140 <__SDATA_BEGIN__+0x20>
   15daa:	fca00593          	li	a1,-54
   15dae:	12f577d3          	fmul.d	fa5,fa0,fa5
   15db2:	e20787d3          	fmv.x.d	a5,fa5
   15db6:	4207d713          	sra	a4,a5,0x20
   15dba:	86ba                	mv	a3,a4
   15dbc:	8f71                	and	a4,a4,a2
   15dbe:	bf7d                	j	15d7c <frexp+0x36>

0000000000015dc0 <strcmp>:
   15dc0:	00b56733          	or	a4,a0,a1
   15dc4:	53fd                	li	t2,-1
   15dc6:	8b1d                	and	a4,a4,7
   15dc8:	eb4d                	bnez	a4,15e7a <strcmp+0xba>
   15dca:	00007797          	auipc	a5,0x7
   15dce:	37e7b783          	ld	a5,894(a5) # 1d148 <mask>
   15dd2:	6110                	ld	a2,0(a0)
   15dd4:	6194                	ld	a3,0(a1)
   15dd6:	00f672b3          	and	t0,a2,a5
   15dda:	00f66333          	or	t1,a2,a5
   15dde:	92be                	add	t0,t0,a5
   15de0:	0062e2b3          	or	t0,t0,t1
   15de4:	0a729963          	bne	t0,t2,15e96 <strcmp+0xd6>
   15de8:	02d61e63          	bne	a2,a3,15e24 <strcmp+0x64>
   15dec:	6510                	ld	a2,8(a0)
   15dee:	6594                	ld	a3,8(a1)
   15df0:	00f672b3          	and	t0,a2,a5
   15df4:	00f66333          	or	t1,a2,a5
   15df8:	92be                	add	t0,t0,a5
   15dfa:	0062e2b3          	or	t0,t0,t1
   15dfe:	08729a63          	bne	t0,t2,15e92 <strcmp+0xd2>
   15e02:	02d61163          	bne	a2,a3,15e24 <strcmp+0x64>
   15e06:	6910                	ld	a2,16(a0)
   15e08:	6994                	ld	a3,16(a1)
   15e0a:	00f672b3          	and	t0,a2,a5
   15e0e:	00f66333          	or	t1,a2,a5
   15e12:	92be                	add	t0,t0,a5
   15e14:	0062e2b3          	or	t0,t0,t1
   15e18:	08729363          	bne	t0,t2,15e9e <strcmp+0xde>
   15e1c:	0561                	add	a0,a0,24
   15e1e:	05e1                	add	a1,a1,24 # 7ff00018 <__BSS_END__+0x7fee2d30>
   15e20:	fad609e3          	beq	a2,a3,15dd2 <strcmp+0x12>
   15e24:	03061713          	sll	a4,a2,0x30
   15e28:	03069793          	sll	a5,a3,0x30
   15e2c:	02f71863          	bne	a4,a5,15e5c <strcmp+0x9c>
   15e30:	02061713          	sll	a4,a2,0x20
   15e34:	02069793          	sll	a5,a3,0x20
   15e38:	02f71263          	bne	a4,a5,15e5c <strcmp+0x9c>
   15e3c:	01061713          	sll	a4,a2,0x10
   15e40:	01069793          	sll	a5,a3,0x10
   15e44:	00f71c63          	bne	a4,a5,15e5c <strcmp+0x9c>
   15e48:	03065713          	srl	a4,a2,0x30
   15e4c:	0306d793          	srl	a5,a3,0x30
   15e50:	40f70533          	sub	a0,a4,a5
   15e54:	0ff57593          	zext.b	a1,a0
   15e58:	e991                	bnez	a1,15e6c <strcmp+0xac>
   15e5a:	8082                	ret
   15e5c:	9341                	srl	a4,a4,0x30
   15e5e:	93c1                	srl	a5,a5,0x30
   15e60:	40f70533          	sub	a0,a4,a5
   15e64:	0ff57593          	zext.b	a1,a0
   15e68:	e191                	bnez	a1,15e6c <strcmp+0xac>
   15e6a:	8082                	ret
   15e6c:	0ff77713          	zext.b	a4,a4
   15e70:	0ff7f793          	zext.b	a5,a5
   15e74:	40f70533          	sub	a0,a4,a5
   15e78:	8082                	ret
   15e7a:	00054603          	lbu	a2,0(a0)
   15e7e:	0005c683          	lbu	a3,0(a1)
   15e82:	0505                	add	a0,a0,1
   15e84:	0585                	add	a1,a1,1
   15e86:	00d61363          	bne	a2,a3,15e8c <strcmp+0xcc>
   15e8a:	fa65                	bnez	a2,15e7a <strcmp+0xba>
   15e8c:	40d60533          	sub	a0,a2,a3
   15e90:	8082                	ret
   15e92:	0521                	add	a0,a0,8
   15e94:	05a1                	add	a1,a1,8
   15e96:	fed612e3          	bne	a2,a3,15e7a <strcmp+0xba>
   15e9a:	4501                	li	a0,0
   15e9c:	8082                	ret
   15e9e:	0541                	add	a0,a0,16
   15ea0:	05c1                	add	a1,a1,16
   15ea2:	fcd61ce3          	bne	a2,a3,15e7a <strcmp+0xba>
   15ea6:	4501                	li	a0,0
   15ea8:	8082                	ret

0000000000015eaa <strcpy>:
   15eaa:	00b567b3          	or	a5,a0,a1
   15eae:	8b9d                	and	a5,a5,7
   15eb0:	efad                	bnez	a5,15f2a <strcpy+0x80>
   15eb2:	6601b683          	ld	a3,1632(gp) # 1d148 <mask>
   15eb6:	6198                	ld	a4,0(a1)
   15eb8:	567d                	li	a2,-1
   15eba:	00d777b3          	and	a5,a4,a3
   15ebe:	97b6                	add	a5,a5,a3
   15ec0:	8fd9                	or	a5,a5,a4
   15ec2:	8fd5                	or	a5,a5,a3
   15ec4:	06c79c63          	bne	a5,a2,15f3c <strcpy+0x92>
   15ec8:	862a                	mv	a2,a0
   15eca:	587d                	li	a6,-1
   15ecc:	e218                	sd	a4,0(a2)
   15ece:	6598                	ld	a4,8(a1)
   15ed0:	05a1                	add	a1,a1,8
   15ed2:	0621                	add	a2,a2,8 # 3fe00008 <__BSS_END__+0x3fde2d20>
   15ed4:	00d777b3          	and	a5,a4,a3
   15ed8:	97b6                	add	a5,a5,a3
   15eda:	8fd9                	or	a5,a5,a4
   15edc:	8fd5                	or	a5,a5,a3
   15ede:	ff0787e3          	beq	a5,a6,15ecc <strcpy+0x22>
   15ee2:	0005c783          	lbu	a5,0(a1)
   15ee6:	0015c703          	lbu	a4,1(a1)
   15eea:	0025c683          	lbu	a3,2(a1)
   15eee:	00f60023          	sb	a5,0(a2)
   15ef2:	cb9d                	beqz	a5,15f28 <strcpy+0x7e>
   15ef4:	00e600a3          	sb	a4,1(a2)
   15ef8:	cb05                	beqz	a4,15f28 <strcpy+0x7e>
   15efa:	0035c783          	lbu	a5,3(a1)
   15efe:	00d60123          	sb	a3,2(a2)
   15f02:	c29d                	beqz	a3,15f28 <strcpy+0x7e>
   15f04:	0045c703          	lbu	a4,4(a1)
   15f08:	00f601a3          	sb	a5,3(a2)
   15f0c:	cf91                	beqz	a5,15f28 <strcpy+0x7e>
   15f0e:	0055c783          	lbu	a5,5(a1)
   15f12:	00e60223          	sb	a4,4(a2)
   15f16:	cb09                	beqz	a4,15f28 <strcpy+0x7e>
   15f18:	0065c703          	lbu	a4,6(a1)
   15f1c:	00f602a3          	sb	a5,5(a2)
   15f20:	c781                	beqz	a5,15f28 <strcpy+0x7e>
   15f22:	00e60323          	sb	a4,6(a2)
   15f26:	ef09                	bnez	a4,15f40 <strcpy+0x96>
   15f28:	8082                	ret
   15f2a:	87aa                	mv	a5,a0
   15f2c:	0005c703          	lbu	a4,0(a1)
   15f30:	0785                	add	a5,a5,1
   15f32:	0585                	add	a1,a1,1
   15f34:	fee78fa3          	sb	a4,-1(a5)
   15f38:	fb75                	bnez	a4,15f2c <strcpy+0x82>
   15f3a:	8082                	ret
   15f3c:	862a                	mv	a2,a0
   15f3e:	b755                	j	15ee2 <strcpy+0x38>
   15f40:	000603a3          	sb	zero,7(a2)
   15f44:	8082                	ret

0000000000015f46 <strlen>:
   15f46:	00757793          	and	a5,a0,7
   15f4a:	872a                	mv	a4,a0
   15f4c:	eba9                	bnez	a5,15f9e <strlen+0x58>
   15f4e:	6601b683          	ld	a3,1632(gp) # 1d148 <mask>
   15f52:	55fd                	li	a1,-1
   15f54:	6310                	ld	a2,0(a4)
   15f56:	0721                	add	a4,a4,8
   15f58:	00d677b3          	and	a5,a2,a3
   15f5c:	97b6                	add	a5,a5,a3
   15f5e:	8fd1                	or	a5,a5,a2
   15f60:	8fd5                	or	a5,a5,a3
   15f62:	feb789e3          	beq	a5,a1,15f54 <strlen+0xe>
   15f66:	ff874683          	lbu	a3,-8(a4)
   15f6a:	40a707b3          	sub	a5,a4,a0
   15f6e:	c6a9                	beqz	a3,15fb8 <strlen+0x72>
   15f70:	ff974683          	lbu	a3,-7(a4)
   15f74:	ce9d                	beqz	a3,15fb2 <strlen+0x6c>
   15f76:	ffa74683          	lbu	a3,-6(a4)
   15f7a:	c6a9                	beqz	a3,15fc4 <strlen+0x7e>
   15f7c:	ffb74683          	lbu	a3,-5(a4)
   15f80:	ce9d                	beqz	a3,15fbe <strlen+0x78>
   15f82:	ffc74683          	lbu	a3,-4(a4)
   15f86:	c2b1                	beqz	a3,15fca <strlen+0x84>
   15f88:	ffd74683          	lbu	a3,-3(a4)
   15f8c:	c2b1                	beqz	a3,15fd0 <strlen+0x8a>
   15f8e:	ffe74503          	lbu	a0,-2(a4)
   15f92:	00a03533          	snez	a0,a0
   15f96:	953e                	add	a0,a0,a5
   15f98:	1579                	add	a0,a0,-2
   15f9a:	8082                	ret
   15f9c:	dacd                	beqz	a3,15f4e <strlen+0x8>
   15f9e:	00074783          	lbu	a5,0(a4)
   15fa2:	0705                	add	a4,a4,1
   15fa4:	00777693          	and	a3,a4,7
   15fa8:	fbf5                	bnez	a5,15f9c <strlen+0x56>
   15faa:	8f09                	sub	a4,a4,a0
   15fac:	fff70513          	add	a0,a4,-1
   15fb0:	8082                	ret
   15fb2:	ff978513          	add	a0,a5,-7
   15fb6:	8082                	ret
   15fb8:	ff878513          	add	a0,a5,-8
   15fbc:	8082                	ret
   15fbe:	ffb78513          	add	a0,a5,-5
   15fc2:	8082                	ret
   15fc4:	ffa78513          	add	a0,a5,-6
   15fc8:	8082                	ret
   15fca:	ffc78513          	add	a0,a5,-4
   15fce:	8082                	ret
   15fd0:	ffd78513          	add	a0,a5,-3
   15fd4:	8082                	ret

0000000000015fd6 <strncpy>:
   15fd6:	00b567b3          	or	a5,a0,a1
   15fda:	8b9d                	and	a5,a5,7
   15fdc:	e781                	bnez	a5,15fe4 <strncpy+0xe>
   15fde:	479d                	li	a5,7
   15fe0:	02c7eb63          	bltu	a5,a2,16016 <strncpy+0x40>
   15fe4:	872a                	mv	a4,a0
   15fe6:	a811                	j	15ffa <strncpy+0x24>
   15fe8:	fff5c683          	lbu	a3,-1(a1)
   15fec:	fff60813          	add	a6,a2,-1
   15ff0:	fed78fa3          	sb	a3,-1(a5)
   15ff4:	ca81                	beqz	a3,16004 <strncpy+0x2e>
   15ff6:	873e                	mv	a4,a5
   15ff8:	8642                	mv	a2,a6
   15ffa:	0585                	add	a1,a1,1
   15ffc:	00170793          	add	a5,a4,1
   16000:	f665                	bnez	a2,15fe8 <strncpy+0x12>
   16002:	8082                	ret
   16004:	9732                	add	a4,a4,a2
   16006:	04080063          	beqz	a6,16046 <strncpy+0x70>
   1600a:	0785                	add	a5,a5,1
   1600c:	fe078fa3          	sb	zero,-1(a5)
   16010:	fee79de3          	bne	a5,a4,1600a <strncpy+0x34>
   16014:	8082                	ret
   16016:	6381b303          	ld	t1,1592(gp) # 1d120 <__SDATA_BEGIN__>
   1601a:	6401b883          	ld	a7,1600(gp) # 1d128 <__SDATA_BEGIN__+0x8>
   1601e:	872a                	mv	a4,a0
   16020:	4e1d                	li	t3,7
   16022:	a039                	j	16030 <strncpy+0x5a>
   16024:	e314                	sd	a3,0(a4)
   16026:	1661                	add	a2,a2,-8
   16028:	0721                	add	a4,a4,8
   1602a:	05a1                	add	a1,a1,8
   1602c:	fcce77e3          	bgeu	t3,a2,15ffa <strncpy+0x24>
   16030:	6194                	ld	a3,0(a1)
   16032:	006687b3          	add	a5,a3,t1
   16036:	fff6c813          	not	a6,a3
   1603a:	0107f7b3          	and	a5,a5,a6
   1603e:	0117f7b3          	and	a5,a5,a7
   16042:	d3ed                	beqz	a5,16024 <strncpy+0x4e>
   16044:	bf5d                	j	15ffa <strncpy+0x24>
   16046:	8082                	ret

0000000000016048 <__ssprint_r>:
   16048:	6a1c                	ld	a5,16(a2)
   1604a:	715d                	add	sp,sp,-80
   1604c:	f44e                	sd	s3,40(sp)
   1604e:	ec56                	sd	s5,24(sp)
   16050:	e486                	sd	ra,72(sp)
   16052:	e0a2                	sd	s0,64(sp)
   16054:	fc26                	sd	s1,56(sp)
   16056:	f84a                	sd	s2,48(sp)
   16058:	f052                	sd	s4,32(sp)
   1605a:	e85a                	sd	s6,16(sp)
   1605c:	e45e                	sd	s7,8(sp)
   1605e:	e062                	sd	s8,0(sp)
   16060:	00063983          	ld	s3,0(a2)
   16064:	8ab2                	mv	s5,a2
   16066:	10078d63          	beqz	a5,16180 <__ssprint_r+0x138>
   1606a:	45d8                	lw	a4,12(a1)
   1606c:	619c                	ld	a5,0(a1)
   1606e:	8b2a                	mv	s6,a0
   16070:	84ae                	mv	s1,a1
   16072:	4a01                	li	s4,0
   16074:	4401                	li	s0,0
   16076:	893a                	mv	s2,a4
   16078:	853e                	mv	a0,a5
   1607a:	c029                	beqz	s0,160bc <__ssprint_r+0x74>
   1607c:	04e47663          	bgeu	s0,a4,160c8 <__ssprint_r+0x80>
   16080:	0004071b          	sext.w	a4,s0
   16084:	893a                	mv	s2,a4
   16086:	8bba                	mv	s7,a4
   16088:	853e                	mv	a0,a5
   1608a:	85d2                	mv	a1,s4
   1608c:	864a                	mv	a2,s2
   1608e:	75b000ef          	jal	16fe8 <memmove>
   16092:	44d4                	lw	a3,12(s1)
   16094:	609c                	ld	a5,0(s1)
   16096:	010ab703          	ld	a4,16(s5)
   1609a:	412686bb          	subw	a3,a3,s2
   1609e:	97ca                	add	a5,a5,s2
   160a0:	c4d4                	sw	a3,12(s1)
   160a2:	e09c                	sd	a5,0(s1)
   160a4:	41770733          	sub	a4,a4,s7
   160a8:	00eab823          	sd	a4,16(s5)
   160ac:	9a5e                	add	s4,s4,s7
   160ae:	41740433          	sub	s0,s0,s7
   160b2:	c779                	beqz	a4,16180 <__ssprint_r+0x138>
   160b4:	44d8                	lw	a4,12(s1)
   160b6:	853e                	mv	a0,a5
   160b8:	893a                	mv	s2,a4
   160ba:	f069                	bnez	s0,1607c <__ssprint_r+0x34>
   160bc:	0009ba03          	ld	s4,0(s3)
   160c0:	0089b403          	ld	s0,8(s3)
   160c4:	09c1                	add	s3,s3,16
   160c6:	bf45                	j	16076 <__ssprint_r+0x2e>
   160c8:	01049703          	lh	a4,16(s1)
   160cc:	00040b9b          	sext.w	s7,s0
   160d0:	48077693          	and	a3,a4,1152
   160d4:	dadd                	beqz	a3,1608a <__ssprint_r+0x42>
   160d6:	5090                	lw	a2,32(s1)
   160d8:	6c8c                	ld	a1,24(s1)
   160da:	0016169b          	sllw	a3,a2,0x1
   160de:	9eb1                	addw	a3,a3,a2
   160e0:	8f8d                	sub	a5,a5,a1
   160e2:	01f6d91b          	srlw	s2,a3,0x1f
   160e6:	00078b9b          	sext.w	s7,a5
   160ea:	00d9093b          	addw	s2,s2,a3
   160ee:	001b8693          	add	a3,s7,1
   160f2:	4019591b          	sraw	s2,s2,0x1
   160f6:	96a2                	add	a3,a3,s0
   160f8:	00d97563          	bgeu	s2,a3,16102 <__ssprint_r+0xba>
   160fc:	2785                	addw	a5,a5,1
   160fe:	0087893b          	addw	s2,a5,s0
   16102:	40077713          	and	a4,a4,1024
   16106:	c731                	beqz	a4,16152 <__ssprint_r+0x10a>
   16108:	85ca                	mv	a1,s2
   1610a:	855a                	mv	a0,s6
   1610c:	89ffe0ef          	jal	149aa <_malloc_r>
   16110:	8c2a                	mv	s8,a0
   16112:	c931                	beqz	a0,16166 <__ssprint_r+0x11e>
   16114:	6c8c                	ld	a1,24(s1)
   16116:	865e                	mv	a2,s7
   16118:	58b000ef          	jal	16ea2 <memcpy>
   1611c:	0104d783          	lhu	a5,16(s1)
   16120:	b7f7f793          	and	a5,a5,-1153
   16124:	0807e793          	or	a5,a5,128
   16128:	00f49823          	sh	a5,16(s1)
   1612c:	017c0533          	add	a0,s8,s7
   16130:	41790bbb          	subw	s7,s2,s7
   16134:	0004071b          	sext.w	a4,s0
   16138:	0324a023          	sw	s2,32(s1)
   1613c:	0174a623          	sw	s7,12(s1)
   16140:	0184bc23          	sd	s8,24(s1)
   16144:	e088                	sd	a0,0(s1)
   16146:	893a                	mv	s2,a4
   16148:	8bba                	mv	s7,a4
   1614a:	87aa                	mv	a5,a0
   1614c:	f2e47fe3          	bgeu	s0,a4,1608a <__ssprint_r+0x42>
   16150:	bf15                	j	16084 <__ssprint_r+0x3c>
   16152:	864a                	mv	a2,s2
   16154:	855a                	mv	a0,s6
   16156:	76b000ef          	jal	170c0 <_realloc_r>
   1615a:	8c2a                	mv	s8,a0
   1615c:	f961                	bnez	a0,1612c <__ssprint_r+0xe4>
   1615e:	6c8c                	ld	a1,24(s1)
   16160:	855a                	mv	a0,s6
   16162:	c48fc0ef          	jal	125aa <_free_r>
   16166:	0104d783          	lhu	a5,16(s1)
   1616a:	4731                	li	a4,12
   1616c:	00eb2023          	sw	a4,0(s6)
   16170:	0407e793          	or	a5,a5,64
   16174:	00f49823          	sh	a5,16(s1)
   16178:	000ab823          	sd	zero,16(s5)
   1617c:	557d                	li	a0,-1
   1617e:	a011                	j	16182 <__ssprint_r+0x13a>
   16180:	4501                	li	a0,0
   16182:	60a6                	ld	ra,72(sp)
   16184:	6406                	ld	s0,64(sp)
   16186:	000aa423          	sw	zero,8(s5)
   1618a:	74e2                	ld	s1,56(sp)
   1618c:	7942                	ld	s2,48(sp)
   1618e:	79a2                	ld	s3,40(sp)
   16190:	7a02                	ld	s4,32(sp)
   16192:	6ae2                	ld	s5,24(sp)
   16194:	6b42                	ld	s6,16(sp)
   16196:	6ba2                	ld	s7,8(sp)
   16198:	6c02                	ld	s8,0(sp)
   1619a:	6161                	add	sp,sp,80
   1619c:	8082                	ret

000000000001619e <_svfiprintf_r>:
   1619e:	0105d703          	lhu	a4,16(a1)
   161a2:	7105                	add	sp,sp,-480
   161a4:	fb52                	sd	s4,432(sp)
   161a6:	f35a                	sd	s6,416(sp)
   161a8:	eb62                	sd	s8,400(sp)
   161aa:	feee                	sd	s11,376(sp)
   161ac:	ef86                	sd	ra,472(sp)
   161ae:	eba2                	sd	s0,464(sp)
   161b0:	e7a6                	sd	s1,456(sp)
   161b2:	e3ca                	sd	s2,448(sp)
   161b4:	ff4e                	sd	s3,440(sp)
   161b6:	f756                	sd	s5,424(sp)
   161b8:	ef5e                	sd	s7,408(sp)
   161ba:	e766                	sd	s9,392(sp)
   161bc:	e36a                	sd	s10,384(sp)
   161be:	08077713          	and	a4,a4,128
   161c2:	8a2e                	mv	s4,a1
   161c4:	8b2a                	mv	s6,a0
   161c6:	8db2                	mv	s11,a2
   161c8:	8c36                	mv	s8,a3
   161ca:	c701                	beqz	a4,161d2 <_svfiprintf_r+0x34>
   161cc:	6d98                	ld	a4,24(a1)
   161ce:	200704e3          	beqz	a4,16bd6 <_svfiprintf_r+0xa38>
   161d2:	67ed                	lui	a5,0x1b
   161d4:	0f010a93          	add	s5,sp,240
   161d8:	4c81                	li	s9,0
   161da:	7d878793          	add	a5,a5,2008 # 1b7d8 <__mprec_tens+0xc8>
   161de:	6bf1                	lui	s7,0x1c
   161e0:	f8d6                	sd	s5,112(sp)
   161e2:	e102                	sd	zero,128(sp)
   161e4:	dc82                	sw	zero,120(sp)
   161e6:	4481                	li	s1,0
   161e8:	8456                	mv	s0,s5
   161ea:	e802                	sd	zero,16(sp)
   161ec:	fc02                	sd	zero,56(sp)
   161ee:	f802                	sd	zero,48(sp)
   161f0:	e082                	sd	zero,64(sp)
   161f2:	e43e                	sd	a5,8(sp)
   161f4:	49c1                	li	s3,16
   161f6:	948b8b93          	add	s7,s7,-1720 # 1b948 <zeroes.0>
   161fa:	8d66                	mv	s10,s9
   161fc:	86e2                	mv	a3,s8
   161fe:	000dc783          	lbu	a5,0(s11)
   16202:	16078a63          	beqz	a5,16376 <_svfiprintf_r+0x1d8>
   16206:	896e                	mv	s2,s11
   16208:	02500713          	li	a4,37
   1620c:	1ce78b63          	beq	a5,a4,163e2 <_svfiprintf_r+0x244>
   16210:	00194783          	lbu	a5,1(s2)
   16214:	0905                	add	s2,s2,1
   16216:	fbfd                	bnez	a5,1620c <_svfiprintf_r+0x6e>
   16218:	41b90c3b          	subw	s8,s2,s11
   1621c:	140c0d63          	beqz	s8,16376 <_svfiprintf_r+0x1d8>
   16220:	57e6                	lw	a5,120(sp)
   16222:	94e2                	add	s1,s1,s8
   16224:	01b43023          	sd	s11,0(s0)
   16228:	0017871b          	addw	a4,a5,1
   1622c:	01843423          	sd	s8,8(s0)
   16230:	e126                	sd	s1,128(sp)
   16232:	dcba                	sw	a4,120(sp)
   16234:	479d                	li	a5,7
   16236:	0441                	add	s0,s0,16
   16238:	1ae7cc63          	blt	a5,a4,163f0 <_svfiprintf_r+0x252>
   1623c:	00094783          	lbu	a5,0(s2)
   16240:	018d0d3b          	addw	s10,s10,s8
   16244:	12078963          	beqz	a5,16376 <_svfiprintf_r+0x1d8>
   16248:	00194783          	lbu	a5,1(s2)
   1624c:	00190d93          	add	s11,s2,1
   16250:	060103a3          	sb	zero,103(sp)
   16254:	5c7d                	li	s8,-1
   16256:	4881                	li	a7,0
   16258:	4c81                	li	s9,0
   1625a:	05a00913          	li	s2,90
   1625e:	0d85                	add	s11,s11,1
   16260:	2781                	sext.w	a5,a5
   16262:	fe07871b          	addw	a4,a5,-32
   16266:	0007061b          	sext.w	a2,a4
   1626a:	04c96563          	bltu	s2,a2,162b4 <_svfiprintf_r+0x116>
   1626e:	02071613          	sll	a2,a4,0x20
   16272:	01e65713          	srl	a4,a2,0x1e
   16276:	6622                	ld	a2,8(sp)
   16278:	9732                	add	a4,a4,a2
   1627a:	4318                	lw	a4,0(a4)
   1627c:	8702                	jr	a4
   1627e:	4881                	li	a7,0
   16280:	45a5                	li	a1,9
   16282:	000dc603          	lbu	a2,0(s11)
   16286:	0028971b          	sllw	a4,a7,0x2
   1628a:	011708bb          	addw	a7,a4,a7
   1628e:	fd07879b          	addw	a5,a5,-48
   16292:	0018989b          	sllw	a7,a7,0x1
   16296:	fd06071b          	addw	a4,a2,-48
   1629a:	011788bb          	addw	a7,a5,a7
   1629e:	0d85                	add	s11,s11,1
   162a0:	0006079b          	sext.w	a5,a2
   162a4:	fce5ffe3          	bgeu	a1,a4,16282 <_svfiprintf_r+0xe4>
   162a8:	fe07871b          	addw	a4,a5,-32
   162ac:	0007061b          	sext.w	a2,a4
   162b0:	fac97fe3          	bgeu	s2,a2,1626e <_svfiprintf_r+0xd0>
   162b4:	c3e9                	beqz	a5,16376 <_svfiprintf_r+0x1d8>
   162b6:	08f10423          	sb	a5,136(sp)
   162ba:	060103a3          	sb	zero,103(sp)
   162be:	4e05                	li	t3,1
   162c0:	4305                	li	t1,1
   162c2:	08810913          	add	s2,sp,136
   162c6:	4c01                	li	s8,0
   162c8:	002cf293          	and	t0,s9,2
   162cc:	00028363          	beqz	t0,162d2 <_svfiprintf_r+0x134>
   162d0:	2e09                	addw	t3,t3,2
   162d2:	084cff93          	and	t6,s9,132
   162d6:	57e6                	lw	a5,120(sp)
   162d8:	000f9663          	bnez	t6,162e4 <_svfiprintf_r+0x146>
   162dc:	41c8873b          	subw	a4,a7,t3
   162e0:	5ee04663          	bgtz	a4,168cc <_svfiprintf_r+0x72e>
   162e4:	06714703          	lbu	a4,103(sp)
   162e8:	cf11                	beqz	a4,16304 <_svfiprintf_r+0x166>
   162ea:	06710613          	add	a2,sp,103
   162ee:	e010                	sd	a2,0(s0)
   162f0:	2785                	addw	a5,a5,1
   162f2:	0485                	add	s1,s1,1
   162f4:	4605                	li	a2,1
   162f6:	e410                	sd	a2,8(s0)
   162f8:	e126                	sd	s1,128(sp)
   162fa:	dcbe                	sw	a5,120(sp)
   162fc:	471d                	li	a4,7
   162fe:	0441                	add	s0,s0,16
   16300:	12f74a63          	blt	a4,a5,16434 <_svfiprintf_r+0x296>
   16304:	00028e63          	beqz	t0,16320 <_svfiprintf_r+0x182>
   16308:	10b0                	add	a2,sp,104
   1630a:	e010                	sd	a2,0(s0)
   1630c:	2785                	addw	a5,a5,1
   1630e:	0489                	add	s1,s1,2
   16310:	4609                	li	a2,2
   16312:	e410                	sd	a2,8(s0)
   16314:	e126                	sd	s1,128(sp)
   16316:	dcbe                	sw	a5,120(sp)
   16318:	471d                	li	a4,7
   1631a:	0441                	add	s0,s0,16
   1631c:	66f74363          	blt	a4,a5,16982 <_svfiprintf_r+0x7e4>
   16320:	08000713          	li	a4,128
   16324:	3eef8063          	beq	t6,a4,16704 <_svfiprintf_r+0x566>
   16328:	406c0c3b          	subw	s8,s8,t1
   1632c:	49804663          	bgtz	s8,167b8 <_svfiprintf_r+0x61a>
   16330:	0017871b          	addw	a4,a5,1
   16334:	949a                	add	s1,s1,t1
   16336:	01243023          	sd	s2,0(s0)
   1633a:	00643423          	sd	t1,8(s0)
   1633e:	e126                	sd	s1,128(sp)
   16340:	dcba                	sw	a4,120(sp)
   16342:	479d                	li	a5,7
   16344:	0441                	add	s0,s0,16
   16346:	50e7cd63          	blt	a5,a4,16860 <_svfiprintf_r+0x6c2>
   1634a:	004cfc93          	and	s9,s9,4
   1634e:	000c8663          	beqz	s9,1635a <_svfiprintf_r+0x1bc>
   16352:	41c8893b          	subw	s2,a7,t3
   16356:	65204b63          	bgtz	s2,169ac <_svfiprintf_r+0x80e>
   1635a:	87c6                	mv	a5,a7
   1635c:	01c8d363          	bge	a7,t3,16362 <_svfiprintf_r+0x1c4>
   16360:	87f2                	mv	a5,t3
   16362:	01a78d3b          	addw	s10,a5,s10
   16366:	50049d63          	bnez	s1,16880 <_svfiprintf_r+0x6e2>
   1636a:	000dc783          	lbu	a5,0(s11)
   1636e:	dc82                	sw	zero,120(sp)
   16370:	8456                	mv	s0,s5
   16372:	e8079ae3          	bnez	a5,16206 <_svfiprintf_r+0x68>
   16376:	8cea                	mv	s9,s10
   16378:	c8c1                	beqz	s1,16408 <_svfiprintf_r+0x26a>
   1637a:	1890                	add	a2,sp,112
   1637c:	85d2                	mv	a1,s4
   1637e:	855a                	mv	a0,s6
   16380:	cc9ff0ef          	jal	16048 <__ssprint_r>
   16384:	a051                	j	16408 <_svfiprintf_r+0x26a>
   16386:	010cec93          	or	s9,s9,16
   1638a:	000dc783          	lbu	a5,0(s11)
   1638e:	2c81                	sext.w	s9,s9
   16390:	b5f9                	j	1625e <_svfiprintf_r+0xc0>
   16392:	010cec93          	or	s9,s9,16
   16396:	2c81                	sext.w	s9,s9
   16398:	020cf793          	and	a5,s9,32
   1639c:	00868e93          	add	t4,a3,8
   163a0:	c3e1                	beqz	a5,16460 <_svfiprintf_r+0x2c2>
   163a2:	6298                	ld	a4,0(a3)
   163a4:	87ba                	mv	a5,a4
   163a6:	0c074c63          	bltz	a4,1647e <_svfiprintf_r+0x2e0>
   163aa:	577d                	li	a4,-1
   163ac:	0eec0563          	beq	s8,a4,16496 <_svfiprintf_r+0x2f8>
   163b0:	f7fcfc93          	and	s9,s9,-129
   163b4:	2c81                	sext.w	s9,s9
   163b6:	e3e5                	bnez	a5,16496 <_svfiprintf_r+0x2f8>
   163b8:	120c1be3          	bnez	s8,16cee <_svfiprintf_r+0xb50>
   163bc:	4e01                	li	t3,0
   163be:	4301                	li	t1,0
   163c0:	86f6                	mv	a3,t4
   163c2:	0ec10913          	add	s2,sp,236
   163c6:	a8d5                	j	164ba <_svfiprintf_r+0x31c>
   163c8:	0006a883          	lw	a7,0(a3)
   163cc:	06a1                	add	a3,a3,8
   163ce:	2a08dc63          	bgez	a7,16686 <_svfiprintf_r+0x4e8>
   163d2:	411008bb          	negw	a7,a7
   163d6:	004cec93          	or	s9,s9,4
   163da:	000dc783          	lbu	a5,0(s11)
   163de:	2c81                	sext.w	s9,s9
   163e0:	bdbd                	j	1625e <_svfiprintf_r+0xc0>
   163e2:	41b90c3b          	subw	s8,s2,s11
   163e6:	e20c1de3          	bnez	s8,16220 <_svfiprintf_r+0x82>
   163ea:	00094783          	lbu	a5,0(s2)
   163ee:	bd99                	j	16244 <_svfiprintf_r+0xa6>
   163f0:	1890                	add	a2,sp,112
   163f2:	85d2                	mv	a1,s4
   163f4:	855a                	mv	a0,s6
   163f6:	ec36                	sd	a3,24(sp)
   163f8:	c51ff0ef          	jal	16048 <__ssprint_r>
   163fc:	e509                	bnez	a0,16406 <_svfiprintf_r+0x268>
   163fe:	648a                	ld	s1,128(sp)
   16400:	66e2                	ld	a3,24(sp)
   16402:	8456                	mv	s0,s5
   16404:	bd25                	j	1623c <_svfiprintf_r+0x9e>
   16406:	8cea                	mv	s9,s10
   16408:	010a5783          	lhu	a5,16(s4)
   1640c:	0407f793          	and	a5,a5,64
   16410:	0e079ce3          	bnez	a5,16d08 <_svfiprintf_r+0xb6a>
   16414:	60fe                	ld	ra,472(sp)
   16416:	645e                	ld	s0,464(sp)
   16418:	64be                	ld	s1,456(sp)
   1641a:	691e                	ld	s2,448(sp)
   1641c:	79fa                	ld	s3,440(sp)
   1641e:	7a5a                	ld	s4,432(sp)
   16420:	7aba                	ld	s5,424(sp)
   16422:	7b1a                	ld	s6,416(sp)
   16424:	6bfa                	ld	s7,408(sp)
   16426:	6c5a                	ld	s8,400(sp)
   16428:	6d1a                	ld	s10,384(sp)
   1642a:	7df6                	ld	s11,376(sp)
   1642c:	8566                	mv	a0,s9
   1642e:	6cba                	ld	s9,392(sp)
   16430:	613d                	add	sp,sp,480
   16432:	8082                	ret
   16434:	1890                	add	a2,sp,112
   16436:	85d2                	mv	a1,s4
   16438:	855a                	mv	a0,s6
   1643a:	ecb6                	sd	a3,88(sp)
   1643c:	e89a                	sd	t1,80(sp)
   1643e:	e4f2                	sd	t3,72(sp)
   16440:	f446                	sd	a7,40(sp)
   16442:	f07e                	sd	t6,32(sp)
   16444:	ec16                	sd	t0,24(sp)
   16446:	c03ff0ef          	jal	16048 <__ssprint_r>
   1644a:	fd55                	bnez	a0,16406 <_svfiprintf_r+0x268>
   1644c:	648a                	ld	s1,128(sp)
   1644e:	57e6                	lw	a5,120(sp)
   16450:	66e6                	ld	a3,88(sp)
   16452:	6346                	ld	t1,80(sp)
   16454:	6e26                	ld	t3,72(sp)
   16456:	78a2                	ld	a7,40(sp)
   16458:	7f82                	ld	t6,32(sp)
   1645a:	62e2                	ld	t0,24(sp)
   1645c:	8456                	mv	s0,s5
   1645e:	b55d                	j	16304 <_svfiprintf_r+0x166>
   16460:	010cf793          	and	a5,s9,16
   16464:	ff9d                	bnez	a5,163a2 <_svfiprintf_r+0x204>
   16466:	040cf713          	and	a4,s9,64
   1646a:	429c                	lw	a5,0(a3)
   1646c:	02070de3          	beqz	a4,16ca6 <_svfiprintf_r+0xb08>
   16470:	0107979b          	sllw	a5,a5,0x10
   16474:	4107d79b          	sraw	a5,a5,0x10
   16478:	873e                	mv	a4,a5
   1647a:	f20758e3          	bgez	a4,163aa <_svfiprintf_r+0x20c>
   1647e:	02d00713          	li	a4,45
   16482:	06e103a3          	sb	a4,103(sp)
   16486:	577d                	li	a4,-1
   16488:	40f007b3          	neg	a5,a5
   1648c:	00ec0563          	beq	s8,a4,16496 <_svfiprintf_r+0x2f8>
   16490:	f7fcfc93          	and	s9,s9,-129
   16494:	2c81                	sext.w	s9,s9
   16496:	4725                	li	a4,9
   16498:	60f76563          	bltu	a4,a5,16aa2 <_svfiprintf_r+0x904>
   1649c:	0307879b          	addw	a5,a5,48
   164a0:	0ff7f793          	zext.b	a5,a5
   164a4:	86f6                	mv	a3,t4
   164a6:	0ef105a3          	sb	a5,235(sp)
   164aa:	000c0e1b          	sext.w	t3,s8
   164ae:	01804363          	bgtz	s8,164b4 <_svfiprintf_r+0x316>
   164b2:	4e05                	li	t3,1
   164b4:	4305                	li	t1,1
   164b6:	0eb10913          	add	s2,sp,235
   164ba:	06714783          	lbu	a5,103(sp)
   164be:	e00785e3          	beqz	a5,162c8 <_svfiprintf_r+0x12a>
   164c2:	2e05                	addw	t3,t3,1
   164c4:	b511                	j	162c8 <_svfiprintf_r+0x12a>
   164c6:	0006b903          	ld	s2,0(a3)
   164ca:	060103a3          	sb	zero,103(sp)
   164ce:	06a1                	add	a3,a3,8
   164d0:	78090b63          	beqz	s2,16c66 <_svfiprintf_r+0xac8>
   164d4:	57fd                	li	a5,-1
   164d6:	f036                	sd	a3,32(sp)
   164d8:	ec46                	sd	a7,24(sp)
   164da:	6cfc0b63          	beq	s8,a5,16bb0 <_svfiprintf_r+0xa12>
   164de:	8662                	mv	a2,s8
   164e0:	4581                	li	a1,0
   164e2:	854a                	mv	a0,s2
   164e4:	af5fe0ef          	jal	14fd8 <memchr>
   164e8:	68e2                	ld	a7,24(sp)
   164ea:	7682                	ld	a3,32(sp)
   164ec:	7e050c63          	beqz	a0,16ce4 <_svfiprintf_r+0xb46>
   164f0:	4125033b          	subw	t1,a0,s2
   164f4:	fff34e13          	not	t3,t1
   164f8:	43fe5e13          	sra	t3,t3,0x3f
   164fc:	006e7e33          	and	t3,t3,t1
   16500:	4c01                	li	s8,0
   16502:	bf65                	j	164ba <_svfiprintf_r+0x31c>
   16504:	429c                	lw	a5,0(a3)
   16506:	060103a3          	sb	zero,103(sp)
   1650a:	06a1                	add	a3,a3,8
   1650c:	08f10423          	sb	a5,136(sp)
   16510:	4e05                	li	t3,1
   16512:	4305                	li	t1,1
   16514:	08810913          	add	s2,sp,136
   16518:	b37d                	j	162c6 <_svfiprintf_r+0x128>
   1651a:	020cec93          	or	s9,s9,32
   1651e:	000dc783          	lbu	a5,0(s11)
   16522:	2c81                	sext.w	s9,s9
   16524:	bb2d                	j	1625e <_svfiprintf_r+0xc0>
   16526:	77e1                	lui	a5,0xffff8
   16528:	8307c793          	xor	a5,a5,-2000
   1652c:	06f11423          	sh	a5,104(sp)
   16530:	67ed                	lui	a5,0x1b
   16532:	002cec93          	or	s9,s9,2
   16536:	0b078793          	add	a5,a5,176 # 1b0b0 <__clzdi2+0x8e>
   1653a:	6298                	ld	a4,0(a3)
   1653c:	2c81                	sext.w	s9,s9
   1653e:	06a1                	add	a3,a3,8
   16540:	e83e                	sd	a5,16(sp)
   16542:	060103a3          	sb	zero,103(sp)
   16546:	57fd                	li	a5,-1
   16548:	34fc0b63          	beq	s8,a5,1689e <_svfiprintf_r+0x700>
   1654c:	f7fcf793          	and	a5,s9,-129
   16550:	2781                	sext.w	a5,a5
   16552:	34071263          	bnez	a4,16896 <_svfiprintf_r+0x6f8>
   16556:	8366                	mv	t1,s9
   16558:	4709                	li	a4,2
   1655a:	8cbe                	mv	s9,a5
   1655c:	040c1f63          	bnez	s8,165ba <_svfiprintf_r+0x41c>
   16560:	52071c63          	bnez	a4,16a98 <_svfiprintf_r+0x8fa>
   16564:	00137313          	and	t1,t1,1
   16568:	58030b63          	beqz	t1,16afe <_svfiprintf_r+0x960>
   1656c:	03000793          	li	a5,48
   16570:	0ef105a3          	sb	a5,235(sp)
   16574:	8e1a                	mv	t3,t1
   16576:	0eb10913          	add	s2,sp,235
   1657a:	b781                	j	164ba <_svfiprintf_r+0x31c>
   1657c:	010ce793          	or	a5,s9,16
   16580:	2781                	sext.w	a5,a5
   16582:	0207f713          	and	a4,a5,32
   16586:	00868613          	add	a2,a3,8
   1658a:	e709                	bnez	a4,16594 <_svfiprintf_r+0x3f6>
   1658c:	0107f713          	and	a4,a5,16
   16590:	5a070063          	beqz	a4,16b30 <_svfiprintf_r+0x992>
   16594:	6298                	ld	a4,0(a3)
   16596:	bff7fc93          	and	s9,a5,-1025
   1659a:	060103a3          	sb	zero,103(sp)
   1659e:	56fd                	li	a3,-1
   165a0:	2c81                	sext.w	s9,s9
   165a2:	4adc0263          	beq	s8,a3,16a46 <_svfiprintf_r+0x8a8>
   165a6:	b7f7f793          	and	a5,a5,-1153
   165aa:	2781                	sext.w	a5,a5
   165ac:	68071763          	bnez	a4,16c3a <_svfiprintf_r+0xa9c>
   165b0:	8366                	mv	t1,s9
   165b2:	86b2                	mv	a3,a2
   165b4:	8cbe                	mv	s9,a5
   165b6:	fa0c05e3          	beqz	s8,16560 <_svfiprintf_r+0x3c2>
   165ba:	4785                	li	a5,1
   165bc:	72f70a63          	beq	a4,a5,16cf0 <_svfiprintf_r+0xb52>
   165c0:	4789                	li	a5,2
   165c2:	6af70e63          	beq	a4,a5,16c7e <_svfiprintf_r+0xae0>
   165c6:	4701                	li	a4,0
   165c8:	a141                	j	16a48 <_svfiprintf_r+0x8aa>
   165ca:	010ce313          	or	t1,s9,16
   165ce:	2301                	sext.w	t1,t1
   165d0:	02037793          	and	a5,t1,32
   165d4:	00868e93          	add	t4,a3,8
   165d8:	e789                	bnez	a5,165e2 <_svfiprintf_r+0x444>
   165da:	01037793          	and	a5,t1,16
   165de:	54078163          	beqz	a5,16b20 <_svfiprintf_r+0x982>
   165e2:	629c                	ld	a5,0(a3)
   165e4:	060103a3          	sb	zero,103(sp)
   165e8:	577d                	li	a4,-1
   165ea:	8c9a                	mv	s9,t1
   165ec:	eaec05e3          	beq	s8,a4,16496 <_svfiprintf_r+0x2f8>
   165f0:	f7f37c93          	and	s9,t1,-129
   165f4:	2c81                	sext.w	s9,s9
   165f6:	ea0790e3          	bnez	a5,16496 <_svfiprintf_r+0x2f8>
   165fa:	86f6                	mv	a3,t4
   165fc:	4705                	li	a4,1
   165fe:	bfb9                	j	1655c <_svfiprintf_r+0x3be>
   16600:	080cec93          	or	s9,s9,128
   16604:	000dc783          	lbu	a5,0(s11)
   16608:	2c81                	sext.w	s9,s9
   1660a:	b991                	j	1625e <_svfiprintf_r+0xc0>
   1660c:	000dc783          	lbu	a5,0(s11)
   16610:	02a00593          	li	a1,42
   16614:	001d8713          	add	a4,s11,1
   16618:	6eb78b63          	beq	a5,a1,16d0e <_svfiprintf_r+0xb70>
   1661c:	fd07861b          	addw	a2,a5,-48
   16620:	4525                	li	a0,9
   16622:	8dba                	mv	s11,a4
   16624:	4c01                	li	s8,0
   16626:	45a5                	li	a1,9
   16628:	c2c56de3          	bltu	a0,a2,16262 <_svfiprintf_r+0xc4>
   1662c:	000dc783          	lbu	a5,0(s11)
   16630:	002c171b          	sllw	a4,s8,0x2
   16634:	01870c3b          	addw	s8,a4,s8
   16638:	001c1c1b          	sllw	s8,s8,0x1
   1663c:	00cc0c3b          	addw	s8,s8,a2
   16640:	fd07861b          	addw	a2,a5,-48
   16644:	0d85                	add	s11,s11,1
   16646:	fec5f3e3          	bgeu	a1,a2,1662c <_svfiprintf_r+0x48e>
   1664a:	b921                	j	16262 <_svfiprintf_r+0xc4>
   1664c:	02b00713          	li	a4,43
   16650:	000dc783          	lbu	a5,0(s11)
   16654:	06e103a3          	sb	a4,103(sp)
   16658:	b119                	j	1625e <_svfiprintf_r+0xc0>
   1665a:	855a                	mv	a0,s6
   1665c:	f036                	sd	a3,32(sp)
   1665e:	ec46                	sd	a7,24(sp)
   16660:	aa0fe0ef          	jal	14900 <_localeconv_r>
   16664:	651c                	ld	a5,8(a0)
   16666:	853e                	mv	a0,a5
   16668:	e0be                	sd	a5,64(sp)
   1666a:	8ddff0ef          	jal	15f46 <strlen>
   1666e:	87aa                	mv	a5,a0
   16670:	855a                	mv	a0,s6
   16672:	f83e                	sd	a5,48(sp)
   16674:	a8cfe0ef          	jal	14900 <_localeconv_r>
   16678:	6918                	ld	a4,16(a0)
   1667a:	77c2                	ld	a5,48(sp)
   1667c:	68e2                	ld	a7,24(sp)
   1667e:	fc3a                	sd	a4,56(sp)
   16680:	7682                	ld	a3,32(sp)
   16682:	48079263          	bnez	a5,16b06 <_svfiprintf_r+0x968>
   16686:	000dc783          	lbu	a5,0(s11)
   1668a:	bed1                	j	1625e <_svfiprintf_r+0xc0>
   1668c:	001cec93          	or	s9,s9,1
   16690:	000dc783          	lbu	a5,0(s11)
   16694:	2c81                	sext.w	s9,s9
   16696:	b6e1                	j	1625e <_svfiprintf_r+0xc0>
   16698:	06714703          	lbu	a4,103(sp)
   1669c:	000dc783          	lbu	a5,0(s11)
   166a0:	ba071fe3          	bnez	a4,1625e <_svfiprintf_r+0xc0>
   166a4:	02000713          	li	a4,32
   166a8:	06e103a3          	sb	a4,103(sp)
   166ac:	be4d                	j	1625e <_svfiprintf_r+0xc0>
   166ae:	020cf793          	and	a5,s9,32
   166b2:	6298                	ld	a4,0(a3)
   166b4:	e385                	bnez	a5,166d4 <_svfiprintf_r+0x536>
   166b6:	010cf793          	and	a5,s9,16
   166ba:	ef89                	bnez	a5,166d4 <_svfiprintf_r+0x536>
   166bc:	040cf793          	and	a5,s9,64
   166c0:	5e079f63          	bnez	a5,16cbe <_svfiprintf_r+0xb20>
   166c4:	200cfc93          	and	s9,s9,512
   166c8:	620c8863          	beqz	s9,16cf8 <_svfiprintf_r+0xb5a>
   166cc:	01a70023          	sb	s10,0(a4)
   166d0:	06a1                	add	a3,a3,8
   166d2:	b635                	j	161fe <_svfiprintf_r+0x60>
   166d4:	01a73023          	sd	s10,0(a4)
   166d8:	06a1                	add	a3,a3,8
   166da:	b615                	j	161fe <_svfiprintf_r+0x60>
   166dc:	000dc783          	lbu	a5,0(s11)
   166e0:	06c00713          	li	a4,108
   166e4:	56e78963          	beq	a5,a4,16c56 <_svfiprintf_r+0xab8>
   166e8:	010cec93          	or	s9,s9,16
   166ec:	2c81                	sext.w	s9,s9
   166ee:	be85                	j	1625e <_svfiprintf_r+0xc0>
   166f0:	000dc783          	lbu	a5,0(s11)
   166f4:	06800713          	li	a4,104
   166f8:	54e78763          	beq	a5,a4,16c46 <_svfiprintf_r+0xaa8>
   166fc:	040cec93          	or	s9,s9,64
   16700:	2c81                	sext.w	s9,s9
   16702:	beb1                	j	1625e <_svfiprintf_r+0xc0>
   16704:	41c8873b          	subw	a4,a7,t3
   16708:	c2e050e3          	blez	a4,16328 <_svfiprintf_r+0x18a>
   1670c:	6f71                	lui	t5,0x1c
   1670e:	4641                	li	a2,16
   16710:	948f0f13          	add	t5,t5,-1720 # 1b948 <zeroes.0>
   16714:	06e65163          	bge	a2,a4,16776 <_svfiprintf_r+0x5d8>
   16718:	8626                	mv	a2,s1
   1671a:	e4b6                	sd	a3,72(sp)
   1671c:	4ec1                	li	t4,16
   1671e:	86a2                	mv	a3,s0
   16720:	4f9d                	li	t6,7
   16722:	ec46                	sd	a7,24(sp)
   16724:	f072                	sd	t3,32(sp)
   16726:	f41a                	sd	t1,40(sp)
   16728:	843a                	mv	s0,a4
   1672a:	84fa                	mv	s1,t5
   1672c:	a021                	j	16734 <_svfiprintf_r+0x596>
   1672e:	3441                	addw	s0,s0,-16
   16730:	028edb63          	bge	t4,s0,16766 <_svfiprintf_r+0x5c8>
   16734:	2785                	addw	a5,a5,1
   16736:	0641                	add	a2,a2,16
   16738:	e284                	sd	s1,0(a3)
   1673a:	01d6b423          	sd	t4,8(a3)
   1673e:	e132                	sd	a2,128(sp)
   16740:	dcbe                	sw	a5,120(sp)
   16742:	06c1                	add	a3,a3,16
   16744:	feffd5e3          	bge	t6,a5,1672e <_svfiprintf_r+0x590>
   16748:	1890                	add	a2,sp,112
   1674a:	85d2                	mv	a1,s4
   1674c:	855a                	mv	a0,s6
   1674e:	8fbff0ef          	jal	16048 <__ssprint_r>
   16752:	ca051ae3          	bnez	a0,16406 <_svfiprintf_r+0x268>
   16756:	4ec1                	li	t4,16
   16758:	3441                	addw	s0,s0,-16
   1675a:	660a                	ld	a2,128(sp)
   1675c:	57e6                	lw	a5,120(sp)
   1675e:	86d6                	mv	a3,s5
   16760:	4f9d                	li	t6,7
   16762:	fc8ec9e3          	blt	t4,s0,16734 <_svfiprintf_r+0x596>
   16766:	8722                	mv	a4,s0
   16768:	68e2                	ld	a7,24(sp)
   1676a:	8436                	mv	s0,a3
   1676c:	7e02                	ld	t3,32(sp)
   1676e:	7322                	ld	t1,40(sp)
   16770:	66a6                	ld	a3,72(sp)
   16772:	8f26                	mv	t5,s1
   16774:	84b2                	mv	s1,a2
   16776:	94ba                	add	s1,s1,a4
   16778:	2785                	addw	a5,a5,1
   1677a:	e418                	sd	a4,8(s0)
   1677c:	01e43023          	sd	t5,0(s0)
   16780:	e126                	sd	s1,128(sp)
   16782:	dcbe                	sw	a5,120(sp)
   16784:	471d                	li	a4,7
   16786:	0441                	add	s0,s0,16
   16788:	baf750e3          	bge	a4,a5,16328 <_svfiprintf_r+0x18a>
   1678c:	1890                	add	a2,sp,112
   1678e:	85d2                	mv	a1,s4
   16790:	855a                	mv	a0,s6
   16792:	e4b6                	sd	a3,72(sp)
   16794:	f41a                	sd	t1,40(sp)
   16796:	f072                	sd	t3,32(sp)
   16798:	ec46                	sd	a7,24(sp)
   1679a:	8afff0ef          	jal	16048 <__ssprint_r>
   1679e:	c60514e3          	bnez	a0,16406 <_svfiprintf_r+0x268>
   167a2:	7322                	ld	t1,40(sp)
   167a4:	648a                	ld	s1,128(sp)
   167a6:	57e6                	lw	a5,120(sp)
   167a8:	406c0c3b          	subw	s8,s8,t1
   167ac:	66a6                	ld	a3,72(sp)
   167ae:	7e02                	ld	t3,32(sp)
   167b0:	68e2                	ld	a7,24(sp)
   167b2:	8456                	mv	s0,s5
   167b4:	b7805ee3          	blez	s8,16330 <_svfiprintf_r+0x192>
   167b8:	6f71                	lui	t5,0x1c
   167ba:	948f0f13          	add	t5,t5,-1720 # 1b948 <zeroes.0>
   167be:	0789d263          	bge	s3,s8,16822 <_svfiprintf_r+0x684>
   167c2:	8636                	mv	a2,a3
   167c4:	8722                	mv	a4,s0
   167c6:	86a6                	mv	a3,s1
   167c8:	8462                	mv	s0,s8
   167ca:	4e9d                	li	t4,7
   167cc:	ec46                	sd	a7,24(sp)
   167ce:	f072                	sd	t3,32(sp)
   167d0:	f41a                	sd	t1,40(sp)
   167d2:	8c5e                	mv	s8,s7
   167d4:	84b2                	mv	s1,a2
   167d6:	a021                	j	167de <_svfiprintf_r+0x640>
   167d8:	3441                	addw	s0,s0,-16
   167da:	0289db63          	bge	s3,s0,16810 <_svfiprintf_r+0x672>
   167de:	2785                	addw	a5,a5,1
   167e0:	06c1                	add	a3,a3,16
   167e2:	01773023          	sd	s7,0(a4)
   167e6:	01373423          	sd	s3,8(a4)
   167ea:	e136                	sd	a3,128(sp)
   167ec:	dcbe                	sw	a5,120(sp)
   167ee:	0741                	add	a4,a4,16
   167f0:	fefed4e3          	bge	t4,a5,167d8 <_svfiprintf_r+0x63a>
   167f4:	1890                	add	a2,sp,112
   167f6:	85d2                	mv	a1,s4
   167f8:	855a                	mv	a0,s6
   167fa:	84fff0ef          	jal	16048 <__ssprint_r>
   167fe:	c00514e3          	bnez	a0,16406 <_svfiprintf_r+0x268>
   16802:	3441                	addw	s0,s0,-16
   16804:	668a                	ld	a3,128(sp)
   16806:	57e6                	lw	a5,120(sp)
   16808:	8756                	mv	a4,s5
   1680a:	4e9d                	li	t4,7
   1680c:	fc89c9e3          	blt	s3,s0,167de <_svfiprintf_r+0x640>
   16810:	68e2                	ld	a7,24(sp)
   16812:	7e02                	ld	t3,32(sp)
   16814:	7322                	ld	t1,40(sp)
   16816:	8626                	mv	a2,s1
   16818:	8f62                	mv	t5,s8
   1681a:	84b6                	mv	s1,a3
   1681c:	8c22                	mv	s8,s0
   1681e:	86b2                	mv	a3,a2
   16820:	843a                	mv	s0,a4
   16822:	2785                	addw	a5,a5,1
   16824:	94e2                	add	s1,s1,s8
   16826:	01e43023          	sd	t5,0(s0)
   1682a:	01843423          	sd	s8,8(s0)
   1682e:	e126                	sd	s1,128(sp)
   16830:	dcbe                	sw	a5,120(sp)
   16832:	471d                	li	a4,7
   16834:	0441                	add	s0,s0,16
   16836:	aef75de3          	bge	a4,a5,16330 <_svfiprintf_r+0x192>
   1683a:	1890                	add	a2,sp,112
   1683c:	85d2                	mv	a1,s4
   1683e:	855a                	mv	a0,s6
   16840:	e4b6                	sd	a3,72(sp)
   16842:	f41a                	sd	t1,40(sp)
   16844:	f072                	sd	t3,32(sp)
   16846:	ec46                	sd	a7,24(sp)
   16848:	801ff0ef          	jal	16048 <__ssprint_r>
   1684c:	ba051de3          	bnez	a0,16406 <_svfiprintf_r+0x268>
   16850:	648a                	ld	s1,128(sp)
   16852:	57e6                	lw	a5,120(sp)
   16854:	66a6                	ld	a3,72(sp)
   16856:	7322                	ld	t1,40(sp)
   16858:	7e02                	ld	t3,32(sp)
   1685a:	68e2                	ld	a7,24(sp)
   1685c:	8456                	mv	s0,s5
   1685e:	bcc9                	j	16330 <_svfiprintf_r+0x192>
   16860:	1890                	add	a2,sp,112
   16862:	85d2                	mv	a1,s4
   16864:	855a                	mv	a0,s6
   16866:	f436                	sd	a3,40(sp)
   16868:	f072                	sd	t3,32(sp)
   1686a:	ec46                	sd	a7,24(sp)
   1686c:	fdcff0ef          	jal	16048 <__ssprint_r>
   16870:	b8051be3          	bnez	a0,16406 <_svfiprintf_r+0x268>
   16874:	648a                	ld	s1,128(sp)
   16876:	76a2                	ld	a3,40(sp)
   16878:	7e02                	ld	t3,32(sp)
   1687a:	68e2                	ld	a7,24(sp)
   1687c:	8456                	mv	s0,s5
   1687e:	b4f1                	j	1634a <_svfiprintf_r+0x1ac>
   16880:	1890                	add	a2,sp,112
   16882:	85d2                	mv	a1,s4
   16884:	855a                	mv	a0,s6
   16886:	ec36                	sd	a3,24(sp)
   16888:	fc0ff0ef          	jal	16048 <__ssprint_r>
   1688c:	b6051de3          	bnez	a0,16406 <_svfiprintf_r+0x268>
   16890:	648a                	ld	s1,128(sp)
   16892:	66e2                	ld	a3,24(sp)
   16894:	bcd9                	j	1636a <_svfiprintf_r+0x1cc>
   16896:	8cbe                	mv	s9,a5
   16898:	4789                	li	a5,2
   1689a:	1a078763          	beqz	a5,16a48 <_svfiprintf_r+0x8aa>
   1689e:	6642                	ld	a2,16(sp)
   168a0:	0ec10313          	add	t1,sp,236
   168a4:	891a                	mv	s2,t1
   168a6:	00f77793          	and	a5,a4,15
   168aa:	97b2                	add	a5,a5,a2
   168ac:	0007c783          	lbu	a5,0(a5)
   168b0:	8311                	srl	a4,a4,0x4
   168b2:	197d                	add	s2,s2,-1
   168b4:	00f90023          	sb	a5,0(s2)
   168b8:	f77d                	bnez	a4,168a6 <_svfiprintf_r+0x708>
   168ba:	4123033b          	subw	t1,t1,s2
   168be:	000c0e1b          	sext.w	t3,s8
   168c2:	be6c5ce3          	bge	s8,t1,164ba <_svfiprintf_r+0x31c>
   168c6:	00030e1b          	sext.w	t3,t1
   168ca:	bec5                	j	164ba <_svfiprintf_r+0x31c>
   168cc:	6ef1                	lui	t4,0x1c
   168ce:	4641                	li	a2,16
   168d0:	958e8e93          	add	t4,t4,-1704 # 1b958 <blanks.1>
   168d4:	06e65563          	bge	a2,a4,1693e <_svfiprintf_r+0x7a0>
   168d8:	8626                	mv	a2,s1
   168da:	ecb6                	sd	a3,88(sp)
   168dc:	4f41                	li	t5,16
   168de:	86a2                	mv	a3,s0
   168e0:	439d                	li	t2,7
   168e2:	ec16                	sd	t0,24(sp)
   168e4:	f07e                	sd	t6,32(sp)
   168e6:	f446                	sd	a7,40(sp)
   168e8:	e4f2                	sd	t3,72(sp)
   168ea:	e89a                	sd	t1,80(sp)
   168ec:	843a                	mv	s0,a4
   168ee:	84f6                	mv	s1,t4
   168f0:	a021                	j	168f8 <_svfiprintf_r+0x75a>
   168f2:	3441                	addw	s0,s0,-16
   168f4:	028f5b63          	bge	t5,s0,1692a <_svfiprintf_r+0x78c>
   168f8:	2785                	addw	a5,a5,1
   168fa:	0641                	add	a2,a2,16
   168fc:	e284                	sd	s1,0(a3)
   168fe:	01e6b423          	sd	t5,8(a3)
   16902:	e132                	sd	a2,128(sp)
   16904:	dcbe                	sw	a5,120(sp)
   16906:	06c1                	add	a3,a3,16
   16908:	fef3d5e3          	bge	t2,a5,168f2 <_svfiprintf_r+0x754>
   1690c:	1890                	add	a2,sp,112
   1690e:	85d2                	mv	a1,s4
   16910:	855a                	mv	a0,s6
   16912:	f36ff0ef          	jal	16048 <__ssprint_r>
   16916:	ae0518e3          	bnez	a0,16406 <_svfiprintf_r+0x268>
   1691a:	4f41                	li	t5,16
   1691c:	3441                	addw	s0,s0,-16
   1691e:	660a                	ld	a2,128(sp)
   16920:	57e6                	lw	a5,120(sp)
   16922:	86d6                	mv	a3,s5
   16924:	439d                	li	t2,7
   16926:	fc8f49e3          	blt	t5,s0,168f8 <_svfiprintf_r+0x75a>
   1692a:	8722                	mv	a4,s0
   1692c:	62e2                	ld	t0,24(sp)
   1692e:	8436                	mv	s0,a3
   16930:	7f82                	ld	t6,32(sp)
   16932:	78a2                	ld	a7,40(sp)
   16934:	6e26                	ld	t3,72(sp)
   16936:	6346                	ld	t1,80(sp)
   16938:	66e6                	ld	a3,88(sp)
   1693a:	8ea6                	mv	t4,s1
   1693c:	84b2                	mv	s1,a2
   1693e:	94ba                	add	s1,s1,a4
   16940:	2785                	addw	a5,a5,1
   16942:	e418                	sd	a4,8(s0)
   16944:	01d43023          	sd	t4,0(s0)
   16948:	e126                	sd	s1,128(sp)
   1694a:	dcbe                	sw	a5,120(sp)
   1694c:	471d                	li	a4,7
   1694e:	0441                	add	s0,s0,16
   16950:	98f75ae3          	bge	a4,a5,162e4 <_svfiprintf_r+0x146>
   16954:	1890                	add	a2,sp,112
   16956:	85d2                	mv	a1,s4
   16958:	855a                	mv	a0,s6
   1695a:	ecb6                	sd	a3,88(sp)
   1695c:	e89a                	sd	t1,80(sp)
   1695e:	e4f2                	sd	t3,72(sp)
   16960:	f446                	sd	a7,40(sp)
   16962:	f07e                	sd	t6,32(sp)
   16964:	ec16                	sd	t0,24(sp)
   16966:	ee2ff0ef          	jal	16048 <__ssprint_r>
   1696a:	a8051ee3          	bnez	a0,16406 <_svfiprintf_r+0x268>
   1696e:	648a                	ld	s1,128(sp)
   16970:	57e6                	lw	a5,120(sp)
   16972:	66e6                	ld	a3,88(sp)
   16974:	6346                	ld	t1,80(sp)
   16976:	6e26                	ld	t3,72(sp)
   16978:	78a2                	ld	a7,40(sp)
   1697a:	7f82                	ld	t6,32(sp)
   1697c:	62e2                	ld	t0,24(sp)
   1697e:	8456                	mv	s0,s5
   16980:	b295                	j	162e4 <_svfiprintf_r+0x146>
   16982:	1890                	add	a2,sp,112
   16984:	85d2                	mv	a1,s4
   16986:	855a                	mv	a0,s6
   16988:	e8b6                	sd	a3,80(sp)
   1698a:	e49a                	sd	t1,72(sp)
   1698c:	f472                	sd	t3,40(sp)
   1698e:	f046                	sd	a7,32(sp)
   16990:	ec7e                	sd	t6,24(sp)
   16992:	eb6ff0ef          	jal	16048 <__ssprint_r>
   16996:	a60518e3          	bnez	a0,16406 <_svfiprintf_r+0x268>
   1699a:	648a                	ld	s1,128(sp)
   1699c:	57e6                	lw	a5,120(sp)
   1699e:	66c6                	ld	a3,80(sp)
   169a0:	6326                	ld	t1,72(sp)
   169a2:	7e22                	ld	t3,40(sp)
   169a4:	7882                	ld	a7,32(sp)
   169a6:	6fe2                	ld	t6,24(sp)
   169a8:	8456                	mv	s0,s5
   169aa:	ba9d                	j	16320 <_svfiprintf_r+0x182>
   169ac:	6ef1                	lui	t4,0x1c
   169ae:	4741                	li	a4,16
   169b0:	57e6                	lw	a5,120(sp)
   169b2:	958e8e93          	add	t4,t4,-1704 # 1b958 <blanks.1>
   169b6:	05275d63          	bge	a4,s2,16a10 <_svfiprintf_r+0x872>
   169ba:	8722                	mv	a4,s0
   169bc:	4c41                	li	s8,16
   169be:	844a                	mv	s0,s2
   169c0:	4c9d                	li	s9,7
   169c2:	8936                	mv	s2,a3
   169c4:	ec46                	sd	a7,24(sp)
   169c6:	86a6                	mv	a3,s1
   169c8:	f072                	sd	t3,32(sp)
   169ca:	84f6                	mv	s1,t4
   169cc:	a021                	j	169d4 <_svfiprintf_r+0x836>
   169ce:	3441                	addw	s0,s0,-16
   169d0:	028c5963          	bge	s8,s0,16a02 <_svfiprintf_r+0x864>
   169d4:	2785                	addw	a5,a5,1
   169d6:	06c1                	add	a3,a3,16
   169d8:	e304                	sd	s1,0(a4)
   169da:	01873423          	sd	s8,8(a4)
   169de:	e136                	sd	a3,128(sp)
   169e0:	dcbe                	sw	a5,120(sp)
   169e2:	0741                	add	a4,a4,16
   169e4:	fefcd5e3          	bge	s9,a5,169ce <_svfiprintf_r+0x830>
   169e8:	1890                	add	a2,sp,112
   169ea:	85d2                	mv	a1,s4
   169ec:	855a                	mv	a0,s6
   169ee:	e5aff0ef          	jal	16048 <__ssprint_r>
   169f2:	a0051ae3          	bnez	a0,16406 <_svfiprintf_r+0x268>
   169f6:	3441                	addw	s0,s0,-16
   169f8:	668a                	ld	a3,128(sp)
   169fa:	57e6                	lw	a5,120(sp)
   169fc:	8756                	mv	a4,s5
   169fe:	fc8c4be3          	blt	s8,s0,169d4 <_svfiprintf_r+0x836>
   16a02:	68e2                	ld	a7,24(sp)
   16a04:	7e02                	ld	t3,32(sp)
   16a06:	8ea6                	mv	t4,s1
   16a08:	84b6                	mv	s1,a3
   16a0a:	86ca                	mv	a3,s2
   16a0c:	8922                	mv	s2,s0
   16a0e:	843a                	mv	s0,a4
   16a10:	0017871b          	addw	a4,a5,1
   16a14:	94ca                	add	s1,s1,s2
   16a16:	01d43023          	sd	t4,0(s0)
   16a1a:	01243423          	sd	s2,8(s0)
   16a1e:	e126                	sd	s1,128(sp)
   16a20:	dcba                	sw	a4,120(sp)
   16a22:	479d                	li	a5,7
   16a24:	92e7dbe3          	bge	a5,a4,1635a <_svfiprintf_r+0x1bc>
   16a28:	1890                	add	a2,sp,112
   16a2a:	85d2                	mv	a1,s4
   16a2c:	855a                	mv	a0,s6
   16a2e:	f436                	sd	a3,40(sp)
   16a30:	f072                	sd	t3,32(sp)
   16a32:	ec46                	sd	a7,24(sp)
   16a34:	e14ff0ef          	jal	16048 <__ssprint_r>
   16a38:	9c0517e3          	bnez	a0,16406 <_svfiprintf_r+0x268>
   16a3c:	648a                	ld	s1,128(sp)
   16a3e:	76a2                	ld	a3,40(sp)
   16a40:	7e02                	ld	t3,32(sp)
   16a42:	68e2                	ld	a7,24(sp)
   16a44:	ba19                	j	1635a <_svfiprintf_r+0x1bc>
   16a46:	86b2                	mv	a3,a2
   16a48:	0ec10313          	add	t1,sp,236
   16a4c:	891a                	mv	s2,t1
   16a4e:	00777793          	and	a5,a4,7
   16a52:	03078793          	add	a5,a5,48
   16a56:	fef90fa3          	sb	a5,-1(s2)
   16a5a:	830d                	srl	a4,a4,0x3
   16a5c:	864a                	mv	a2,s2
   16a5e:	197d                	add	s2,s2,-1
   16a60:	f77d                	bnez	a4,16a4e <_svfiprintf_r+0x8b0>
   16a62:	001cf713          	and	a4,s9,1
   16a66:	c305                	beqz	a4,16a86 <_svfiprintf_r+0x8e8>
   16a68:	03000713          	li	a4,48
   16a6c:	00e78d63          	beq	a5,a4,16a86 <_svfiprintf_r+0x8e8>
   16a70:	1679                	add	a2,a2,-2
   16a72:	40c3033b          	subw	t1,t1,a2
   16a76:	fee90fa3          	sb	a4,-1(s2)
   16a7a:	00030e1b          	sext.w	t3,t1
   16a7e:	0d834163          	blt	t1,s8,16b40 <_svfiprintf_r+0x9a2>
   16a82:	8932                	mv	s2,a2
   16a84:	bc1d                	j	164ba <_svfiprintf_r+0x31c>
   16a86:	4123033b          	subw	t1,t1,s2
   16a8a:	00030e1b          	sext.w	t3,t1
   16a8e:	a38356e3          	bge	t1,s8,164ba <_svfiprintf_r+0x31c>
   16a92:	000c0e1b          	sext.w	t3,s8
   16a96:	b415                	j	164ba <_svfiprintf_r+0x31c>
   16a98:	4e01                	li	t3,0
   16a9a:	4301                	li	t1,0
   16a9c:	0ec10913          	add	s2,sp,236
   16aa0:	bc29                	j	164ba <_svfiprintf_r+0x31c>
   16aa2:	0ec10313          	add	t1,sp,236
   16aa6:	7862                	ld	a6,56(sp)
   16aa8:	400cff13          	and	t5,s9,1024
   16aac:	4581                	li	a1,0
   16aae:	861a                	mv	a2,t1
   16ab0:	46a9                	li	a3,10
   16ab2:	4e25                	li	t3,9
   16ab4:	0ff00f93          	li	t6,255
   16ab8:	a039                	j	16ac6 <_svfiprintf_r+0x928>
   16aba:	02d7d733          	divu	a4,a5,a3
   16abe:	02fe7763          	bgeu	t3,a5,16aec <_svfiprintf_r+0x94e>
   16ac2:	87ba                	mv	a5,a4
   16ac4:	864a                	mv	a2,s2
   16ac6:	fff60913          	add	s2,a2,-1
   16aca:	2585                	addw	a1,a1,1
   16acc:	02d7f733          	remu	a4,a5,a3
   16ad0:	0307071b          	addw	a4,a4,48
   16ad4:	fee60fa3          	sb	a4,-1(a2)
   16ad8:	fe0f01e3          	beqz	t5,16aba <_svfiprintf_r+0x91c>
   16adc:	00084703          	lbu	a4,0(a6)
   16ae0:	fcb71de3          	bne	a4,a1,16aba <_svfiprintf_r+0x91c>
   16ae4:	fdf70be3          	beq	a4,t6,16aba <_svfiprintf_r+0x91c>
   16ae8:	10fe6763          	bltu	t3,a5,16bf6 <_svfiprintf_r+0xa58>
   16aec:	4123033b          	subw	t1,t1,s2
   16af0:	fc42                	sd	a6,56(sp)
   16af2:	00030e1b          	sext.w	t3,t1
   16af6:	0d834c63          	blt	t1,s8,16bce <_svfiprintf_r+0xa30>
   16afa:	86f6                	mv	a3,t4
   16afc:	ba7d                	j	164ba <_svfiprintf_r+0x31c>
   16afe:	4e01                	li	t3,0
   16b00:	0ec10913          	add	s2,sp,236
   16b04:	ba5d                	j	164ba <_svfiprintf_r+0x31c>
   16b06:	000dc783          	lbu	a5,0(s11)
   16b0a:	f4070a63          	beqz	a4,1625e <_svfiprintf_r+0xc0>
   16b0e:	00074703          	lbu	a4,0(a4)
   16b12:	f4070663          	beqz	a4,1625e <_svfiprintf_r+0xc0>
   16b16:	400cec93          	or	s9,s9,1024
   16b1a:	2c81                	sext.w	s9,s9
   16b1c:	f42ff06f          	j	1625e <_svfiprintf_r+0xc0>
   16b20:	04037713          	and	a4,t1,64
   16b24:	429c                	lw	a5,0(a3)
   16b26:	16070463          	beqz	a4,16c8e <_svfiprintf_r+0xaf0>
   16b2a:	17c2                	sll	a5,a5,0x30
   16b2c:	93c1                	srl	a5,a5,0x30
   16b2e:	bc5d                	j	165e4 <_svfiprintf_r+0x446>
   16b30:	0407f593          	and	a1,a5,64
   16b34:	4298                	lw	a4,0(a3)
   16b36:	16058263          	beqz	a1,16c9a <_svfiprintf_r+0xafc>
   16b3a:	1742                	sll	a4,a4,0x30
   16b3c:	9341                	srl	a4,a4,0x30
   16b3e:	bca1                	j	16596 <_svfiprintf_r+0x3f8>
   16b40:	000c0e1b          	sext.w	t3,s8
   16b44:	8932                	mv	s2,a2
   16b46:	ba95                	j	164ba <_svfiprintf_r+0x31c>
   16b48:	676d                	lui	a4,0x1b
   16b4a:	09870713          	add	a4,a4,152 # 1b098 <__clzdi2+0x76>
   16b4e:	e83a                	sd	a4,16(sp)
   16b50:	020cf713          	and	a4,s9,32
   16b54:	00868613          	add	a2,a3,8
   16b58:	eb31                	bnez	a4,16bac <_svfiprintf_r+0xa0e>
   16b5a:	010cf713          	and	a4,s9,16
   16b5e:	e739                	bnez	a4,16bac <_svfiprintf_r+0xa0e>
   16b60:	040cf593          	and	a1,s9,64
   16b64:	4298                	lw	a4,0(a3)
   16b66:	10058e63          	beqz	a1,16c82 <_svfiprintf_r+0xae4>
   16b6a:	1742                	sll	a4,a4,0x30
   16b6c:	9341                	srl	a4,a4,0x30
   16b6e:	001cf693          	and	a3,s9,1
   16b72:	ca99                	beqz	a3,16b88 <_svfiprintf_r+0x9ea>
   16b74:	cb11                	beqz	a4,16b88 <_svfiprintf_r+0x9ea>
   16b76:	002cec93          	or	s9,s9,2
   16b7a:	03000693          	li	a3,48
   16b7e:	06d10423          	sb	a3,104(sp)
   16b82:	06f104a3          	sb	a5,105(sp)
   16b86:	2c81                	sext.w	s9,s9
   16b88:	bffcfc93          	and	s9,s9,-1025
   16b8c:	2c81                	sext.w	s9,s9
   16b8e:	86b2                	mv	a3,a2
   16b90:	ba4d                	j	16542 <_svfiprintf_r+0x3a4>
   16b92:	87e6                	mv	a5,s9
   16b94:	b2fd                	j	16582 <_svfiprintf_r+0x3e4>
   16b96:	8366                	mv	t1,s9
   16b98:	bc25                	j	165d0 <_svfiprintf_r+0x432>
   16b9a:	676d                	lui	a4,0x1b
   16b9c:	0b070713          	add	a4,a4,176 # 1b0b0 <__clzdi2+0x8e>
   16ba0:	e83a                	sd	a4,16(sp)
   16ba2:	020cf713          	and	a4,s9,32
   16ba6:	00868613          	add	a2,a3,8
   16baa:	db45                	beqz	a4,16b5a <_svfiprintf_r+0x9bc>
   16bac:	6298                	ld	a4,0(a3)
   16bae:	b7c1                	j	16b6e <_svfiprintf_r+0x9d0>
   16bb0:	854a                	mv	a0,s2
   16bb2:	b94ff0ef          	jal	15f46 <strlen>
   16bb6:	0005031b          	sext.w	t1,a0
   16bba:	fff34e13          	not	t3,t1
   16bbe:	43fe5e13          	sra	t3,t3,0x3f
   16bc2:	7682                	ld	a3,32(sp)
   16bc4:	68e2                	ld	a7,24(sp)
   16bc6:	006e7e33          	and	t3,t3,t1
   16bca:	4c01                	li	s8,0
   16bcc:	b0fd                	j	164ba <_svfiprintf_r+0x31c>
   16bce:	000c0e1b          	sext.w	t3,s8
   16bd2:	86f6                	mv	a3,t4
   16bd4:	b0dd                	j	164ba <_svfiprintf_r+0x31c>
   16bd6:	04000593          	li	a1,64
   16bda:	dd1fd0ef          	jal	149aa <_malloc_r>
   16bde:	00aa3023          	sd	a0,0(s4)
   16be2:	00aa3c23          	sd	a0,24(s4)
   16be6:	10050e63          	beqz	a0,16d02 <_svfiprintf_r+0xb64>
   16bea:	04000713          	li	a4,64
   16bee:	02ea2023          	sw	a4,32(s4)
   16bf2:	de0ff06f          	j	161d2 <_svfiprintf_r+0x34>
   16bf6:	e4be                	sd	a5,72(sp)
   16bf8:	77c2                	ld	a5,48(sp)
   16bfa:	6586                	ld	a1,64(sp)
   16bfc:	e89a                	sd	t1,80(sp)
   16bfe:	40f90933          	sub	s2,s2,a5
   16c02:	863e                	mv	a2,a5
   16c04:	854a                	mv	a0,s2
   16c06:	fc76                	sd	t4,56(sp)
   16c08:	f47a                	sd	t5,40(sp)
   16c0a:	f046                	sd	a7,32(sp)
   16c0c:	ec42                	sd	a6,24(sp)
   16c0e:	bc8ff0ef          	jal	15fd6 <strncpy>
   16c12:	6862                	ld	a6,24(sp)
   16c14:	67a6                	ld	a5,72(sp)
   16c16:	4729                	li	a4,10
   16c18:	00184603          	lbu	a2,1(a6)
   16c1c:	02e7d733          	divu	a4,a5,a4
   16c20:	7882                	ld	a7,32(sp)
   16c22:	00c037b3          	snez	a5,a2
   16c26:	7f22                	ld	t5,40(sp)
   16c28:	7ee2                	ld	t4,56(sp)
   16c2a:	6346                	ld	t1,80(sp)
   16c2c:	983e                	add	a6,a6,a5
   16c2e:	4581                	li	a1,0
   16c30:	46a9                	li	a3,10
   16c32:	4e25                	li	t3,9
   16c34:	0ff00f93          	li	t6,255
   16c38:	b569                	j	16ac2 <_svfiprintf_r+0x924>
   16c3a:	8cbe                	mv	s9,a5
   16c3c:	4781                	li	a5,0
   16c3e:	86b2                	mv	a3,a2
   16c40:	e00784e3          	beqz	a5,16a48 <_svfiprintf_r+0x8aa>
   16c44:	b9a9                	j	1689e <_svfiprintf_r+0x700>
   16c46:	200cec93          	or	s9,s9,512
   16c4a:	001dc783          	lbu	a5,1(s11)
   16c4e:	2c81                	sext.w	s9,s9
   16c50:	0d85                	add	s11,s11,1
   16c52:	e0cff06f          	j	1625e <_svfiprintf_r+0xc0>
   16c56:	020cec93          	or	s9,s9,32
   16c5a:	001dc783          	lbu	a5,1(s11)
   16c5e:	2c81                	sext.w	s9,s9
   16c60:	0d85                	add	s11,s11,1
   16c62:	dfcff06f          	j	1625e <_svfiprintf_r+0xc0>
   16c66:	4799                	li	a5,6
   16c68:	000c031b          	sext.w	t1,s8
   16c6c:	0187f363          	bgeu	a5,s8,16c72 <_svfiprintf_r+0xad4>
   16c70:	4319                	li	t1,6
   16c72:	696d                	lui	s2,0x1b
   16c74:	8e1a                	mv	t3,t1
   16c76:	0c890913          	add	s2,s2,200 # 1b0c8 <__clzdi2+0xa6>
   16c7a:	e4cff06f          	j	162c6 <_svfiprintf_r+0x128>
   16c7e:	4701                	li	a4,0
   16c80:	b939                	j	1689e <_svfiprintf_r+0x700>
   16c82:	200cf693          	and	a3,s9,512
   16c86:	cea1                	beqz	a3,16cde <_svfiprintf_r+0xb40>
   16c88:	0ff77713          	zext.b	a4,a4
   16c8c:	b5cd                	j	16b6e <_svfiprintf_r+0x9d0>
   16c8e:	20037713          	and	a4,t1,512
   16c92:	c339                	beqz	a4,16cd8 <_svfiprintf_r+0xb3a>
   16c94:	0ff7f793          	zext.b	a5,a5
   16c98:	b2b1                	j	165e4 <_svfiprintf_r+0x446>
   16c9a:	2007f693          	and	a3,a5,512
   16c9e:	ca95                	beqz	a3,16cd2 <_svfiprintf_r+0xb34>
   16ca0:	0ff77713          	zext.b	a4,a4
   16ca4:	b8cd                	j	16596 <_svfiprintf_r+0x3f8>
   16ca6:	200cf713          	and	a4,s9,512
   16caa:	cf19                	beqz	a4,16cc8 <_svfiprintf_r+0xb2a>
   16cac:	0187979b          	sllw	a5,a5,0x18
   16cb0:	4187d79b          	sraw	a5,a5,0x18
   16cb4:	873e                	mv	a4,a5
   16cb6:	ee075a63          	bgez	a4,163aa <_svfiprintf_r+0x20c>
   16cba:	fc4ff06f          	j	1647e <_svfiprintf_r+0x2e0>
   16cbe:	01a71023          	sh	s10,0(a4)
   16cc2:	06a1                	add	a3,a3,8
   16cc4:	d3aff06f          	j	161fe <_svfiprintf_r+0x60>
   16cc8:	873e                	mv	a4,a5
   16cca:	ee075063          	bgez	a4,163aa <_svfiprintf_r+0x20c>
   16cce:	fb0ff06f          	j	1647e <_svfiprintf_r+0x2e0>
   16cd2:	1702                	sll	a4,a4,0x20
   16cd4:	9301                	srl	a4,a4,0x20
   16cd6:	b0c1                	j	16596 <_svfiprintf_r+0x3f8>
   16cd8:	1782                	sll	a5,a5,0x20
   16cda:	9381                	srl	a5,a5,0x20
   16cdc:	b221                	j	165e4 <_svfiprintf_r+0x446>
   16cde:	1702                	sll	a4,a4,0x20
   16ce0:	9301                	srl	a4,a4,0x20
   16ce2:	b571                	j	16b6e <_svfiprintf_r+0x9d0>
   16ce4:	8e62                	mv	t3,s8
   16ce6:	8362                	mv	t1,s8
   16ce8:	4c01                	li	s8,0
   16cea:	fd0ff06f          	j	164ba <_svfiprintf_r+0x31c>
   16cee:	86f6                	mv	a3,t4
   16cf0:	03000793          	li	a5,48
   16cf4:	fb2ff06f          	j	164a6 <_svfiprintf_r+0x308>
   16cf8:	01a72023          	sw	s10,0(a4)
   16cfc:	06a1                	add	a3,a3,8
   16cfe:	d00ff06f          	j	161fe <_svfiprintf_r+0x60>
   16d02:	47b1                	li	a5,12
   16d04:	00fb2023          	sw	a5,0(s6)
   16d08:	5cfd                	li	s9,-1
   16d0a:	f0aff06f          	j	16414 <_svfiprintf_r+0x276>
   16d0e:	429c                	lw	a5,0(a3)
   16d10:	06a1                	add	a3,a3,8
   16d12:	00078c1b          	sext.w	s8,a5
   16d16:	0007d363          	bgez	a5,16d1c <_svfiprintf_r+0xb7e>
   16d1a:	5c7d                	li	s8,-1
   16d1c:	001dc783          	lbu	a5,1(s11)
   16d20:	8dba                	mv	s11,a4
   16d22:	d3cff06f          	j	1625e <_svfiprintf_r+0xc0>

0000000000016d26 <_wctomb_r>:
   16d26:	d601b783          	ld	a5,-672(gp) # 1c848 <__global_locale+0xe0>
   16d2a:	8782                	jr	a5

0000000000016d2c <__ascii_wctomb>:
   16d2c:	0006079b          	sext.w	a5,a2
   16d30:	cd91                	beqz	a1,16d4c <__ascii_wctomb+0x20>
   16d32:	0ff00713          	li	a4,255
   16d36:	00f76663          	bltu	a4,a5,16d42 <__ascii_wctomb+0x16>
   16d3a:	00c58023          	sb	a2,0(a1)
   16d3e:	4505                	li	a0,1
   16d40:	8082                	ret
   16d42:	08a00793          	li	a5,138
   16d46:	c11c                	sw	a5,0(a0)
   16d48:	557d                	li	a0,-1
   16d4a:	8082                	ret
   16d4c:	4501                	li	a0,0
   16d4e:	8082                	ret

0000000000016d50 <__assert_func>:
   16d50:	7581b703          	ld	a4,1880(gp) # 1d240 <_impure_ptr>
   16d54:	1141                	add	sp,sp,-16
   16d56:	87b6                	mv	a5,a3
   16d58:	8832                	mv	a6,a2
   16d5a:	e406                	sd	ra,8(sp)
   16d5c:	01873883          	ld	a7,24(a4)
   16d60:	86aa                	mv	a3,a0
   16d62:	872e                	mv	a4,a1
   16d64:	863e                	mv	a2,a5
   16d66:	00080d63          	beqz	a6,16d80 <__assert_func+0x30>
   16d6a:	67f1                	lui	a5,0x1c
   16d6c:	96878793          	add	a5,a5,-1688 # 1b968 <blanks.1+0x10>
   16d70:	65f1                	lui	a1,0x1c
   16d72:	97858593          	add	a1,a1,-1672 # 1b978 <blanks.1+0x20>
   16d76:	8546                	mv	a0,a7
   16d78:	0fe000ef          	jal	16e76 <fiprintf>
   16d7c:	746010ef          	jal	184c2 <abort>
   16d80:	686d                	lui	a6,0x1b
   16d82:	0a880793          	add	a5,a6,168 # 1b0a8 <__clzdi2+0x86>
   16d86:	0a880813          	add	a6,a6,168
   16d8a:	b7dd                	j	16d70 <__assert_func+0x20>

0000000000016d8c <__assert>:
   16d8c:	1141                	add	sp,sp,-16
   16d8e:	86b2                	mv	a3,a2
   16d90:	4601                	li	a2,0
   16d92:	e406                	sd	ra,8(sp)
   16d94:	fbdff0ef          	jal	16d50 <__assert_func>

0000000000016d98 <atexit>:
   16d98:	85aa                	mv	a1,a0
   16d9a:	4681                	li	a3,0
   16d9c:	4601                	li	a2,0
   16d9e:	4501                	li	a0,0
   16da0:	7320106f          	j	184d2 <__register_exitproc>

0000000000016da4 <_calloc_r>:
   16da4:	02c5b7b3          	mulhu	a5,a1,a2
   16da8:	1141                	add	sp,sp,-16
   16daa:	e406                	sd	ra,8(sp)
   16dac:	e022                	sd	s0,0(sp)
   16dae:	02c585b3          	mul	a1,a1,a2
   16db2:	efb5                	bnez	a5,16e2e <_calloc_r+0x8a>
   16db4:	bf7fd0ef          	jal	149aa <_malloc_r>
   16db8:	842a                	mv	s0,a0
   16dba:	cd35                	beqz	a0,16e36 <_calloc_r+0x92>
   16dbc:	ff853603          	ld	a2,-8(a0)
   16dc0:	04800713          	li	a4,72
   16dc4:	9a71                	and	a2,a2,-4
   16dc6:	1661                	add	a2,a2,-8
   16dc8:	04c76263          	bltu	a4,a2,16e0c <_calloc_r+0x68>
   16dcc:	02700693          	li	a3,39
   16dd0:	87aa                	mv	a5,a0
   16dd2:	02c6f263          	bgeu	a3,a2,16df6 <_calloc_r+0x52>
   16dd6:	00053023          	sd	zero,0(a0)
   16dda:	00053423          	sd	zero,8(a0)
   16dde:	03700793          	li	a5,55
   16de2:	02c7fd63          	bgeu	a5,a2,16e1c <_calloc_r+0x78>
   16de6:	00053823          	sd	zero,16(a0)
   16dea:	00053c23          	sd	zero,24(a0)
   16dee:	02050793          	add	a5,a0,32
   16df2:	04e60863          	beq	a2,a4,16e42 <_calloc_r+0x9e>
   16df6:	0007b023          	sd	zero,0(a5)
   16dfa:	0007b423          	sd	zero,8(a5)
   16dfe:	0007b823          	sd	zero,16(a5)
   16e02:	60a2                	ld	ra,8(sp)
   16e04:	8522                	mv	a0,s0
   16e06:	6402                	ld	s0,0(sp)
   16e08:	0141                	add	sp,sp,16
   16e0a:	8082                	ret
   16e0c:	4581                	li	a1,0
   16e0e:	977f90ef          	jal	10784 <memset>
   16e12:	60a2                	ld	ra,8(sp)
   16e14:	8522                	mv	a0,s0
   16e16:	6402                	ld	s0,0(sp)
   16e18:	0141                	add	sp,sp,16
   16e1a:	8082                	ret
   16e1c:	01050793          	add	a5,a0,16
   16e20:	0007b023          	sd	zero,0(a5)
   16e24:	0007b423          	sd	zero,8(a5)
   16e28:	0007b823          	sd	zero,16(a5)
   16e2c:	bfd9                	j	16e02 <_calloc_r+0x5e>
   16e2e:	022000ef          	jal	16e50 <__errno>
   16e32:	47b1                	li	a5,12
   16e34:	c11c                	sw	a5,0(a0)
   16e36:	4401                	li	s0,0
   16e38:	60a2                	ld	ra,8(sp)
   16e3a:	8522                	mv	a0,s0
   16e3c:	6402                	ld	s0,0(sp)
   16e3e:	0141                	add	sp,sp,16
   16e40:	8082                	ret
   16e42:	02053023          	sd	zero,32(a0)
   16e46:	03050793          	add	a5,a0,48
   16e4a:	02053423          	sd	zero,40(a0)
   16e4e:	b765                	j	16df6 <_calloc_r+0x52>

0000000000016e50 <__errno>:
   16e50:	7581b503          	ld	a0,1880(gp) # 1d240 <_impure_ptr>
   16e54:	8082                	ret

0000000000016e56 <_fiprintf_r>:
   16e56:	715d                	add	sp,sp,-80
   16e58:	02810313          	add	t1,sp,40
   16e5c:	f436                	sd	a3,40(sp)
   16e5e:	869a                	mv	a3,t1
   16e60:	ec06                	sd	ra,24(sp)
   16e62:	f83a                	sd	a4,48(sp)
   16e64:	fc3e                	sd	a5,56(sp)
   16e66:	e0c2                	sd	a6,64(sp)
   16e68:	e4c6                	sd	a7,72(sp)
   16e6a:	e41a                	sd	t1,8(sp)
   16e6c:	005000ef          	jal	17670 <_vfiprintf_r>
   16e70:	60e2                	ld	ra,24(sp)
   16e72:	6161                	add	sp,sp,80
   16e74:	8082                	ret

0000000000016e76 <fiprintf>:
   16e76:	8e2a                	mv	t3,a0
   16e78:	715d                	add	sp,sp,-80
   16e7a:	7581b503          	ld	a0,1880(gp) # 1d240 <_impure_ptr>
   16e7e:	02010313          	add	t1,sp,32
   16e82:	f032                	sd	a2,32(sp)
   16e84:	f436                	sd	a3,40(sp)
   16e86:	862e                	mv	a2,a1
   16e88:	869a                	mv	a3,t1
   16e8a:	85f2                	mv	a1,t3
   16e8c:	ec06                	sd	ra,24(sp)
   16e8e:	f83a                	sd	a4,48(sp)
   16e90:	fc3e                	sd	a5,56(sp)
   16e92:	e0c2                	sd	a6,64(sp)
   16e94:	e4c6                	sd	a7,72(sp)
   16e96:	e41a                	sd	t1,8(sp)
   16e98:	7d8000ef          	jal	17670 <_vfiprintf_r>
   16e9c:	60e2                	ld	ra,24(sp)
   16e9e:	6161                	add	sp,sp,80
   16ea0:	8082                	ret

0000000000016ea2 <memcpy>:
   16ea2:	00b547b3          	xor	a5,a0,a1
   16ea6:	8b9d                	and	a5,a5,7
   16ea8:	00c508b3          	add	a7,a0,a2
   16eac:	e7b1                	bnez	a5,16ef8 <memcpy+0x56>
   16eae:	479d                	li	a5,7
   16eb0:	04c7f463          	bgeu	a5,a2,16ef8 <memcpy+0x56>
   16eb4:	00757793          	and	a5,a0,7
   16eb8:	872a                	mv	a4,a0
   16eba:	ebb9                	bnez	a5,16f10 <memcpy+0x6e>
   16ebc:	ff88f613          	and	a2,a7,-8
   16ec0:	40e606b3          	sub	a3,a2,a4
   16ec4:	04000793          	li	a5,64
   16ec8:	06d7c863          	blt	a5,a3,16f38 <memcpy+0x96>
   16ecc:	86ae                	mv	a3,a1
   16ece:	87ba                	mv	a5,a4
   16ed0:	02c77163          	bgeu	a4,a2,16ef2 <memcpy+0x50>
   16ed4:	0006b803          	ld	a6,0(a3)
   16ed8:	07a1                	add	a5,a5,8
   16eda:	06a1                	add	a3,a3,8
   16edc:	ff07bc23          	sd	a6,-8(a5)
   16ee0:	fec7eae3          	bltu	a5,a2,16ed4 <memcpy+0x32>
   16ee4:	fff60793          	add	a5,a2,-1
   16ee8:	8f99                	sub	a5,a5,a4
   16eea:	9be1                	and	a5,a5,-8
   16eec:	07a1                	add	a5,a5,8
   16eee:	973e                	add	a4,a4,a5
   16ef0:	95be                	add	a1,a1,a5
   16ef2:	01176663          	bltu	a4,a7,16efe <memcpy+0x5c>
   16ef6:	8082                	ret
   16ef8:	872a                	mv	a4,a0
   16efa:	03157e63          	bgeu	a0,a7,16f36 <memcpy+0x94>
   16efe:	0005c783          	lbu	a5,0(a1)
   16f02:	0705                	add	a4,a4,1
   16f04:	0585                	add	a1,a1,1
   16f06:	fef70fa3          	sb	a5,-1(a4)
   16f0a:	fee89ae3          	bne	a7,a4,16efe <memcpy+0x5c>
   16f0e:	8082                	ret
   16f10:	0005c683          	lbu	a3,0(a1)
   16f14:	0705                	add	a4,a4,1
   16f16:	00777793          	and	a5,a4,7
   16f1a:	fed70fa3          	sb	a3,-1(a4)
   16f1e:	0585                	add	a1,a1,1
   16f20:	dfd1                	beqz	a5,16ebc <memcpy+0x1a>
   16f22:	0005c683          	lbu	a3,0(a1)
   16f26:	0705                	add	a4,a4,1
   16f28:	00777793          	and	a5,a4,7
   16f2c:	fed70fa3          	sb	a3,-1(a4)
   16f30:	0585                	add	a1,a1,1
   16f32:	fff9                	bnez	a5,16f10 <memcpy+0x6e>
   16f34:	b761                	j	16ebc <memcpy+0x1a>
   16f36:	8082                	ret
   16f38:	1141                	add	sp,sp,-16
   16f3a:	e422                	sd	s0,8(sp)
   16f3c:	04000413          	li	s0,64
   16f40:	0005b383          	ld	t2,0(a1)
   16f44:	0085b283          	ld	t0,8(a1)
   16f48:	0105bf83          	ld	t6,16(a1)
   16f4c:	0185bf03          	ld	t5,24(a1)
   16f50:	0205be83          	ld	t4,32(a1)
   16f54:	0285be03          	ld	t3,40(a1)
   16f58:	0305b303          	ld	t1,48(a1)
   16f5c:	0385b803          	ld	a6,56(a1)
   16f60:	61b4                	ld	a3,64(a1)
   16f62:	04870713          	add	a4,a4,72
   16f66:	40e607b3          	sub	a5,a2,a4
   16f6a:	fa773c23          	sd	t2,-72(a4)
   16f6e:	fc573023          	sd	t0,-64(a4)
   16f72:	fdf73423          	sd	t6,-56(a4)
   16f76:	fde73823          	sd	t5,-48(a4)
   16f7a:	fdd73c23          	sd	t4,-40(a4)
   16f7e:	ffc73023          	sd	t3,-32(a4)
   16f82:	fe673423          	sd	t1,-24(a4)
   16f86:	ff073823          	sd	a6,-16(a4)
   16f8a:	fed73c23          	sd	a3,-8(a4)
   16f8e:	04858593          	add	a1,a1,72
   16f92:	faf447e3          	blt	s0,a5,16f40 <memcpy+0x9e>
   16f96:	86ae                	mv	a3,a1
   16f98:	87ba                	mv	a5,a4
   16f9a:	02c77163          	bgeu	a4,a2,16fbc <memcpy+0x11a>
   16f9e:	0006b803          	ld	a6,0(a3)
   16fa2:	07a1                	add	a5,a5,8
   16fa4:	06a1                	add	a3,a3,8
   16fa6:	ff07bc23          	sd	a6,-8(a5)
   16faa:	fec7eae3          	bltu	a5,a2,16f9e <memcpy+0xfc>
   16fae:	fff60793          	add	a5,a2,-1
   16fb2:	8f99                	sub	a5,a5,a4
   16fb4:	9be1                	and	a5,a5,-8
   16fb6:	07a1                	add	a5,a5,8
   16fb8:	973e                	add	a4,a4,a5
   16fba:	95be                	add	a1,a1,a5
   16fbc:	01176563          	bltu	a4,a7,16fc6 <memcpy+0x124>
   16fc0:	6422                	ld	s0,8(sp)
   16fc2:	0141                	add	sp,sp,16
   16fc4:	8082                	ret
   16fc6:	0005c783          	lbu	a5,0(a1)
   16fca:	0705                	add	a4,a4,1
   16fcc:	0585                	add	a1,a1,1
   16fce:	fef70fa3          	sb	a5,-1(a4)
   16fd2:	fee887e3          	beq	a7,a4,16fc0 <memcpy+0x11e>
   16fd6:	0005c783          	lbu	a5,0(a1)
   16fda:	0705                	add	a4,a4,1
   16fdc:	0585                	add	a1,a1,1
   16fde:	fef70fa3          	sb	a5,-1(a4)
   16fe2:	fee892e3          	bne	a7,a4,16fc6 <memcpy+0x124>
   16fe6:	bfe9                	j	16fc0 <memcpy+0x11e>

0000000000016fe8 <memmove>:
   16fe8:	02a5f263          	bgeu	a1,a0,1700c <memmove+0x24>
   16fec:	00c58733          	add	a4,a1,a2
   16ff0:	00e57e63          	bgeu	a0,a4,1700c <memmove+0x24>
   16ff4:	00c507b3          	add	a5,a0,a2
   16ff8:	ca1d                	beqz	a2,1702e <memmove+0x46>
   16ffa:	fff74683          	lbu	a3,-1(a4)
   16ffe:	17fd                	add	a5,a5,-1
   17000:	177d                	add	a4,a4,-1
   17002:	00d78023          	sb	a3,0(a5)
   17006:	fef51ae3          	bne	a0,a5,16ffa <memmove+0x12>
   1700a:	8082                	ret
   1700c:	47fd                	li	a5,31
   1700e:	02c7e163          	bltu	a5,a2,17030 <memmove+0x48>
   17012:	87aa                	mv	a5,a0
   17014:	fff60693          	add	a3,a2,-1
   17018:	c24d                	beqz	a2,170ba <memmove+0xd2>
   1701a:	0685                	add	a3,a3,1
   1701c:	96be                	add	a3,a3,a5
   1701e:	0005c703          	lbu	a4,0(a1)
   17022:	0785                	add	a5,a5,1
   17024:	0585                	add	a1,a1,1
   17026:	fee78fa3          	sb	a4,-1(a5)
   1702a:	fed79ae3          	bne	a5,a3,1701e <memmove+0x36>
   1702e:	8082                	ret
   17030:	00b567b3          	or	a5,a0,a1
   17034:	8b9d                	and	a5,a5,7
   17036:	efb5                	bnez	a5,170b2 <memmove+0xca>
   17038:	fe060893          	add	a7,a2,-32
   1703c:	fe08f893          	and	a7,a7,-32
   17040:	02088893          	add	a7,a7,32
   17044:	011507b3          	add	a5,a0,a7
   17048:	86ae                	mv	a3,a1
   1704a:	872a                	mv	a4,a0
   1704c:	0006b803          	ld	a6,0(a3)
   17050:	02068693          	add	a3,a3,32
   17054:	02070713          	add	a4,a4,32
   17058:	ff073023          	sd	a6,-32(a4)
   1705c:	fe86b803          	ld	a6,-24(a3)
   17060:	ff073423          	sd	a6,-24(a4)
   17064:	ff06b803          	ld	a6,-16(a3)
   17068:	ff073823          	sd	a6,-16(a4)
   1706c:	ff86b803          	ld	a6,-8(a3)
   17070:	ff073c23          	sd	a6,-8(a4)
   17074:	fcf71ce3          	bne	a4,a5,1704c <memmove+0x64>
   17078:	01867713          	and	a4,a2,24
   1707c:	95c6                	add	a1,a1,a7
   1707e:	01f67813          	and	a6,a2,31
   17082:	cf0d                	beqz	a4,170bc <memmove+0xd4>
   17084:	86ae                	mv	a3,a1
   17086:	873e                	mv	a4,a5
   17088:	01078eb3          	add	t4,a5,a6
   1708c:	4e1d                	li	t3,7
   1708e:	0006b303          	ld	t1,0(a3)
   17092:	0721                	add	a4,a4,8
   17094:	40ee88b3          	sub	a7,t4,a4
   17098:	fe673c23          	sd	t1,-8(a4)
   1709c:	06a1                	add	a3,a3,8
   1709e:	ff1e68e3          	bltu	t3,a7,1708e <memmove+0xa6>
   170a2:	ff880713          	add	a4,a6,-8
   170a6:	9b61                	and	a4,a4,-8
   170a8:	0721                	add	a4,a4,8
   170aa:	8a1d                	and	a2,a2,7
   170ac:	97ba                	add	a5,a5,a4
   170ae:	95ba                	add	a1,a1,a4
   170b0:	b795                	j	17014 <memmove+0x2c>
   170b2:	fff60693          	add	a3,a2,-1
   170b6:	87aa                	mv	a5,a0
   170b8:	b78d                	j	1701a <memmove+0x32>
   170ba:	8082                	ret
   170bc:	8642                	mv	a2,a6
   170be:	bf99                	j	17014 <memmove+0x2c>

00000000000170c0 <_realloc_r>:
   170c0:	715d                	add	sp,sp,-80
   170c2:	f84a                	sd	s2,48(sp)
   170c4:	e486                	sd	ra,72(sp)
   170c6:	e0a2                	sd	s0,64(sp)
   170c8:	fc26                	sd	s1,56(sp)
   170ca:	f44e                	sd	s3,40(sp)
   170cc:	f052                	sd	s4,32(sp)
   170ce:	ec56                	sd	s5,24(sp)
   170d0:	e85a                	sd	s6,16(sp)
   170d2:	e45e                	sd	s7,8(sp)
   170d4:	e062                	sd	s8,0(sp)
   170d6:	8932                	mv	s2,a2
   170d8:	14058863          	beqz	a1,17228 <_realloc_r+0x168>
   170dc:	842e                	mv	s0,a1
   170de:	89aa                	mv	s3,a0
   170e0:	f87fd0ef          	jal	15066 <__malloc_lock>
   170e4:	ff843783          	ld	a5,-8(s0)
   170e8:	01790493          	add	s1,s2,23
   170ec:	02e00713          	li	a4,46
   170f0:	ff040a93          	add	s5,s0,-16
   170f4:	ffc7fa13          	and	s4,a5,-4
   170f8:	0a977d63          	bgeu	a4,s1,171b2 <_realloc_r+0xf2>
   170fc:	80000737          	lui	a4,0x80000
   17100:	98c1                	and	s1,s1,-16
   17102:	fff74713          	not	a4,a4
   17106:	0a976a63          	bltu	a4,s1,171ba <_realloc_r+0xfa>
   1710a:	0b24e863          	bltu	s1,s2,171ba <_realloc_r+0xfa>
   1710e:	0c9a5063          	bge	s4,s1,171ce <_realloc_r+0x10e>
   17112:	6775                	lui	a4,0x1d
   17114:	91070c13          	add	s8,a4,-1776 # 1c910 <__malloc_av_>
   17118:	010c3603          	ld	a2,16(s8)
   1711c:	014a86b3          	add	a3,s5,s4
   17120:	6698                	ld	a4,8(a3)
   17122:	14d60263          	beq	a2,a3,17266 <_realloc_r+0x1a6>
   17126:	ffe77613          	and	a2,a4,-2
   1712a:	9636                	add	a2,a2,a3
   1712c:	6610                	ld	a2,8(a2)
   1712e:	8a05                	and	a2,a2,1
   17130:	e275                	bnez	a2,17214 <_realloc_r+0x154>
   17132:	9b71                	and	a4,a4,-4
   17134:	00ea0633          	add	a2,s4,a4
   17138:	08965663          	bge	a2,s1,171c4 <_realloc_r+0x104>
   1713c:	8b85                	and	a5,a5,1
   1713e:	e38d                	bnez	a5,17160 <_realloc_r+0xa0>
   17140:	ff043b83          	ld	s7,-16(s0)
   17144:	417a8bb3          	sub	s7,s5,s7
   17148:	008bb783          	ld	a5,8(s7)
   1714c:	9bf1                	and	a5,a5,-4
   1714e:	973e                	add	a4,a4,a5
   17150:	01470b33          	add	s6,a4,s4
   17154:	249b5163          	bge	s6,s1,17396 <_realloc_r+0x2d6>
   17158:	00fa0b33          	add	s6,s4,a5
   1715c:	1c9b5663          	bge	s6,s1,17328 <_realloc_r+0x268>
   17160:	85ca                	mv	a1,s2
   17162:	854e                	mv	a0,s3
   17164:	847fd0ef          	jal	149aa <_malloc_r>
   17168:	892a                	mv	s2,a0
   1716a:	2e050563          	beqz	a0,17454 <_realloc_r+0x394>
   1716e:	ff843783          	ld	a5,-8(s0)
   17172:	ff050713          	add	a4,a0,-16
   17176:	9bf9                	and	a5,a5,-2
   17178:	97d6                	add	a5,a5,s5
   1717a:	1ae78263          	beq	a5,a4,1731e <_realloc_r+0x25e>
   1717e:	ff8a0613          	add	a2,s4,-8
   17182:	04800793          	li	a5,72
   17186:	20c7e463          	bltu	a5,a2,1738e <_realloc_r+0x2ce>
   1718a:	02700713          	li	a4,39
   1718e:	16c76b63          	bltu	a4,a2,17304 <_realloc_r+0x244>
   17192:	87aa                	mv	a5,a0
   17194:	8722                	mv	a4,s0
   17196:	6314                	ld	a3,0(a4)
   17198:	e394                	sd	a3,0(a5)
   1719a:	6714                	ld	a3,8(a4)
   1719c:	e794                	sd	a3,8(a5)
   1719e:	6b18                	ld	a4,16(a4)
   171a0:	eb98                	sd	a4,16(a5)
   171a2:	854e                	mv	a0,s3
   171a4:	85a2                	mv	a1,s0
   171a6:	c04fb0ef          	jal	125aa <_free_r>
   171aa:	854e                	mv	a0,s3
   171ac:	ebdfd0ef          	jal	15068 <__malloc_unlock>
   171b0:	a0a9                	j	171fa <_realloc_r+0x13a>
   171b2:	02000493          	li	s1,32
   171b6:	f524fce3          	bgeu	s1,s2,1710e <_realloc_r+0x4e>
   171ba:	47b1                	li	a5,12
   171bc:	00f9a023          	sw	a5,0(s3)
   171c0:	4901                	li	s2,0
   171c2:	a825                	j	171fa <_realloc_r+0x13a>
   171c4:	6e9c                	ld	a5,24(a3)
   171c6:	6a98                	ld	a4,16(a3)
   171c8:	8a32                	mv	s4,a2
   171ca:	ef1c                	sd	a5,24(a4)
   171cc:	eb98                	sd	a4,16(a5)
   171ce:	008ab783          	ld	a5,8(s5)
   171d2:	409a06b3          	sub	a3,s4,s1
   171d6:	467d                	li	a2,31
   171d8:	8b85                	and	a5,a5,1
   171da:	014a8733          	add	a4,s5,s4
   171de:	06d66363          	bltu	a2,a3,17244 <_realloc_r+0x184>
   171e2:	0147e7b3          	or	a5,a5,s4
   171e6:	00fab423          	sd	a5,8(s5)
   171ea:	671c                	ld	a5,8(a4)
   171ec:	0017e793          	or	a5,a5,1
   171f0:	e71c                	sd	a5,8(a4)
   171f2:	854e                	mv	a0,s3
   171f4:	e75fd0ef          	jal	15068 <__malloc_unlock>
   171f8:	8922                	mv	s2,s0
   171fa:	60a6                	ld	ra,72(sp)
   171fc:	6406                	ld	s0,64(sp)
   171fe:	74e2                	ld	s1,56(sp)
   17200:	79a2                	ld	s3,40(sp)
   17202:	7a02                	ld	s4,32(sp)
   17204:	6ae2                	ld	s5,24(sp)
   17206:	6b42                	ld	s6,16(sp)
   17208:	6ba2                	ld	s7,8(sp)
   1720a:	6c02                	ld	s8,0(sp)
   1720c:	854a                	mv	a0,s2
   1720e:	7942                	ld	s2,48(sp)
   17210:	6161                	add	sp,sp,80
   17212:	8082                	ret
   17214:	8b85                	and	a5,a5,1
   17216:	f7a9                	bnez	a5,17160 <_realloc_r+0xa0>
   17218:	ff043b83          	ld	s7,-16(s0)
   1721c:	417a8bb3          	sub	s7,s5,s7
   17220:	008bb783          	ld	a5,8(s7)
   17224:	9bf1                	and	a5,a5,-4
   17226:	bf0d                	j	17158 <_realloc_r+0x98>
   17228:	6406                	ld	s0,64(sp)
   1722a:	60a6                	ld	ra,72(sp)
   1722c:	74e2                	ld	s1,56(sp)
   1722e:	7942                	ld	s2,48(sp)
   17230:	79a2                	ld	s3,40(sp)
   17232:	7a02                	ld	s4,32(sp)
   17234:	6ae2                	ld	s5,24(sp)
   17236:	6b42                	ld	s6,16(sp)
   17238:	6ba2                	ld	s7,8(sp)
   1723a:	6c02                	ld	s8,0(sp)
   1723c:	85b2                	mv	a1,a2
   1723e:	6161                	add	sp,sp,80
   17240:	f6afd06f          	j	149aa <_malloc_r>
   17244:	8fc5                	or	a5,a5,s1
   17246:	00fab423          	sd	a5,8(s5)
   1724a:	009a85b3          	add	a1,s5,s1
   1724e:	0016e693          	or	a3,a3,1
   17252:	e594                	sd	a3,8(a1)
   17254:	671c                	ld	a5,8(a4)
   17256:	05c1                	add	a1,a1,16
   17258:	854e                	mv	a0,s3
   1725a:	0017e793          	or	a5,a5,1
   1725e:	e71c                	sd	a5,8(a4)
   17260:	b4afb0ef          	jal	125aa <_free_r>
   17264:	b779                	j	171f2 <_realloc_r+0x132>
   17266:	9b71                	and	a4,a4,-4
   17268:	014706b3          	add	a3,a4,s4
   1726c:	02048613          	add	a2,s1,32
   17270:	1ac6da63          	bge	a3,a2,17424 <_realloc_r+0x364>
   17274:	8b85                	and	a5,a5,1
   17276:	ee0795e3          	bnez	a5,17160 <_realloc_r+0xa0>
   1727a:	ff043b83          	ld	s7,-16(s0)
   1727e:	417a8bb3          	sub	s7,s5,s7
   17282:	008bb783          	ld	a5,8(s7)
   17286:	9bf1                	and	a5,a5,-4
   17288:	973e                	add	a4,a4,a5
   1728a:	01470b33          	add	s6,a4,s4
   1728e:	eccb45e3          	blt	s6,a2,17158 <_realloc_r+0x98>
   17292:	018bb783          	ld	a5,24(s7)
   17296:	010bb703          	ld	a4,16(s7)
   1729a:	ff8a0613          	add	a2,s4,-8
   1729e:	04800693          	li	a3,72
   172a2:	ef1c                	sd	a5,24(a4)
   172a4:	eb98                	sd	a4,16(a5)
   172a6:	010b8913          	add	s2,s7,16
   172aa:	1cc6e363          	bltu	a3,a2,17470 <_realloc_r+0x3b0>
   172ae:	02700713          	li	a4,39
   172b2:	87ca                	mv	a5,s2
   172b4:	00c77f63          	bgeu	a4,a2,172d2 <_realloc_r+0x212>
   172b8:	6018                	ld	a4,0(s0)
   172ba:	03700793          	li	a5,55
   172be:	00ebb823          	sd	a4,16(s7)
   172c2:	6418                	ld	a4,8(s0)
   172c4:	00ebbc23          	sd	a4,24(s7)
   172c8:	1ac7e963          	bltu	a5,a2,1747a <_realloc_r+0x3ba>
   172cc:	0441                	add	s0,s0,16
   172ce:	020b8793          	add	a5,s7,32
   172d2:	6018                	ld	a4,0(s0)
   172d4:	e398                	sd	a4,0(a5)
   172d6:	6418                	ld	a4,8(s0)
   172d8:	e798                	sd	a4,8(a5)
   172da:	6818                	ld	a4,16(s0)
   172dc:	eb98                	sd	a4,16(a5)
   172de:	009b8733          	add	a4,s7,s1
   172e2:	409b07b3          	sub	a5,s6,s1
   172e6:	00ec3823          	sd	a4,16(s8)
   172ea:	0017e793          	or	a5,a5,1
   172ee:	e71c                	sd	a5,8(a4)
   172f0:	008bb783          	ld	a5,8(s7)
   172f4:	854e                	mv	a0,s3
   172f6:	8b85                	and	a5,a5,1
   172f8:	8fc5                	or	a5,a5,s1
   172fa:	00fbb423          	sd	a5,8(s7)
   172fe:	d6bfd0ef          	jal	15068 <__malloc_unlock>
   17302:	bde5                	j	171fa <_realloc_r+0x13a>
   17304:	6014                	ld	a3,0(s0)
   17306:	03700713          	li	a4,55
   1730a:	e114                	sd	a3,0(a0)
   1730c:	6414                	ld	a3,8(s0)
   1730e:	e514                	sd	a3,8(a0)
   17310:	0ec76f63          	bltu	a4,a2,1740e <_realloc_r+0x34e>
   17314:	01040713          	add	a4,s0,16
   17318:	01050793          	add	a5,a0,16
   1731c:	bdad                	j	17196 <_realloc_r+0xd6>
   1731e:	ff853783          	ld	a5,-8(a0)
   17322:	9bf1                	and	a5,a5,-4
   17324:	9a3e                	add	s4,s4,a5
   17326:	b565                	j	171ce <_realloc_r+0x10e>
   17328:	018bb783          	ld	a5,24(s7)
   1732c:	010bb703          	ld	a4,16(s7)
   17330:	ff8a0613          	add	a2,s4,-8
   17334:	04800693          	li	a3,72
   17338:	ef1c                	sd	a5,24(a4)
   1733a:	eb98                	sd	a4,16(a5)
   1733c:	010b8913          	add	s2,s7,16
   17340:	0cc6e263          	bltu	a3,a2,17404 <_realloc_r+0x344>
   17344:	02700713          	li	a4,39
   17348:	87ca                	mv	a5,s2
   1734a:	02c77863          	bgeu	a4,a2,1737a <_realloc_r+0x2ba>
   1734e:	6018                	ld	a4,0(s0)
   17350:	03700793          	li	a5,55
   17354:	00ebb823          	sd	a4,16(s7)
   17358:	6418                	ld	a4,8(s0)
   1735a:	00ebbc23          	sd	a4,24(s7)
   1735e:	0ec7f763          	bgeu	a5,a2,1744c <_realloc_r+0x38c>
   17362:	681c                	ld	a5,16(s0)
   17364:	02fbb023          	sd	a5,32(s7)
   17368:	6c1c                	ld	a5,24(s0)
   1736a:	02fbb423          	sd	a5,40(s7)
   1736e:	06d60f63          	beq	a2,a3,173ec <_realloc_r+0x32c>
   17372:	02040413          	add	s0,s0,32
   17376:	030b8793          	add	a5,s7,48
   1737a:	6018                	ld	a4,0(s0)
   1737c:	e398                	sd	a4,0(a5)
   1737e:	6418                	ld	a4,8(s0)
   17380:	e798                	sd	a4,8(a5)
   17382:	6818                	ld	a4,16(s0)
   17384:	eb98                	sd	a4,16(a5)
   17386:	844a                	mv	s0,s2
   17388:	8a5a                	mv	s4,s6
   1738a:	8ade                	mv	s5,s7
   1738c:	b589                	j	171ce <_realloc_r+0x10e>
   1738e:	85a2                	mv	a1,s0
   17390:	c59ff0ef          	jal	16fe8 <memmove>
   17394:	b539                	j	171a2 <_realloc_r+0xe2>
   17396:	6e9c                	ld	a5,24(a3)
   17398:	6a98                	ld	a4,16(a3)
   1739a:	ff8a0613          	add	a2,s4,-8
   1739e:	04800693          	li	a3,72
   173a2:	ef1c                	sd	a5,24(a4)
   173a4:	eb98                	sd	a4,16(a5)
   173a6:	010bb703          	ld	a4,16(s7)
   173aa:	018bb783          	ld	a5,24(s7)
   173ae:	010b8913          	add	s2,s7,16
   173b2:	ef1c                	sd	a5,24(a4)
   173b4:	eb98                	sd	a4,16(a5)
   173b6:	04c6e763          	bltu	a3,a2,17404 <_realloc_r+0x344>
   173ba:	02700713          	li	a4,39
   173be:	87ca                	mv	a5,s2
   173c0:	fac77de3          	bgeu	a4,a2,1737a <_realloc_r+0x2ba>
   173c4:	6018                	ld	a4,0(s0)
   173c6:	03700793          	li	a5,55
   173ca:	00ebb823          	sd	a4,16(s7)
   173ce:	6418                	ld	a4,8(s0)
   173d0:	00ebbc23          	sd	a4,24(s7)
   173d4:	06c7fc63          	bgeu	a5,a2,1744c <_realloc_r+0x38c>
   173d8:	6818                	ld	a4,16(s0)
   173da:	04800793          	li	a5,72
   173de:	02ebb023          	sd	a4,32(s7)
   173e2:	6c18                	ld	a4,24(s0)
   173e4:	02ebb423          	sd	a4,40(s7)
   173e8:	f8f615e3          	bne	a2,a5,17372 <_realloc_r+0x2b2>
   173ec:	7018                	ld	a4,32(s0)
   173ee:	040b8793          	add	a5,s7,64
   173f2:	03040413          	add	s0,s0,48
   173f6:	02ebb823          	sd	a4,48(s7)
   173fa:	ff843703          	ld	a4,-8(s0)
   173fe:	02ebbc23          	sd	a4,56(s7)
   17402:	bfa5                	j	1737a <_realloc_r+0x2ba>
   17404:	85a2                	mv	a1,s0
   17406:	854a                	mv	a0,s2
   17408:	be1ff0ef          	jal	16fe8 <memmove>
   1740c:	bfad                	j	17386 <_realloc_r+0x2c6>
   1740e:	6818                	ld	a4,16(s0)
   17410:	e918                	sd	a4,16(a0)
   17412:	6c18                	ld	a4,24(s0)
   17414:	ed18                	sd	a4,24(a0)
   17416:	04f60463          	beq	a2,a5,1745e <_realloc_r+0x39e>
   1741a:	02040713          	add	a4,s0,32
   1741e:	02050793          	add	a5,a0,32
   17422:	bb95                	j	17196 <_realloc_r+0xd6>
   17424:	9aa6                	add	s5,s5,s1
   17426:	409687b3          	sub	a5,a3,s1
   1742a:	015c3823          	sd	s5,16(s8)
   1742e:	0017e793          	or	a5,a5,1
   17432:	00fab423          	sd	a5,8(s5)
   17436:	ff843783          	ld	a5,-8(s0)
   1743a:	854e                	mv	a0,s3
   1743c:	8922                	mv	s2,s0
   1743e:	8b85                	and	a5,a5,1
   17440:	8fc5                	or	a5,a5,s1
   17442:	fef43c23          	sd	a5,-8(s0)
   17446:	c23fd0ef          	jal	15068 <__malloc_unlock>
   1744a:	bb45                	j	171fa <_realloc_r+0x13a>
   1744c:	0441                	add	s0,s0,16
   1744e:	020b8793          	add	a5,s7,32
   17452:	b725                	j	1737a <_realloc_r+0x2ba>
   17454:	854e                	mv	a0,s3
   17456:	c13fd0ef          	jal	15068 <__malloc_unlock>
   1745a:	4901                	li	s2,0
   1745c:	bb79                	j	171fa <_realloc_r+0x13a>
   1745e:	7014                	ld	a3,32(s0)
   17460:	03040713          	add	a4,s0,48
   17464:	03050793          	add	a5,a0,48
   17468:	f114                	sd	a3,32(a0)
   1746a:	7414                	ld	a3,40(s0)
   1746c:	f514                	sd	a3,40(a0)
   1746e:	b325                	j	17196 <_realloc_r+0xd6>
   17470:	85a2                	mv	a1,s0
   17472:	854a                	mv	a0,s2
   17474:	b75ff0ef          	jal	16fe8 <memmove>
   17478:	b59d                	j	172de <_realloc_r+0x21e>
   1747a:	681c                	ld	a5,16(s0)
   1747c:	02fbb023          	sd	a5,32(s7)
   17480:	6c1c                	ld	a5,24(s0)
   17482:	02fbb423          	sd	a5,40(s7)
   17486:	00d60763          	beq	a2,a3,17494 <_realloc_r+0x3d4>
   1748a:	02040413          	add	s0,s0,32
   1748e:	030b8793          	add	a5,s7,48
   17492:	b581                	j	172d2 <_realloc_r+0x212>
   17494:	7018                	ld	a4,32(s0)
   17496:	040b8793          	add	a5,s7,64
   1749a:	03040413          	add	s0,s0,48
   1749e:	02ebb823          	sd	a4,48(s7)
   174a2:	ff843703          	ld	a4,-8(s0)
   174a6:	02ebbc23          	sd	a4,56(s7)
   174aa:	b525                	j	172d2 <_realloc_r+0x212>

00000000000174ac <cleanup_glue>:
   174ac:	7179                	add	sp,sp,-48
   174ae:	e84a                	sd	s2,16(sp)
   174b0:	0005b903          	ld	s2,0(a1)
   174b4:	f022                	sd	s0,32(sp)
   174b6:	ec26                	sd	s1,24(sp)
   174b8:	f406                	sd	ra,40(sp)
   174ba:	e44e                	sd	s3,8(sp)
   174bc:	e052                	sd	s4,0(sp)
   174be:	842e                	mv	s0,a1
   174c0:	84aa                	mv	s1,a0
   174c2:	02090b63          	beqz	s2,174f8 <cleanup_glue+0x4c>
   174c6:	00093983          	ld	s3,0(s2)
   174ca:	02098363          	beqz	s3,174f0 <cleanup_glue+0x44>
   174ce:	0009ba03          	ld	s4,0(s3)
   174d2:	000a0b63          	beqz	s4,174e8 <cleanup_glue+0x3c>
   174d6:	000a3583          	ld	a1,0(s4)
   174da:	c199                	beqz	a1,174e0 <cleanup_glue+0x34>
   174dc:	fd1ff0ef          	jal	174ac <cleanup_glue>
   174e0:	85d2                	mv	a1,s4
   174e2:	8526                	mv	a0,s1
   174e4:	8c6fb0ef          	jal	125aa <_free_r>
   174e8:	85ce                	mv	a1,s3
   174ea:	8526                	mv	a0,s1
   174ec:	8befb0ef          	jal	125aa <_free_r>
   174f0:	85ca                	mv	a1,s2
   174f2:	8526                	mv	a0,s1
   174f4:	8b6fb0ef          	jal	125aa <_free_r>
   174f8:	85a2                	mv	a1,s0
   174fa:	7402                	ld	s0,32(sp)
   174fc:	70a2                	ld	ra,40(sp)
   174fe:	6942                	ld	s2,16(sp)
   17500:	69a2                	ld	s3,8(sp)
   17502:	6a02                	ld	s4,0(sp)
   17504:	8526                	mv	a0,s1
   17506:	64e2                	ld	s1,24(sp)
   17508:	6145                	add	sp,sp,48
   1750a:	8a0fb06f          	j	125aa <_free_r>

000000000001750e <_reclaim_reent>:
   1750e:	7581b783          	ld	a5,1880(gp) # 1d240 <_impure_ptr>
   17512:	0aa78563          	beq	a5,a0,175bc <_reclaim_reent+0xae>
   17516:	7d2c                	ld	a1,120(a0)
   17518:	7179                	add	sp,sp,-48
   1751a:	ec26                	sd	s1,24(sp)
   1751c:	f406                	sd	ra,40(sp)
   1751e:	f022                	sd	s0,32(sp)
   17520:	e84a                	sd	s2,16(sp)
   17522:	e44e                	sd	s3,8(sp)
   17524:	84aa                	mv	s1,a0
   17526:	c58d                	beqz	a1,17550 <_reclaim_reent+0x42>
   17528:	4901                	li	s2,0
   1752a:	20000993          	li	s3,512
   1752e:	012587b3          	add	a5,a1,s2
   17532:	6380                	ld	s0,0(a5)
   17534:	c801                	beqz	s0,17544 <_reclaim_reent+0x36>
   17536:	85a2                	mv	a1,s0
   17538:	6000                	ld	s0,0(s0)
   1753a:	8526                	mv	a0,s1
   1753c:	86efb0ef          	jal	125aa <_free_r>
   17540:	f87d                	bnez	s0,17536 <_reclaim_reent+0x28>
   17542:	7cac                	ld	a1,120(s1)
   17544:	0921                	add	s2,s2,8
   17546:	ff3914e3          	bne	s2,s3,1752e <_reclaim_reent+0x20>
   1754a:	8526                	mv	a0,s1
   1754c:	85efb0ef          	jal	125aa <_free_r>
   17550:	70ac                	ld	a1,96(s1)
   17552:	c581                	beqz	a1,1755a <_reclaim_reent+0x4c>
   17554:	8526                	mv	a0,s1
   17556:	854fb0ef          	jal	125aa <_free_r>
   1755a:	1f84b403          	ld	s0,504(s1)
   1755e:	cc01                	beqz	s0,17576 <_reclaim_reent+0x68>
   17560:	20048913          	add	s2,s1,512
   17564:	01240963          	beq	s0,s2,17576 <_reclaim_reent+0x68>
   17568:	85a2                	mv	a1,s0
   1756a:	6000                	ld	s0,0(s0)
   1756c:	8526                	mv	a0,s1
   1756e:	83cfb0ef          	jal	125aa <_free_r>
   17572:	fe891be3          	bne	s2,s0,17568 <_reclaim_reent+0x5a>
   17576:	64cc                	ld	a1,136(s1)
   17578:	c581                	beqz	a1,17580 <_reclaim_reent+0x72>
   1757a:	8526                	mv	a0,s1
   1757c:	82efb0ef          	jal	125aa <_free_r>
   17580:	48bc                	lw	a5,80(s1)
   17582:	c795                	beqz	a5,175ae <_reclaim_reent+0xa0>
   17584:	6cbc                	ld	a5,88(s1)
   17586:	8526                	mv	a0,s1
   17588:	9782                	jalr	a5
   1758a:	5204b403          	ld	s0,1312(s1)
   1758e:	c005                	beqz	s0,175ae <_reclaim_reent+0xa0>
   17590:	600c                	ld	a1,0(s0)
   17592:	c581                	beqz	a1,1759a <_reclaim_reent+0x8c>
   17594:	8526                	mv	a0,s1
   17596:	f17ff0ef          	jal	174ac <cleanup_glue>
   1759a:	85a2                	mv	a1,s0
   1759c:	7402                	ld	s0,32(sp)
   1759e:	70a2                	ld	ra,40(sp)
   175a0:	6942                	ld	s2,16(sp)
   175a2:	69a2                	ld	s3,8(sp)
   175a4:	8526                	mv	a0,s1
   175a6:	64e2                	ld	s1,24(sp)
   175a8:	6145                	add	sp,sp,48
   175aa:	800fb06f          	j	125aa <_free_r>
   175ae:	70a2                	ld	ra,40(sp)
   175b0:	7402                	ld	s0,32(sp)
   175b2:	64e2                	ld	s1,24(sp)
   175b4:	6942                	ld	s2,16(sp)
   175b6:	69a2                	ld	s3,8(sp)
   175b8:	6145                	add	sp,sp,48
   175ba:	8082                	ret
   175bc:	8082                	ret

00000000000175be <__sprint_r.part.0>:
   175be:	0ac5a783          	lw	a5,172(a1)
   175c2:	715d                	add	sp,sp,-80
   175c4:	ec56                	sd	s5,24(sp)
   175c6:	83b5                	srl	a5,a5,0xd
   175c8:	e486                	sd	ra,72(sp)
   175ca:	e0a2                	sd	s0,64(sp)
   175cc:	fc26                	sd	s1,56(sp)
   175ce:	f84a                	sd	s2,48(sp)
   175d0:	f44e                	sd	s3,40(sp)
   175d2:	f052                	sd	s4,32(sp)
   175d4:	e85a                	sd	s6,16(sp)
   175d6:	e45e                	sd	s7,8(sp)
   175d8:	8b85                	and	a5,a5,1
   175da:	8ab2                	mv	s5,a2
   175dc:	c3c1                	beqz	a5,1765c <__sprint_r.part.0+0x9e>
   175de:	6a1c                	ld	a5,16(a2)
   175e0:	00063b03          	ld	s6,0(a2)
   175e4:	892e                	mv	s2,a1
   175e6:	89aa                	mv	s3,a0
   175e8:	5a7d                	li	s4,-1
   175ea:	c7bd                	beqz	a5,17658 <__sprint_r.part.0+0x9a>
   175ec:	008b3483          	ld	s1,8(s6)
   175f0:	000b3403          	ld	s0,0(s6)
   175f4:	8089                	srl	s1,s1,0x2
   175f6:	00048b9b          	sext.w	s7,s1
   175fa:	05705863          	blez	s7,1764a <__sprint_r.part.0+0x8c>
   175fe:	34fd                	addw	s1,s1,-1
   17600:	02049793          	sll	a5,s1,0x20
   17604:	01e7d493          	srl	s1,a5,0x1e
   17608:	00440793          	add	a5,s0,4
   1760c:	94be                	add	s1,s1,a5
   1760e:	a019                	j	17614 <__sprint_r.part.0+0x56>
   17610:	02848b63          	beq	s1,s0,17646 <__sprint_r.part.0+0x88>
   17614:	400c                	lw	a1,0(s0)
   17616:	864a                	mv	a2,s2
   17618:	854e                	mv	a0,s3
   1761a:	456010ef          	jal	18a70 <_fputwc_r>
   1761e:	2501                	sext.w	a0,a0
   17620:	0411                	add	s0,s0,4
   17622:	ff4517e3          	bne	a0,s4,17610 <__sprint_r.part.0+0x52>
   17626:	557d                	li	a0,-1
   17628:	60a6                	ld	ra,72(sp)
   1762a:	6406                	ld	s0,64(sp)
   1762c:	000ab823          	sd	zero,16(s5)
   17630:	000aa423          	sw	zero,8(s5)
   17634:	74e2                	ld	s1,56(sp)
   17636:	7942                	ld	s2,48(sp)
   17638:	79a2                	ld	s3,40(sp)
   1763a:	7a02                	ld	s4,32(sp)
   1763c:	6ae2                	ld	s5,24(sp)
   1763e:	6b42                	ld	s6,16(sp)
   17640:	6ba2                	ld	s7,8(sp)
   17642:	6161                	add	sp,sp,80
   17644:	8082                	ret
   17646:	010ab783          	ld	a5,16(s5)
   1764a:	0b8a                	sll	s7,s7,0x2
   1764c:	417787b3          	sub	a5,a5,s7
   17650:	00fab823          	sd	a5,16(s5)
   17654:	0b41                	add	s6,s6,16
   17656:	fbd9                	bnez	a5,175ec <__sprint_r.part.0+0x2e>
   17658:	4501                	li	a0,0
   1765a:	b7f9                	j	17628 <__sprint_r.part.0+0x6a>
   1765c:	486010ef          	jal	18ae2 <__sfvwrite_r>
   17660:	b7e1                	j	17628 <__sprint_r.part.0+0x6a>

0000000000017662 <__sprint_r>:
   17662:	6a18                	ld	a4,16(a2)
   17664:	c311                	beqz	a4,17668 <__sprint_r+0x6>
   17666:	bfa1                	j	175be <__sprint_r.part.0>
   17668:	00062423          	sw	zero,8(a2)
   1766c:	4501                	li	a0,0
   1766e:	8082                	ret

0000000000017670 <_vfiprintf_r>:
   17670:	7105                	add	sp,sp,-480
   17672:	fb52                	sd	s4,432(sp)
   17674:	f756                	sd	s5,424(sp)
   17676:	ef5e                	sd	s7,408(sp)
   17678:	feee                	sd	s11,376(sp)
   1767a:	ef86                	sd	ra,472(sp)
   1767c:	eba2                	sd	s0,464(sp)
   1767e:	e7a6                	sd	s1,456(sp)
   17680:	e3ca                	sd	s2,448(sp)
   17682:	ff4e                	sd	s3,440(sp)
   17684:	f35a                	sd	s6,416(sp)
   17686:	eb62                	sd	s8,400(sp)
   17688:	e766                	sd	s9,392(sp)
   1768a:	e36a                	sd	s10,384(sp)
   1768c:	8aaa                	mv	s5,a0
   1768e:	8a2e                	mv	s4,a1
   17690:	8db2                	mv	s11,a2
   17692:	8bb6                	mv	s7,a3
   17694:	c501                	beqz	a0,1769c <_vfiprintf_r+0x2c>
   17696:	493c                	lw	a5,80(a0)
   17698:	38078863          	beqz	a5,17a28 <_vfiprintf_r+0x3b8>
   1769c:	010a1783          	lh	a5,16(s4)
   176a0:	03279713          	sll	a4,a5,0x32
   176a4:	02074163          	bltz	a4,176c6 <_vfiprintf_r+0x56>
   176a8:	0aca2703          	lw	a4,172(s4)
   176ac:	6689                	lui	a3,0x2
   176ae:	8fd5                	or	a5,a5,a3
   176b0:	76f9                	lui	a3,0xffffe
   176b2:	0107979b          	sllw	a5,a5,0x10
   176b6:	16fd                	add	a3,a3,-1 # ffffffffffffdfff <__BSS_END__+0xfffffffffffe0d17>
   176b8:	4107d79b          	sraw	a5,a5,0x10
   176bc:	8f75                	and	a4,a4,a3
   176be:	00fa1823          	sh	a5,16(s4)
   176c2:	0aea2623          	sw	a4,172(s4)
   176c6:	0087f713          	and	a4,a5,8
   176ca:	c779                	beqz	a4,17798 <_vfiprintf_r+0x128>
   176cc:	018a3703          	ld	a4,24(s4)
   176d0:	c761                	beqz	a4,17798 <_vfiprintf_r+0x128>
   176d2:	8be9                	and	a5,a5,26
   176d4:	4729                	li	a4,10
   176d6:	0ce78d63          	beq	a5,a4,177b0 <_vfiprintf_r+0x140>
   176da:	6d71                	lui	s10,0x1c
   176dc:	0f010993          	add	s3,sp,240
   176e0:	4c01                	li	s8,0
   176e2:	aacd0793          	add	a5,s10,-1364 # 1baac <_ctype_+0x104>
   176e6:	6b71                	lui	s6,0x1c
   176e8:	8ce2                	mv	s9,s8
   176ea:	f8ce                	sd	s3,112(sp)
   176ec:	e102                	sd	zero,128(sp)
   176ee:	dc82                	sw	zero,120(sp)
   176f0:	844e                	mv	s0,s3
   176f2:	e802                	sd	zero,16(sp)
   176f4:	fc02                	sd	zero,56(sp)
   176f6:	f802                	sd	zero,48(sp)
   176f8:	e082                	sd	zero,64(sp)
   176fa:	e43e                	sd	a5,8(sp)
   176fc:	4941                	li	s2,16
   176fe:	c18b0b13          	add	s6,s6,-1000 # 1bc18 <zeroes.0>
   17702:	8c5e                	mv	s8,s7
   17704:	000dc783          	lbu	a5,0(s11)
   17708:	24078963          	beqz	a5,1795a <_vfiprintf_r+0x2ea>
   1770c:	84ee                	mv	s1,s11
   1770e:	02500713          	li	a4,37
   17712:	2ae78063          	beq	a5,a4,179b2 <_vfiprintf_r+0x342>
   17716:	0014c783          	lbu	a5,1(s1)
   1771a:	0485                	add	s1,s1,1
   1771c:	fbfd                	bnez	a5,17712 <_vfiprintf_r+0xa2>
   1771e:	41b48bbb          	subw	s7,s1,s11
   17722:	220b8c63          	beqz	s7,1795a <_vfiprintf_r+0x2ea>
   17726:	57e6                	lw	a5,120(sp)
   17728:	670a                	ld	a4,128(sp)
   1772a:	01b43023          	sd	s11,0(s0)
   1772e:	0017869b          	addw	a3,a5,1
   17732:	975e                	add	a4,a4,s7
   17734:	01743423          	sd	s7,8(s0)
   17738:	e13a                	sd	a4,128(sp)
   1773a:	dcb6                	sw	a3,120(sp)
   1773c:	479d                	li	a5,7
   1773e:	0441                	add	s0,s0,16
   17740:	00d7db63          	bge	a5,a3,17756 <_vfiprintf_r+0xe6>
   17744:	0e070be3          	beqz	a4,1803a <_vfiprintf_r+0x9ca>
   17748:	1890                	add	a2,sp,112
   1774a:	85d2                	mv	a1,s4
   1774c:	8556                	mv	a0,s5
   1774e:	e71ff0ef          	jal	175be <__sprint_r.part.0>
   17752:	ed51                	bnez	a0,177ee <_vfiprintf_r+0x17e>
   17754:	844e                	mv	s0,s3
   17756:	0004c783          	lbu	a5,0(s1)
   1775a:	017c8cbb          	addw	s9,s9,s7
   1775e:	1e078e63          	beqz	a5,1795a <_vfiprintf_r+0x2ea>
   17762:	0014c783          	lbu	a5,1(s1)
   17766:	00148d93          	add	s11,s1,1
   1776a:	060103a3          	sb	zero,103(sp)
   1776e:	5d7d                	li	s10,-1
   17770:	4881                	li	a7,0
   17772:	4b81                	li	s7,0
   17774:	05a00493          	li	s1,90
   17778:	0d85                	add	s11,s11,1
   1777a:	2781                	sext.w	a5,a5
   1777c:	fe07871b          	addw	a4,a5,-32
   17780:	0007069b          	sext.w	a3,a4
   17784:	0cd4e763          	bltu	s1,a3,17852 <_vfiprintf_r+0x1e2>
   17788:	02071693          	sll	a3,a4,0x20
   1778c:	01e6d713          	srl	a4,a3,0x1e
   17790:	66a2                	ld	a3,8(sp)
   17792:	9736                	add	a4,a4,a3
   17794:	4318                	lw	a4,0(a4)
   17796:	8702                	jr	a4
   17798:	85d2                	mv	a1,s4
   1779a:	8556                	mv	a0,s5
   1779c:	44b000ef          	jal	183e6 <__swsetup_r>
   177a0:	360518e3          	bnez	a0,18310 <_vfiprintf_r+0xca0>
   177a4:	010a1783          	lh	a5,16(s4)
   177a8:	4729                	li	a4,10
   177aa:	8be9                	and	a5,a5,26
   177ac:	f2e797e3          	bne	a5,a4,176da <_vfiprintf_r+0x6a>
   177b0:	012a1783          	lh	a5,18(s4)
   177b4:	f207c3e3          	bltz	a5,176da <_vfiprintf_r+0x6a>
   177b8:	645e                	ld	s0,464(sp)
   177ba:	60fe                	ld	ra,472(sp)
   177bc:	64be                	ld	s1,456(sp)
   177be:	691e                	ld	s2,448(sp)
   177c0:	79fa                	ld	s3,440(sp)
   177c2:	7b1a                	ld	s6,416(sp)
   177c4:	6c5a                	ld	s8,400(sp)
   177c6:	6cba                	ld	s9,392(sp)
   177c8:	6d1a                	ld	s10,384(sp)
   177ca:	86de                	mv	a3,s7
   177cc:	866e                	mv	a2,s11
   177ce:	6bfa                	ld	s7,408(sp)
   177d0:	7df6                	ld	s11,376(sp)
   177d2:	85d2                	mv	a1,s4
   177d4:	8556                	mv	a0,s5
   177d6:	7a5a                	ld	s4,432(sp)
   177d8:	7aba                	ld	s5,424(sp)
   177da:	613d                	add	sp,sp,480
   177dc:	36f0006f          	j	1834a <__sbprintf>
   177e0:	1890                	add	a2,sp,112
   177e2:	85d2                	mv	a1,s4
   177e4:	8556                	mv	a0,s5
   177e6:	dd9ff0ef          	jal	175be <__sprint_r.part.0>
   177ea:	16050263          	beqz	a0,1794e <_vfiprintf_r+0x2de>
   177ee:	8c66                	mv	s8,s9
   177f0:	010a5783          	lhu	a5,16(s4)
   177f4:	0407f793          	and	a5,a5,64
   177f8:	30079ce3          	bnez	a5,18310 <_vfiprintf_r+0xca0>
   177fc:	60fe                	ld	ra,472(sp)
   177fe:	645e                	ld	s0,464(sp)
   17800:	64be                	ld	s1,456(sp)
   17802:	691e                	ld	s2,448(sp)
   17804:	79fa                	ld	s3,440(sp)
   17806:	7a5a                	ld	s4,432(sp)
   17808:	7aba                	ld	s5,424(sp)
   1780a:	7b1a                	ld	s6,416(sp)
   1780c:	6bfa                	ld	s7,408(sp)
   1780e:	6cba                	ld	s9,392(sp)
   17810:	6d1a                	ld	s10,384(sp)
   17812:	7df6                	ld	s11,376(sp)
   17814:	8562                	mv	a0,s8
   17816:	6c5a                	ld	s8,400(sp)
   17818:	613d                	add	sp,sp,480
   1781a:	8082                	ret
   1781c:	4881                	li	a7,0
   1781e:	4625                	li	a2,9
   17820:	000dc683          	lbu	a3,0(s11)
   17824:	0028971b          	sllw	a4,a7,0x2
   17828:	011708bb          	addw	a7,a4,a7
   1782c:	fd07879b          	addw	a5,a5,-48
   17830:	0018989b          	sllw	a7,a7,0x1
   17834:	fd06871b          	addw	a4,a3,-48
   17838:	011788bb          	addw	a7,a5,a7
   1783c:	0d85                	add	s11,s11,1
   1783e:	0006879b          	sext.w	a5,a3
   17842:	fce67fe3          	bgeu	a2,a4,17820 <_vfiprintf_r+0x1b0>
   17846:	fe07871b          	addw	a4,a5,-32
   1784a:	0007069b          	sext.w	a3,a4
   1784e:	f2d4fde3          	bgeu	s1,a3,17788 <_vfiprintf_r+0x118>
   17852:	10078463          	beqz	a5,1795a <_vfiprintf_r+0x2ea>
   17856:	08f10423          	sb	a5,136(sp)
   1785a:	060103a3          	sb	zero,103(sp)
   1785e:	4e05                	li	t3,1
   17860:	4305                	li	t1,1
   17862:	0124                	add	s1,sp,136
   17864:	4d01                	li	s10,0
   17866:	002bff93          	and	t6,s7,2
   1786a:	000f8363          	beqz	t6,17870 <_vfiprintf_r+0x200>
   1786e:	2e09                	addw	t3,t3,2
   17870:	5766                	lw	a4,120(sp)
   17872:	084bf293          	and	t0,s7,132
   17876:	678a                	ld	a5,128(sp)
   17878:	0017059b          	addw	a1,a4,1
   1787c:	862e                	mv	a2,a1
   1787e:	00029663          	bnez	t0,1788a <_vfiprintf_r+0x21a>
   17882:	41c886bb          	subw	a3,a7,t3
   17886:	62d04363          	bgtz	a3,17eac <_vfiprintf_r+0x83c>
   1788a:	06714683          	lbu	a3,103(sp)
   1788e:	ce99                	beqz	a3,178ac <_vfiprintf_r+0x23c>
   17890:	06710713          	add	a4,sp,103
   17894:	0785                	add	a5,a5,1
   17896:	e018                	sd	a4,0(s0)
   17898:	4705                	li	a4,1
   1789a:	e418                	sd	a4,8(s0)
   1789c:	e13e                	sd	a5,128(sp)
   1789e:	dcae                	sw	a1,120(sp)
   178a0:	471d                	li	a4,7
   178a2:	58b74663          	blt	a4,a1,17e2e <_vfiprintf_r+0x7be>
   178a6:	872e                	mv	a4,a1
   178a8:	0441                	add	s0,s0,16
   178aa:	2585                	addw	a1,a1,1
   178ac:	040f8163          	beqz	t6,178ee <_vfiprintf_r+0x27e>
   178b0:	10b8                	add	a4,sp,104
   178b2:	0789                	add	a5,a5,2
   178b4:	e018                	sd	a4,0(s0)
   178b6:	4709                	li	a4,2
   178b8:	e418                	sd	a4,8(s0)
   178ba:	e13e                	sd	a5,128(sp)
   178bc:	dcae                	sw	a1,120(sp)
   178be:	471d                	li	a4,7
   178c0:	5ab75763          	bge	a4,a1,17e6e <_vfiprintf_r+0x7fe>
   178c4:	76078f63          	beqz	a5,18042 <_vfiprintf_r+0x9d2>
   178c8:	1890                	add	a2,sp,112
   178ca:	85d2                	mv	a1,s4
   178cc:	8556                	mv	a0,s5
   178ce:	e49a                	sd	t1,72(sp)
   178d0:	f472                	sd	t3,40(sp)
   178d2:	f046                	sd	a7,32(sp)
   178d4:	ec16                	sd	t0,24(sp)
   178d6:	ce9ff0ef          	jal	175be <__sprint_r.part.0>
   178da:	f911                	bnez	a0,177ee <_vfiprintf_r+0x17e>
   178dc:	5766                	lw	a4,120(sp)
   178de:	678a                	ld	a5,128(sp)
   178e0:	6326                	ld	t1,72(sp)
   178e2:	7e22                	ld	t3,40(sp)
   178e4:	7882                	ld	a7,32(sp)
   178e6:	62e2                	ld	t0,24(sp)
   178e8:	844e                	mv	s0,s3
   178ea:	0017059b          	addw	a1,a4,1
   178ee:	08000693          	li	a3,128
   178f2:	3ed28263          	beq	t0,a3,17cd6 <_vfiprintf_r+0x666>
   178f6:	406d0d3b          	subw	s10,s10,t1
   178fa:	49a04f63          	bgtz	s10,17d98 <_vfiprintf_r+0x728>
   178fe:	979a                	add	a5,a5,t1
   17900:	e004                	sd	s1,0(s0)
   17902:	00643423          	sd	t1,8(s0)
   17906:	e13e                	sd	a5,128(sp)
   17908:	dcae                	sw	a1,120(sp)
   1790a:	471d                	li	a4,7
   1790c:	3cb75363          	bge	a4,a1,17cd2 <_vfiprintf_r+0x662>
   17910:	64078063          	beqz	a5,17f50 <_vfiprintf_r+0x8e0>
   17914:	1890                	add	a2,sp,112
   17916:	85d2                	mv	a1,s4
   17918:	8556                	mv	a0,s5
   1791a:	f072                	sd	t3,32(sp)
   1791c:	ec46                	sd	a7,24(sp)
   1791e:	ca1ff0ef          	jal	175be <__sprint_r.part.0>
   17922:	ec0516e3          	bnez	a0,177ee <_vfiprintf_r+0x17e>
   17926:	678a                	ld	a5,128(sp)
   17928:	7e02                	ld	t3,32(sp)
   1792a:	68e2                	ld	a7,24(sp)
   1792c:	844e                	mv	s0,s3
   1792e:	004bfb93          	and	s7,s7,4
   17932:	000b8663          	beqz	s7,1793e <_vfiprintf_r+0x2ce>
   17936:	41c884bb          	subw	s1,a7,t3
   1793a:	62904563          	bgtz	s1,17f64 <_vfiprintf_r+0x8f4>
   1793e:	8746                	mv	a4,a7
   17940:	01c8d363          	bge	a7,t3,17946 <_vfiprintf_r+0x2d6>
   17944:	8772                	mv	a4,t3
   17946:	01970cbb          	addw	s9,a4,s9
   1794a:	e8079be3          	bnez	a5,177e0 <_vfiprintf_r+0x170>
   1794e:	000dc783          	lbu	a5,0(s11)
   17952:	dc82                	sw	zero,120(sp)
   17954:	844e                	mv	s0,s3
   17956:	da079be3          	bnez	a5,1770c <_vfiprintf_r+0x9c>
   1795a:	678a                	ld	a5,128(sp)
   1795c:	8c66                	mv	s8,s9
   1795e:	e80789e3          	beqz	a5,177f0 <_vfiprintf_r+0x180>
   17962:	1890                	add	a2,sp,112
   17964:	85d2                	mv	a1,s4
   17966:	8556                	mv	a0,s5
   17968:	c57ff0ef          	jal	175be <__sprint_r.part.0>
   1796c:	b551                	j	177f0 <_vfiprintf_r+0x180>
   1796e:	010beb93          	or	s7,s7,16
   17972:	000dc783          	lbu	a5,0(s11)
   17976:	2b81                	sext.w	s7,s7
   17978:	b501                	j	17778 <_vfiprintf_r+0x108>
   1797a:	010beb93          	or	s7,s7,16
   1797e:	2b81                	sext.w	s7,s7
   17980:	020bf793          	and	a5,s7,32
   17984:	008c0e93          	add	t4,s8,8
   17988:	cf85                	beqz	a5,179c0 <_vfiprintf_r+0x350>
   1798a:	000c3783          	ld	a5,0(s8)
   1798e:	8c3e                	mv	s8,a5
   17990:	0407c863          	bltz	a5,179e0 <_vfiprintf_r+0x370>
   17994:	57fd                	li	a5,-1
   17996:	06fd0163          	beq	s10,a5,179f8 <_vfiprintf_r+0x388>
   1799a:	f7fbfb93          	and	s7,s7,-129
   1799e:	2b81                	sext.w	s7,s7
   179a0:	040c1c63          	bnez	s8,179f8 <_vfiprintf_r+0x388>
   179a4:	140d16e3          	bnez	s10,182f0 <_vfiprintf_r+0xc80>
   179a8:	4e01                	li	t3,0
   179aa:	4301                	li	t1,0
   179ac:	8c76                	mv	s8,t4
   179ae:	11e4                	add	s1,sp,236
   179b0:	a0b5                	j	17a1c <_vfiprintf_r+0x3ac>
   179b2:	41b48bbb          	subw	s7,s1,s11
   179b6:	d60b98e3          	bnez	s7,17726 <_vfiprintf_r+0xb6>
   179ba:	0004c783          	lbu	a5,0(s1)
   179be:	b345                	j	1775e <_vfiprintf_r+0xee>
   179c0:	010bf793          	and	a5,s7,16
   179c4:	f3f9                	bnez	a5,1798a <_vfiprintf_r+0x31a>
   179c6:	040bf793          	and	a5,s7,64
   179ca:	000c2c03          	lw	s8,0(s8)
   179ce:	0c0781e3          	beqz	a5,18290 <_vfiprintf_r+0xc20>
   179d2:	010c1c1b          	sllw	s8,s8,0x10
   179d6:	410c5c1b          	sraw	s8,s8,0x10
   179da:	87e2                	mv	a5,s8
   179dc:	fa07dce3          	bgez	a5,17994 <_vfiprintf_r+0x324>
   179e0:	02d00793          	li	a5,45
   179e4:	06f103a3          	sb	a5,103(sp)
   179e8:	57fd                	li	a5,-1
   179ea:	41800c33          	neg	s8,s8
   179ee:	00fd0563          	beq	s10,a5,179f8 <_vfiprintf_r+0x388>
   179f2:	f7fbfb93          	and	s7,s7,-129
   179f6:	2b81                	sext.w	s7,s7
   179f8:	47a5                	li	a5,9
   179fa:	6987e663          	bltu	a5,s8,18086 <_vfiprintf_r+0xa16>
   179fe:	030c079b          	addw	a5,s8,48
   17a02:	0ff7f793          	zext.b	a5,a5
   17a06:	8c76                	mv	s8,t4
   17a08:	0ef105a3          	sb	a5,235(sp)
   17a0c:	000d0e1b          	sext.w	t3,s10
   17a10:	01a04363          	bgtz	s10,17a16 <_vfiprintf_r+0x3a6>
   17a14:	4e05                	li	t3,1
   17a16:	4305                	li	t1,1
   17a18:	0eb10493          	add	s1,sp,235
   17a1c:	06714783          	lbu	a5,103(sp)
   17a20:	e40783e3          	beqz	a5,17866 <_vfiprintf_r+0x1f6>
   17a24:	2e05                	addw	t3,t3,1
   17a26:	b581                	j	17866 <_vfiprintf_r+0x1f6>
   17a28:	779000ef          	jal	189a0 <__sinit>
   17a2c:	b985                	j	1769c <_vfiprintf_r+0x2c>
   17a2e:	000c3483          	ld	s1,0(s8)
   17a32:	060103a3          	sb	zero,103(sp)
   17a36:	0c21                	add	s8,s8,8
   17a38:	00048de3          	beqz	s1,18252 <_vfiprintf_r+0xbe2>
   17a3c:	57fd                	li	a5,-1
   17a3e:	ec46                	sd	a7,24(sp)
   17a40:	76fd0b63          	beq	s10,a5,181b6 <_vfiprintf_r+0xb46>
   17a44:	866a                	mv	a2,s10
   17a46:	4581                	li	a1,0
   17a48:	8526                	mv	a0,s1
   17a4a:	d8efd0ef          	jal	14fd8 <memchr>
   17a4e:	68e2                	ld	a7,24(sp)
   17a50:	080507e3          	beqz	a0,182de <_vfiprintf_r+0xc6e>
   17a54:	4095033b          	subw	t1,a0,s1
   17a58:	fff34e13          	not	t3,t1
   17a5c:	43fe5e13          	sra	t3,t3,0x3f
   17a60:	006e7e33          	and	t3,t3,t1
   17a64:	4d01                	li	s10,0
   17a66:	bf5d                	j	17a1c <_vfiprintf_r+0x3ac>
   17a68:	000c2783          	lw	a5,0(s8)
   17a6c:	060103a3          	sb	zero,103(sp)
   17a70:	0c21                	add	s8,s8,8
   17a72:	08f10423          	sb	a5,136(sp)
   17a76:	4e05                	li	t3,1
   17a78:	4305                	li	t1,1
   17a7a:	0124                	add	s1,sp,136
   17a7c:	b3e5                	j	17864 <_vfiprintf_r+0x1f4>
   17a7e:	000c2883          	lw	a7,0(s8)
   17a82:	0c21                	add	s8,s8,8
   17a84:	0808db63          	bgez	a7,17b1a <_vfiprintf_r+0x4aa>
   17a88:	411008bb          	negw	a7,a7
   17a8c:	004beb93          	or	s7,s7,4
   17a90:	000dc783          	lbu	a5,0(s11)
   17a94:	2b81                	sext.w	s7,s7
   17a96:	b1cd                	j	17778 <_vfiprintf_r+0x108>
   17a98:	02b00713          	li	a4,43
   17a9c:	000dc783          	lbu	a5,0(s11)
   17aa0:	06e103a3          	sb	a4,103(sp)
   17aa4:	b9d1                	j	17778 <_vfiprintf_r+0x108>
   17aa6:	080beb93          	or	s7,s7,128
   17aaa:	000dc783          	lbu	a5,0(s11)
   17aae:	2b81                	sext.w	s7,s7
   17ab0:	b1e1                	j	17778 <_vfiprintf_r+0x108>
   17ab2:	000dc783          	lbu	a5,0(s11)
   17ab6:	02a00613          	li	a2,42
   17aba:	001d8713          	add	a4,s11,1
   17abe:	06c781e3          	beq	a5,a2,18320 <_vfiprintf_r+0xcb0>
   17ac2:	fd07869b          	addw	a3,a5,-48
   17ac6:	45a5                	li	a1,9
   17ac8:	8dba                	mv	s11,a4
   17aca:	4d01                	li	s10,0
   17acc:	4625                	li	a2,9
   17ace:	cad5e7e3          	bltu	a1,a3,1777c <_vfiprintf_r+0x10c>
   17ad2:	000dc783          	lbu	a5,0(s11)
   17ad6:	002d171b          	sllw	a4,s10,0x2
   17ada:	01a70d3b          	addw	s10,a4,s10
   17ade:	001d1d1b          	sllw	s10,s10,0x1
   17ae2:	00dd0d3b          	addw	s10,s10,a3
   17ae6:	fd07869b          	addw	a3,a5,-48
   17aea:	0d85                	add	s11,s11,1
   17aec:	fed673e3          	bgeu	a2,a3,17ad2 <_vfiprintf_r+0x462>
   17af0:	b171                	j	1777c <_vfiprintf_r+0x10c>
   17af2:	8556                	mv	a0,s5
   17af4:	ec46                	sd	a7,24(sp)
   17af6:	e0bfc0ef          	jal	14900 <_localeconv_r>
   17afa:	651c                	ld	a5,8(a0)
   17afc:	853e                	mv	a0,a5
   17afe:	e0be                	sd	a5,64(sp)
   17b00:	c46fe0ef          	jal	15f46 <strlen>
   17b04:	87aa                	mv	a5,a0
   17b06:	8556                	mv	a0,s5
   17b08:	f83e                	sd	a5,48(sp)
   17b0a:	df7fc0ef          	jal	14900 <_localeconv_r>
   17b0e:	6918                	ld	a4,16(a0)
   17b10:	77c2                	ld	a5,48(sp)
   17b12:	68e2                	ld	a7,24(sp)
   17b14:	fc3a                	sd	a4,56(sp)
   17b16:	60079463          	bnez	a5,1811e <_vfiprintf_r+0xaae>
   17b1a:	000dc783          	lbu	a5,0(s11)
   17b1e:	b9a9                	j	17778 <_vfiprintf_r+0x108>
   17b20:	001beb93          	or	s7,s7,1
   17b24:	000dc783          	lbu	a5,0(s11)
   17b28:	2b81                	sext.w	s7,s7
   17b2a:	b1b9                	j	17778 <_vfiprintf_r+0x108>
   17b2c:	06714703          	lbu	a4,103(sp)
   17b30:	000dc783          	lbu	a5,0(s11)
   17b34:	c40712e3          	bnez	a4,17778 <_vfiprintf_r+0x108>
   17b38:	02000713          	li	a4,32
   17b3c:	06e103a3          	sb	a4,103(sp)
   17b40:	b925                	j	17778 <_vfiprintf_r+0x108>
   17b42:	010be793          	or	a5,s7,16
   17b46:	2781                	sext.w	a5,a5
   17b48:	0207f713          	and	a4,a5,32
   17b4c:	008c0613          	add	a2,s8,8
   17b50:	e709                	bnez	a4,17b5a <_vfiprintf_r+0x4ea>
   17b52:	0107f713          	and	a4,a5,16
   17b56:	5a070b63          	beqz	a4,1810c <_vfiprintf_r+0xa9c>
   17b5a:	000c3703          	ld	a4,0(s8)
   17b5e:	bff7fb93          	and	s7,a5,-1025
   17b62:	060103a3          	sb	zero,103(sp)
   17b66:	56fd                	li	a3,-1
   17b68:	2b81                	sext.w	s7,s7
   17b6a:	8c32                	mv	s8,a2
   17b6c:	0add0163          	beq	s10,a3,17c0e <_vfiprintf_r+0x59e>
   17b70:	b7f7f793          	and	a5,a5,-1153
   17b74:	2781                	sext.w	a5,a5
   17b76:	6a071963          	bnez	a4,18228 <_vfiprintf_r+0xbb8>
   17b7a:	835e                	mv	t1,s7
   17b7c:	8bbe                	mv	s7,a5
   17b7e:	080d1163          	bnez	s10,17c00 <_vfiprintf_r+0x590>
   17b82:	4e071e63          	bnez	a4,1807e <_vfiprintf_r+0xa0e>
   17b86:	00137313          	and	t1,t1,1
   17b8a:	54030e63          	beqz	t1,180e6 <_vfiprintf_r+0xa76>
   17b8e:	03000793          	li	a5,48
   17b92:	0ef105a3          	sb	a5,235(sp)
   17b96:	8e1a                	mv	t3,t1
   17b98:	0eb10493          	add	s1,sp,235
   17b9c:	b541                	j	17a1c <_vfiprintf_r+0x3ac>
   17b9e:	000dc783          	lbu	a5,0(s11)
   17ba2:	06c00713          	li	a4,108
   17ba6:	68e78e63          	beq	a5,a4,18242 <_vfiprintf_r+0xbd2>
   17baa:	010beb93          	or	s7,s7,16
   17bae:	2b81                	sext.w	s7,s7
   17bb0:	b6e1                	j	17778 <_vfiprintf_r+0x108>
   17bb2:	000dc783          	lbu	a5,0(s11)
   17bb6:	06800713          	li	a4,104
   17bba:	66e78c63          	beq	a5,a4,18232 <_vfiprintf_r+0xbc2>
   17bbe:	040beb93          	or	s7,s7,64
   17bc2:	2b81                	sext.w	s7,s7
   17bc4:	be55                	j	17778 <_vfiprintf_r+0x108>
   17bc6:	010be313          	or	t1,s7,16
   17bca:	2301                	sext.w	t1,t1
   17bcc:	02037793          	and	a5,t1,32
   17bd0:	008c0e93          	add	t4,s8,8
   17bd4:	e789                	bnez	a5,17bde <_vfiprintf_r+0x56e>
   17bd6:	01037793          	and	a5,t1,16
   17bda:	50078f63          	beqz	a5,180f8 <_vfiprintf_r+0xa88>
   17bde:	000c3c03          	ld	s8,0(s8)
   17be2:	060103a3          	sb	zero,103(sp)
   17be6:	57fd                	li	a5,-1
   17be8:	8b9a                	mv	s7,t1
   17bea:	e0fd07e3          	beq	s10,a5,179f8 <_vfiprintf_r+0x388>
   17bee:	f7f37b93          	and	s7,t1,-129
   17bf2:	2b81                	sext.w	s7,s7
   17bf4:	e00c12e3          	bnez	s8,179f8 <_vfiprintf_r+0x388>
   17bf8:	8c76                	mv	s8,t4
   17bfa:	4705                	li	a4,1
   17bfc:	f80d03e3          	beqz	s10,17b82 <_vfiprintf_r+0x512>
   17c00:	4785                	li	a5,1
   17c02:	6ef70863          	beq	a4,a5,182f2 <_vfiprintf_r+0xc82>
   17c06:	4789                	li	a5,2
   17c08:	66f70063          	beq	a4,a5,18268 <_vfiprintf_r+0xbf8>
   17c0c:	4701                	li	a4,0
   17c0e:	0ec10313          	add	t1,sp,236
   17c12:	849a                	mv	s1,t1
   17c14:	00777793          	and	a5,a4,7
   17c18:	03078793          	add	a5,a5,48
   17c1c:	fef48fa3          	sb	a5,-1(s1)
   17c20:	830d                	srl	a4,a4,0x3
   17c22:	86a6                	mv	a3,s1
   17c24:	14fd                	add	s1,s1,-1
   17c26:	f77d                	bnez	a4,17c14 <_vfiprintf_r+0x5a4>
   17c28:	001bf713          	and	a4,s7,1
   17c2c:	26070763          	beqz	a4,17e9a <_vfiprintf_r+0x82a>
   17c30:	03000713          	li	a4,48
   17c34:	26e78363          	beq	a5,a4,17e9a <_vfiprintf_r+0x82a>
   17c38:	16f9                	add	a3,a3,-2
   17c3a:	40d3033b          	subw	t1,t1,a3
   17c3e:	fee48fa3          	sb	a4,-1(s1)
   17c42:	00030e1b          	sext.w	t3,t1
   17c46:	4fa34e63          	blt	t1,s10,18142 <_vfiprintf_r+0xad2>
   17c4a:	84b6                	mv	s1,a3
   17c4c:	bbc1                	j	17a1c <_vfiprintf_r+0x3ac>
   17c4e:	020beb93          	or	s7,s7,32
   17c52:	000dc783          	lbu	a5,0(s11)
   17c56:	2b81                	sext.w	s7,s7
   17c58:	b605                	j	17778 <_vfiprintf_r+0x108>
   17c5a:	77e1                	lui	a5,0xffff8
   17c5c:	8307c793          	xor	a5,a5,-2000
   17c60:	06f11423          	sh	a5,104(sp)
   17c64:	67ed                	lui	a5,0x1b
   17c66:	002beb93          	or	s7,s7,2
   17c6a:	0b078793          	add	a5,a5,176 # 1b0b0 <__clzdi2+0x8e>
   17c6e:	000c3703          	ld	a4,0(s8)
   17c72:	2b81                	sext.w	s7,s7
   17c74:	0c21                	add	s8,s8,8
   17c76:	e83e                	sd	a5,16(sp)
   17c78:	060103a3          	sb	zero,103(sp)
   17c7c:	57fd                	li	a5,-1
   17c7e:	20fd0063          	beq	s10,a5,17e7e <_vfiprintf_r+0x80e>
   17c82:	f7fbf793          	and	a5,s7,-129
   17c86:	2781                	sext.w	a5,a5
   17c88:	1e071763          	bnez	a4,17e76 <_vfiprintf_r+0x806>
   17c8c:	835e                	mv	t1,s7
   17c8e:	4709                	li	a4,2
   17c90:	8bbe                	mv	s7,a5
   17c92:	b5f5                	j	17b7e <_vfiprintf_r+0x50e>
   17c94:	020bf793          	and	a5,s7,32
   17c98:	000c3703          	ld	a4,0(s8)
   17c9c:	e385                	bnez	a5,17cbc <_vfiprintf_r+0x64c>
   17c9e:	010bf793          	and	a5,s7,16
   17ca2:	ef89                	bnez	a5,17cbc <_vfiprintf_r+0x64c>
   17ca4:	040bf793          	and	a5,s7,64
   17ca8:	60079963          	bnez	a5,182ba <_vfiprintf_r+0xc4a>
   17cac:	200bfb93          	and	s7,s7,512
   17cb0:	660b8363          	beqz	s7,18316 <_vfiprintf_r+0xca6>
   17cb4:	01970023          	sb	s9,0(a4)
   17cb8:	0c21                	add	s8,s8,8
   17cba:	b4a9                	j	17704 <_vfiprintf_r+0x94>
   17cbc:	01973023          	sd	s9,0(a4)
   17cc0:	0c21                	add	s8,s8,8
   17cc2:	b489                	j	17704 <_vfiprintf_r+0x94>
   17cc4:	4705                	li	a4,1
   17cc6:	879a                	mv	a5,t1
   17cc8:	f9a6                	sd	s1,240(sp)
   17cca:	fd9a                	sd	t1,248(sp)
   17ccc:	e11a                	sd	t1,128(sp)
   17cce:	dcba                	sw	a4,120(sp)
   17cd0:	844e                	mv	s0,s3
   17cd2:	0441                	add	s0,s0,16
   17cd4:	b9a9                	j	1792e <_vfiprintf_r+0x2be>
   17cd6:	41c88ebb          	subw	t4,a7,t3
   17cda:	c1d05ee3          	blez	t4,178f6 <_vfiprintf_r+0x286>
   17cde:	46c1                	li	a3,16
   17ce0:	63d6d363          	bge	a3,t4,18306 <_vfiprintf_r+0xc96>
   17ce4:	6f71                	lui	t5,0x1c
   17ce6:	c18f0f13          	add	t5,t5,-1000 # 1bc18 <zeroes.0>
   17cea:	ec26                	sd	s1,24(sp)
   17cec:	8622                	mv	a2,s0
   17cee:	4fc1                	li	t6,16
   17cf0:	429d                	li	t0,7
   17cf2:	f046                	sd	a7,32(sp)
   17cf4:	f472                	sd	t3,40(sp)
   17cf6:	e49a                	sd	t1,72(sp)
   17cf8:	8476                	mv	s0,t4
   17cfa:	84fa                	mv	s1,t5
   17cfc:	a801                	j	17d0c <_vfiprintf_r+0x69c>
   17cfe:	0027069b          	addw	a3,a4,2
   17d02:	0641                	add	a2,a2,16
   17d04:	872e                	mv	a4,a1
   17d06:	3441                	addw	s0,s0,-16
   17d08:	028fdf63          	bge	t6,s0,17d46 <_vfiprintf_r+0x6d6>
   17d0c:	0017059b          	addw	a1,a4,1
   17d10:	07c1                	add	a5,a5,16
   17d12:	e204                	sd	s1,0(a2)
   17d14:	01f63423          	sd	t6,8(a2)
   17d18:	e13e                	sd	a5,128(sp)
   17d1a:	dcae                	sw	a1,120(sp)
   17d1c:	feb2d1e3          	bge	t0,a1,17cfe <_vfiprintf_r+0x68e>
   17d20:	10078363          	beqz	a5,17e26 <_vfiprintf_r+0x7b6>
   17d24:	1890                	add	a2,sp,112
   17d26:	85d2                	mv	a1,s4
   17d28:	8556                	mv	a0,s5
   17d2a:	895ff0ef          	jal	175be <__sprint_r.part.0>
   17d2e:	ac0510e3          	bnez	a0,177ee <_vfiprintf_r+0x17e>
   17d32:	5766                	lw	a4,120(sp)
   17d34:	4fc1                	li	t6,16
   17d36:	3441                	addw	s0,s0,-16
   17d38:	678a                	ld	a5,128(sp)
   17d3a:	864e                	mv	a2,s3
   17d3c:	0017069b          	addw	a3,a4,1
   17d40:	429d                	li	t0,7
   17d42:	fc8fc5e3          	blt	t6,s0,17d0c <_vfiprintf_r+0x69c>
   17d46:	8f26                	mv	t5,s1
   17d48:	7882                	ld	a7,32(sp)
   17d4a:	7e22                	ld	t3,40(sp)
   17d4c:	6326                	ld	t1,72(sp)
   17d4e:	64e2                	ld	s1,24(sp)
   17d50:	8ea2                	mv	t4,s0
   17d52:	8432                	mv	s0,a2
   17d54:	97f6                	add	a5,a5,t4
   17d56:	01e43023          	sd	t5,0(s0)
   17d5a:	01d43423          	sd	t4,8(s0)
   17d5e:	e13e                	sd	a5,128(sp)
   17d60:	dcb6                	sw	a3,120(sp)
   17d62:	471d                	li	a4,7
   17d64:	38d75463          	bge	a4,a3,180ec <_vfiprintf_r+0xa7c>
   17d68:	52078e63          	beqz	a5,182a4 <_vfiprintf_r+0xc34>
   17d6c:	1890                	add	a2,sp,112
   17d6e:	85d2                	mv	a1,s4
   17d70:	8556                	mv	a0,s5
   17d72:	f41a                	sd	t1,40(sp)
   17d74:	f072                	sd	t3,32(sp)
   17d76:	ec46                	sd	a7,24(sp)
   17d78:	847ff0ef          	jal	175be <__sprint_r.part.0>
   17d7c:	a60519e3          	bnez	a0,177ee <_vfiprintf_r+0x17e>
   17d80:	7322                	ld	t1,40(sp)
   17d82:	5766                	lw	a4,120(sp)
   17d84:	678a                	ld	a5,128(sp)
   17d86:	406d0d3b          	subw	s10,s10,t1
   17d8a:	7e02                	ld	t3,32(sp)
   17d8c:	68e2                	ld	a7,24(sp)
   17d8e:	844e                	mv	s0,s3
   17d90:	0017059b          	addw	a1,a4,1
   17d94:	b7a055e3          	blez	s10,178fe <_vfiprintf_r+0x28e>
   17d98:	6f71                	lui	t5,0x1c
   17d9a:	c18f0f13          	add	t5,t5,-1000 # 1bc18 <zeroes.0>
   17d9e:	07a95363          	bge	s2,s10,17e04 <_vfiprintf_r+0x794>
   17da2:	86a2                	mv	a3,s0
   17da4:	4e9d                	li	t4,7
   17da6:	846a                	mv	s0,s10
   17da8:	ec46                	sd	a7,24(sp)
   17daa:	f072                	sd	t3,32(sp)
   17dac:	f41a                	sd	t1,40(sp)
   17dae:	8d5a                	mv	s10,s6
   17db0:	a801                	j	17dc0 <_vfiprintf_r+0x750>
   17db2:	0027059b          	addw	a1,a4,2
   17db6:	06c1                	add	a3,a3,16
   17db8:	872a                	mv	a4,a0
   17dba:	3441                	addw	s0,s0,-16
   17dbc:	02895e63          	bge	s2,s0,17df8 <_vfiprintf_r+0x788>
   17dc0:	0017051b          	addw	a0,a4,1
   17dc4:	07c1                	add	a5,a5,16
   17dc6:	0166b023          	sd	s6,0(a3)
   17dca:	0126b423          	sd	s2,8(a3)
   17dce:	e13e                	sd	a5,128(sp)
   17dd0:	dcaa                	sw	a0,120(sp)
   17dd2:	feaed0e3          	bge	t4,a0,17db2 <_vfiprintf_r+0x742>
   17dd6:	c7a1                	beqz	a5,17e1e <_vfiprintf_r+0x7ae>
   17dd8:	1890                	add	a2,sp,112
   17dda:	85d2                	mv	a1,s4
   17ddc:	8556                	mv	a0,s5
   17dde:	fe0ff0ef          	jal	175be <__sprint_r.part.0>
   17de2:	a00516e3          	bnez	a0,177ee <_vfiprintf_r+0x17e>
   17de6:	5766                	lw	a4,120(sp)
   17de8:	3441                	addw	s0,s0,-16
   17dea:	678a                	ld	a5,128(sp)
   17dec:	86ce                	mv	a3,s3
   17dee:	0017059b          	addw	a1,a4,1
   17df2:	4e9d                	li	t4,7
   17df4:	fc8946e3          	blt	s2,s0,17dc0 <_vfiprintf_r+0x750>
   17df8:	68e2                	ld	a7,24(sp)
   17dfa:	7e02                	ld	t3,32(sp)
   17dfc:	7322                	ld	t1,40(sp)
   17dfe:	8f6a                	mv	t5,s10
   17e00:	8d22                	mv	s10,s0
   17e02:	8436                	mv	s0,a3
   17e04:	97ea                	add	a5,a5,s10
   17e06:	01e43023          	sd	t5,0(s0)
   17e0a:	01a43423          	sd	s10,8(s0)
   17e0e:	e13e                	sd	a5,128(sp)
   17e10:	dcae                	sw	a1,120(sp)
   17e12:	471d                	li	a4,7
   17e14:	1eb74f63          	blt	a4,a1,18012 <_vfiprintf_r+0x9a2>
   17e18:	0441                	add	s0,s0,16
   17e1a:	2585                	addw	a1,a1,1
   17e1c:	b4cd                	j	178fe <_vfiprintf_r+0x28e>
   17e1e:	4585                	li	a1,1
   17e20:	4701                	li	a4,0
   17e22:	86ce                	mv	a3,s3
   17e24:	bf59                	j	17dba <_vfiprintf_r+0x74a>
   17e26:	4685                	li	a3,1
   17e28:	4701                	li	a4,0
   17e2a:	864e                	mv	a2,s3
   17e2c:	bde9                	j	17d06 <_vfiprintf_r+0x696>
   17e2e:	cb85                	beqz	a5,17e5e <_vfiprintf_r+0x7ee>
   17e30:	1890                	add	a2,sp,112
   17e32:	85d2                	mv	a1,s4
   17e34:	8556                	mv	a0,s5
   17e36:	e89a                	sd	t1,80(sp)
   17e38:	e4f2                	sd	t3,72(sp)
   17e3a:	f446                	sd	a7,40(sp)
   17e3c:	f016                	sd	t0,32(sp)
   17e3e:	ec7e                	sd	t6,24(sp)
   17e40:	f7eff0ef          	jal	175be <__sprint_r.part.0>
   17e44:	9a0515e3          	bnez	a0,177ee <_vfiprintf_r+0x17e>
   17e48:	5766                	lw	a4,120(sp)
   17e4a:	678a                	ld	a5,128(sp)
   17e4c:	6346                	ld	t1,80(sp)
   17e4e:	6e26                	ld	t3,72(sp)
   17e50:	78a2                	ld	a7,40(sp)
   17e52:	7282                	ld	t0,32(sp)
   17e54:	6fe2                	ld	t6,24(sp)
   17e56:	844e                	mv	s0,s3
   17e58:	0017059b          	addw	a1,a4,1
   17e5c:	bc81                	j	178ac <_vfiprintf_r+0x23c>
   17e5e:	2c0f8d63          	beqz	t6,18138 <_vfiprintf_r+0xac8>
   17e62:	10bc                	add	a5,sp,104
   17e64:	f9be                	sd	a5,240(sp)
   17e66:	4789                	li	a5,2
   17e68:	fdbe                	sd	a5,248(sp)
   17e6a:	4585                	li	a1,1
   17e6c:	844e                	mv	s0,s3
   17e6e:	872e                	mv	a4,a1
   17e70:	0441                	add	s0,s0,16
   17e72:	2585                	addw	a1,a1,1
   17e74:	bcad                	j	178ee <_vfiprintf_r+0x27e>
   17e76:	8bbe                	mv	s7,a5
   17e78:	4789                	li	a5,2
   17e7a:	d8078ae3          	beqz	a5,17c0e <_vfiprintf_r+0x59e>
   17e7e:	66c2                	ld	a3,16(sp)
   17e80:	0ec10313          	add	t1,sp,236
   17e84:	849a                	mv	s1,t1
   17e86:	00f77793          	and	a5,a4,15
   17e8a:	97b6                	add	a5,a5,a3
   17e8c:	0007c783          	lbu	a5,0(a5)
   17e90:	8311                	srl	a4,a4,0x4
   17e92:	14fd                	add	s1,s1,-1
   17e94:	00f48023          	sb	a5,0(s1)
   17e98:	f77d                	bnez	a4,17e86 <_vfiprintf_r+0x816>
   17e9a:	4093033b          	subw	t1,t1,s1
   17e9e:	00030e1b          	sext.w	t3,t1
   17ea2:	b7a35de3          	bge	t1,s10,17a1c <_vfiprintf_r+0x3ac>
   17ea6:	000d0e1b          	sext.w	t3,s10
   17eaa:	be8d                	j	17a1c <_vfiprintf_r+0x3ac>
   17eac:	4541                	li	a0,16
   17eae:	42d55d63          	bge	a0,a3,182e8 <_vfiprintf_r+0xc78>
   17eb2:	6ef1                	lui	t4,0x1c
   17eb4:	c28e8e93          	add	t4,t4,-984 # 1bc28 <blanks.1>
   17eb8:	f426                	sd	s1,40(sp)
   17eba:	85a2                	mv	a1,s0
   17ebc:	4f41                	li	t5,16
   17ebe:	439d                	li	t2,7
   17ec0:	ec7e                	sd	t6,24(sp)
   17ec2:	f016                	sd	t0,32(sp)
   17ec4:	e4c6                	sd	a7,72(sp)
   17ec6:	e8f2                	sd	t3,80(sp)
   17ec8:	ec9a                	sd	t1,88(sp)
   17eca:	8436                	mv	s0,a3
   17ecc:	84f6                	mv	s1,t4
   17ece:	a811                	j	17ee2 <_vfiprintf_r+0x872>
   17ed0:	0027061b          	addw	a2,a4,2
   17ed4:	05c1                	add	a1,a1,16
   17ed6:	872a                	mv	a4,a0
   17ed8:	3441                	addw	s0,s0,-16
   17eda:	048f5063          	bge	t5,s0,17f1a <_vfiprintf_r+0x8aa>
   17ede:	0017061b          	addw	a2,a4,1
   17ee2:	07c1                	add	a5,a5,16
   17ee4:	e184                	sd	s1,0(a1)
   17ee6:	01e5b423          	sd	t5,8(a1)
   17eea:	e13e                	sd	a5,128(sp)
   17eec:	0006051b          	sext.w	a0,a2
   17ef0:	dcb2                	sw	a2,120(sp)
   17ef2:	fca3dfe3          	bge	t2,a0,17ed0 <_vfiprintf_r+0x860>
   17ef6:	cba9                	beqz	a5,17f48 <_vfiprintf_r+0x8d8>
   17ef8:	1890                	add	a2,sp,112
   17efa:	85d2                	mv	a1,s4
   17efc:	8556                	mv	a0,s5
   17efe:	ec0ff0ef          	jal	175be <__sprint_r.part.0>
   17f02:	8e0516e3          	bnez	a0,177ee <_vfiprintf_r+0x17e>
   17f06:	5766                	lw	a4,120(sp)
   17f08:	4f41                	li	t5,16
   17f0a:	3441                	addw	s0,s0,-16
   17f0c:	678a                	ld	a5,128(sp)
   17f0e:	85ce                	mv	a1,s3
   17f10:	0017061b          	addw	a2,a4,1
   17f14:	439d                	li	t2,7
   17f16:	fc8f44e3          	blt	t5,s0,17ede <_vfiprintf_r+0x86e>
   17f1a:	8ea6                	mv	t4,s1
   17f1c:	6fe2                	ld	t6,24(sp)
   17f1e:	7282                	ld	t0,32(sp)
   17f20:	68a6                	ld	a7,72(sp)
   17f22:	6e46                	ld	t3,80(sp)
   17f24:	6366                	ld	t1,88(sp)
   17f26:	74a2                	ld	s1,40(sp)
   17f28:	86a2                	mv	a3,s0
   17f2a:	842e                	mv	s0,a1
   17f2c:	97b6                	add	a5,a5,a3
   17f2e:	01d43023          	sd	t4,0(s0)
   17f32:	e414                	sd	a3,8(s0)
   17f34:	e13e                	sd	a5,128(sp)
   17f36:	dcb2                	sw	a2,120(sp)
   17f38:	471d                	li	a4,7
   17f3a:	10c74863          	blt	a4,a2,1804a <_vfiprintf_r+0x9da>
   17f3e:	0441                	add	s0,s0,16
   17f40:	0016059b          	addw	a1,a2,1
   17f44:	8732                	mv	a4,a2
   17f46:	b291                	j	1788a <_vfiprintf_r+0x21a>
   17f48:	4701                	li	a4,0
   17f4a:	4605                	li	a2,1
   17f4c:	85ce                	mv	a1,s3
   17f4e:	b769                	j	17ed8 <_vfiprintf_r+0x868>
   17f50:	dc82                	sw	zero,120(sp)
   17f52:	004bfb93          	and	s7,s7,4
   17f56:	0a0b8763          	beqz	s7,18004 <_vfiprintf_r+0x994>
   17f5a:	41c884bb          	subw	s1,a7,t3
   17f5e:	0a905363          	blez	s1,18004 <_vfiprintf_r+0x994>
   17f62:	844e                	mv	s0,s3
   17f64:	4741                	li	a4,16
   17f66:	56e6                	lw	a3,120(sp)
   17f68:	38975963          	bge	a4,s1,182fa <_vfiprintf_r+0xc8a>
   17f6c:	6ef1                	lui	t4,0x1c
   17f6e:	c28e8e93          	add	t4,t4,-984 # 1bc28 <blanks.1>
   17f72:	8622                	mv	a2,s0
   17f74:	4bc1                	li	s7,16
   17f76:	8426                	mv	s0,s1
   17f78:	4d1d                	li	s10,7
   17f7a:	ec46                	sd	a7,24(sp)
   17f7c:	f072                	sd	t3,32(sp)
   17f7e:	84f6                	mv	s1,t4
   17f80:	a801                	j	17f90 <_vfiprintf_r+0x920>
   17f82:	0026871b          	addw	a4,a3,2
   17f86:	0641                	add	a2,a2,16
   17f88:	86ae                	mv	a3,a1
   17f8a:	3441                	addw	s0,s0,-16
   17f8c:	028bdc63          	bge	s7,s0,17fc4 <_vfiprintf_r+0x954>
   17f90:	0016859b          	addw	a1,a3,1
   17f94:	07c1                	add	a5,a5,16
   17f96:	e204                	sd	s1,0(a2)
   17f98:	01763423          	sd	s7,8(a2)
   17f9c:	e13e                	sd	a5,128(sp)
   17f9e:	dcae                	sw	a1,120(sp)
   17fa0:	febd51e3          	bge	s10,a1,17f82 <_vfiprintf_r+0x912>
   17fa4:	cfa1                	beqz	a5,17ffc <_vfiprintf_r+0x98c>
   17fa6:	1890                	add	a2,sp,112
   17fa8:	85d2                	mv	a1,s4
   17faa:	8556                	mv	a0,s5
   17fac:	e12ff0ef          	jal	175be <__sprint_r.part.0>
   17fb0:	82051fe3          	bnez	a0,177ee <_vfiprintf_r+0x17e>
   17fb4:	56e6                	lw	a3,120(sp)
   17fb6:	3441                	addw	s0,s0,-16
   17fb8:	678a                	ld	a5,128(sp)
   17fba:	864e                	mv	a2,s3
   17fbc:	0016871b          	addw	a4,a3,1
   17fc0:	fc8bc8e3          	blt	s7,s0,17f90 <_vfiprintf_r+0x920>
   17fc4:	68e2                	ld	a7,24(sp)
   17fc6:	7e02                	ld	t3,32(sp)
   17fc8:	8ea6                	mv	t4,s1
   17fca:	84a2                	mv	s1,s0
   17fcc:	8432                	mv	s0,a2
   17fce:	97a6                	add	a5,a5,s1
   17fd0:	01d43023          	sd	t4,0(s0)
   17fd4:	e404                	sd	s1,8(s0)
   17fd6:	e13e                	sd	a5,128(sp)
   17fd8:	dcba                	sw	a4,120(sp)
   17fda:	469d                	li	a3,7
   17fdc:	96e6d1e3          	bge	a3,a4,1793e <_vfiprintf_r+0x2ce>
   17fe0:	c395                	beqz	a5,18004 <_vfiprintf_r+0x994>
   17fe2:	1890                	add	a2,sp,112
   17fe4:	85d2                	mv	a1,s4
   17fe6:	8556                	mv	a0,s5
   17fe8:	f072                	sd	t3,32(sp)
   17fea:	ec46                	sd	a7,24(sp)
   17fec:	dd2ff0ef          	jal	175be <__sprint_r.part.0>
   17ff0:	fe051f63          	bnez	a0,177ee <_vfiprintf_r+0x17e>
   17ff4:	678a                	ld	a5,128(sp)
   17ff6:	7e02                	ld	t3,32(sp)
   17ff8:	68e2                	ld	a7,24(sp)
   17ffa:	b291                	j	1793e <_vfiprintf_r+0x2ce>
   17ffc:	4705                	li	a4,1
   17ffe:	4681                	li	a3,0
   18000:	864e                	mv	a2,s3
   18002:	b761                	j	17f8a <_vfiprintf_r+0x91a>
   18004:	87c6                	mv	a5,a7
   18006:	01c8d363          	bge	a7,t3,1800c <_vfiprintf_r+0x99c>
   1800a:	87f2                	mv	a5,t3
   1800c:	01978cbb          	addw	s9,a5,s9
   18010:	ba3d                	j	1794e <_vfiprintf_r+0x2de>
   18012:	ca0789e3          	beqz	a5,17cc4 <_vfiprintf_r+0x654>
   18016:	1890                	add	a2,sp,112
   18018:	85d2                	mv	a1,s4
   1801a:	8556                	mv	a0,s5
   1801c:	f41a                	sd	t1,40(sp)
   1801e:	f072                	sd	t3,32(sp)
   18020:	ec46                	sd	a7,24(sp)
   18022:	d9cff0ef          	jal	175be <__sprint_r.part.0>
   18026:	fc051463          	bnez	a0,177ee <_vfiprintf_r+0x17e>
   1802a:	55e6                	lw	a1,120(sp)
   1802c:	678a                	ld	a5,128(sp)
   1802e:	7322                	ld	t1,40(sp)
   18030:	7e02                	ld	t3,32(sp)
   18032:	68e2                	ld	a7,24(sp)
   18034:	844e                	mv	s0,s3
   18036:	2585                	addw	a1,a1,1
   18038:	b0d9                	j	178fe <_vfiprintf_r+0x28e>
   1803a:	dc82                	sw	zero,120(sp)
   1803c:	844e                	mv	s0,s3
   1803e:	f18ff06f          	j	17756 <_vfiprintf_r+0xe6>
   18042:	4585                	li	a1,1
   18044:	4701                	li	a4,0
   18046:	844e                	mv	s0,s3
   18048:	b05d                	j	178ee <_vfiprintf_r+0x27e>
   1804a:	18078463          	beqz	a5,181d2 <_vfiprintf_r+0xb62>
   1804e:	1890                	add	a2,sp,112
   18050:	85d2                	mv	a1,s4
   18052:	8556                	mv	a0,s5
   18054:	e89a                	sd	t1,80(sp)
   18056:	e4f2                	sd	t3,72(sp)
   18058:	f446                	sd	a7,40(sp)
   1805a:	f016                	sd	t0,32(sp)
   1805c:	ec7e                	sd	t6,24(sp)
   1805e:	d60ff0ef          	jal	175be <__sprint_r.part.0>
   18062:	f8051663          	bnez	a0,177ee <_vfiprintf_r+0x17e>
   18066:	5766                	lw	a4,120(sp)
   18068:	678a                	ld	a5,128(sp)
   1806a:	6346                	ld	t1,80(sp)
   1806c:	6e26                	ld	t3,72(sp)
   1806e:	78a2                	ld	a7,40(sp)
   18070:	7282                	ld	t0,32(sp)
   18072:	6fe2                	ld	t6,24(sp)
   18074:	844e                	mv	s0,s3
   18076:	0017059b          	addw	a1,a4,1
   1807a:	811ff06f          	j	1788a <_vfiprintf_r+0x21a>
   1807e:	4e01                	li	t3,0
   18080:	4301                	li	t1,0
   18082:	11e4                	add	s1,sp,236
   18084:	ba61                	j	17a1c <_vfiprintf_r+0x3ac>
   18086:	0ec10313          	add	t1,sp,236
   1808a:	7862                	ld	a6,56(sp)
   1808c:	400bff13          	and	t5,s7,1024
   18090:	4601                	li	a2,0
   18092:	871a                	mv	a4,t1
   18094:	46a9                	li	a3,10
   18096:	4e25                	li	t3,9
   18098:	0ff00f93          	li	t6,255
   1809c:	a039                	j	180aa <_vfiprintf_r+0xa3a>
   1809e:	02dc57b3          	divu	a5,s8,a3
   180a2:	038e7763          	bgeu	t3,s8,180d0 <_vfiprintf_r+0xa60>
   180a6:	8c3e                	mv	s8,a5
   180a8:	8726                	mv	a4,s1
   180aa:	fff70493          	add	s1,a4,-1
   180ae:	2605                	addw	a2,a2,1
   180b0:	02dc77b3          	remu	a5,s8,a3
   180b4:	0307879b          	addw	a5,a5,48
   180b8:	fef70fa3          	sb	a5,-1(a4)
   180bc:	fe0f01e3          	beqz	t5,1809e <_vfiprintf_r+0xa2e>
   180c0:	00084783          	lbu	a5,0(a6)
   180c4:	fcc79de3          	bne	a5,a2,1809e <_vfiprintf_r+0xa2e>
   180c8:	fdf78be3          	beq	a5,t6,1809e <_vfiprintf_r+0xa2e>
   180cc:	118e6f63          	bltu	t3,s8,181ea <_vfiprintf_r+0xb7a>
   180d0:	4093033b          	subw	t1,t1,s1
   180d4:	fc42                	sd	a6,56(sp)
   180d6:	00030e1b          	sext.w	t3,t1
   180da:	01a35463          	bge	t1,s10,180e2 <_vfiprintf_r+0xa72>
   180de:	000d0e1b          	sext.w	t3,s10
   180e2:	8c76                	mv	s8,t4
   180e4:	ba25                	j	17a1c <_vfiprintf_r+0x3ac>
   180e6:	4e01                	li	t3,0
   180e8:	11e4                	add	s1,sp,236
   180ea:	ba0d                	j	17a1c <_vfiprintf_r+0x3ac>
   180ec:	0441                	add	s0,s0,16
   180ee:	0016859b          	addw	a1,a3,1
   180f2:	8736                	mv	a4,a3
   180f4:	803ff06f          	j	178f6 <_vfiprintf_r+0x286>
   180f8:	04037793          	and	a5,t1,64
   180fc:	000c2c03          	lw	s8,0(s8)
   18100:	16078c63          	beqz	a5,18278 <_vfiprintf_r+0xc08>
   18104:	1c42                	sll	s8,s8,0x30
   18106:	030c5c13          	srl	s8,s8,0x30
   1810a:	bce1                	j	17be2 <_vfiprintf_r+0x572>
   1810c:	0407f693          	and	a3,a5,64
   18110:	000c2703          	lw	a4,0(s8)
   18114:	16068863          	beqz	a3,18284 <_vfiprintf_r+0xc14>
   18118:	1742                	sll	a4,a4,0x30
   1811a:	9341                	srl	a4,a4,0x30
   1811c:	b489                	j	17b5e <_vfiprintf_r+0x4ee>
   1811e:	000dc783          	lbu	a5,0(s11)
   18122:	e4070b63          	beqz	a4,17778 <_vfiprintf_r+0x108>
   18126:	00074703          	lbu	a4,0(a4)
   1812a:	e4070763          	beqz	a4,17778 <_vfiprintf_r+0x108>
   1812e:	400beb93          	or	s7,s7,1024
   18132:	2b81                	sext.w	s7,s7
   18134:	e44ff06f          	j	17778 <_vfiprintf_r+0x108>
   18138:	4701                	li	a4,0
   1813a:	4585                	li	a1,1
   1813c:	844e                	mv	s0,s3
   1813e:	fb0ff06f          	j	178ee <_vfiprintf_r+0x27e>
   18142:	000d0e1b          	sext.w	t3,s10
   18146:	84b6                	mv	s1,a3
   18148:	b8d1                	j	17a1c <_vfiprintf_r+0x3ac>
   1814a:	87de                	mv	a5,s7
   1814c:	baf5                	j	17b48 <_vfiprintf_r+0x4d8>
   1814e:	676d                	lui	a4,0x1b
   18150:	09870713          	add	a4,a4,152 # 1b098 <__clzdi2+0x76>
   18154:	e83a                	sd	a4,16(sp)
   18156:	020bf713          	and	a4,s7,32
   1815a:	008c0693          	add	a3,s8,8
   1815e:	eb29                	bnez	a4,181b0 <_vfiprintf_r+0xb40>
   18160:	010bf713          	and	a4,s7,16
   18164:	e731                	bnez	a4,181b0 <_vfiprintf_r+0xb40>
   18166:	040bf613          	and	a2,s7,64
   1816a:	000c2703          	lw	a4,0(s8)
   1816e:	0e060f63          	beqz	a2,1826c <_vfiprintf_r+0xbfc>
   18172:	1742                	sll	a4,a4,0x30
   18174:	9341                	srl	a4,a4,0x30
   18176:	001bf613          	and	a2,s7,1
   1817a:	ca19                	beqz	a2,18190 <_vfiprintf_r+0xb20>
   1817c:	cb11                	beqz	a4,18190 <_vfiprintf_r+0xb20>
   1817e:	002beb93          	or	s7,s7,2
   18182:	03000613          	li	a2,48
   18186:	06c10423          	sb	a2,104(sp)
   1818a:	06f104a3          	sb	a5,105(sp)
   1818e:	2b81                	sext.w	s7,s7
   18190:	bffbfb93          	and	s7,s7,-1025
   18194:	2b81                	sext.w	s7,s7
   18196:	8c36                	mv	s8,a3
   18198:	b4c5                	j	17c78 <_vfiprintf_r+0x608>
   1819a:	835e                	mv	t1,s7
   1819c:	bc05                	j	17bcc <_vfiprintf_r+0x55c>
   1819e:	676d                	lui	a4,0x1b
   181a0:	0b070713          	add	a4,a4,176 # 1b0b0 <__clzdi2+0x8e>
   181a4:	e83a                	sd	a4,16(sp)
   181a6:	020bf713          	and	a4,s7,32
   181aa:	008c0693          	add	a3,s8,8
   181ae:	db4d                	beqz	a4,18160 <_vfiprintf_r+0xaf0>
   181b0:	000c3703          	ld	a4,0(s8)
   181b4:	b7c9                	j	18176 <_vfiprintf_r+0xb06>
   181b6:	8526                	mv	a0,s1
   181b8:	d8ffd0ef          	jal	15f46 <strlen>
   181bc:	0005031b          	sext.w	t1,a0
   181c0:	fff34e13          	not	t3,t1
   181c4:	43fe5e13          	sra	t3,t3,0x3f
   181c8:	68e2                	ld	a7,24(sp)
   181ca:	006e7e33          	and	t3,t3,t1
   181ce:	4d01                	li	s10,0
   181d0:	b0b1                	j	17a1c <_vfiprintf_r+0x3ac>
   181d2:	06714703          	lbu	a4,103(sp)
   181d6:	cf71                	beqz	a4,182b2 <_vfiprintf_r+0xc42>
   181d8:	06710793          	add	a5,sp,103
   181dc:	f9be                	sd	a5,240(sp)
   181de:	4785                	li	a5,1
   181e0:	fdbe                	sd	a5,248(sp)
   181e2:	4585                	li	a1,1
   181e4:	844e                	mv	s0,s3
   181e6:	ec0ff06f          	j	178a6 <_vfiprintf_r+0x236>
   181ea:	77c2                	ld	a5,48(sp)
   181ec:	6586                	ld	a1,64(sp)
   181ee:	e49a                	sd	t1,72(sp)
   181f0:	8c9d                	sub	s1,s1,a5
   181f2:	863e                	mv	a2,a5
   181f4:	8526                	mv	a0,s1
   181f6:	fc76                	sd	t4,56(sp)
   181f8:	f47a                	sd	t5,40(sp)
   181fa:	f046                	sd	a7,32(sp)
   181fc:	ec42                	sd	a6,24(sp)
   181fe:	dd9fd0ef          	jal	15fd6 <strncpy>
   18202:	6862                	ld	a6,24(sp)
   18204:	47a9                	li	a5,10
   18206:	02fc57b3          	divu	a5,s8,a5
   1820a:	00184703          	lbu	a4,1(a6)
   1820e:	7882                	ld	a7,32(sp)
   18210:	7f22                	ld	t5,40(sp)
   18212:	00e03733          	snez	a4,a4
   18216:	7ee2                	ld	t4,56(sp)
   18218:	6326                	ld	t1,72(sp)
   1821a:	983a                	add	a6,a6,a4
   1821c:	4601                	li	a2,0
   1821e:	46a9                	li	a3,10
   18220:	4e25                	li	t3,9
   18222:	0ff00f93          	li	t6,255
   18226:	b541                	j	180a6 <_vfiprintf_r+0xa36>
   18228:	8bbe                	mv	s7,a5
   1822a:	4781                	li	a5,0
   1822c:	9e0781e3          	beqz	a5,17c0e <_vfiprintf_r+0x59e>
   18230:	b1b9                	j	17e7e <_vfiprintf_r+0x80e>
   18232:	200beb93          	or	s7,s7,512
   18236:	001dc783          	lbu	a5,1(s11)
   1823a:	2b81                	sext.w	s7,s7
   1823c:	0d85                	add	s11,s11,1
   1823e:	d3aff06f          	j	17778 <_vfiprintf_r+0x108>
   18242:	020beb93          	or	s7,s7,32
   18246:	001dc783          	lbu	a5,1(s11)
   1824a:	2b81                	sext.w	s7,s7
   1824c:	0d85                	add	s11,s11,1
   1824e:	d2aff06f          	j	17778 <_vfiprintf_r+0x108>
   18252:	4799                	li	a5,6
   18254:	000d031b          	sext.w	t1,s10
   18258:	05a7eb63          	bltu	a5,s10,182ae <_vfiprintf_r+0xc3e>
   1825c:	64ed                	lui	s1,0x1b
   1825e:	8e1a                	mv	t3,t1
   18260:	0c848493          	add	s1,s1,200 # 1b0c8 <__clzdi2+0xa6>
   18264:	e00ff06f          	j	17864 <_vfiprintf_r+0x1f4>
   18268:	4701                	li	a4,0
   1826a:	b911                	j	17e7e <_vfiprintf_r+0x80e>
   1826c:	200bf613          	and	a2,s7,512
   18270:	c625                	beqz	a2,182d8 <_vfiprintf_r+0xc68>
   18272:	0ff77713          	zext.b	a4,a4
   18276:	b701                	j	18176 <_vfiprintf_r+0xb06>
   18278:	20037793          	and	a5,t1,512
   1827c:	cbb1                	beqz	a5,182d0 <_vfiprintf_r+0xc60>
   1827e:	0ffc7c13          	zext.b	s8,s8
   18282:	b285                	j	17be2 <_vfiprintf_r+0x572>
   18284:	2007f693          	and	a3,a5,512
   18288:	c2a9                	beqz	a3,182ca <_vfiprintf_r+0xc5a>
   1828a:	0ff77713          	zext.b	a4,a4
   1828e:	b8c1                	j	17b5e <_vfiprintf_r+0x4ee>
   18290:	200bf793          	and	a5,s7,512
   18294:	cb85                	beqz	a5,182c4 <_vfiprintf_r+0xc54>
   18296:	018c1c1b          	sllw	s8,s8,0x18
   1829a:	418c5c1b          	sraw	s8,s8,0x18
   1829e:	87e2                	mv	a5,s8
   182a0:	ef0ff06f          	j	17990 <_vfiprintf_r+0x320>
   182a4:	4585                	li	a1,1
   182a6:	4701                	li	a4,0
   182a8:	844e                	mv	s0,s3
   182aa:	e4cff06f          	j	178f6 <_vfiprintf_r+0x286>
   182ae:	4319                	li	t1,6
   182b0:	b775                	j	1825c <_vfiprintf_r+0xbec>
   182b2:	4585                	li	a1,1
   182b4:	844e                	mv	s0,s3
   182b6:	df6ff06f          	j	178ac <_vfiprintf_r+0x23c>
   182ba:	01971023          	sh	s9,0(a4)
   182be:	0c21                	add	s8,s8,8
   182c0:	c44ff06f          	j	17704 <_vfiprintf_r+0x94>
   182c4:	87e2                	mv	a5,s8
   182c6:	ecaff06f          	j	17990 <_vfiprintf_r+0x320>
   182ca:	1702                	sll	a4,a4,0x20
   182cc:	9301                	srl	a4,a4,0x20
   182ce:	b841                	j	17b5e <_vfiprintf_r+0x4ee>
   182d0:	1c02                	sll	s8,s8,0x20
   182d2:	020c5c13          	srl	s8,s8,0x20
   182d6:	b231                	j	17be2 <_vfiprintf_r+0x572>
   182d8:	1702                	sll	a4,a4,0x20
   182da:	9301                	srl	a4,a4,0x20
   182dc:	bd69                	j	18176 <_vfiprintf_r+0xb06>
   182de:	8e6a                	mv	t3,s10
   182e0:	836a                	mv	t1,s10
   182e2:	4d01                	li	s10,0
   182e4:	f38ff06f          	j	17a1c <_vfiprintf_r+0x3ac>
   182e8:	6ef1                	lui	t4,0x1c
   182ea:	c28e8e93          	add	t4,t4,-984 # 1bc28 <blanks.1>
   182ee:	b93d                	j	17f2c <_vfiprintf_r+0x8bc>
   182f0:	8c76                	mv	s8,t4
   182f2:	03000793          	li	a5,48
   182f6:	f12ff06f          	j	17a08 <_vfiprintf_r+0x398>
   182fa:	6ef1                	lui	t4,0x1c
   182fc:	0016871b          	addw	a4,a3,1
   18300:	c28e8e93          	add	t4,t4,-984 # 1bc28 <blanks.1>
   18304:	b1e9                	j	17fce <_vfiprintf_r+0x95e>
   18306:	6f71                	lui	t5,0x1c
   18308:	86ae                	mv	a3,a1
   1830a:	c18f0f13          	add	t5,t5,-1000 # 1bc18 <zeroes.0>
   1830e:	b499                	j	17d54 <_vfiprintf_r+0x6e4>
   18310:	5c7d                	li	s8,-1
   18312:	ceaff06f          	j	177fc <_vfiprintf_r+0x18c>
   18316:	01972023          	sw	s9,0(a4)
   1831a:	0c21                	add	s8,s8,8
   1831c:	be8ff06f          	j	17704 <_vfiprintf_r+0x94>
   18320:	000c2783          	lw	a5,0(s8)
   18324:	0c21                	add	s8,s8,8
   18326:	00078d1b          	sext.w	s10,a5
   1832a:	0007d363          	bgez	a5,18330 <_vfiprintf_r+0xcc0>
   1832e:	5d7d                	li	s10,-1
   18330:	001dc783          	lbu	a5,1(s11)
   18334:	8dba                	mv	s11,a4
   18336:	c42ff06f          	j	17778 <_vfiprintf_r+0x108>

000000000001833a <vfiprintf>:
   1833a:	87aa                	mv	a5,a0
   1833c:	7581b503          	ld	a0,1880(gp) # 1d240 <_impure_ptr>
   18340:	86b2                	mv	a3,a2
   18342:	862e                	mv	a2,a1
   18344:	85be                	mv	a1,a5
   18346:	b2aff06f          	j	17670 <_vfiprintf_r>

000000000001834a <__sbprintf>:
   1834a:	01059783          	lh	a5,16(a1)
   1834e:	0125d703          	lhu	a4,18(a1)
   18352:	0ac5a303          	lw	t1,172(a1)
   18356:	9bf5                	and	a5,a5,-3
   18358:	0107979b          	sllw	a5,a5,0x10
   1835c:	0305b883          	ld	a7,48(a1)
   18360:	0405b803          	ld	a6,64(a1)
   18364:	0107171b          	sllw	a4,a4,0x10
   18368:	0107d79b          	srlw	a5,a5,0x10
   1836c:	b3010113          	add	sp,sp,-1232
   18370:	8fd9                	or	a5,a5,a4
   18372:	4c813023          	sd	s0,1216(sp)
   18376:	40000713          	li	a4,1024
   1837a:	c83e                	sw	a5,16(sp)
   1837c:	842e                	mv	s0,a1
   1837e:	191c                	add	a5,sp,176
   18380:	858a                	mv	a1,sp
   18382:	4a913c23          	sd	s1,1208(sp)
   18386:	4b213823          	sd	s2,1200(sp)
   1838a:	4c113423          	sd	ra,1224(sp)
   1838e:	892a                	mv	s2,a0
   18390:	d71a                	sw	t1,172(sp)
   18392:	f846                	sd	a7,48(sp)
   18394:	e0c2                	sd	a6,64(sp)
   18396:	e03e                	sd	a5,0(sp)
   18398:	ec3e                	sd	a5,24(sp)
   1839a:	c63a                	sw	a4,12(sp)
   1839c:	d03a                	sw	a4,32(sp)
   1839e:	d402                	sw	zero,40(sp)
   183a0:	ad0ff0ef          	jal	17670 <_vfiprintf_r>
   183a4:	84aa                	mv	s1,a0
   183a6:	02055963          	bgez	a0,183d8 <__sbprintf+0x8e>
   183aa:	01015783          	lhu	a5,16(sp)
   183ae:	0407f793          	and	a5,a5,64
   183b2:	c799                	beqz	a5,183c0 <__sbprintf+0x76>
   183b4:	01045783          	lhu	a5,16(s0)
   183b8:	0407e793          	or	a5,a5,64
   183bc:	00f41823          	sh	a5,16(s0)
   183c0:	4c813083          	ld	ra,1224(sp)
   183c4:	4c013403          	ld	s0,1216(sp)
   183c8:	4b013903          	ld	s2,1200(sp)
   183cc:	8526                	mv	a0,s1
   183ce:	4b813483          	ld	s1,1208(sp)
   183d2:	4d010113          	add	sp,sp,1232
   183d6:	8082                	ret
   183d8:	858a                	mv	a1,sp
   183da:	854a                	mv	a0,s2
   183dc:	2ee000ef          	jal	186ca <_fflush_r>
   183e0:	d569                	beqz	a0,183aa <__sbprintf+0x60>
   183e2:	54fd                	li	s1,-1
   183e4:	b7d9                	j	183aa <__sbprintf+0x60>

00000000000183e6 <__swsetup_r>:
   183e6:	7581b783          	ld	a5,1880(gp) # 1d240 <_impure_ptr>
   183ea:	1101                	add	sp,sp,-32
   183ec:	e822                	sd	s0,16(sp)
   183ee:	e426                	sd	s1,8(sp)
   183f0:	ec06                	sd	ra,24(sp)
   183f2:	84aa                	mv	s1,a0
   183f4:	842e                	mv	s0,a1
   183f6:	c399                	beqz	a5,183fc <__swsetup_r+0x16>
   183f8:	4bb8                	lw	a4,80(a5)
   183fa:	cb29                	beqz	a4,1844c <__swsetup_r+0x66>
   183fc:	01041783          	lh	a5,16(s0)
   18400:	0087f713          	and	a4,a5,8
   18404:	cf21                	beqz	a4,1845c <__swsetup_r+0x76>
   18406:	6c18                	ld	a4,24(s0)
   18408:	c735                	beqz	a4,18474 <__swsetup_r+0x8e>
   1840a:	0017f693          	and	a3,a5,1
   1840e:	ce91                	beqz	a3,1842a <__swsetup_r+0x44>
   18410:	5014                	lw	a3,32(s0)
   18412:	00042623          	sw	zero,12(s0)
   18416:	4501                	li	a0,0
   18418:	40d006bb          	negw	a3,a3
   1841c:	d414                	sw	a3,40(s0)
   1841e:	cf11                	beqz	a4,1843a <__swsetup_r+0x54>
   18420:	60e2                	ld	ra,24(sp)
   18422:	6442                	ld	s0,16(sp)
   18424:	64a2                	ld	s1,8(sp)
   18426:	6105                	add	sp,sp,32
   18428:	8082                	ret
   1842a:	0027f693          	and	a3,a5,2
   1842e:	4601                	li	a2,0
   18430:	e291                	bnez	a3,18434 <__swsetup_r+0x4e>
   18432:	5010                	lw	a2,32(s0)
   18434:	c450                	sw	a2,12(s0)
   18436:	4501                	li	a0,0
   18438:	f765                	bnez	a4,18420 <__swsetup_r+0x3a>
   1843a:	0807f713          	and	a4,a5,128
   1843e:	d36d                	beqz	a4,18420 <__swsetup_r+0x3a>
   18440:	0407e793          	or	a5,a5,64
   18444:	00f41823          	sh	a5,16(s0)
   18448:	557d                	li	a0,-1
   1844a:	bfd9                	j	18420 <__swsetup_r+0x3a>
   1844c:	853e                	mv	a0,a5
   1844e:	552000ef          	jal	189a0 <__sinit>
   18452:	01041783          	lh	a5,16(s0)
   18456:	0087f713          	and	a4,a5,8
   1845a:	f755                	bnez	a4,18406 <__swsetup_r+0x20>
   1845c:	0107f713          	and	a4,a5,16
   18460:	cf21                	beqz	a4,184b8 <__swsetup_r+0xd2>
   18462:	0047f713          	and	a4,a5,4
   18466:	e70d                	bnez	a4,18490 <__swsetup_r+0xaa>
   18468:	6c18                	ld	a4,24(s0)
   1846a:	0087e793          	or	a5,a5,8
   1846e:	00f41823          	sh	a5,16(s0)
   18472:	ff41                	bnez	a4,1840a <__swsetup_r+0x24>
   18474:	2807f693          	and	a3,a5,640
   18478:	20000613          	li	a2,512
   1847c:	f8c687e3          	beq	a3,a2,1840a <__swsetup_r+0x24>
   18480:	85a2                	mv	a1,s0
   18482:	8526                	mv	a0,s1
   18484:	28d000ef          	jal	18f10 <__smakebuf_r>
   18488:	01041783          	lh	a5,16(s0)
   1848c:	6c18                	ld	a4,24(s0)
   1848e:	bfb5                	j	1840a <__swsetup_r+0x24>
   18490:	6c2c                	ld	a1,88(s0)
   18492:	cd81                	beqz	a1,184aa <__swsetup_r+0xc4>
   18494:	07440713          	add	a4,s0,116
   18498:	00e58763          	beq	a1,a4,184a6 <__swsetup_r+0xc0>
   1849c:	8526                	mv	a0,s1
   1849e:	90cfa0ef          	jal	125aa <_free_r>
   184a2:	01041783          	lh	a5,16(s0)
   184a6:	04043c23          	sd	zero,88(s0)
   184aa:	6c18                	ld	a4,24(s0)
   184ac:	fdb7f793          	and	a5,a5,-37
   184b0:	00042423          	sw	zero,8(s0)
   184b4:	e018                	sd	a4,0(s0)
   184b6:	bf55                	j	1846a <__swsetup_r+0x84>
   184b8:	4725                	li	a4,9
   184ba:	c098                	sw	a4,0(s1)
   184bc:	0407e793          	or	a5,a5,64
   184c0:	b751                	j	18444 <__swsetup_r+0x5e>

00000000000184c2 <abort>:
   184c2:	1141                	add	sp,sp,-16
   184c4:	4519                	li	a0,6
   184c6:	e406                	sd	ra,8(sp)
   184c8:	571000ef          	jal	19238 <raise>
   184cc:	4505                	li	a0,1
   184ce:	3f6010ef          	jal	198c4 <_exit>

00000000000184d2 <__register_exitproc>:
   184d2:	7481b703          	ld	a4,1864(gp) # 1d230 <_global_impure_ptr>
   184d6:	1f873783          	ld	a5,504(a4)
   184da:	c3b1                	beqz	a5,1851e <__register_exitproc+0x4c>
   184dc:	4798                	lw	a4,8(a5)
   184de:	487d                	li	a6,31
   184e0:	06e84263          	blt	a6,a4,18544 <__register_exitproc+0x72>
   184e4:	c505                	beqz	a0,1850c <__register_exitproc+0x3a>
   184e6:	00371813          	sll	a6,a4,0x3
   184ea:	983e                	add	a6,a6,a5
   184ec:	10c83823          	sd	a2,272(a6)
   184f0:	3107a883          	lw	a7,784(a5)
   184f4:	4605                	li	a2,1
   184f6:	00e6163b          	sllw	a2,a2,a4
   184fa:	00c8e8b3          	or	a7,a7,a2
   184fe:	3117a823          	sw	a7,784(a5)
   18502:	20d83823          	sd	a3,528(a6)
   18506:	4689                	li	a3,2
   18508:	02d50063          	beq	a0,a3,18528 <__register_exitproc+0x56>
   1850c:	00270693          	add	a3,a4,2
   18510:	068e                	sll	a3,a3,0x3
   18512:	2705                	addw	a4,a4,1
   18514:	c798                	sw	a4,8(a5)
   18516:	97b6                	add	a5,a5,a3
   18518:	e38c                	sd	a1,0(a5)
   1851a:	4501                	li	a0,0
   1851c:	8082                	ret
   1851e:	20070793          	add	a5,a4,512
   18522:	1ef73c23          	sd	a5,504(a4)
   18526:	bf5d                	j	184dc <__register_exitproc+0xa>
   18528:	3147a683          	lw	a3,788(a5)
   1852c:	4501                	li	a0,0
   1852e:	8ed1                	or	a3,a3,a2
   18530:	30d7aa23          	sw	a3,788(a5)
   18534:	00270693          	add	a3,a4,2
   18538:	068e                	sll	a3,a3,0x3
   1853a:	2705                	addw	a4,a4,1
   1853c:	c798                	sw	a4,8(a5)
   1853e:	97b6                	add	a5,a5,a3
   18540:	e38c                	sd	a1,0(a5)
   18542:	8082                	ret
   18544:	557d                	li	a0,-1
   18546:	8082                	ret

0000000000018548 <__sflush_r>:
   18548:	01059783          	lh	a5,16(a1)
   1854c:	7179                	add	sp,sp,-48
   1854e:	f022                	sd	s0,32(sp)
   18550:	e44e                	sd	s3,8(sp)
   18552:	f406                	sd	ra,40(sp)
   18554:	ec26                	sd	s1,24(sp)
   18556:	e84a                	sd	s2,16(sp)
   18558:	0087f713          	and	a4,a5,8
   1855c:	842e                	mv	s0,a1
   1855e:	89aa                	mv	s3,a0
   18560:	e369                	bnez	a4,18622 <__sflush_r+0xda>
   18562:	6705                	lui	a4,0x1
   18564:	80070713          	add	a4,a4,-2048 # 800 <exit-0xf8e8>
   18568:	4594                	lw	a3,8(a1)
   1856a:	8f5d                	or	a4,a4,a5
   1856c:	00e59823          	sh	a4,16(a1)
   18570:	10d05463          	blez	a3,18678 <__sflush_r+0x130>
   18574:	04843803          	ld	a6,72(s0)
   18578:	08080d63          	beqz	a6,18612 <__sflush_r+0xca>
   1857c:	83b1                	srl	a5,a5,0xc
   1857e:	0009a483          	lw	s1,0(s3)
   18582:	8b85                	and	a5,a5,1
   18584:	0009a023          	sw	zero,0(s3)
   18588:	780c                	ld	a1,48(s0)
   1858a:	efe5                	bnez	a5,18682 <__sflush_r+0x13a>
   1858c:	4601                	li	a2,0
   1858e:	4685                	li	a3,1
   18590:	854e                	mv	a0,s3
   18592:	9802                	jalr	a6
   18594:	57fd                	li	a5,-1
   18596:	862a                	mv	a2,a0
   18598:	10f50863          	beq	a0,a5,186a8 <__sflush_r+0x160>
   1859c:	01041703          	lh	a4,16(s0)
   185a0:	04843803          	ld	a6,72(s0)
   185a4:	780c                	ld	a1,48(s0)
   185a6:	8b11                	and	a4,a4,4
   185a8:	c719                	beqz	a4,185b6 <__sflush_r+0x6e>
   185aa:	4418                	lw	a4,8(s0)
   185ac:	6c3c                	ld	a5,88(s0)
   185ae:	8e19                	sub	a2,a2,a4
   185b0:	c399                	beqz	a5,185b6 <__sflush_r+0x6e>
   185b2:	583c                	lw	a5,112(s0)
   185b4:	8e1d                	sub	a2,a2,a5
   185b6:	4681                	li	a3,0
   185b8:	854e                	mv	a0,s3
   185ba:	9802                	jalr	a6
   185bc:	57fd                	li	a5,-1
   185be:	0cf51463          	bne	a0,a5,18686 <__sflush_r+0x13e>
   185c2:	0009a683          	lw	a3,0(s3)
   185c6:	47f5                	li	a5,29
   185c8:	08d7ea63          	bltu	a5,a3,1865c <__sflush_r+0x114>
   185cc:	dfc00737          	lui	a4,0xdfc00
   185d0:	1779                	add	a4,a4,-2 # ffffffffdfbffffe <__BSS_END__+0xffffffffdfbe2d16>
   185d2:	40d75733          	sra	a4,a4,a3
   185d6:	8b05                	and	a4,a4,1
   185d8:	01041783          	lh	a5,16(s0)
   185dc:	e351                	bnez	a4,18660 <__sflush_r+0x118>
   185de:	6c10                	ld	a2,24(s0)
   185e0:	777d                	lui	a4,0xfffff
   185e2:	7ff70713          	add	a4,a4,2047 # fffffffffffff7ff <__BSS_END__+0xfffffffffffe2517>
   185e6:	8f7d                	and	a4,a4,a5
   185e8:	83b1                	srl	a5,a5,0xc
   185ea:	00e41823          	sh	a4,16(s0)
   185ee:	00042423          	sw	zero,8(s0)
   185f2:	e010                	sd	a2,0(s0)
   185f4:	8b85                	and	a5,a5,1
   185f6:	e7f9                	bnez	a5,186c4 <__sflush_r+0x17c>
   185f8:	6c2c                	ld	a1,88(s0)
   185fa:	0099a023          	sw	s1,0(s3)
   185fe:	c991                	beqz	a1,18612 <__sflush_r+0xca>
   18600:	07440793          	add	a5,s0,116
   18604:	00f58563          	beq	a1,a5,1860e <__sflush_r+0xc6>
   18608:	854e                	mv	a0,s3
   1860a:	fa1f90ef          	jal	125aa <_free_r>
   1860e:	04043c23          	sd	zero,88(s0)
   18612:	4501                	li	a0,0
   18614:	70a2                	ld	ra,40(sp)
   18616:	7402                	ld	s0,32(sp)
   18618:	64e2                	ld	s1,24(sp)
   1861a:	6942                	ld	s2,16(sp)
   1861c:	69a2                	ld	s3,8(sp)
   1861e:	6145                	add	sp,sp,48
   18620:	8082                	ret
   18622:	0185b903          	ld	s2,24(a1)
   18626:	fe0906e3          	beqz	s2,18612 <__sflush_r+0xca>
   1862a:	6184                	ld	s1,0(a1)
   1862c:	8b8d                	and	a5,a5,3
   1862e:	0125b023          	sd	s2,0(a1)
   18632:	412484bb          	subw	s1,s1,s2
   18636:	4701                	li	a4,0
   18638:	e391                	bnez	a5,1863c <__sflush_r+0xf4>
   1863a:	5198                	lw	a4,32(a1)
   1863c:	c458                	sw	a4,12(s0)
   1863e:	00904663          	bgtz	s1,1864a <__sflush_r+0x102>
   18642:	bfc1                	j	18612 <__sflush_r+0xca>
   18644:	992a                	add	s2,s2,a0
   18646:	fc9056e3          	blez	s1,18612 <__sflush_r+0xca>
   1864a:	603c                	ld	a5,64(s0)
   1864c:	780c                	ld	a1,48(s0)
   1864e:	86a6                	mv	a3,s1
   18650:	864a                	mv	a2,s2
   18652:	854e                	mv	a0,s3
   18654:	9782                	jalr	a5
   18656:	9c89                	subw	s1,s1,a0
   18658:	fea046e3          	bgtz	a0,18644 <__sflush_r+0xfc>
   1865c:	01041783          	lh	a5,16(s0)
   18660:	0407e793          	or	a5,a5,64
   18664:	70a2                	ld	ra,40(sp)
   18666:	00f41823          	sh	a5,16(s0)
   1866a:	7402                	ld	s0,32(sp)
   1866c:	64e2                	ld	s1,24(sp)
   1866e:	6942                	ld	s2,16(sp)
   18670:	69a2                	ld	s3,8(sp)
   18672:	557d                	li	a0,-1
   18674:	6145                	add	sp,sp,48
   18676:	8082                	ret
   18678:	59b4                	lw	a3,112(a1)
   1867a:	eed04de3          	bgtz	a3,18574 <__sflush_r+0x2c>
   1867e:	4501                	li	a0,0
   18680:	bf51                	j	18614 <__sflush_r+0xcc>
   18682:	6850                	ld	a2,144(s0)
   18684:	b70d                	j	185a6 <__sflush_r+0x5e>
   18686:	01041783          	lh	a5,16(s0)
   1868a:	6c14                	ld	a3,24(s0)
   1868c:	777d                	lui	a4,0xfffff
   1868e:	7ff70713          	add	a4,a4,2047 # fffffffffffff7ff <__BSS_END__+0xfffffffffffe2517>
   18692:	8f7d                	and	a4,a4,a5
   18694:	83b1                	srl	a5,a5,0xc
   18696:	00e41823          	sh	a4,16(s0)
   1869a:	00042423          	sw	zero,8(s0)
   1869e:	e014                	sd	a3,0(s0)
   186a0:	8b85                	and	a5,a5,1
   186a2:	dbb9                	beqz	a5,185f8 <__sflush_r+0xb0>
   186a4:	e848                	sd	a0,144(s0)
   186a6:	bf89                	j	185f8 <__sflush_r+0xb0>
   186a8:	0009a783          	lw	a5,0(s3)
   186ac:	ee0788e3          	beqz	a5,1859c <__sflush_r+0x54>
   186b0:	4775                	li	a4,29
   186b2:	00e78563          	beq	a5,a4,186bc <__sflush_r+0x174>
   186b6:	4759                	li	a4,22
   186b8:	fae792e3          	bne	a5,a4,1865c <__sflush_r+0x114>
   186bc:	0099a023          	sw	s1,0(s3)
   186c0:	4501                	li	a0,0
   186c2:	bf89                	j	18614 <__sflush_r+0xcc>
   186c4:	fa95                	bnez	a3,185f8 <__sflush_r+0xb0>
   186c6:	e848                	sd	a0,144(s0)
   186c8:	bf05                	j	185f8 <__sflush_r+0xb0>

00000000000186ca <_fflush_r>:
   186ca:	1101                	add	sp,sp,-32
   186cc:	e822                	sd	s0,16(sp)
   186ce:	ec06                	sd	ra,24(sp)
   186d0:	842a                	mv	s0,a0
   186d2:	c119                	beqz	a0,186d8 <_fflush_r+0xe>
   186d4:	493c                	lw	a5,80(a0)
   186d6:	cb89                	beqz	a5,186e8 <_fflush_r+0x1e>
   186d8:	01059783          	lh	a5,16(a1)
   186dc:	ef89                	bnez	a5,186f6 <_fflush_r+0x2c>
   186de:	60e2                	ld	ra,24(sp)
   186e0:	6442                	ld	s0,16(sp)
   186e2:	4501                	li	a0,0
   186e4:	6105                	add	sp,sp,32
   186e6:	8082                	ret
   186e8:	e42e                	sd	a1,8(sp)
   186ea:	2b6000ef          	jal	189a0 <__sinit>
   186ee:	65a2                	ld	a1,8(sp)
   186f0:	01059783          	lh	a5,16(a1)
   186f4:	d7ed                	beqz	a5,186de <_fflush_r+0x14>
   186f6:	8522                	mv	a0,s0
   186f8:	6442                	ld	s0,16(sp)
   186fa:	60e2                	ld	ra,24(sp)
   186fc:	6105                	add	sp,sp,32
   186fe:	e4bff06f          	j	18548 <__sflush_r>

0000000000018702 <fflush>:
   18702:	c121                	beqz	a0,18742 <fflush+0x40>
   18704:	1101                	add	sp,sp,-32
   18706:	e822                	sd	s0,16(sp)
   18708:	842a                	mv	s0,a0
   1870a:	7581b503          	ld	a0,1880(gp) # 1d240 <_impure_ptr>
   1870e:	ec06                	sd	ra,24(sp)
   18710:	c119                	beqz	a0,18716 <fflush+0x14>
   18712:	493c                	lw	a5,80(a0)
   18714:	cf99                	beqz	a5,18732 <fflush+0x30>
   18716:	01041783          	lh	a5,16(s0)
   1871a:	e791                	bnez	a5,18726 <fflush+0x24>
   1871c:	60e2                	ld	ra,24(sp)
   1871e:	6442                	ld	s0,16(sp)
   18720:	4501                	li	a0,0
   18722:	6105                	add	sp,sp,32
   18724:	8082                	ret
   18726:	85a2                	mv	a1,s0
   18728:	6442                	ld	s0,16(sp)
   1872a:	60e2                	ld	ra,24(sp)
   1872c:	6105                	add	sp,sp,32
   1872e:	e1bff06f          	j	18548 <__sflush_r>
   18732:	e42a                	sd	a0,8(sp)
   18734:	26c000ef          	jal	189a0 <__sinit>
   18738:	01041783          	lh	a5,16(s0)
   1873c:	6522                	ld	a0,8(sp)
   1873e:	dff9                	beqz	a5,1871c <fflush+0x1a>
   18740:	b7dd                	j	18726 <fflush+0x24>
   18742:	7481b503          	ld	a0,1864(gp) # 1d230 <_global_impure_ptr>
   18746:	65e1                	lui	a1,0x18
   18748:	6ca58593          	add	a1,a1,1738 # 186ca <_fflush_r>
   1874c:	a781                	j	18e8c <_fwalk_reent>

000000000001874e <__fp_lock>:
   1874e:	4501                	li	a0,0
   18750:	8082                	ret

0000000000018752 <_cleanup_r>:
   18752:	65e5                	lui	a1,0x19
   18754:	6f858593          	add	a1,a1,1784 # 196f8 <_fclose_r>
   18758:	af15                	j	18e8c <_fwalk_reent>

000000000001875a <__fp_unlock>:
   1875a:	4501                	li	a0,0
   1875c:	8082                	ret

000000000001875e <__sinit.part.0>:
   1875e:	7139                	add	sp,sp,-64
   18760:	67e1                	lui	a5,0x18
   18762:	fc06                	sd	ra,56(sp)
   18764:	f822                	sd	s0,48(sp)
   18766:	f426                	sd	s1,40(sp)
   18768:	f04a                	sd	s2,32(sp)
   1876a:	ec4e                	sd	s3,24(sp)
   1876c:	e852                	sd	s4,16(sp)
   1876e:	e456                	sd	s5,8(sp)
   18770:	e05a                	sd	s6,0(sp)
   18772:	6500                	ld	s0,8(a0)
   18774:	75278793          	add	a5,a5,1874 # 18752 <_cleanup_r>
   18778:	ed3c                	sd	a5,88(a0)
   1877a:	53850713          	add	a4,a0,1336
   1877e:	478d                	li	a5,3
   18780:	52e53823          	sd	a4,1328(a0)
   18784:	52f52423          	sw	a5,1320(a0)
   18788:	52053023          	sd	zero,1312(a0)
   1878c:	4791                	li	a5,4
   1878e:	892a                	mv	s2,a0
   18790:	c81c                	sw	a5,16(s0)
   18792:	4621                	li	a2,8
   18794:	4581                	li	a1,0
   18796:	00043023          	sd	zero,0(s0)
   1879a:	00043423          	sd	zero,8(s0)
   1879e:	0a042623          	sw	zero,172(s0)
   187a2:	00043c23          	sd	zero,24(s0)
   187a6:	02042023          	sw	zero,32(s0)
   187aa:	02042423          	sw	zero,40(s0)
   187ae:	0a440513          	add	a0,s0,164
   187b2:	fd3f70ef          	jal	10784 <memset>
   187b6:	6b65                	lui	s6,0x19
   187b8:	01093483          	ld	s1,16(s2)
   187bc:	6ae5                	lui	s5,0x19
   187be:	6a65                	lui	s4,0x19
   187c0:	69e5                	lui	s3,0x19
   187c2:	40ab0b13          	add	s6,s6,1034 # 1940a <__sread>
   187c6:	446a8a93          	add	s5,s5,1094 # 19446 <__swrite>
   187ca:	498a0a13          	add	s4,s4,1176 # 19498 <__sseek>
   187ce:	4ea98993          	add	s3,s3,1258 # 194ea <__sclose>
   187d2:	67c1                	lui	a5,0x10
   187d4:	03643c23          	sd	s6,56(s0)
   187d8:	05543023          	sd	s5,64(s0)
   187dc:	05443423          	sd	s4,72(s0)
   187e0:	05343823          	sd	s3,80(s0)
   187e4:	f800                	sd	s0,48(s0)
   187e6:	07a5                	add	a5,a5,9 # 10009 <exit-0xdf>
   187e8:	c89c                	sw	a5,16(s1)
   187ea:	4621                	li	a2,8
   187ec:	4581                	li	a1,0
   187ee:	0004b023          	sd	zero,0(s1)
   187f2:	0004b423          	sd	zero,8(s1)
   187f6:	0a04a623          	sw	zero,172(s1)
   187fa:	0004bc23          	sd	zero,24(s1)
   187fe:	0204a023          	sw	zero,32(s1)
   18802:	0204a423          	sw	zero,40(s1)
   18806:	0a448513          	add	a0,s1,164
   1880a:	f7bf70ef          	jal	10784 <memset>
   1880e:	01893403          	ld	s0,24(s2)
   18812:	000207b7          	lui	a5,0x20
   18816:	0364bc23          	sd	s6,56(s1)
   1881a:	0554b023          	sd	s5,64(s1)
   1881e:	0544b423          	sd	s4,72(s1)
   18822:	0534b823          	sd	s3,80(s1)
   18826:	f884                	sd	s1,48(s1)
   18828:	07c9                	add	a5,a5,18 # 20012 <__BSS_END__+0x2d2a>
   1882a:	c81c                	sw	a5,16(s0)
   1882c:	00043023          	sd	zero,0(s0)
   18830:	00043423          	sd	zero,8(s0)
   18834:	0a042623          	sw	zero,172(s0)
   18838:	00043c23          	sd	zero,24(s0)
   1883c:	02042023          	sw	zero,32(s0)
   18840:	02042423          	sw	zero,40(s0)
   18844:	0a440513          	add	a0,s0,164
   18848:	4621                	li	a2,8
   1884a:	4581                	li	a1,0
   1884c:	f39f70ef          	jal	10784 <memset>
   18850:	70e2                	ld	ra,56(sp)
   18852:	03643c23          	sd	s6,56(s0)
   18856:	05543023          	sd	s5,64(s0)
   1885a:	05443423          	sd	s4,72(s0)
   1885e:	05343823          	sd	s3,80(s0)
   18862:	f800                	sd	s0,48(s0)
   18864:	7442                	ld	s0,48(sp)
   18866:	4785                	li	a5,1
   18868:	04f92823          	sw	a5,80(s2)
   1886c:	74a2                	ld	s1,40(sp)
   1886e:	7902                	ld	s2,32(sp)
   18870:	69e2                	ld	s3,24(sp)
   18872:	6a42                	ld	s4,16(sp)
   18874:	6aa2                	ld	s5,8(sp)
   18876:	6b02                	ld	s6,0(sp)
   18878:	6121                	add	sp,sp,64
   1887a:	8082                	ret

000000000001887c <__sfmoreglue>:
   1887c:	1101                	add	sp,sp,-32
   1887e:	e426                	sd	s1,8(sp)
   18880:	0b000793          	li	a5,176
   18884:	fff5849b          	addw	s1,a1,-1
   18888:	02f484b3          	mul	s1,s1,a5
   1888c:	e04a                	sd	s2,0(sp)
   1888e:	892e                	mv	s2,a1
   18890:	e822                	sd	s0,16(sp)
   18892:	ec06                	sd	ra,24(sp)
   18894:	0c848593          	add	a1,s1,200
   18898:	912fc0ef          	jal	149aa <_malloc_r>
   1889c:	842a                	mv	s0,a0
   1889e:	cd01                	beqz	a0,188b6 <__sfmoreglue+0x3a>
   188a0:	0561                	add	a0,a0,24
   188a2:	00043023          	sd	zero,0(s0)
   188a6:	01242423          	sw	s2,8(s0)
   188aa:	e808                	sd	a0,16(s0)
   188ac:	0b048613          	add	a2,s1,176
   188b0:	4581                	li	a1,0
   188b2:	ed3f70ef          	jal	10784 <memset>
   188b6:	60e2                	ld	ra,24(sp)
   188b8:	8522                	mv	a0,s0
   188ba:	6442                	ld	s0,16(sp)
   188bc:	64a2                	ld	s1,8(sp)
   188be:	6902                	ld	s2,0(sp)
   188c0:	6105                	add	sp,sp,32
   188c2:	8082                	ret

00000000000188c4 <__sfp>:
   188c4:	7179                	add	sp,sp,-48
   188c6:	ec26                	sd	s1,24(sp)
   188c8:	7481b483          	ld	s1,1864(gp) # 1d230 <_global_impure_ptr>
   188cc:	e84a                	sd	s2,16(sp)
   188ce:	f406                	sd	ra,40(sp)
   188d0:	48bc                	lw	a5,80(s1)
   188d2:	f022                	sd	s0,32(sp)
   188d4:	e44e                	sd	s3,8(sp)
   188d6:	892a                	mv	s2,a0
   188d8:	cfbd                	beqz	a5,18956 <__sfp+0x92>
   188da:	52048493          	add	s1,s1,1312
   188de:	0b000993          	li	s3,176
   188e2:	4498                	lw	a4,8(s1)
   188e4:	6880                	ld	s0,16(s1)
   188e6:	06e05463          	blez	a4,1894e <__sfp+0x8a>
   188ea:	1702                	sll	a4,a4,0x20
   188ec:	9301                	srl	a4,a4,0x20
   188ee:	03370733          	mul	a4,a4,s3
   188f2:	9722                	add	a4,a4,s0
   188f4:	a029                	j	188fe <__sfp+0x3a>
   188f6:	0b040413          	add	s0,s0,176
   188fa:	04e40a63          	beq	s0,a4,1894e <__sfp+0x8a>
   188fe:	01041783          	lh	a5,16(s0)
   18902:	fbf5                	bnez	a5,188f6 <__sfp+0x32>
   18904:	77c1                	lui	a5,0xffff0
   18906:	0785                	add	a5,a5,1 # ffffffffffff0001 <__BSS_END__+0xfffffffffffd2d19>
   18908:	c81c                	sw	a5,16(s0)
   1890a:	0a042623          	sw	zero,172(s0)
   1890e:	00043023          	sd	zero,0(s0)
   18912:	00043423          	sd	zero,8(s0)
   18916:	00043c23          	sd	zero,24(s0)
   1891a:	02042023          	sw	zero,32(s0)
   1891e:	02042423          	sw	zero,40(s0)
   18922:	4621                	li	a2,8
   18924:	4581                	li	a1,0
   18926:	0a440513          	add	a0,s0,164
   1892a:	e5bf70ef          	jal	10784 <memset>
   1892e:	04043c23          	sd	zero,88(s0)
   18932:	06042023          	sw	zero,96(s0)
   18936:	06043c23          	sd	zero,120(s0)
   1893a:	08042023          	sw	zero,128(s0)
   1893e:	70a2                	ld	ra,40(sp)
   18940:	8522                	mv	a0,s0
   18942:	7402                	ld	s0,32(sp)
   18944:	64e2                	ld	s1,24(sp)
   18946:	6942                	ld	s2,16(sp)
   18948:	69a2                	ld	s3,8(sp)
   1894a:	6145                	add	sp,sp,48
   1894c:	8082                	ret
   1894e:	6080                	ld	s0,0(s1)
   18950:	c419                	beqz	s0,1895e <__sfp+0x9a>
   18952:	84a2                	mv	s1,s0
   18954:	b779                	j	188e2 <__sfp+0x1e>
   18956:	8526                	mv	a0,s1
   18958:	e07ff0ef          	jal	1875e <__sinit.part.0>
   1895c:	bfbd                	j	188da <__sfp+0x16>
   1895e:	2d800593          	li	a1,728
   18962:	854a                	mv	a0,s2
   18964:	846fc0ef          	jal	149aa <_malloc_r>
   18968:	842a                	mv	s0,a0
   1896a:	cd19                	beqz	a0,18988 <__sfp+0xc4>
   1896c:	0561                	add	a0,a0,24
   1896e:	4791                	li	a5,4
   18970:	00043023          	sd	zero,0(s0)
   18974:	c41c                	sw	a5,8(s0)
   18976:	e808                	sd	a0,16(s0)
   18978:	2c000613          	li	a2,704
   1897c:	4581                	li	a1,0
   1897e:	e07f70ef          	jal	10784 <memset>
   18982:	e080                	sd	s0,0(s1)
   18984:	84a2                	mv	s1,s0
   18986:	bfb1                	j	188e2 <__sfp+0x1e>
   18988:	0004b023          	sd	zero,0(s1)
   1898c:	47b1                	li	a5,12
   1898e:	00f92023          	sw	a5,0(s2)
   18992:	b775                	j	1893e <__sfp+0x7a>

0000000000018994 <_cleanup>:
   18994:	7481b503          	ld	a0,1864(gp) # 1d230 <_global_impure_ptr>
   18998:	65e5                	lui	a1,0x19
   1899a:	6f858593          	add	a1,a1,1784 # 196f8 <_fclose_r>
   1899e:	a1fd                	j	18e8c <_fwalk_reent>

00000000000189a0 <__sinit>:
   189a0:	493c                	lw	a5,80(a0)
   189a2:	c391                	beqz	a5,189a6 <__sinit+0x6>
   189a4:	8082                	ret
   189a6:	db9ff06f          	j	1875e <__sinit.part.0>

00000000000189aa <__sfp_lock_acquire>:
   189aa:	8082                	ret

00000000000189ac <__sfp_lock_release>:
   189ac:	8082                	ret

00000000000189ae <__sinit_lock_acquire>:
   189ae:	8082                	ret

00000000000189b0 <__sinit_lock_release>:
   189b0:	8082                	ret

00000000000189b2 <__fp_lock_all>:
   189b2:	7581b503          	ld	a0,1880(gp) # 1d240 <_impure_ptr>
   189b6:	65e1                	lui	a1,0x18
   189b8:	74e58593          	add	a1,a1,1870 # 1874e <__fp_lock>
   189bc:	a991                	j	18e10 <_fwalk>

00000000000189be <__fp_unlock_all>:
   189be:	7581b503          	ld	a0,1880(gp) # 1d240 <_impure_ptr>
   189c2:	65e1                	lui	a1,0x18
   189c4:	75a58593          	add	a1,a1,1882 # 1875a <__fp_unlock>
   189c8:	a1a1                	j	18e10 <_fwalk>

00000000000189ca <__fputwc>:
   189ca:	7179                	add	sp,sp,-48
   189cc:	f022                	sd	s0,32(sp)
   189ce:	ec26                	sd	s1,24(sp)
   189d0:	e84a                	sd	s2,16(sp)
   189d2:	f406                	sd	ra,40(sp)
   189d4:	892a                	mv	s2,a0
   189d6:	84ae                	mv	s1,a1
   189d8:	8432                	mv	s0,a2
   189da:	f7ffb0ef          	jal	14958 <__locale_mb_cur_max>
   189de:	4785                	li	a5,1
   189e0:	00f51b63          	bne	a0,a5,189f6 <__fputwc+0x2c>
   189e4:	fff4879b          	addw	a5,s1,-1
   189e8:	0fe00713          	li	a4,254
   189ec:	00f76563          	bltu	a4,a5,189f6 <__fputwc+0x2c>
   189f0:	00910423          	sb	s1,8(sp)
   189f4:	a821                	j	18a0c <__fputwc+0x42>
   189f6:	0a440693          	add	a3,s0,164
   189fa:	8626                	mv	a2,s1
   189fc:	002c                	add	a1,sp,8
   189fe:	854a                	mv	a0,s2
   18a00:	3f1000ef          	jal	195f0 <_wcrtomb_r>
   18a04:	57fd                	li	a5,-1
   18a06:	04f50d63          	beq	a0,a5,18a60 <__fputwc+0x96>
   18a0a:	c50d                	beqz	a0,18a34 <__fputwc+0x6a>
   18a0c:	445c                	lw	a5,12(s0)
   18a0e:	00814583          	lbu	a1,8(sp)
   18a12:	fff7871b          	addw	a4,a5,-1
   18a16:	c458                	sw	a4,12(s0)
   18a18:	00075863          	bgez	a4,18a28 <__fputwc+0x5e>
   18a1c:	541c                	lw	a5,40(s0)
   18a1e:	02f74363          	blt	a4,a5,18a44 <__fputwc+0x7a>
   18a22:	47a9                	li	a5,10
   18a24:	02f58063          	beq	a1,a5,18a44 <__fputwc+0x7a>
   18a28:	601c                	ld	a5,0(s0)
   18a2a:	00178713          	add	a4,a5,1
   18a2e:	e018                	sd	a4,0(s0)
   18a30:	00b78023          	sb	a1,0(a5)
   18a34:	70a2                	ld	ra,40(sp)
   18a36:	7402                	ld	s0,32(sp)
   18a38:	6942                	ld	s2,16(sp)
   18a3a:	0004851b          	sext.w	a0,s1
   18a3e:	64e2                	ld	s1,24(sp)
   18a40:	6145                	add	sp,sp,48
   18a42:	8082                	ret
   18a44:	8622                	mv	a2,s0
   18a46:	854a                	mv	a0,s2
   18a48:	2a9000ef          	jal	194f0 <__swbuf_r>
   18a4c:	57fd                	li	a5,-1
   18a4e:	fef513e3          	bne	a0,a5,18a34 <__fputwc+0x6a>
   18a52:	557d                	li	a0,-1
   18a54:	70a2                	ld	ra,40(sp)
   18a56:	7402                	ld	s0,32(sp)
   18a58:	64e2                	ld	s1,24(sp)
   18a5a:	6942                	ld	s2,16(sp)
   18a5c:	6145                	add	sp,sp,48
   18a5e:	8082                	ret
   18a60:	01045783          	lhu	a5,16(s0)
   18a64:	557d                	li	a0,-1
   18a66:	0407e793          	or	a5,a5,64
   18a6a:	00f41823          	sh	a5,16(s0)
   18a6e:	b7dd                	j	18a54 <__fputwc+0x8a>

0000000000018a70 <_fputwc_r>:
   18a70:	01061783          	lh	a5,16(a2)
   18a74:	03279713          	sll	a4,a5,0x32
   18a78:	00074c63          	bltz	a4,18a90 <_fputwc_r+0x20>
   18a7c:	0ac62703          	lw	a4,172(a2)
   18a80:	6689                	lui	a3,0x2
   18a82:	8fd5                	or	a5,a5,a3
   18a84:	6689                	lui	a3,0x2
   18a86:	8f55                	or	a4,a4,a3
   18a88:	00f61823          	sh	a5,16(a2)
   18a8c:	0ae62623          	sw	a4,172(a2)
   18a90:	bf2d                	j	189ca <__fputwc>

0000000000018a92 <fputwc>:
   18a92:	1101                	add	sp,sp,-32
   18a94:	e822                	sd	s0,16(sp)
   18a96:	7581b403          	ld	s0,1880(gp) # 1d240 <_impure_ptr>
   18a9a:	ec06                	sd	ra,24(sp)
   18a9c:	862e                	mv	a2,a1
   18a9e:	85aa                	mv	a1,a0
   18aa0:	c019                	beqz	s0,18aa6 <fputwc+0x14>
   18aa2:	483c                	lw	a5,80(s0)
   18aa4:	c79d                	beqz	a5,18ad2 <fputwc+0x40>
   18aa6:	01061783          	lh	a5,16(a2)
   18aaa:	03279713          	sll	a4,a5,0x32
   18aae:	00074c63          	bltz	a4,18ac6 <fputwc+0x34>
   18ab2:	0ac62703          	lw	a4,172(a2)
   18ab6:	6689                	lui	a3,0x2
   18ab8:	8fd5                	or	a5,a5,a3
   18aba:	6689                	lui	a3,0x2
   18abc:	8f55                	or	a4,a4,a3
   18abe:	00f61823          	sh	a5,16(a2)
   18ac2:	0ae62623          	sw	a4,172(a2)
   18ac6:	8522                	mv	a0,s0
   18ac8:	6442                	ld	s0,16(sp)
   18aca:	60e2                	ld	ra,24(sp)
   18acc:	6105                	add	sp,sp,32
   18ace:	efdff06f          	j	189ca <__fputwc>
   18ad2:	e02a                	sd	a0,0(sp)
   18ad4:	8522                	mv	a0,s0
   18ad6:	e432                	sd	a2,8(sp)
   18ad8:	ec9ff0ef          	jal	189a0 <__sinit>
   18adc:	6622                	ld	a2,8(sp)
   18ade:	6582                	ld	a1,0(sp)
   18ae0:	b7d9                	j	18aa6 <fputwc+0x14>

0000000000018ae2 <__sfvwrite_r>:
   18ae2:	6a1c                	ld	a5,16(a2)
   18ae4:	1a078a63          	beqz	a5,18c98 <__sfvwrite_r+0x1b6>
   18ae8:	01059703          	lh	a4,16(a1)
   18aec:	711d                	add	sp,sp,-96
   18aee:	e8a2                	sd	s0,80(sp)
   18af0:	f852                	sd	s4,48(sp)
   18af2:	f05a                	sd	s6,32(sp)
   18af4:	ec86                	sd	ra,88(sp)
   18af6:	e4a6                	sd	s1,72(sp)
   18af8:	e0ca                	sd	s2,64(sp)
   18afa:	fc4e                	sd	s3,56(sp)
   18afc:	f456                	sd	s5,40(sp)
   18afe:	ec5e                	sd	s7,24(sp)
   18b00:	e862                	sd	s8,16(sp)
   18b02:	e466                	sd	s9,8(sp)
   18b04:	00877793          	and	a5,a4,8
   18b08:	8b32                	mv	s6,a2
   18b0a:	8a2a                	mv	s4,a0
   18b0c:	842e                	mv	s0,a1
   18b0e:	c3b5                	beqz	a5,18b72 <__sfvwrite_r+0x90>
   18b10:	6d9c                	ld	a5,24(a1)
   18b12:	c3a5                	beqz	a5,18b72 <__sfvwrite_r+0x90>
   18b14:	00277793          	and	a5,a4,2
   18b18:	000b3483          	ld	s1,0(s6)
   18b1c:	cba5                	beqz	a5,18b8c <__sfvwrite_r+0xaa>
   18b1e:	603c                	ld	a5,64(s0)
   18b20:	780c                	ld	a1,48(s0)
   18b22:	80000ab7          	lui	s5,0x80000
   18b26:	4981                	li	s3,0
   18b28:	4901                	li	s2,0
   18b2a:	c00aca93          	xor	s5,s5,-1024
   18b2e:	864e                	mv	a2,s3
   18b30:	8552                	mv	a0,s4
   18b32:	02090a63          	beqz	s2,18b66 <__sfvwrite_r+0x84>
   18b36:	86ca                	mv	a3,s2
   18b38:	012af363          	bgeu	s5,s2,18b3e <__sfvwrite_r+0x5c>
   18b3c:	86d6                	mv	a3,s5
   18b3e:	2681                	sext.w	a3,a3
   18b40:	9782                	jalr	a5
   18b42:	14a05363          	blez	a0,18c88 <__sfvwrite_r+0x1a6>
   18b46:	010b3783          	ld	a5,16(s6)
   18b4a:	99aa                	add	s3,s3,a0
   18b4c:	40a90933          	sub	s2,s2,a0
   18b50:	8f89                	sub	a5,a5,a0
   18b52:	00fb3823          	sd	a5,16(s6)
   18b56:	10078663          	beqz	a5,18c62 <__sfvwrite_r+0x180>
   18b5a:	603c                	ld	a5,64(s0)
   18b5c:	780c                	ld	a1,48(s0)
   18b5e:	864e                	mv	a2,s3
   18b60:	8552                	mv	a0,s4
   18b62:	fc091ae3          	bnez	s2,18b36 <__sfvwrite_r+0x54>
   18b66:	0004b983          	ld	s3,0(s1)
   18b6a:	0084b903          	ld	s2,8(s1)
   18b6e:	04c1                	add	s1,s1,16
   18b70:	bf7d                	j	18b2e <__sfvwrite_r+0x4c>
   18b72:	85a2                	mv	a1,s0
   18b74:	8552                	mv	a0,s4
   18b76:	871ff0ef          	jal	183e6 <__swsetup_r>
   18b7a:	10051d63          	bnez	a0,18c94 <__sfvwrite_r+0x1b2>
   18b7e:	01041703          	lh	a4,16(s0)
   18b82:	000b3483          	ld	s1,0(s6)
   18b86:	00277793          	and	a5,a4,2
   18b8a:	fbd1                	bnez	a5,18b1e <__sfvwrite_r+0x3c>
   18b8c:	00177793          	and	a5,a4,1
   18b90:	eba5                	bnez	a5,18c00 <__sfvwrite_r+0x11e>
   18b92:	00c42b83          	lw	s7,12(s0)
   18b96:	601c                	ld	a5,0(s0)
   18b98:	80000ab7          	lui	s5,0x80000
   18b9c:	4c01                	li	s8,0
   18b9e:	4901                	li	s2,0
   18ba0:	fffaca93          	not	s5,s5
   18ba4:	853e                	mv	a0,a5
   18ba6:	04090763          	beqz	s2,18bf4 <__sfvwrite_r+0x112>
   18baa:	20077693          	and	a3,a4,512
   18bae:	12068963          	beqz	a3,18ce0 <__sfvwrite_r+0x1fe>
   18bb2:	19797863          	bgeu	s2,s7,18d42 <__sfvwrite_r+0x260>
   18bb6:	8cca                	mv	s9,s2
   18bb8:	8bca                	mv	s7,s2
   18bba:	865e                	mv	a2,s7
   18bbc:	85e2                	mv	a1,s8
   18bbe:	c2afe0ef          	jal	16fe8 <memmove>
   18bc2:	4458                	lw	a4,12(s0)
   18bc4:	601c                	ld	a5,0(s0)
   18bc6:	89ca                	mv	s3,s2
   18bc8:	4197073b          	subw	a4,a4,s9
   18bcc:	97de                	add	a5,a5,s7
   18bce:	c458                	sw	a4,12(s0)
   18bd0:	e01c                	sd	a5,0(s0)
   18bd2:	4901                	li	s2,0
   18bd4:	010b3783          	ld	a5,16(s6)
   18bd8:	9c4e                	add	s8,s8,s3
   18bda:	413787b3          	sub	a5,a5,s3
   18bde:	00fb3823          	sd	a5,16(s6)
   18be2:	c3c1                	beqz	a5,18c62 <__sfvwrite_r+0x180>
   18be4:	601c                	ld	a5,0(s0)
   18be6:	01041703          	lh	a4,16(s0)
   18bea:	00c42b83          	lw	s7,12(s0)
   18bee:	853e                	mv	a0,a5
   18bf0:	fa091de3          	bnez	s2,18baa <__sfvwrite_r+0xc8>
   18bf4:	0004bc03          	ld	s8,0(s1)
   18bf8:	0084b903          	ld	s2,8(s1)
   18bfc:	04c1                	add	s1,s1,16
   18bfe:	b75d                	j	18ba4 <__sfvwrite_r+0xc2>
   18c00:	4981                	li	s3,0
   18c02:	4501                	li	a0,0
   18c04:	4c81                	li	s9,0
   18c06:	4c01                	li	s8,0
   18c08:	080c0a63          	beqz	s8,18c9c <__sfvwrite_r+0x1ba>
   18c0c:	c145                	beqz	a0,18cac <__sfvwrite_r+0x1ca>
   18c0e:	8bce                	mv	s7,s3
   18c10:	013c7363          	bgeu	s8,s3,18c16 <__sfvwrite_r+0x134>
   18c14:	8be2                	mv	s7,s8
   18c16:	6008                	ld	a0,0(s0)
   18c18:	6c18                	ld	a4,24(s0)
   18c1a:	445c                	lw	a5,12(s0)
   18c1c:	5014                	lw	a3,32(s0)
   18c1e:	895e                	mv	s2,s7
   18c20:	00a77663          	bgeu	a4,a0,18c2c <__sfvwrite_r+0x14a>
   18c24:	00d78abb          	addw	s5,a5,a3
   18c28:	097acd63          	blt	s5,s7,18cc2 <__sfvwrite_r+0x1e0>
   18c2c:	18dbc763          	blt	s7,a3,18dba <__sfvwrite_r+0x2d8>
   18c30:	603c                	ld	a5,64(s0)
   18c32:	780c                	ld	a1,48(s0)
   18c34:	8666                	mv	a2,s9
   18c36:	8552                	mv	a0,s4
   18c38:	9782                	jalr	a5
   18c3a:	892a                	mv	s2,a0
   18c3c:	04a05663          	blez	a0,18c88 <__sfvwrite_r+0x1a6>
   18c40:	0005079b          	sext.w	a5,a0
   18c44:	40f989bb          	subw	s3,s3,a5
   18c48:	4505                	li	a0,1
   18c4a:	02098a63          	beqz	s3,18c7e <__sfvwrite_r+0x19c>
   18c4e:	010b3783          	ld	a5,16(s6)
   18c52:	9cca                	add	s9,s9,s2
   18c54:	412c0c33          	sub	s8,s8,s2
   18c58:	412787b3          	sub	a5,a5,s2
   18c5c:	00fb3823          	sd	a5,16(s6)
   18c60:	f7c5                	bnez	a5,18c08 <__sfvwrite_r+0x126>
   18c62:	4501                	li	a0,0
   18c64:	60e6                	ld	ra,88(sp)
   18c66:	6446                	ld	s0,80(sp)
   18c68:	64a6                	ld	s1,72(sp)
   18c6a:	6906                	ld	s2,64(sp)
   18c6c:	79e2                	ld	s3,56(sp)
   18c6e:	7a42                	ld	s4,48(sp)
   18c70:	7aa2                	ld	s5,40(sp)
   18c72:	7b02                	ld	s6,32(sp)
   18c74:	6be2                	ld	s7,24(sp)
   18c76:	6c42                	ld	s8,16(sp)
   18c78:	6ca2                	ld	s9,8(sp)
   18c7a:	6125                	add	sp,sp,96
   18c7c:	8082                	ret
   18c7e:	85a2                	mv	a1,s0
   18c80:	8552                	mv	a0,s4
   18c82:	a49ff0ef          	jal	186ca <_fflush_r>
   18c86:	d561                	beqz	a0,18c4e <__sfvwrite_r+0x16c>
   18c88:	01041783          	lh	a5,16(s0)
   18c8c:	0407e793          	or	a5,a5,64
   18c90:	00f41823          	sh	a5,16(s0)
   18c94:	557d                	li	a0,-1
   18c96:	b7f9                	j	18c64 <__sfvwrite_r+0x182>
   18c98:	4501                	li	a0,0
   18c9a:	8082                	ret
   18c9c:	0084bc03          	ld	s8,8(s1)
   18ca0:	87a6                	mv	a5,s1
   18ca2:	04c1                	add	s1,s1,16
   18ca4:	fe0c0ce3          	beqz	s8,18c9c <__sfvwrite_r+0x1ba>
   18ca8:	0007bc83          	ld	s9,0(a5)
   18cac:	8662                	mv	a2,s8
   18cae:	45a9                	li	a1,10
   18cb0:	8566                	mv	a0,s9
   18cb2:	b26fc0ef          	jal	14fd8 <memchr>
   18cb6:	14050463          	beqz	a0,18dfe <__sfvwrite_r+0x31c>
   18cba:	0505                	add	a0,a0,1
   18cbc:	419509bb          	subw	s3,a0,s9
   18cc0:	b7b9                	j	18c0e <__sfvwrite_r+0x12c>
   18cc2:	85e6                	mv	a1,s9
   18cc4:	8656                	mv	a2,s5
   18cc6:	b22fe0ef          	jal	16fe8 <memmove>
   18cca:	601c                	ld	a5,0(s0)
   18ccc:	85a2                	mv	a1,s0
   18cce:	8552                	mv	a0,s4
   18cd0:	97d6                	add	a5,a5,s5
   18cd2:	e01c                	sd	a5,0(s0)
   18cd4:	9f7ff0ef          	jal	186ca <_fflush_r>
   18cd8:	f945                	bnez	a0,18c88 <__sfvwrite_r+0x1a6>
   18cda:	87d6                	mv	a5,s5
   18cdc:	8956                	mv	s2,s5
   18cde:	b79d                	j	18c44 <__sfvwrite_r+0x162>
   18ce0:	6c18                	ld	a4,24(s0)
   18ce2:	02f76763          	bltu	a4,a5,18d10 <__sfvwrite_r+0x22e>
   18ce6:	5018                	lw	a4,32(s0)
   18ce8:	02e96463          	bltu	s2,a4,18d10 <__sfvwrite_r+0x22e>
   18cec:	86ca                	mv	a3,s2
   18cee:	012af363          	bgeu	s5,s2,18cf4 <__sfvwrite_r+0x212>
   18cf2:	86d6                	mv	a3,s5
   18cf4:	02e6e73b          	remw	a4,a3,a4
   18cf8:	603c                	ld	a5,64(s0)
   18cfa:	780c                	ld	a1,48(s0)
   18cfc:	8662                	mv	a2,s8
   18cfe:	8552                	mv	a0,s4
   18d00:	9e99                	subw	a3,a3,a4
   18d02:	9782                	jalr	a5
   18d04:	89aa                	mv	s3,a0
   18d06:	f8a051e3          	blez	a0,18c88 <__sfvwrite_r+0x1a6>
   18d0a:	41390933          	sub	s2,s2,s3
   18d0e:	b5d9                	j	18bd4 <__sfvwrite_r+0xf2>
   18d10:	89de                	mv	s3,s7
   18d12:	01797363          	bgeu	s2,s7,18d18 <__sfvwrite_r+0x236>
   18d16:	89ca                	mv	s3,s2
   18d18:	853e                	mv	a0,a5
   18d1a:	864e                	mv	a2,s3
   18d1c:	85e2                	mv	a1,s8
   18d1e:	acafe0ef          	jal	16fe8 <memmove>
   18d22:	4458                	lw	a4,12(s0)
   18d24:	601c                	ld	a5,0(s0)
   18d26:	413706bb          	subw	a3,a4,s3
   18d2a:	97ce                	add	a5,a5,s3
   18d2c:	c454                	sw	a3,12(s0)
   18d2e:	e01c                	sd	a5,0(s0)
   18d30:	fee9                	bnez	a3,18d0a <__sfvwrite_r+0x228>
   18d32:	85a2                	mv	a1,s0
   18d34:	8552                	mv	a0,s4
   18d36:	995ff0ef          	jal	186ca <_fflush_r>
   18d3a:	f539                	bnez	a0,18c88 <__sfvwrite_r+0x1a6>
   18d3c:	41390933          	sub	s2,s2,s3
   18d40:	bd51                	j	18bd4 <__sfvwrite_r+0xf2>
   18d42:	48077693          	and	a3,a4,1152
   18d46:	cac1                	beqz	a3,18dd6 <__sfvwrite_r+0x2f4>
   18d48:	5010                	lw	a2,32(s0)
   18d4a:	6c0c                	ld	a1,24(s0)
   18d4c:	0016169b          	sllw	a3,a2,0x1
   18d50:	9eb1                	addw	a3,a3,a2
   18d52:	8f8d                	sub	a5,a5,a1
   18d54:	01f6d99b          	srlw	s3,a3,0x1f
   18d58:	00078b9b          	sext.w	s7,a5
   18d5c:	00d989bb          	addw	s3,s3,a3
   18d60:	001b8693          	add	a3,s7,1
   18d64:	4019d99b          	sraw	s3,s3,0x1
   18d68:	96ca                	add	a3,a3,s2
   18d6a:	00d9f563          	bgeu	s3,a3,18d74 <__sfvwrite_r+0x292>
   18d6e:	2785                	addw	a5,a5,1
   18d70:	012789bb          	addw	s3,a5,s2
   18d74:	40077713          	and	a4,a4,1024
   18d78:	c32d                	beqz	a4,18dda <__sfvwrite_r+0x2f8>
   18d7a:	85ce                	mv	a1,s3
   18d7c:	8552                	mv	a0,s4
   18d7e:	c2dfb0ef          	jal	149aa <_malloc_r>
   18d82:	8caa                	mv	s9,a0
   18d84:	c141                	beqz	a0,18e04 <__sfvwrite_r+0x322>
   18d86:	6c0c                	ld	a1,24(s0)
   18d88:	865e                	mv	a2,s7
   18d8a:	918fe0ef          	jal	16ea2 <memcpy>
   18d8e:	01045783          	lhu	a5,16(s0)
   18d92:	b7f7f793          	and	a5,a5,-1153
   18d96:	0807e793          	or	a5,a5,128
   18d9a:	00f41823          	sh	a5,16(s0)
   18d9e:	017c8533          	add	a0,s9,s7
   18da2:	41798bbb          	subw	s7,s3,s7
   18da6:	01943c23          	sd	s9,24(s0)
   18daa:	01742623          	sw	s7,12(s0)
   18dae:	e008                	sd	a0,0(s0)
   18db0:	03342023          	sw	s3,32(s0)
   18db4:	8cca                	mv	s9,s2
   18db6:	8bca                	mv	s7,s2
   18db8:	b509                	j	18bba <__sfvwrite_r+0xd8>
   18dba:	865e                	mv	a2,s7
   18dbc:	85e6                	mv	a1,s9
   18dbe:	a2afe0ef          	jal	16fe8 <memmove>
   18dc2:	4454                	lw	a3,12(s0)
   18dc4:	6018                	ld	a4,0(s0)
   18dc6:	000b879b          	sext.w	a5,s7
   18dca:	417686bb          	subw	a3,a3,s7
   18dce:	975e                	add	a4,a4,s7
   18dd0:	c454                	sw	a3,12(s0)
   18dd2:	e018                	sd	a4,0(s0)
   18dd4:	bd85                	j	18c44 <__sfvwrite_r+0x162>
   18dd6:	8cde                	mv	s9,s7
   18dd8:	b3cd                	j	18bba <__sfvwrite_r+0xd8>
   18dda:	864e                	mv	a2,s3
   18ddc:	8552                	mv	a0,s4
   18dde:	ae2fe0ef          	jal	170c0 <_realloc_r>
   18de2:	8caa                	mv	s9,a0
   18de4:	fd4d                	bnez	a0,18d9e <__sfvwrite_r+0x2bc>
   18de6:	6c0c                	ld	a1,24(s0)
   18de8:	8552                	mv	a0,s4
   18dea:	fc0f90ef          	jal	125aa <_free_r>
   18dee:	01041783          	lh	a5,16(s0)
   18df2:	4731                	li	a4,12
   18df4:	00ea2023          	sw	a4,0(s4)
   18df8:	f7f7f793          	and	a5,a5,-129
   18dfc:	bd41                	j	18c8c <__sfvwrite_r+0x1aa>
   18dfe:	001c099b          	addw	s3,s8,1
   18e02:	b531                	j	18c0e <__sfvwrite_r+0x12c>
   18e04:	4731                	li	a4,12
   18e06:	01041783          	lh	a5,16(s0)
   18e0a:	00ea2023          	sw	a4,0(s4)
   18e0e:	bdbd                	j	18c8c <__sfvwrite_r+0x1aa>

0000000000018e10 <_fwalk>:
   18e10:	715d                	add	sp,sp,-80
   18e12:	f84a                	sd	s2,48(sp)
   18e14:	f44e                	sd	s3,40(sp)
   18e16:	f052                	sd	s4,32(sp)
   18e18:	ec56                	sd	s5,24(sp)
   18e1a:	e85a                	sd	s6,16(sp)
   18e1c:	e45e                	sd	s7,8(sp)
   18e1e:	e486                	sd	ra,72(sp)
   18e20:	e0a2                	sd	s0,64(sp)
   18e22:	fc26                	sd	s1,56(sp)
   18e24:	8aae                	mv	s5,a1
   18e26:	52050993          	add	s3,a0,1312
   18e2a:	4901                	li	s2,0
   18e2c:	0b000b13          	li	s6,176
   18e30:	4b85                	li	s7,1
   18e32:	5a7d                	li	s4,-1
   18e34:	0089a483          	lw	s1,8(s3)
   18e38:	0109b403          	ld	s0,16(s3)
   18e3c:	02905863          	blez	s1,18e6c <_fwalk+0x5c>
   18e40:	1482                	sll	s1,s1,0x20
   18e42:	9081                	srl	s1,s1,0x20
   18e44:	036484b3          	mul	s1,s1,s6
   18e48:	94a2                	add	s1,s1,s0
   18e4a:	01045783          	lhu	a5,16(s0)
   18e4e:	00fbfb63          	bgeu	s7,a5,18e64 <_fwalk+0x54>
   18e52:	01241783          	lh	a5,18(s0)
   18e56:	8522                	mv	a0,s0
   18e58:	01478663          	beq	a5,s4,18e64 <_fwalk+0x54>
   18e5c:	9a82                	jalr	s5
   18e5e:	01256933          	or	s2,a0,s2
   18e62:	2901                	sext.w	s2,s2
   18e64:	0b040413          	add	s0,s0,176
   18e68:	fe8491e3          	bne	s1,s0,18e4a <_fwalk+0x3a>
   18e6c:	0009b983          	ld	s3,0(s3)
   18e70:	fc0992e3          	bnez	s3,18e34 <_fwalk+0x24>
   18e74:	60a6                	ld	ra,72(sp)
   18e76:	6406                	ld	s0,64(sp)
   18e78:	74e2                	ld	s1,56(sp)
   18e7a:	79a2                	ld	s3,40(sp)
   18e7c:	7a02                	ld	s4,32(sp)
   18e7e:	6ae2                	ld	s5,24(sp)
   18e80:	6b42                	ld	s6,16(sp)
   18e82:	6ba2                	ld	s7,8(sp)
   18e84:	854a                	mv	a0,s2
   18e86:	7942                	ld	s2,48(sp)
   18e88:	6161                	add	sp,sp,80
   18e8a:	8082                	ret

0000000000018e8c <_fwalk_reent>:
   18e8c:	715d                	add	sp,sp,-80
   18e8e:	f84a                	sd	s2,48(sp)
   18e90:	f44e                	sd	s3,40(sp)
   18e92:	f052                	sd	s4,32(sp)
   18e94:	ec56                	sd	s5,24(sp)
   18e96:	e85a                	sd	s6,16(sp)
   18e98:	e45e                	sd	s7,8(sp)
   18e9a:	e062                	sd	s8,0(sp)
   18e9c:	e486                	sd	ra,72(sp)
   18e9e:	e0a2                	sd	s0,64(sp)
   18ea0:	fc26                	sd	s1,56(sp)
   18ea2:	89aa                	mv	s3,a0
   18ea4:	8b2e                	mv	s6,a1
   18ea6:	52050a13          	add	s4,a0,1312
   18eaa:	4901                	li	s2,0
   18eac:	0b000b93          	li	s7,176
   18eb0:	4c05                	li	s8,1
   18eb2:	5afd                	li	s5,-1
   18eb4:	008a2483          	lw	s1,8(s4)
   18eb8:	010a3403          	ld	s0,16(s4)
   18ebc:	02905963          	blez	s1,18eee <_fwalk_reent+0x62>
   18ec0:	1482                	sll	s1,s1,0x20
   18ec2:	9081                	srl	s1,s1,0x20
   18ec4:	037484b3          	mul	s1,s1,s7
   18ec8:	94a2                	add	s1,s1,s0
   18eca:	01045783          	lhu	a5,16(s0)
   18ece:	00fc7c63          	bgeu	s8,a5,18ee6 <_fwalk_reent+0x5a>
   18ed2:	01241783          	lh	a5,18(s0)
   18ed6:	85a2                	mv	a1,s0
   18ed8:	854e                	mv	a0,s3
   18eda:	01578663          	beq	a5,s5,18ee6 <_fwalk_reent+0x5a>
   18ede:	9b02                	jalr	s6
   18ee0:	01256933          	or	s2,a0,s2
   18ee4:	2901                	sext.w	s2,s2
   18ee6:	0b040413          	add	s0,s0,176
   18eea:	fe8490e3          	bne	s1,s0,18eca <_fwalk_reent+0x3e>
   18eee:	000a3a03          	ld	s4,0(s4)
   18ef2:	fc0a11e3          	bnez	s4,18eb4 <_fwalk_reent+0x28>
   18ef6:	60a6                	ld	ra,72(sp)
   18ef8:	6406                	ld	s0,64(sp)
   18efa:	74e2                	ld	s1,56(sp)
   18efc:	79a2                	ld	s3,40(sp)
   18efe:	7a02                	ld	s4,32(sp)
   18f00:	6ae2                	ld	s5,24(sp)
   18f02:	6b42                	ld	s6,16(sp)
   18f04:	6ba2                	ld	s7,8(sp)
   18f06:	6c02                	ld	s8,0(sp)
   18f08:	854a                	mv	a0,s2
   18f0a:	7942                	ld	s2,48(sp)
   18f0c:	6161                	add	sp,sp,80
   18f0e:	8082                	ret

0000000000018f10 <__smakebuf_r>:
   18f10:	01059783          	lh	a5,16(a1)
   18f14:	7135                	add	sp,sp,-160
   18f16:	e922                	sd	s0,144(sp)
   18f18:	ed06                	sd	ra,152(sp)
   18f1a:	e526                	sd	s1,136(sp)
   18f1c:	e14a                	sd	s2,128(sp)
   18f1e:	fcce                	sd	s3,120(sp)
   18f20:	f8d2                	sd	s4,112(sp)
   18f22:	0027f713          	and	a4,a5,2
   18f26:	842e                	mv	s0,a1
   18f28:	cf19                	beqz	a4,18f46 <__smakebuf_r+0x36>
   18f2a:	07758793          	add	a5,a1,119
   18f2e:	e19c                	sd	a5,0(a1)
   18f30:	ed9c                	sd	a5,24(a1)
   18f32:	4785                	li	a5,1
   18f34:	d19c                	sw	a5,32(a1)
   18f36:	60ea                	ld	ra,152(sp)
   18f38:	644a                	ld	s0,144(sp)
   18f3a:	64aa                	ld	s1,136(sp)
   18f3c:	690a                	ld	s2,128(sp)
   18f3e:	79e6                	ld	s3,120(sp)
   18f40:	7a46                	ld	s4,112(sp)
   18f42:	610d                	add	sp,sp,160
   18f44:	8082                	ret
   18f46:	01259583          	lh	a1,18(a1)
   18f4a:	84aa                	mv	s1,a0
   18f4c:	0605c863          	bltz	a1,18fbc <__smakebuf_r+0xac>
   18f50:	0030                	add	a2,sp,8
   18f52:	05f000ef          	jal	197b0 <_fstat_r>
   18f56:	06054163          	bltz	a0,18fb8 <__smakebuf_r+0xa8>
   18f5a:	4932                	lw	s2,12(sp)
   18f5c:	67bd                	lui	a5,0xf
   18f5e:	6985                	lui	s3,0x1
   18f60:	00f97933          	and	s2,s2,a5
   18f64:	6789                	lui	a5,0x2
   18f66:	40f90933          	sub	s2,s2,a5
   18f6a:	00193913          	seqz	s2,s2
   18f6e:	40000a13          	li	s4,1024
   18f72:	80098993          	add	s3,s3,-2048 # 800 <exit-0xf8e8>
   18f76:	85d2                	mv	a1,s4
   18f78:	8526                	mv	a0,s1
   18f7a:	a31fb0ef          	jal	149aa <_malloc_r>
   18f7e:	01041783          	lh	a5,16(s0)
   18f82:	c939                	beqz	a0,18fd8 <__smakebuf_r+0xc8>
   18f84:	6761                	lui	a4,0x18
   18f86:	75270713          	add	a4,a4,1874 # 18752 <_cleanup_r>
   18f8a:	ecb8                	sd	a4,88(s1)
   18f8c:	0807e793          	or	a5,a5,128
   18f90:	00f41823          	sh	a5,16(s0)
   18f94:	e008                	sd	a0,0(s0)
   18f96:	ec08                	sd	a0,24(s0)
   18f98:	03442023          	sw	s4,32(s0)
   18f9c:	06091163          	bnez	s2,18ffe <__smakebuf_r+0xee>
   18fa0:	0137e7b3          	or	a5,a5,s3
   18fa4:	60ea                	ld	ra,152(sp)
   18fa6:	00f41823          	sh	a5,16(s0)
   18faa:	644a                	ld	s0,144(sp)
   18fac:	64aa                	ld	s1,136(sp)
   18fae:	690a                	ld	s2,128(sp)
   18fb0:	79e6                	ld	s3,120(sp)
   18fb2:	7a46                	ld	s4,112(sp)
   18fb4:	610d                	add	sp,sp,160
   18fb6:	8082                	ret
   18fb8:	01041783          	lh	a5,16(s0)
   18fbc:	0807f793          	and	a5,a5,128
   18fc0:	4901                	li	s2,0
   18fc2:	cb95                	beqz	a5,18ff6 <__smakebuf_r+0xe6>
   18fc4:	04000a13          	li	s4,64
   18fc8:	85d2                	mv	a1,s4
   18fca:	8526                	mv	a0,s1
   18fcc:	9dffb0ef          	jal	149aa <_malloc_r>
   18fd0:	01041783          	lh	a5,16(s0)
   18fd4:	4981                	li	s3,0
   18fd6:	f55d                	bnez	a0,18f84 <__smakebuf_r+0x74>
   18fd8:	2007f713          	and	a4,a5,512
   18fdc:	ff29                	bnez	a4,18f36 <__smakebuf_r+0x26>
   18fde:	9bf1                	and	a5,a5,-4
   18fe0:	0027e793          	or	a5,a5,2
   18fe4:	07740713          	add	a4,s0,119
   18fe8:	00f41823          	sh	a5,16(s0)
   18fec:	4785                	li	a5,1
   18fee:	e018                	sd	a4,0(s0)
   18ff0:	ec18                	sd	a4,24(s0)
   18ff2:	d01c                	sw	a5,32(s0)
   18ff4:	b789                	j	18f36 <__smakebuf_r+0x26>
   18ff6:	40000a13          	li	s4,1024
   18ffa:	4981                	li	s3,0
   18ffc:	bfad                	j	18f76 <__smakebuf_r+0x66>
   18ffe:	01241583          	lh	a1,18(s0)
   19002:	8526                	mv	a0,s1
   19004:	7e6000ef          	jal	197ea <_isatty_r>
   19008:	e501                	bnez	a0,19010 <__smakebuf_r+0x100>
   1900a:	01041783          	lh	a5,16(s0)
   1900e:	bf49                	j	18fa0 <__smakebuf_r+0x90>
   19010:	01045783          	lhu	a5,16(s0)
   19014:	9bf1                	and	a5,a5,-4
   19016:	0017e793          	or	a5,a5,1
   1901a:	0107979b          	sllw	a5,a5,0x10
   1901e:	4107d79b          	sraw	a5,a5,0x10
   19022:	bfbd                	j	18fa0 <__smakebuf_r+0x90>

0000000000019024 <__swhatbuf_r>:
   19024:	7175                	add	sp,sp,-144
   19026:	e122                	sd	s0,128(sp)
   19028:	842e                	mv	s0,a1
   1902a:	01259583          	lh	a1,18(a1)
   1902e:	fca6                	sd	s1,120(sp)
   19030:	f8ca                	sd	s2,112(sp)
   19032:	e506                	sd	ra,136(sp)
   19034:	84b2                	mv	s1,a2
   19036:	8936                	mv	s2,a3
   19038:	0205cc63          	bltz	a1,19070 <__swhatbuf_r+0x4c>
   1903c:	0030                	add	a2,sp,8
   1903e:	772000ef          	jal	197b0 <_fstat_r>
   19042:	02054763          	bltz	a0,19070 <__swhatbuf_r+0x4c>
   19046:	47b2                	lw	a5,12(sp)
   19048:	673d                	lui	a4,0xf
   1904a:	60aa                	ld	ra,136(sp)
   1904c:	8ff9                	and	a5,a5,a4
   1904e:	6709                	lui	a4,0x2
   19050:	8f99                	sub	a5,a5,a4
   19052:	640a                	ld	s0,128(sp)
   19054:	0017b793          	seqz	a5,a5
   19058:	00f92023          	sw	a5,0(s2)
   1905c:	40000713          	li	a4,1024
   19060:	e098                	sd	a4,0(s1)
   19062:	6505                	lui	a0,0x1
   19064:	74e6                	ld	s1,120(sp)
   19066:	7946                	ld	s2,112(sp)
   19068:	80050513          	add	a0,a0,-2048 # 800 <exit-0xf8e8>
   1906c:	6149                	add	sp,sp,144
   1906e:	8082                	ret
   19070:	01045783          	lhu	a5,16(s0)
   19074:	0807f793          	and	a5,a5,128
   19078:	cf91                	beqz	a5,19094 <__swhatbuf_r+0x70>
   1907a:	60aa                	ld	ra,136(sp)
   1907c:	640a                	ld	s0,128(sp)
   1907e:	4781                	li	a5,0
   19080:	00f92023          	sw	a5,0(s2)
   19084:	04000713          	li	a4,64
   19088:	e098                	sd	a4,0(s1)
   1908a:	7946                	ld	s2,112(sp)
   1908c:	74e6                	ld	s1,120(sp)
   1908e:	4501                	li	a0,0
   19090:	6149                	add	sp,sp,144
   19092:	8082                	ret
   19094:	60aa                	ld	ra,136(sp)
   19096:	640a                	ld	s0,128(sp)
   19098:	00f92023          	sw	a5,0(s2)
   1909c:	40000713          	li	a4,1024
   190a0:	e098                	sd	a4,0(s1)
   190a2:	7946                	ld	s2,112(sp)
   190a4:	74e6                	ld	s1,120(sp)
   190a6:	4501                	li	a0,0
   190a8:	6149                	add	sp,sp,144
   190aa:	8082                	ret

00000000000190ac <_init_signal_r>:
   190ac:	51853783          	ld	a5,1304(a0)
   190b0:	c399                	beqz	a5,190b6 <_init_signal_r+0xa>
   190b2:	4501                	li	a0,0
   190b4:	8082                	ret
   190b6:	1141                	add	sp,sp,-16
   190b8:	10000593          	li	a1,256
   190bc:	e022                	sd	s0,0(sp)
   190be:	e406                	sd	ra,8(sp)
   190c0:	842a                	mv	s0,a0
   190c2:	8e9fb0ef          	jal	149aa <_malloc_r>
   190c6:	50a43c23          	sd	a0,1304(s0)
   190ca:	cd09                	beqz	a0,190e4 <_init_signal_r+0x38>
   190cc:	10050793          	add	a5,a0,256
   190d0:	00053023          	sd	zero,0(a0)
   190d4:	0521                	add	a0,a0,8
   190d6:	fef51de3          	bne	a0,a5,190d0 <_init_signal_r+0x24>
   190da:	4501                	li	a0,0
   190dc:	60a2                	ld	ra,8(sp)
   190de:	6402                	ld	s0,0(sp)
   190e0:	0141                	add	sp,sp,16
   190e2:	8082                	ret
   190e4:	557d                	li	a0,-1
   190e6:	bfdd                	j	190dc <_init_signal_r+0x30>

00000000000190e8 <_signal_r>:
   190e8:	7179                	add	sp,sp,-48
   190ea:	ec26                	sd	s1,24(sp)
   190ec:	f406                	sd	ra,40(sp)
   190ee:	f022                	sd	s0,32(sp)
   190f0:	47fd                	li	a5,31
   190f2:	84aa                	mv	s1,a0
   190f4:	00b7ef63          	bltu	a5,a1,19112 <_signal_r+0x2a>
   190f8:	51853783          	ld	a5,1304(a0)
   190fc:	842e                	mv	s0,a1
   190fe:	cf91                	beqz	a5,1911a <_signal_r+0x32>
   19100:	040e                	sll	s0,s0,0x3
   19102:	97a2                	add	a5,a5,s0
   19104:	6388                	ld	a0,0(a5)
   19106:	e390                	sd	a2,0(a5)
   19108:	70a2                	ld	ra,40(sp)
   1910a:	7402                	ld	s0,32(sp)
   1910c:	64e2                	ld	s1,24(sp)
   1910e:	6145                	add	sp,sp,48
   19110:	8082                	ret
   19112:	47d9                	li	a5,22
   19114:	c11c                	sw	a5,0(a0)
   19116:	557d                	li	a0,-1
   19118:	bfc5                	j	19108 <_signal_r+0x20>
   1911a:	10000593          	li	a1,256
   1911e:	e432                	sd	a2,8(sp)
   19120:	88bfb0ef          	jal	149aa <_malloc_r>
   19124:	50a4bc23          	sd	a0,1304(s1)
   19128:	6622                	ld	a2,8(sp)
   1912a:	87aa                	mv	a5,a0
   1912c:	872a                	mv	a4,a0
   1912e:	10050693          	add	a3,a0,256
   19132:	d175                	beqz	a0,19116 <_signal_r+0x2e>
   19134:	00073023          	sd	zero,0(a4) # 2000 <exit-0xe0e8>
   19138:	0721                	add	a4,a4,8
   1913a:	fed71de3          	bne	a4,a3,19134 <_signal_r+0x4c>
   1913e:	b7c9                	j	19100 <_signal_r+0x18>

0000000000019140 <_raise_r>:
   19140:	1101                	add	sp,sp,-32
   19142:	e426                	sd	s1,8(sp)
   19144:	ec06                	sd	ra,24(sp)
   19146:	e822                	sd	s0,16(sp)
   19148:	47fd                	li	a5,31
   1914a:	84aa                	mv	s1,a0
   1914c:	04b7ee63          	bltu	a5,a1,191a8 <_raise_r+0x68>
   19150:	51853783          	ld	a5,1304(a0)
   19154:	842e                	mv	s0,a1
   19156:	c795                	beqz	a5,19182 <_raise_r+0x42>
   19158:	00359713          	sll	a4,a1,0x3
   1915c:	97ba                	add	a5,a5,a4
   1915e:	6398                	ld	a4,0(a5)
   19160:	c30d                	beqz	a4,19182 <_raise_r+0x42>
   19162:	4685                	li	a3,1
   19164:	00d70963          	beq	a4,a3,19176 <_raise_r+0x36>
   19168:	56fd                	li	a3,-1
   1916a:	02d70763          	beq	a4,a3,19198 <_raise_r+0x58>
   1916e:	0007b023          	sd	zero,0(a5) # 2000 <exit-0xe0e8>
   19172:	852e                	mv	a0,a1
   19174:	9702                	jalr	a4
   19176:	4501                	li	a0,0
   19178:	60e2                	ld	ra,24(sp)
   1917a:	6442                	ld	s0,16(sp)
   1917c:	64a2                	ld	s1,8(sp)
   1917e:	6105                	add	sp,sp,32
   19180:	8082                	ret
   19182:	8526                	mv	a0,s1
   19184:	284000ef          	jal	19408 <_getpid_r>
   19188:	8622                	mv	a2,s0
   1918a:	6442                	ld	s0,16(sp)
   1918c:	60e2                	ld	ra,24(sp)
   1918e:	85aa                	mv	a1,a0
   19190:	8526                	mv	a0,s1
   19192:	64a2                	ld	s1,8(sp)
   19194:	6105                	add	sp,sp,32
   19196:	ac25                	j	193ce <_kill_r>
   19198:	60e2                	ld	ra,24(sp)
   1919a:	6442                	ld	s0,16(sp)
   1919c:	47d9                	li	a5,22
   1919e:	c11c                	sw	a5,0(a0)
   191a0:	64a2                	ld	s1,8(sp)
   191a2:	4505                	li	a0,1
   191a4:	6105                	add	sp,sp,32
   191a6:	8082                	ret
   191a8:	47d9                	li	a5,22
   191aa:	c11c                	sw	a5,0(a0)
   191ac:	557d                	li	a0,-1
   191ae:	b7e9                	j	19178 <_raise_r+0x38>

00000000000191b0 <__sigtramp_r>:
   191b0:	47fd                	li	a5,31
   191b2:	08b7e163          	bltu	a5,a1,19234 <__sigtramp_r+0x84>
   191b6:	51853783          	ld	a5,1304(a0)
   191ba:	1101                	add	sp,sp,-32
   191bc:	e822                	sd	s0,16(sp)
   191be:	e426                	sd	s1,8(sp)
   191c0:	ec06                	sd	ra,24(sp)
   191c2:	842e                	mv	s0,a1
   191c4:	84aa                	mv	s1,a0
   191c6:	c7a1                	beqz	a5,1920e <__sigtramp_r+0x5e>
   191c8:	00341713          	sll	a4,s0,0x3
   191cc:	97ba                	add	a5,a5,a4
   191ce:	6398                	ld	a4,0(a5)
   191d0:	c30d                	beqz	a4,191f2 <__sigtramp_r+0x42>
   191d2:	56fd                	li	a3,-1
   191d4:	02d70b63          	beq	a4,a3,1920a <__sigtramp_r+0x5a>
   191d8:	4685                	li	a3,1
   191da:	02d70263          	beq	a4,a3,191fe <__sigtramp_r+0x4e>
   191de:	8522                	mv	a0,s0
   191e0:	0007b023          	sd	zero,0(a5)
   191e4:	9702                	jalr	a4
   191e6:	4501                	li	a0,0
   191e8:	60e2                	ld	ra,24(sp)
   191ea:	6442                	ld	s0,16(sp)
   191ec:	64a2                	ld	s1,8(sp)
   191ee:	6105                	add	sp,sp,32
   191f0:	8082                	ret
   191f2:	60e2                	ld	ra,24(sp)
   191f4:	6442                	ld	s0,16(sp)
   191f6:	64a2                	ld	s1,8(sp)
   191f8:	4505                	li	a0,1
   191fa:	6105                	add	sp,sp,32
   191fc:	8082                	ret
   191fe:	60e2                	ld	ra,24(sp)
   19200:	6442                	ld	s0,16(sp)
   19202:	64a2                	ld	s1,8(sp)
   19204:	450d                	li	a0,3
   19206:	6105                	add	sp,sp,32
   19208:	8082                	ret
   1920a:	4509                	li	a0,2
   1920c:	bff1                	j	191e8 <__sigtramp_r+0x38>
   1920e:	10000593          	li	a1,256
   19212:	f98fb0ef          	jal	149aa <_malloc_r>
   19216:	50a4bc23          	sd	a0,1304(s1)
   1921a:	87aa                	mv	a5,a0
   1921c:	c911                	beqz	a0,19230 <__sigtramp_r+0x80>
   1921e:	872a                	mv	a4,a0
   19220:	10050693          	add	a3,a0,256
   19224:	00073023          	sd	zero,0(a4)
   19228:	0721                	add	a4,a4,8
   1922a:	fee69de3          	bne	a3,a4,19224 <__sigtramp_r+0x74>
   1922e:	bf69                	j	191c8 <__sigtramp_r+0x18>
   19230:	557d                	li	a0,-1
   19232:	bf5d                	j	191e8 <__sigtramp_r+0x38>
   19234:	557d                	li	a0,-1
   19236:	8082                	ret

0000000000019238 <raise>:
   19238:	1101                	add	sp,sp,-32
   1923a:	e426                	sd	s1,8(sp)
   1923c:	ec06                	sd	ra,24(sp)
   1923e:	e822                	sd	s0,16(sp)
   19240:	47fd                	li	a5,31
   19242:	7581b483          	ld	s1,1880(gp) # 1d240 <_impure_ptr>
   19246:	04a7ed63          	bltu	a5,a0,192a0 <raise+0x68>
   1924a:	5184b783          	ld	a5,1304(s1)
   1924e:	842a                	mv	s0,a0
   19250:	c78d                	beqz	a5,1927a <raise+0x42>
   19252:	00351713          	sll	a4,a0,0x3
   19256:	97ba                	add	a5,a5,a4
   19258:	6398                	ld	a4,0(a5)
   1925a:	c305                	beqz	a4,1927a <raise+0x42>
   1925c:	4685                	li	a3,1
   1925e:	00d70863          	beq	a4,a3,1926e <raise+0x36>
   19262:	56fd                	li	a3,-1
   19264:	02d70663          	beq	a4,a3,19290 <raise+0x58>
   19268:	0007b023          	sd	zero,0(a5)
   1926c:	9702                	jalr	a4
   1926e:	4501                	li	a0,0
   19270:	60e2                	ld	ra,24(sp)
   19272:	6442                	ld	s0,16(sp)
   19274:	64a2                	ld	s1,8(sp)
   19276:	6105                	add	sp,sp,32
   19278:	8082                	ret
   1927a:	8526                	mv	a0,s1
   1927c:	18c000ef          	jal	19408 <_getpid_r>
   19280:	8622                	mv	a2,s0
   19282:	6442                	ld	s0,16(sp)
   19284:	60e2                	ld	ra,24(sp)
   19286:	85aa                	mv	a1,a0
   19288:	8526                	mv	a0,s1
   1928a:	64a2                	ld	s1,8(sp)
   1928c:	6105                	add	sp,sp,32
   1928e:	a281                	j	193ce <_kill_r>
   19290:	60e2                	ld	ra,24(sp)
   19292:	6442                	ld	s0,16(sp)
   19294:	47d9                	li	a5,22
   19296:	c09c                	sw	a5,0(s1)
   19298:	4505                	li	a0,1
   1929a:	64a2                	ld	s1,8(sp)
   1929c:	6105                	add	sp,sp,32
   1929e:	8082                	ret
   192a0:	47d9                	li	a5,22
   192a2:	c09c                	sw	a5,0(s1)
   192a4:	557d                	li	a0,-1
   192a6:	b7e9                	j	19270 <raise+0x38>

00000000000192a8 <signal>:
   192a8:	1101                	add	sp,sp,-32
   192aa:	e04a                	sd	s2,0(sp)
   192ac:	ec06                	sd	ra,24(sp)
   192ae:	e822                	sd	s0,16(sp)
   192b0:	e426                	sd	s1,8(sp)
   192b2:	47fd                	li	a5,31
   192b4:	7581b903          	ld	s2,1880(gp) # 1d240 <_impure_ptr>
   192b8:	02a7e263          	bltu	a5,a0,192dc <signal+0x34>
   192bc:	842a                	mv	s0,a0
   192be:	51893503          	ld	a0,1304(s2)
   192c2:	84ae                	mv	s1,a1
   192c4:	c10d                	beqz	a0,192e6 <signal+0x3e>
   192c6:	040e                	sll	s0,s0,0x3
   192c8:	008507b3          	add	a5,a0,s0
   192cc:	6388                	ld	a0,0(a5)
   192ce:	e384                	sd	s1,0(a5)
   192d0:	60e2                	ld	ra,24(sp)
   192d2:	6442                	ld	s0,16(sp)
   192d4:	64a2                	ld	s1,8(sp)
   192d6:	6902                	ld	s2,0(sp)
   192d8:	6105                	add	sp,sp,32
   192da:	8082                	ret
   192dc:	47d9                	li	a5,22
   192de:	00f92023          	sw	a5,0(s2)
   192e2:	557d                	li	a0,-1
   192e4:	b7f5                	j	192d0 <signal+0x28>
   192e6:	10000593          	li	a1,256
   192ea:	854a                	mv	a0,s2
   192ec:	ebefb0ef          	jal	149aa <_malloc_r>
   192f0:	50a93c23          	sd	a0,1304(s2)
   192f4:	87aa                	mv	a5,a0
   192f6:	10050713          	add	a4,a0,256
   192fa:	d565                	beqz	a0,192e2 <signal+0x3a>
   192fc:	0007b023          	sd	zero,0(a5)
   19300:	07a1                	add	a5,a5,8
   19302:	fee79de3          	bne	a5,a4,192fc <signal+0x54>
   19306:	b7c1                	j	192c6 <signal+0x1e>

0000000000019308 <_init_signal>:
   19308:	1141                	add	sp,sp,-16
   1930a:	e022                	sd	s0,0(sp)
   1930c:	7581b403          	ld	s0,1880(gp) # 1d240 <_impure_ptr>
   19310:	e406                	sd	ra,8(sp)
   19312:	51843783          	ld	a5,1304(s0)
   19316:	c791                	beqz	a5,19322 <_init_signal+0x1a>
   19318:	4501                	li	a0,0
   1931a:	60a2                	ld	ra,8(sp)
   1931c:	6402                	ld	s0,0(sp)
   1931e:	0141                	add	sp,sp,16
   19320:	8082                	ret
   19322:	10000593          	li	a1,256
   19326:	8522                	mv	a0,s0
   19328:	e82fb0ef          	jal	149aa <_malloc_r>
   1932c:	50a43c23          	sd	a0,1304(s0)
   19330:	c909                	beqz	a0,19342 <_init_signal+0x3a>
   19332:	10050793          	add	a5,a0,256
   19336:	00053023          	sd	zero,0(a0)
   1933a:	0521                	add	a0,a0,8
   1933c:	fef51de3          	bne	a0,a5,19336 <_init_signal+0x2e>
   19340:	bfe1                	j	19318 <_init_signal+0x10>
   19342:	557d                	li	a0,-1
   19344:	bfd9                	j	1931a <_init_signal+0x12>

0000000000019346 <__sigtramp>:
   19346:	1101                	add	sp,sp,-32
   19348:	e426                	sd	s1,8(sp)
   1934a:	ec06                	sd	ra,24(sp)
   1934c:	e822                	sd	s0,16(sp)
   1934e:	47fd                	li	a5,31
   19350:	7581b483          	ld	s1,1880(gp) # 1d240 <_impure_ptr>
   19354:	06a7eb63          	bltu	a5,a0,193ca <__sigtramp+0x84>
   19358:	5184b783          	ld	a5,1304(s1)
   1935c:	842a                	mv	s0,a0
   1935e:	c7a1                	beqz	a5,193a6 <__sigtramp+0x60>
   19360:	00341713          	sll	a4,s0,0x3
   19364:	97ba                	add	a5,a5,a4
   19366:	6398                	ld	a4,0(a5)
   19368:	c30d                	beqz	a4,1938a <__sigtramp+0x44>
   1936a:	56fd                	li	a3,-1
   1936c:	02d70b63          	beq	a4,a3,193a2 <__sigtramp+0x5c>
   19370:	4685                	li	a3,1
   19372:	02d70263          	beq	a4,a3,19396 <__sigtramp+0x50>
   19376:	8522                	mv	a0,s0
   19378:	0007b023          	sd	zero,0(a5)
   1937c:	9702                	jalr	a4
   1937e:	4501                	li	a0,0
   19380:	60e2                	ld	ra,24(sp)
   19382:	6442                	ld	s0,16(sp)
   19384:	64a2                	ld	s1,8(sp)
   19386:	6105                	add	sp,sp,32
   19388:	8082                	ret
   1938a:	60e2                	ld	ra,24(sp)
   1938c:	6442                	ld	s0,16(sp)
   1938e:	64a2                	ld	s1,8(sp)
   19390:	4505                	li	a0,1
   19392:	6105                	add	sp,sp,32
   19394:	8082                	ret
   19396:	60e2                	ld	ra,24(sp)
   19398:	6442                	ld	s0,16(sp)
   1939a:	64a2                	ld	s1,8(sp)
   1939c:	450d                	li	a0,3
   1939e:	6105                	add	sp,sp,32
   193a0:	8082                	ret
   193a2:	4509                	li	a0,2
   193a4:	bff1                	j	19380 <__sigtramp+0x3a>
   193a6:	10000593          	li	a1,256
   193aa:	8526                	mv	a0,s1
   193ac:	dfefb0ef          	jal	149aa <_malloc_r>
   193b0:	50a4bc23          	sd	a0,1304(s1)
   193b4:	87aa                	mv	a5,a0
   193b6:	c911                	beqz	a0,193ca <__sigtramp+0x84>
   193b8:	872a                	mv	a4,a0
   193ba:	10050693          	add	a3,a0,256
   193be:	00073023          	sd	zero,0(a4)
   193c2:	0721                	add	a4,a4,8
   193c4:	fee69de3          	bne	a3,a4,193be <__sigtramp+0x78>
   193c8:	bf61                	j	19360 <__sigtramp+0x1a>
   193ca:	557d                	li	a0,-1
   193cc:	bf55                	j	19380 <__sigtramp+0x3a>

00000000000193ce <_kill_r>:
   193ce:	1101                	add	sp,sp,-32
   193d0:	872e                	mv	a4,a1
   193d2:	e822                	sd	s0,16(sp)
   193d4:	e426                	sd	s1,8(sp)
   193d6:	842a                	mv	s0,a0
   193d8:	85b2                	mv	a1,a2
   193da:	853a                	mv	a0,a4
   193dc:	ec06                	sd	ra,24(sp)
   193de:	7801a823          	sw	zero,1936(gp) # 1d278 <errno>
   193e2:	56e000ef          	jal	19950 <_kill>
   193e6:	57fd                	li	a5,-1
   193e8:	00f50763          	beq	a0,a5,193f6 <_kill_r+0x28>
   193ec:	60e2                	ld	ra,24(sp)
   193ee:	6442                	ld	s0,16(sp)
   193f0:	64a2                	ld	s1,8(sp)
   193f2:	6105                	add	sp,sp,32
   193f4:	8082                	ret
   193f6:	7901a783          	lw	a5,1936(gp) # 1d278 <errno>
   193fa:	dbed                	beqz	a5,193ec <_kill_r+0x1e>
   193fc:	60e2                	ld	ra,24(sp)
   193fe:	c01c                	sw	a5,0(s0)
   19400:	6442                	ld	s0,16(sp)
   19402:	64a2                	ld	s1,8(sp)
   19404:	6105                	add	sp,sp,32
   19406:	8082                	ret

0000000000019408 <_getpid_r>:
   19408:	ab39                	j	19926 <_getpid>

000000000001940a <__sread>:
   1940a:	1141                	add	sp,sp,-16
   1940c:	e022                	sd	s0,0(sp)
   1940e:	842e                	mv	s0,a1
   19410:	01259583          	lh	a1,18(a1)
   19414:	e406                	sd	ra,8(sp)
   19416:	446000ef          	jal	1985c <_read_r>
   1941a:	00054963          	bltz	a0,1942c <__sread+0x22>
   1941e:	685c                	ld	a5,144(s0)
   19420:	60a2                	ld	ra,8(sp)
   19422:	97aa                	add	a5,a5,a0
   19424:	e85c                	sd	a5,144(s0)
   19426:	6402                	ld	s0,0(sp)
   19428:	0141                	add	sp,sp,16
   1942a:	8082                	ret
   1942c:	01045783          	lhu	a5,16(s0)
   19430:	777d                	lui	a4,0xfffff
   19432:	177d                	add	a4,a4,-1 # ffffffffffffefff <__BSS_END__+0xfffffffffffe1d17>
   19434:	8ff9                	and	a5,a5,a4
   19436:	60a2                	ld	ra,8(sp)
   19438:	00f41823          	sh	a5,16(s0)
   1943c:	6402                	ld	s0,0(sp)
   1943e:	0141                	add	sp,sp,16
   19440:	8082                	ret

0000000000019442 <__seofread>:
   19442:	4501                	li	a0,0
   19444:	8082                	ret

0000000000019446 <__swrite>:
   19446:	01059783          	lh	a5,16(a1)
   1944a:	7179                	add	sp,sp,-48
   1944c:	f022                	sd	s0,32(sp)
   1944e:	ec26                	sd	s1,24(sp)
   19450:	e84a                	sd	s2,16(sp)
   19452:	e44e                	sd	s3,8(sp)
   19454:	f406                	sd	ra,40(sp)
   19456:	1007f713          	and	a4,a5,256
   1945a:	842e                	mv	s0,a1
   1945c:	84aa                	mv	s1,a0
   1945e:	8932                	mv	s2,a2
   19460:	89b6                	mv	s3,a3
   19462:	e315                	bnez	a4,19486 <__swrite+0x40>
   19464:	777d                	lui	a4,0xfffff
   19466:	177d                	add	a4,a4,-1 # ffffffffffffefff <__BSS_END__+0xfffffffffffe1d17>
   19468:	8ff9                	and	a5,a5,a4
   1946a:	01241583          	lh	a1,18(s0)
   1946e:	00f41823          	sh	a5,16(s0)
   19472:	7402                	ld	s0,32(sp)
   19474:	70a2                	ld	ra,40(sp)
   19476:	86ce                	mv	a3,s3
   19478:	864a                	mv	a2,s2
   1947a:	69a2                	ld	s3,8(sp)
   1947c:	6942                	ld	s2,16(sp)
   1947e:	8526                	mv	a0,s1
   19480:	64e2                	ld	s1,24(sp)
   19482:	6145                	add	sp,sp,48
   19484:	a409                	j	19686 <_write_r>
   19486:	01259583          	lh	a1,18(a1)
   1948a:	4689                	li	a3,2
   1948c:	4601                	li	a2,0
   1948e:	392000ef          	jal	19820 <_lseek_r>
   19492:	01041783          	lh	a5,16(s0)
   19496:	b7f9                	j	19464 <__swrite+0x1e>

0000000000019498 <__sseek>:
   19498:	1141                	add	sp,sp,-16
   1949a:	e022                	sd	s0,0(sp)
   1949c:	842e                	mv	s0,a1
   1949e:	01259583          	lh	a1,18(a1)
   194a2:	e406                	sd	ra,8(sp)
   194a4:	37c000ef          	jal	19820 <_lseek_r>
   194a8:	57fd                	li	a5,-1
   194aa:	02f50163          	beq	a0,a5,194cc <__sseek+0x34>
   194ae:	01045783          	lhu	a5,16(s0)
   194b2:	6705                	lui	a4,0x1
   194b4:	60a2                	ld	ra,8(sp)
   194b6:	8fd9                	or	a5,a5,a4
   194b8:	0107979b          	sllw	a5,a5,0x10
   194bc:	4107d79b          	sraw	a5,a5,0x10
   194c0:	e848                	sd	a0,144(s0)
   194c2:	00f41823          	sh	a5,16(s0)
   194c6:	6402                	ld	s0,0(sp)
   194c8:	0141                	add	sp,sp,16
   194ca:	8082                	ret
   194cc:	01045783          	lhu	a5,16(s0)
   194d0:	777d                	lui	a4,0xfffff
   194d2:	177d                	add	a4,a4,-1 # ffffffffffffefff <__BSS_END__+0xfffffffffffe1d17>
   194d4:	8ff9                	and	a5,a5,a4
   194d6:	0107979b          	sllw	a5,a5,0x10
   194da:	4107d79b          	sraw	a5,a5,0x10
   194de:	60a2                	ld	ra,8(sp)
   194e0:	00f41823          	sh	a5,16(s0)
   194e4:	6402                	ld	s0,0(sp)
   194e6:	0141                	add	sp,sp,16
   194e8:	8082                	ret

00000000000194ea <__sclose>:
   194ea:	01259583          	lh	a1,18(a1)
   194ee:	aad1                	j	196c2 <_close_r>

00000000000194f0 <__swbuf_r>:
   194f0:	7179                	add	sp,sp,-48
   194f2:	f022                	sd	s0,32(sp)
   194f4:	ec26                	sd	s1,24(sp)
   194f6:	e84a                	sd	s2,16(sp)
   194f8:	f406                	sd	ra,40(sp)
   194fa:	e44e                	sd	s3,8(sp)
   194fc:	892a                	mv	s2,a0
   194fe:	84ae                	mv	s1,a1
   19500:	8432                	mv	s0,a2
   19502:	c119                	beqz	a0,19508 <__swbuf_r+0x18>
   19504:	493c                	lw	a5,80(a0)
   19506:	cbf9                	beqz	a5,195dc <__swbuf_r+0xec>
   19508:	541c                	lw	a5,40(s0)
   1950a:	01041703          	lh	a4,16(s0)
   1950e:	c45c                	sw	a5,12(s0)
   19510:	00877793          	and	a5,a4,8
   19514:	cbb9                	beqz	a5,1956a <__swbuf_r+0x7a>
   19516:	6c1c                	ld	a5,24(s0)
   19518:	cba9                	beqz	a5,1956a <__swbuf_r+0x7a>
   1951a:	0ff4f993          	zext.b	s3,s1
   1951e:	03271693          	sll	a3,a4,0x32
   19522:	84ce                	mv	s1,s3
   19524:	0606d263          	bgez	a3,19588 <__swbuf_r+0x98>
   19528:	6018                	ld	a4,0(s0)
   1952a:	5014                	lw	a3,32(s0)
   1952c:	40f707bb          	subw	a5,a4,a5
   19530:	06d7dd63          	bge	a5,a3,195aa <__swbuf_r+0xba>
   19534:	4454                	lw	a3,12(s0)
   19536:	00170613          	add	a2,a4,1
   1953a:	e010                	sd	a2,0(s0)
   1953c:	36fd                	addw	a3,a3,-1 # 1fff <exit-0xe0e9>
   1953e:	c454                	sw	a3,12(s0)
   19540:	01370023          	sb	s3,0(a4)
   19544:	5018                	lw	a4,32(s0)
   19546:	2785                	addw	a5,a5,1
   19548:	08f70363          	beq	a4,a5,195ce <__swbuf_r+0xde>
   1954c:	01045783          	lhu	a5,16(s0)
   19550:	8b85                	and	a5,a5,1
   19552:	c781                	beqz	a5,1955a <__swbuf_r+0x6a>
   19554:	47a9                	li	a5,10
   19556:	06f48c63          	beq	s1,a5,195ce <__swbuf_r+0xde>
   1955a:	70a2                	ld	ra,40(sp)
   1955c:	7402                	ld	s0,32(sp)
   1955e:	6942                	ld	s2,16(sp)
   19560:	69a2                	ld	s3,8(sp)
   19562:	8526                	mv	a0,s1
   19564:	64e2                	ld	s1,24(sp)
   19566:	6145                	add	sp,sp,48
   19568:	8082                	ret
   1956a:	85a2                	mv	a1,s0
   1956c:	854a                	mv	a0,s2
   1956e:	e79fe0ef          	jal	183e6 <__swsetup_r>
   19572:	e13d                	bnez	a0,195d8 <__swbuf_r+0xe8>
   19574:	01041703          	lh	a4,16(s0)
   19578:	0ff4f993          	zext.b	s3,s1
   1957c:	6c1c                	ld	a5,24(s0)
   1957e:	03271693          	sll	a3,a4,0x32
   19582:	84ce                	mv	s1,s3
   19584:	fa06c2e3          	bltz	a3,19528 <__swbuf_r+0x38>
   19588:	0ac42683          	lw	a3,172(s0)
   1958c:	6609                	lui	a2,0x2
   1958e:	8f51                	or	a4,a4,a2
   19590:	7679                	lui	a2,0xffffe
   19592:	167d                	add	a2,a2,-1 # ffffffffffffdfff <__BSS_END__+0xfffffffffffe0d17>
   19594:	8ef1                	and	a3,a3,a2
   19596:	00e41823          	sh	a4,16(s0)
   1959a:	6018                	ld	a4,0(s0)
   1959c:	0ad42623          	sw	a3,172(s0)
   195a0:	5014                	lw	a3,32(s0)
   195a2:	40f707bb          	subw	a5,a4,a5
   195a6:	f8d7c7e3          	blt	a5,a3,19534 <__swbuf_r+0x44>
   195aa:	85a2                	mv	a1,s0
   195ac:	854a                	mv	a0,s2
   195ae:	91cff0ef          	jal	186ca <_fflush_r>
   195b2:	e11d                	bnez	a0,195d8 <__swbuf_r+0xe8>
   195b4:	6018                	ld	a4,0(s0)
   195b6:	4454                	lw	a3,12(s0)
   195b8:	4785                	li	a5,1
   195ba:	00170613          	add	a2,a4,1
   195be:	36fd                	addw	a3,a3,-1
   195c0:	e010                	sd	a2,0(s0)
   195c2:	c454                	sw	a3,12(s0)
   195c4:	01370023          	sb	s3,0(a4)
   195c8:	5018                	lw	a4,32(s0)
   195ca:	f8f711e3          	bne	a4,a5,1954c <__swbuf_r+0x5c>
   195ce:	85a2                	mv	a1,s0
   195d0:	854a                	mv	a0,s2
   195d2:	8f8ff0ef          	jal	186ca <_fflush_r>
   195d6:	d151                	beqz	a0,1955a <__swbuf_r+0x6a>
   195d8:	54fd                	li	s1,-1
   195da:	b741                	j	1955a <__swbuf_r+0x6a>
   195dc:	bc4ff0ef          	jal	189a0 <__sinit>
   195e0:	b725                	j	19508 <__swbuf_r+0x18>

00000000000195e2 <__swbuf>:
   195e2:	87aa                	mv	a5,a0
   195e4:	7581b503          	ld	a0,1880(gp) # 1d240 <_impure_ptr>
   195e8:	862e                	mv	a2,a1
   195ea:	85be                	mv	a1,a5
   195ec:	f05ff06f          	j	194f0 <__swbuf_r>

00000000000195f0 <_wcrtomb_r>:
   195f0:	7179                	add	sp,sp,-48
   195f2:	f022                	sd	s0,32(sp)
   195f4:	ec26                	sd	s1,24(sp)
   195f6:	f406                	sd	ra,40(sp)
   195f8:	d601b783          	ld	a5,-672(gp) # 1c848 <__global_locale+0xe0>
   195fc:	842a                	mv	s0,a0
   195fe:	84b6                	mv	s1,a3
   19600:	c991                	beqz	a1,19614 <_wcrtomb_r+0x24>
   19602:	9782                	jalr	a5
   19604:	57fd                	li	a5,-1
   19606:	00f50d63          	beq	a0,a5,19620 <_wcrtomb_r+0x30>
   1960a:	70a2                	ld	ra,40(sp)
   1960c:	7402                	ld	s0,32(sp)
   1960e:	64e2                	ld	s1,24(sp)
   19610:	6145                	add	sp,sp,48
   19612:	8082                	ret
   19614:	4601                	li	a2,0
   19616:	858a                	mv	a1,sp
   19618:	9782                	jalr	a5
   1961a:	57fd                	li	a5,-1
   1961c:	fef517e3          	bne	a0,a5,1960a <_wcrtomb_r+0x1a>
   19620:	0004a023          	sw	zero,0(s1)
   19624:	08a00793          	li	a5,138
   19628:	70a2                	ld	ra,40(sp)
   1962a:	c01c                	sw	a5,0(s0)
   1962c:	7402                	ld	s0,32(sp)
   1962e:	64e2                	ld	s1,24(sp)
   19630:	6145                	add	sp,sp,48
   19632:	8082                	ret

0000000000019634 <wcrtomb>:
   19634:	7179                	add	sp,sp,-48
   19636:	f022                	sd	s0,32(sp)
   19638:	ec26                	sd	s1,24(sp)
   1963a:	f406                	sd	ra,40(sp)
   1963c:	7581b483          	ld	s1,1880(gp) # 1d240 <_impure_ptr>
   19640:	d601b783          	ld	a5,-672(gp) # 1c848 <__global_locale+0xe0>
   19644:	8432                	mv	s0,a2
   19646:	cd11                	beqz	a0,19662 <wcrtomb+0x2e>
   19648:	862e                	mv	a2,a1
   1964a:	86a2                	mv	a3,s0
   1964c:	85aa                	mv	a1,a0
   1964e:	8526                	mv	a0,s1
   19650:	9782                	jalr	a5
   19652:	57fd                	li	a5,-1
   19654:	00f50f63          	beq	a0,a5,19672 <wcrtomb+0x3e>
   19658:	70a2                	ld	ra,40(sp)
   1965a:	7402                	ld	s0,32(sp)
   1965c:	64e2                	ld	s1,24(sp)
   1965e:	6145                	add	sp,sp,48
   19660:	8082                	ret
   19662:	86b2                	mv	a3,a2
   19664:	858a                	mv	a1,sp
   19666:	4601                	li	a2,0
   19668:	8526                	mv	a0,s1
   1966a:	9782                	jalr	a5
   1966c:	57fd                	li	a5,-1
   1966e:	fef515e3          	bne	a0,a5,19658 <wcrtomb+0x24>
   19672:	00042023          	sw	zero,0(s0)
   19676:	70a2                	ld	ra,40(sp)
   19678:	7402                	ld	s0,32(sp)
   1967a:	08a00793          	li	a5,138
   1967e:	c09c                	sw	a5,0(s1)
   19680:	64e2                	ld	s1,24(sp)
   19682:	6145                	add	sp,sp,48
   19684:	8082                	ret

0000000000019686 <_write_r>:
   19686:	1101                	add	sp,sp,-32
   19688:	872e                	mv	a4,a1
   1968a:	e822                	sd	s0,16(sp)
   1968c:	e426                	sd	s1,8(sp)
   1968e:	85b2                	mv	a1,a2
   19690:	842a                	mv	s0,a0
   19692:	8636                	mv	a2,a3
   19694:	853a                	mv	a0,a4
   19696:	ec06                	sd	ra,24(sp)
   19698:	7801a823          	sw	zero,1936(gp) # 1d278 <errno>
   1969c:	374000ef          	jal	19a10 <_write>
   196a0:	57fd                	li	a5,-1
   196a2:	00f50763          	beq	a0,a5,196b0 <_write_r+0x2a>
   196a6:	60e2                	ld	ra,24(sp)
   196a8:	6442                	ld	s0,16(sp)
   196aa:	64a2                	ld	s1,8(sp)
   196ac:	6105                	add	sp,sp,32
   196ae:	8082                	ret
   196b0:	7901a783          	lw	a5,1936(gp) # 1d278 <errno>
   196b4:	dbed                	beqz	a5,196a6 <_write_r+0x20>
   196b6:	60e2                	ld	ra,24(sp)
   196b8:	c01c                	sw	a5,0(s0)
   196ba:	6442                	ld	s0,16(sp)
   196bc:	64a2                	ld	s1,8(sp)
   196be:	6105                	add	sp,sp,32
   196c0:	8082                	ret

00000000000196c2 <_close_r>:
   196c2:	1101                	add	sp,sp,-32
   196c4:	e822                	sd	s0,16(sp)
   196c6:	e426                	sd	s1,8(sp)
   196c8:	842a                	mv	s0,a0
   196ca:	852e                	mv	a0,a1
   196cc:	ec06                	sd	ra,24(sp)
   196ce:	7801a823          	sw	zero,1936(gp) # 1d278 <errno>
   196d2:	1c6000ef          	jal	19898 <_close>
   196d6:	57fd                	li	a5,-1
   196d8:	00f50763          	beq	a0,a5,196e6 <_close_r+0x24>
   196dc:	60e2                	ld	ra,24(sp)
   196de:	6442                	ld	s0,16(sp)
   196e0:	64a2                	ld	s1,8(sp)
   196e2:	6105                	add	sp,sp,32
   196e4:	8082                	ret
   196e6:	7901a783          	lw	a5,1936(gp) # 1d278 <errno>
   196ea:	dbed                	beqz	a5,196dc <_close_r+0x1a>
   196ec:	60e2                	ld	ra,24(sp)
   196ee:	c01c                	sw	a5,0(s0)
   196f0:	6442                	ld	s0,16(sp)
   196f2:	64a2                	ld	s1,8(sp)
   196f4:	6105                	add	sp,sp,32
   196f6:	8082                	ret

00000000000196f8 <_fclose_r>:
   196f8:	1101                	add	sp,sp,-32
   196fa:	ec06                	sd	ra,24(sp)
   196fc:	e822                	sd	s0,16(sp)
   196fe:	e426                	sd	s1,8(sp)
   19700:	e04a                	sd	s2,0(sp)
   19702:	c989                	beqz	a1,19714 <_fclose_r+0x1c>
   19704:	842e                	mv	s0,a1
   19706:	84aa                	mv	s1,a0
   19708:	c119                	beqz	a0,1970e <_fclose_r+0x16>
   1970a:	493c                	lw	a5,80(a0)
   1970c:	cfa5                	beqz	a5,19784 <_fclose_r+0x8c>
   1970e:	01041783          	lh	a5,16(s0)
   19712:	eb89                	bnez	a5,19724 <_fclose_r+0x2c>
   19714:	60e2                	ld	ra,24(sp)
   19716:	6442                	ld	s0,16(sp)
   19718:	4901                	li	s2,0
   1971a:	64a2                	ld	s1,8(sp)
   1971c:	854a                	mv	a0,s2
   1971e:	6902                	ld	s2,0(sp)
   19720:	6105                	add	sp,sp,32
   19722:	8082                	ret
   19724:	85a2                	mv	a1,s0
   19726:	8526                	mv	a0,s1
   19728:	e21fe0ef          	jal	18548 <__sflush_r>
   1972c:	683c                	ld	a5,80(s0)
   1972e:	892a                	mv	s2,a0
   19730:	c791                	beqz	a5,1973c <_fclose_r+0x44>
   19732:	780c                	ld	a1,48(s0)
   19734:	8526                	mv	a0,s1
   19736:	9782                	jalr	a5
   19738:	04054c63          	bltz	a0,19790 <_fclose_r+0x98>
   1973c:	01045783          	lhu	a5,16(s0)
   19740:	0807f793          	and	a5,a5,128
   19744:	efa1                	bnez	a5,1979c <_fclose_r+0xa4>
   19746:	6c2c                	ld	a1,88(s0)
   19748:	c991                	beqz	a1,1975c <_fclose_r+0x64>
   1974a:	07440793          	add	a5,s0,116
   1974e:	00f58563          	beq	a1,a5,19758 <_fclose_r+0x60>
   19752:	8526                	mv	a0,s1
   19754:	e57f80ef          	jal	125aa <_free_r>
   19758:	04043c23          	sd	zero,88(s0)
   1975c:	7c2c                	ld	a1,120(s0)
   1975e:	c591                	beqz	a1,1976a <_fclose_r+0x72>
   19760:	8526                	mv	a0,s1
   19762:	e49f80ef          	jal	125aa <_free_r>
   19766:	06043c23          	sd	zero,120(s0)
   1976a:	a40ff0ef          	jal	189aa <__sfp_lock_acquire>
   1976e:	00041823          	sh	zero,16(s0)
   19772:	a3aff0ef          	jal	189ac <__sfp_lock_release>
   19776:	60e2                	ld	ra,24(sp)
   19778:	6442                	ld	s0,16(sp)
   1977a:	64a2                	ld	s1,8(sp)
   1977c:	854a                	mv	a0,s2
   1977e:	6902                	ld	s2,0(sp)
   19780:	6105                	add	sp,sp,32
   19782:	8082                	ret
   19784:	a1cff0ef          	jal	189a0 <__sinit>
   19788:	01041783          	lh	a5,16(s0)
   1978c:	d7c1                	beqz	a5,19714 <_fclose_r+0x1c>
   1978e:	bf59                	j	19724 <_fclose_r+0x2c>
   19790:	01045783          	lhu	a5,16(s0)
   19794:	597d                	li	s2,-1
   19796:	0807f793          	and	a5,a5,128
   1979a:	d7d5                	beqz	a5,19746 <_fclose_r+0x4e>
   1979c:	6c0c                	ld	a1,24(s0)
   1979e:	8526                	mv	a0,s1
   197a0:	e0bf80ef          	jal	125aa <_free_r>
   197a4:	b74d                	j	19746 <_fclose_r+0x4e>

00000000000197a6 <fclose>:
   197a6:	85aa                	mv	a1,a0
   197a8:	7581b503          	ld	a0,1880(gp) # 1d240 <_impure_ptr>
   197ac:	f4dff06f          	j	196f8 <_fclose_r>

00000000000197b0 <_fstat_r>:
   197b0:	1101                	add	sp,sp,-32
   197b2:	872e                	mv	a4,a1
   197b4:	e822                	sd	s0,16(sp)
   197b6:	e426                	sd	s1,8(sp)
   197b8:	842a                	mv	s0,a0
   197ba:	85b2                	mv	a1,a2
   197bc:	853a                	mv	a0,a4
   197be:	ec06                	sd	ra,24(sp)
   197c0:	7801a823          	sw	zero,1936(gp) # 1d278 <errno>
   197c4:	122000ef          	jal	198e6 <_fstat>
   197c8:	57fd                	li	a5,-1
   197ca:	00f50763          	beq	a0,a5,197d8 <_fstat_r+0x28>
   197ce:	60e2                	ld	ra,24(sp)
   197d0:	6442                	ld	s0,16(sp)
   197d2:	64a2                	ld	s1,8(sp)
   197d4:	6105                	add	sp,sp,32
   197d6:	8082                	ret
   197d8:	7901a783          	lw	a5,1936(gp) # 1d278 <errno>
   197dc:	dbed                	beqz	a5,197ce <_fstat_r+0x1e>
   197de:	60e2                	ld	ra,24(sp)
   197e0:	c01c                	sw	a5,0(s0)
   197e2:	6442                	ld	s0,16(sp)
   197e4:	64a2                	ld	s1,8(sp)
   197e6:	6105                	add	sp,sp,32
   197e8:	8082                	ret

00000000000197ea <_isatty_r>:
   197ea:	1101                	add	sp,sp,-32
   197ec:	e822                	sd	s0,16(sp)
   197ee:	e426                	sd	s1,8(sp)
   197f0:	842a                	mv	s0,a0
   197f2:	852e                	mv	a0,a1
   197f4:	ec06                	sd	ra,24(sp)
   197f6:	7801a823          	sw	zero,1936(gp) # 1d278 <errno>
   197fa:	130000ef          	jal	1992a <_isatty>
   197fe:	57fd                	li	a5,-1
   19800:	00f50763          	beq	a0,a5,1980e <_isatty_r+0x24>
   19804:	60e2                	ld	ra,24(sp)
   19806:	6442                	ld	s0,16(sp)
   19808:	64a2                	ld	s1,8(sp)
   1980a:	6105                	add	sp,sp,32
   1980c:	8082                	ret
   1980e:	7901a783          	lw	a5,1936(gp) # 1d278 <errno>
   19812:	dbed                	beqz	a5,19804 <_isatty_r+0x1a>
   19814:	60e2                	ld	ra,24(sp)
   19816:	c01c                	sw	a5,0(s0)
   19818:	6442                	ld	s0,16(sp)
   1981a:	64a2                	ld	s1,8(sp)
   1981c:	6105                	add	sp,sp,32
   1981e:	8082                	ret

0000000000019820 <_lseek_r>:
   19820:	1101                	add	sp,sp,-32
   19822:	872e                	mv	a4,a1
   19824:	e822                	sd	s0,16(sp)
   19826:	e426                	sd	s1,8(sp)
   19828:	85b2                	mv	a1,a2
   1982a:	842a                	mv	s0,a0
   1982c:	8636                	mv	a2,a3
   1982e:	853a                	mv	a0,a4
   19830:	ec06                	sd	ra,24(sp)
   19832:	7801a823          	sw	zero,1936(gp) # 1d278 <errno>
   19836:	12e000ef          	jal	19964 <_lseek>
   1983a:	57fd                	li	a5,-1
   1983c:	00f50763          	beq	a0,a5,1984a <_lseek_r+0x2a>
   19840:	60e2                	ld	ra,24(sp)
   19842:	6442                	ld	s0,16(sp)
   19844:	64a2                	ld	s1,8(sp)
   19846:	6105                	add	sp,sp,32
   19848:	8082                	ret
   1984a:	7901a783          	lw	a5,1936(gp) # 1d278 <errno>
   1984e:	dbed                	beqz	a5,19840 <_lseek_r+0x20>
   19850:	60e2                	ld	ra,24(sp)
   19852:	c01c                	sw	a5,0(s0)
   19854:	6442                	ld	s0,16(sp)
   19856:	64a2                	ld	s1,8(sp)
   19858:	6105                	add	sp,sp,32
   1985a:	8082                	ret

000000000001985c <_read_r>:
   1985c:	1101                	add	sp,sp,-32
   1985e:	872e                	mv	a4,a1
   19860:	e822                	sd	s0,16(sp)
   19862:	e426                	sd	s1,8(sp)
   19864:	85b2                	mv	a1,a2
   19866:	842a                	mv	s0,a0
   19868:	8636                	mv	a2,a3
   1986a:	853a                	mv	a0,a4
   1986c:	ec06                	sd	ra,24(sp)
   1986e:	7801a823          	sw	zero,1936(gp) # 1d278 <errno>
   19872:	11e000ef          	jal	19990 <_read>
   19876:	57fd                	li	a5,-1
   19878:	00f50763          	beq	a0,a5,19886 <_read_r+0x2a>
   1987c:	60e2                	ld	ra,24(sp)
   1987e:	6442                	ld	s0,16(sp)
   19880:	64a2                	ld	s1,8(sp)
   19882:	6105                	add	sp,sp,32
   19884:	8082                	ret
   19886:	7901a783          	lw	a5,1936(gp) # 1d278 <errno>
   1988a:	dbed                	beqz	a5,1987c <_read_r+0x20>
   1988c:	60e2                	ld	ra,24(sp)
   1988e:	c01c                	sw	a5,0(s0)
   19890:	6442                	ld	s0,16(sp)
   19892:	64a2                	ld	s1,8(sp)
   19894:	6105                	add	sp,sp,32
   19896:	8082                	ret

0000000000019898 <_close>:
   19898:	1141                	add	sp,sp,-16
   1989a:	e406                	sd	ra,8(sp)
   1989c:	e022                	sd	s0,0(sp)
   1989e:	03900893          	li	a7,57
   198a2:	00000073          	ecall
   198a6:	842a                	mv	s0,a0
   198a8:	00054763          	bltz	a0,198b6 <_close+0x1e>
   198ac:	2501                	sext.w	a0,a0
   198ae:	60a2                	ld	ra,8(sp)
   198b0:	6402                	ld	s0,0(sp)
   198b2:	0141                	add	sp,sp,16
   198b4:	8082                	ret
   198b6:	d9afd0ef          	jal	16e50 <__errno>
   198ba:	4080043b          	negw	s0,s0
   198be:	c100                	sw	s0,0(a0)
   198c0:	557d                	li	a0,-1
   198c2:	b7f5                	j	198ae <_close+0x16>

00000000000198c4 <_exit>:
   198c4:	05d00893          	li	a7,93
   198c8:	00000073          	ecall
   198cc:	00054363          	bltz	a0,198d2 <_exit+0xe>
   198d0:	a001                	j	198d0 <_exit+0xc>
   198d2:	1141                	add	sp,sp,-16
   198d4:	e022                	sd	s0,0(sp)
   198d6:	842a                	mv	s0,a0
   198d8:	e406                	sd	ra,8(sp)
   198da:	4080043b          	negw	s0,s0
   198de:	d72fd0ef          	jal	16e50 <__errno>
   198e2:	c100                	sw	s0,0(a0)
   198e4:	a001                	j	198e4 <_exit+0x20>

00000000000198e6 <_fstat>:
   198e6:	7135                	add	sp,sp,-160
   198e8:	e526                	sd	s1,136(sp)
   198ea:	ed06                	sd	ra,152(sp)
   198ec:	84ae                	mv	s1,a1
   198ee:	e922                	sd	s0,144(sp)
   198f0:	05000893          	li	a7,80
   198f4:	858a                	mv	a1,sp
   198f6:	00000073          	ecall
   198fa:	842a                	mv	s0,a0
   198fc:	00054e63          	bltz	a0,19918 <_fstat+0x32>
   19900:	0005041b          	sext.w	s0,a0
   19904:	8526                	mv	a0,s1
   19906:	858a                	mv	a1,sp
   19908:	134000ef          	jal	19a3c <_conv_stat>
   1990c:	60ea                	ld	ra,152(sp)
   1990e:	8522                	mv	a0,s0
   19910:	644a                	ld	s0,144(sp)
   19912:	64aa                	ld	s1,136(sp)
   19914:	610d                	add	sp,sp,160
   19916:	8082                	ret
   19918:	4080043b          	negw	s0,s0
   1991c:	d34fd0ef          	jal	16e50 <__errno>
   19920:	c100                	sw	s0,0(a0)
   19922:	547d                	li	s0,-1
   19924:	b7c5                	j	19904 <_fstat+0x1e>

0000000000019926 <_getpid>:
   19926:	4505                	li	a0,1
   19928:	8082                	ret

000000000001992a <_isatty>:
   1992a:	7119                	add	sp,sp,-128
   1992c:	002c                	add	a1,sp,8
   1992e:	fc86                	sd	ra,120(sp)
   19930:	fb7ff0ef          	jal	198e6 <_fstat>
   19934:	57fd                	li	a5,-1
   19936:	00f50963          	beq	a0,a5,19948 <_isatty+0x1e>
   1993a:	4532                	lw	a0,12(sp)
   1993c:	70e6                	ld	ra,120(sp)
   1993e:	40d5551b          	sraw	a0,a0,0xd
   19942:	8905                	and	a0,a0,1
   19944:	6109                	add	sp,sp,128
   19946:	8082                	ret
   19948:	70e6                	ld	ra,120(sp)
   1994a:	4501                	li	a0,0
   1994c:	6109                	add	sp,sp,128
   1994e:	8082                	ret

0000000000019950 <_kill>:
   19950:	1141                	add	sp,sp,-16
   19952:	e406                	sd	ra,8(sp)
   19954:	cfcfd0ef          	jal	16e50 <__errno>
   19958:	60a2                	ld	ra,8(sp)
   1995a:	47d9                	li	a5,22
   1995c:	c11c                	sw	a5,0(a0)
   1995e:	557d                	li	a0,-1
   19960:	0141                	add	sp,sp,16
   19962:	8082                	ret

0000000000019964 <_lseek>:
   19964:	1141                	add	sp,sp,-16
   19966:	e406                	sd	ra,8(sp)
   19968:	e022                	sd	s0,0(sp)
   1996a:	03e00893          	li	a7,62
   1996e:	00000073          	ecall
   19972:	842a                	mv	s0,a0
   19974:	00054763          	bltz	a0,19982 <_lseek+0x1e>
   19978:	60a2                	ld	ra,8(sp)
   1997a:	8522                	mv	a0,s0
   1997c:	6402                	ld	s0,0(sp)
   1997e:	0141                	add	sp,sp,16
   19980:	8082                	ret
   19982:	4080043b          	negw	s0,s0
   19986:	ccafd0ef          	jal	16e50 <__errno>
   1998a:	c100                	sw	s0,0(a0)
   1998c:	547d                	li	s0,-1
   1998e:	b7ed                	j	19978 <_lseek+0x14>

0000000000019990 <_read>:
   19990:	1141                	add	sp,sp,-16
   19992:	e406                	sd	ra,8(sp)
   19994:	e022                	sd	s0,0(sp)
   19996:	03f00893          	li	a7,63
   1999a:	00000073          	ecall
   1999e:	842a                	mv	s0,a0
   199a0:	00054763          	bltz	a0,199ae <_read+0x1e>
   199a4:	60a2                	ld	ra,8(sp)
   199a6:	8522                	mv	a0,s0
   199a8:	6402                	ld	s0,0(sp)
   199aa:	0141                	add	sp,sp,16
   199ac:	8082                	ret
   199ae:	4080043b          	negw	s0,s0
   199b2:	c9efd0ef          	jal	16e50 <__errno>
   199b6:	c100                	sw	s0,0(a0)
   199b8:	547d                	li	s0,-1
   199ba:	b7ed                	j	199a4 <_read+0x14>

00000000000199bc <_sbrk>:
   199bc:	7981b703          	ld	a4,1944(gp) # 1d280 <heap_end.0>
   199c0:	1141                	add	sp,sp,-16
   199c2:	e406                	sd	ra,8(sp)
   199c4:	87aa                	mv	a5,a0
   199c6:	ef01                	bnez	a4,199de <_sbrk+0x22>
   199c8:	0d600893          	li	a7,214
   199cc:	4501                	li	a0,0
   199ce:	00000073          	ecall
   199d2:	567d                	li	a2,-1
   199d4:	872a                	mv	a4,a0
   199d6:	02c50563          	beq	a0,a2,19a00 <_sbrk+0x44>
   199da:	78a1bc23          	sd	a0,1944(gp) # 1d280 <heap_end.0>
   199de:	0d600893          	li	a7,214
   199e2:	00e78533          	add	a0,a5,a4
   199e6:	00000073          	ecall
   199ea:	7981b703          	ld	a4,1944(gp) # 1d280 <heap_end.0>
   199ee:	97ba                	add	a5,a5,a4
   199f0:	00f51863          	bne	a0,a5,19a00 <_sbrk+0x44>
   199f4:	60a2                	ld	ra,8(sp)
   199f6:	78a1bc23          	sd	a0,1944(gp) # 1d280 <heap_end.0>
   199fa:	853a                	mv	a0,a4
   199fc:	0141                	add	sp,sp,16
   199fe:	8082                	ret
   19a00:	c50fd0ef          	jal	16e50 <__errno>
   19a04:	60a2                	ld	ra,8(sp)
   19a06:	47b1                	li	a5,12
   19a08:	c11c                	sw	a5,0(a0)
   19a0a:	557d                	li	a0,-1
   19a0c:	0141                	add	sp,sp,16
   19a0e:	8082                	ret

0000000000019a10 <_write>:
   19a10:	1141                	add	sp,sp,-16
   19a12:	e406                	sd	ra,8(sp)
   19a14:	e022                	sd	s0,0(sp)
   19a16:	04000893          	li	a7,64
   19a1a:	00000073          	ecall
   19a1e:	842a                	mv	s0,a0
   19a20:	00054763          	bltz	a0,19a2e <_write+0x1e>
   19a24:	60a2                	ld	ra,8(sp)
   19a26:	8522                	mv	a0,s0
   19a28:	6402                	ld	s0,0(sp)
   19a2a:	0141                	add	sp,sp,16
   19a2c:	8082                	ret
   19a2e:	4080043b          	negw	s0,s0
   19a32:	c1efd0ef          	jal	16e50 <__errno>
   19a36:	c100                	sw	s0,0(a0)
   19a38:	547d                	li	s0,-1
   19a3a:	b7ed                	j	19a24 <_write+0x14>

0000000000019a3c <_conv_stat>:
   19a3c:	0185d703          	lhu	a4,24(a1)
   19a40:	0145d783          	lhu	a5,20(a1)
   19a44:	4dd0                	lw	a2,28(a1)
   19a46:	7194                	ld	a3,32(a1)
   19a48:	0005b303          	ld	t1,0(a1)
   19a4c:	0085b883          	ld	a7,8(a1)
   19a50:	0105a803          	lw	a6,16(a1)
   19a54:	0107171b          	sllw	a4,a4,0x10
   19a58:	8fd9                	or	a5,a5,a4
   19a5a:	00c51623          	sh	a2,12(a0)
   19a5e:	00d51723          	sh	a3,14(a0)
   19a62:	00651023          	sh	t1,0(a0)
   19a66:	01151123          	sh	a7,2(a0)
   19a6a:	01052223          	sw	a6,4(a0)
   19a6e:	c51c                	sw	a5,8(a0)
   19a70:	7998                	ld	a4,48(a1)
   19a72:	65bc                	ld	a5,72(a1)
   19a74:	61b0                	ld	a2,64(a1)
   19a76:	5d94                	lw	a3,56(a1)
   19a78:	e918                	sd	a4,16(a0)
   19a7a:	ed1c                	sd	a5,24(a0)
   19a7c:	6db8                	ld	a4,88(a1)
   19a7e:	75bc                	ld	a5,104(a1)
   19a80:	e930                	sd	a2,80(a0)
   19a82:	e534                	sd	a3,72(a0)
   19a84:	f518                	sd	a4,40(a0)
   19a86:	fd1c                	sd	a5,56(a0)
   19a88:	8082                	ret

0000000000019a8a <__eqtf2>:
   19a8a:	002027f3          	frrm	a5
   19a8e:	67a1                	lui	a5,0x8
   19a90:	0305d813          	srl	a6,a1,0x30
   19a94:	17fd                	add	a5,a5,-1 # 7fff <exit-0x80e9>
   19a96:	5e7d                	li	t3,-1
   19a98:	010e5713          	srl	a4,t3,0x10
   19a9c:	0306d313          	srl	t1,a3,0x30
   19aa0:	00f87833          	and	a6,a6,a5
   19aa4:	00e5f8b3          	and	a7,a1,a4
   19aa8:	00f37333          	and	t1,t1,a5
   19aac:	8f75                	and	a4,a4,a3
   19aae:	91fd                	srl	a1,a1,0x3f
   19ab0:	92fd                	srl	a3,a3,0x3f
   19ab2:	00f81f63          	bne	a6,a5,19ad0 <__eqtf2+0x46>
   19ab6:	00a8e533          	or	a0,a7,a0
   19aba:	e90d                	bnez	a0,19aec <__eqtf2+0x62>
   19abc:	4785                	li	a5,1
   19abe:	01031763          	bne	t1,a6,19acc <__eqtf2+0x42>
   19ac2:	8e59                	or	a2,a2,a4
   19ac4:	ea19                	bnez	a2,19ada <__eqtf2+0x50>
   19ac6:	8d95                	sub	a1,a1,a3
   19ac8:	00b037b3          	snez	a5,a1
   19acc:	853e                	mv	a0,a5
   19ace:	a805                	j	19afe <__eqtf2+0x74>
   19ad0:	02f31863          	bne	t1,a5,19b00 <__eqtf2+0x76>
   19ad4:	8e59                	or	a2,a2,a4
   19ad6:	4785                	li	a5,1
   19ad8:	da75                	beqz	a2,19acc <__eqtf2+0x42>
   19ada:	57fd                	li	a5,-1
   19adc:	83c5                	srl	a5,a5,0x11
   19ade:	4505                	li	a0,1
   19ae0:	00e7ef63          	bltu	a5,a4,19afe <__eqtf2+0x74>
   19ae4:	00186073          	csrs	fflags,16
   19ae8:	4505                	li	a0,1
   19aea:	8082                	ret
   19aec:	011e5e13          	srl	t3,t3,0x11
   19af0:	ff1e7ae3          	bgeu	t3,a7,19ae4 <__eqtf2+0x5a>
   19af4:	4505                	li	a0,1
   19af6:	01031463          	bne	t1,a6,19afe <__eqtf2+0x74>
   19afa:	8e59                	or	a2,a2,a4
   19afc:	fe79                	bnez	a2,19ada <__eqtf2+0x50>
   19afe:	8082                	ret
   19b00:	4785                	li	a5,1
   19b02:	fc6815e3          	bne	a6,t1,19acc <__eqtf2+0x42>
   19b06:	fce893e3          	bne	a7,a4,19acc <__eqtf2+0x42>
   19b0a:	fcc511e3          	bne	a0,a2,19acc <__eqtf2+0x42>
   19b0e:	00d58963          	beq	a1,a3,19b20 <__eqtf2+0x96>
   19b12:	fa081de3          	bnez	a6,19acc <__eqtf2+0x42>
   19b16:	00a8e8b3          	or	a7,a7,a0
   19b1a:	011037b3          	snez	a5,a7
   19b1e:	b77d                	j	19acc <__eqtf2+0x42>
   19b20:	4781                	li	a5,0
   19b22:	b76d                	j	19acc <__eqtf2+0x42>

0000000000019b24 <__getf2>:
   19b24:	832a                	mv	t1,a0
   19b26:	002027f3          	frrm	a5
   19b2a:	6e21                	lui	t3,0x8
   19b2c:	0305d893          	srl	a7,a1,0x30
   19b30:	1e7d                	add	t3,t3,-1 # 7fff <exit-0x80e9>
   19b32:	577d                	li	a4,-1
   19b34:	8341                	srl	a4,a4,0x10
   19b36:	0306d793          	srl	a5,a3,0x30
   19b3a:	01c8f8b3          	and	a7,a7,t3
   19b3e:	00e5f833          	and	a6,a1,a4
   19b42:	01c7f533          	and	a0,a5,t3
   19b46:	8f75                	and	a4,a4,a3
   19b48:	91fd                	srl	a1,a1,0x3f
   19b4a:	92fd                	srl	a3,a3,0x3f
   19b4c:	03c89263          	bne	a7,t3,19b70 <__getf2+0x4c>
   19b50:	00686833          	or	a6,a6,t1
   19b54:	08081463          	bnez	a6,19bdc <__getf2+0xb8>
   19b58:	01150663          	beq	a0,a7,19b64 <__getf2+0x40>
   19b5c:	4505                	li	a0,1
   19b5e:	cdb5                	beqz	a1,19bda <__getf2+0xb6>
   19b60:	557d                	li	a0,-1
   19b62:	8082                	ret
   19b64:	8f51                	or	a4,a4,a2
   19b66:	eb3d                	bnez	a4,19bdc <__getf2+0xb8>
   19b68:	fed59ae3          	bne	a1,a3,19b5c <__getf2+0x38>
   19b6c:	4501                	li	a0,0
   19b6e:	8082                	ret
   19b70:	03c51463          	bne	a0,t3,19b98 <__getf2+0x74>
   19b74:	8f51                	or	a4,a4,a2
   19b76:	e33d                	bnez	a4,19bdc <__getf2+0xb8>
   19b78:	00088863          	beqz	a7,19b88 <__getf2+0x64>
   19b7c:	fed590e3          	bne	a1,a3,19b5c <__getf2+0x38>
   19b80:	557d                	li	a0,-1
   19b82:	cda1                	beqz	a1,19bda <__getf2+0xb6>
   19b84:	852e                	mv	a0,a1
   19b86:	8082                	ret
   19b88:	00686833          	or	a6,a6,t1
   19b8c:	fe0818e3          	bnez	a6,19b7c <__getf2+0x58>
   19b90:	557d                	li	a0,-1
   19b92:	c6a1                	beqz	a3,19bda <__getf2+0xb6>
   19b94:	8536                	mv	a0,a3
   19b96:	8082                	ret
   19b98:	02088363          	beqz	a7,19bbe <__getf2+0x9a>
   19b9c:	d161                	beqz	a0,19b5c <__getf2+0x38>
   19b9e:	fad59fe3          	bne	a1,a3,19b5c <__getf2+0x38>
   19ba2:	fb154de3          	blt	a0,a7,19b5c <__getf2+0x38>
   19ba6:	fca8cde3          	blt	a7,a0,19b80 <__getf2+0x5c>
   19baa:	fb0769e3          	bltu	a4,a6,19b5c <__getf2+0x38>
   19bae:	fce819e3          	bne	a6,a4,19b80 <__getf2+0x5c>
   19bb2:	fa6665e3          	bltu	a2,t1,19b5c <__getf2+0x38>
   19bb6:	4501                	li	a0,0
   19bb8:	02c37163          	bgeu	t1,a2,19bda <__getf2+0xb6>
   19bbc:	b7d1                	j	19b80 <__getf2+0x5c>
   19bbe:	006867b3          	or	a5,a6,t1
   19bc2:	c119                	beqz	a0,19bc8 <__getf2+0xa4>
   19bc4:	d7f1                	beqz	a5,19b90 <__getf2+0x6c>
   19bc6:	bf5d                	j	19b7c <__getf2+0x58>
   19bc8:	00c768b3          	or	a7,a4,a2
   19bcc:	00088663          	beqz	a7,19bd8 <__getf2+0xb4>
   19bd0:	d3e1                	beqz	a5,19b90 <__getf2+0x6c>
   19bd2:	fcd58ce3          	beq	a1,a3,19baa <__getf2+0x86>
   19bd6:	b759                	j	19b5c <__getf2+0x38>
   19bd8:	f3d1                	bnez	a5,19b5c <__getf2+0x38>
   19bda:	8082                	ret
   19bdc:	00186073          	csrs	fflags,16
   19be0:	5579                	li	a0,-2
   19be2:	8082                	ret

0000000000019be4 <__letf2>:
   19be4:	832a                	mv	t1,a0
   19be6:	002027f3          	frrm	a5
   19bea:	6e21                	lui	t3,0x8
   19bec:	0305d893          	srl	a7,a1,0x30
   19bf0:	1e7d                	add	t3,t3,-1 # 7fff <exit-0x80e9>
   19bf2:	577d                	li	a4,-1
   19bf4:	8341                	srl	a4,a4,0x10
   19bf6:	0306d793          	srl	a5,a3,0x30
   19bfa:	01c8f8b3          	and	a7,a7,t3
   19bfe:	00e5f833          	and	a6,a1,a4
   19c02:	01c7f533          	and	a0,a5,t3
   19c06:	8f75                	and	a4,a4,a3
   19c08:	91fd                	srl	a1,a1,0x3f
   19c0a:	92fd                	srl	a3,a3,0x3f
   19c0c:	03c89263          	bne	a7,t3,19c30 <__letf2+0x4c>
   19c10:	00686833          	or	a6,a6,t1
   19c14:	08081463          	bnez	a6,19c9c <__letf2+0xb8>
   19c18:	01150663          	beq	a0,a7,19c24 <__letf2+0x40>
   19c1c:	4505                	li	a0,1
   19c1e:	cdb5                	beqz	a1,19c9a <__letf2+0xb6>
   19c20:	557d                	li	a0,-1
   19c22:	8082                	ret
   19c24:	8f51                	or	a4,a4,a2
   19c26:	eb3d                	bnez	a4,19c9c <__letf2+0xb8>
   19c28:	fed59ae3          	bne	a1,a3,19c1c <__letf2+0x38>
   19c2c:	4501                	li	a0,0
   19c2e:	8082                	ret
   19c30:	03c51463          	bne	a0,t3,19c58 <__letf2+0x74>
   19c34:	8f51                	or	a4,a4,a2
   19c36:	e33d                	bnez	a4,19c9c <__letf2+0xb8>
   19c38:	00088863          	beqz	a7,19c48 <__letf2+0x64>
   19c3c:	fed590e3          	bne	a1,a3,19c1c <__letf2+0x38>
   19c40:	557d                	li	a0,-1
   19c42:	cda1                	beqz	a1,19c9a <__letf2+0xb6>
   19c44:	852e                	mv	a0,a1
   19c46:	8082                	ret
   19c48:	00686833          	or	a6,a6,t1
   19c4c:	fe0818e3          	bnez	a6,19c3c <__letf2+0x58>
   19c50:	557d                	li	a0,-1
   19c52:	c6a1                	beqz	a3,19c9a <__letf2+0xb6>
   19c54:	8536                	mv	a0,a3
   19c56:	8082                	ret
   19c58:	02088363          	beqz	a7,19c7e <__letf2+0x9a>
   19c5c:	d161                	beqz	a0,19c1c <__letf2+0x38>
   19c5e:	fad59fe3          	bne	a1,a3,19c1c <__letf2+0x38>
   19c62:	fb154de3          	blt	a0,a7,19c1c <__letf2+0x38>
   19c66:	fca8cde3          	blt	a7,a0,19c40 <__letf2+0x5c>
   19c6a:	fb0769e3          	bltu	a4,a6,19c1c <__letf2+0x38>
   19c6e:	fce819e3          	bne	a6,a4,19c40 <__letf2+0x5c>
   19c72:	fa6665e3          	bltu	a2,t1,19c1c <__letf2+0x38>
   19c76:	4501                	li	a0,0
   19c78:	02c37163          	bgeu	t1,a2,19c9a <__letf2+0xb6>
   19c7c:	b7d1                	j	19c40 <__letf2+0x5c>
   19c7e:	006867b3          	or	a5,a6,t1
   19c82:	c119                	beqz	a0,19c88 <__letf2+0xa4>
   19c84:	d7f1                	beqz	a5,19c50 <__letf2+0x6c>
   19c86:	bf5d                	j	19c3c <__letf2+0x58>
   19c88:	00c768b3          	or	a7,a4,a2
   19c8c:	00088663          	beqz	a7,19c98 <__letf2+0xb4>
   19c90:	d3e1                	beqz	a5,19c50 <__letf2+0x6c>
   19c92:	fcd58ce3          	beq	a1,a3,19c6a <__letf2+0x86>
   19c96:	b759                	j	19c1c <__letf2+0x38>
   19c98:	f3d1                	bnez	a5,19c1c <__letf2+0x38>
   19c9a:	8082                	ret
   19c9c:	00186073          	csrs	fflags,16
   19ca0:	4509                	li	a0,2
   19ca2:	8082                	ret

0000000000019ca4 <__multf3>:
   19ca4:	711d                	add	sp,sp,-96
   19ca6:	e8a2                	sd	s0,80(sp)
   19ca8:	f852                	sd	s4,48(sp)
   19caa:	e862                	sd	s8,16(sp)
   19cac:	ec86                	sd	ra,88(sp)
   19cae:	e4a6                	sd	s1,72(sp)
   19cb0:	e0ca                	sd	s2,64(sp)
   19cb2:	fc4e                	sd	s3,56(sp)
   19cb4:	f456                	sd	s5,40(sp)
   19cb6:	f05a                	sd	s6,32(sp)
   19cb8:	ec5e                	sd	s7,24(sp)
   19cba:	e466                	sd	s9,8(sp)
   19cbc:	842a                	mv	s0,a0
   19cbe:	8c32                	mv	s8,a2
   19cc0:	8a36                	mv	s4,a3
   19cc2:	002029f3          	frrm	s3
   19cc6:	6721                	lui	a4,0x8
   19cc8:	0305d793          	srl	a5,a1,0x30
   19ccc:	177d                	add	a4,a4,-1 # 7fff <exit-0x80e9>
   19cce:	01059913          	sll	s2,a1,0x10
   19cd2:	8ff9                	and	a5,a5,a4
   19cd4:	2981                	sext.w	s3,s3
   19cd6:	01095913          	srl	s2,s2,0x10
   19cda:	03f5da93          	srl	s5,a1,0x3f
   19cde:	c795                	beqz	a5,19d0a <__multf3+0x66>
   19ce0:	00078c9b          	sext.w	s9,a5
   19ce4:	08e78463          	beq	a5,a4,19d6c <__multf3+0xc8>
   19ce8:	090e                	sll	s2,s2,0x3
   19cea:	03d55713          	srl	a4,a0,0x3d
   19cee:	01276733          	or	a4,a4,s2
   19cf2:	7cf1                	lui	s9,0xffffc
   19cf4:	4905                	li	s2,1
   19cf6:	194e                	sll	s2,s2,0x33
   19cf8:	0c85                	add	s9,s9,1 # ffffffffffffc001 <__BSS_END__+0xfffffffffffded19>
   19cfa:	01276933          	or	s2,a4,s2
   19cfe:	00351b13          	sll	s6,a0,0x3
   19d02:	9cbe                	add	s9,s9,a5
   19d04:	4b81                	li	s7,0
   19d06:	4481                	li	s1,0
   19d08:	a8b5                	j	19d84 <__multf3+0xe0>
   19d0a:	00a96b33          	or	s6,s2,a0
   19d0e:	0e0b0b63          	beqz	s6,19e04 <__multf3+0x160>
   19d12:	02090e63          	beqz	s2,19d4e <__multf3+0xaa>
   19d16:	854a                	mv	a0,s2
   19d18:	30a010ef          	jal	1b022 <__clzdi2>
   19d1c:	0005071b          	sext.w	a4,a0
   19d20:	ff170793          	add	a5,a4,-15
   19d24:	03d00693          	li	a3,61
   19d28:	0037861b          	addw	a2,a5,3
   19d2c:	40f687bb          	subw	a5,a3,a5
   19d30:	00c91933          	sll	s2,s2,a2
   19d34:	00f457b3          	srl	a5,s0,a5
   19d38:	0127e7b3          	or	a5,a5,s2
   19d3c:	00c41933          	sll	s2,s0,a2
   19d40:	7cf1                	lui	s9,0xffffc
   19d42:	0cc5                	add	s9,s9,17 # ffffffffffffc011 <__BSS_END__+0xfffffffffffded29>
   19d44:	8b4a                	mv	s6,s2
   19d46:	40ec8cb3          	sub	s9,s9,a4
   19d4a:	893e                	mv	s2,a5
   19d4c:	bf65                	j	19d04 <__multf3+0x60>
   19d4e:	2d4010ef          	jal	1b022 <__clzdi2>
   19d52:	0405071b          	addw	a4,a0,64
   19d56:	ff170793          	add	a5,a4,-15
   19d5a:	03c00693          	li	a3,60
   19d5e:	fcf6d3e3          	bge	a3,a5,19d24 <__multf3+0x80>
   19d62:	fc37879b          	addw	a5,a5,-61
   19d66:	00f417b3          	sll	a5,s0,a5
   19d6a:	bfd9                	j	19d40 <__multf3+0x9c>
   19d6c:	00a96b33          	or	s6,s2,a0
   19d70:	080b0e63          	beqz	s6,19e0c <__multf3+0x168>
   19d74:	4485                	li	s1,1
   19d76:	14be                	sll	s1,s1,0x2f
   19d78:	009934b3          	sltu	s1,s2,s1
   19d7c:	0044949b          	sllw	s1,s1,0x4
   19d80:	8b2a                	mv	s6,a0
   19d82:	4b8d                	li	s7,3
   19d84:	65a1                	lui	a1,0x8
   19d86:	030a5613          	srl	a2,s4,0x30
   19d8a:	56fd                	li	a3,-1
   19d8c:	15fd                	add	a1,a1,-1 # 7fff <exit-0x80e9>
   19d8e:	0106d413          	srl	s0,a3,0x10
   19d92:	8e6d                	and	a2,a2,a1
   19d94:	008a7433          	and	s0,s4,s0
   19d98:	87e2                	mv	a5,s8
   19d9a:	03fa5a13          	srl	s4,s4,0x3f
   19d9e:	ca35                	beqz	a2,19e12 <__multf3+0x16e>
   19da0:	0006071b          	sext.w	a4,a2
   19da4:	0cb60563          	beq	a2,a1,19e6e <__multf3+0x1ca>
   19da8:	040e                	sll	s0,s0,0x3
   19daa:	03dc5713          	srl	a4,s8,0x3d
   19dae:	8f41                	or	a4,a4,s0
   19db0:	4405                	li	s0,1
   19db2:	144e                	sll	s0,s0,0x33
   19db4:	8c59                	or	s0,s0,a4
   19db6:	7771                	lui	a4,0xffffc
   19db8:	0705                	add	a4,a4,1 # ffffffffffffc001 <__BSS_END__+0xfffffffffffded19>
   19dba:	003c1793          	sll	a5,s8,0x3
   19dbe:	9732                	add	a4,a4,a2
   19dc0:	4881                	li	a7,0
   19dc2:	002b9693          	sll	a3,s7,0x2
   19dc6:	01970833          	add	a6,a4,s9
   19dca:	0116e6b3          	or	a3,a3,a7
   19dce:	4729                	li	a4,10
   19dd0:	014ac633          	xor	a2,s5,s4
   19dd4:	00180593          	add	a1,a6,1
   19dd8:	2cd74163          	blt	a4,a3,1a09a <__multf3+0x3f6>
   19ddc:	4709                	li	a4,2
   19dde:	0ad74a63          	blt	a4,a3,19e92 <__multf3+0x1ee>
   19de2:	16fd                	add	a3,a3,-1
   19de4:	4705                	li	a4,1
   19de6:	0cd76563          	bltu	a4,a3,19eb0 <__multf3+0x20c>
   19dea:	8bc6                	mv	s7,a7
   19dec:	4709                	li	a4,2
   19dee:	4ceb8063          	beq	s7,a4,1a2ae <__multf3+0x60a>
   19df2:	470d                	li	a4,3
   19df4:	4ceb8263          	beq	s7,a4,1a2b8 <__multf3+0x614>
   19df8:	4705                	li	a4,1
   19dfa:	26eb9263          	bne	s7,a4,1a05e <__multf3+0x3ba>
   19dfe:	4701                	li	a4,0
   19e00:	4501                	li	a0,0
   19e02:	a179                	j	1a290 <__multf3+0x5ec>
   19e04:	4901                	li	s2,0
   19e06:	4c81                	li	s9,0
   19e08:	4b85                	li	s7,1
   19e0a:	bdf5                	j	19d06 <__multf3+0x62>
   19e0c:	4901                	li	s2,0
   19e0e:	4b89                	li	s7,2
   19e10:	bddd                	j	19d06 <__multf3+0x62>
   19e12:	008c67b3          	or	a5,s8,s0
   19e16:	c7ad                	beqz	a5,19e80 <__multf3+0x1dc>
   19e18:	c81d                	beqz	s0,19e4e <__multf3+0x1aa>
   19e1a:	8522                	mv	a0,s0
   19e1c:	206010ef          	jal	1b022 <__clzdi2>
   19e20:	2501                	sext.w	a0,a0
   19e22:	ff150793          	add	a5,a0,-15
   19e26:	03d00713          	li	a4,61
   19e2a:	0037861b          	addw	a2,a5,3
   19e2e:	40f707bb          	subw	a5,a4,a5
   19e32:	00c41433          	sll	s0,s0,a2
   19e36:	00fc57b3          	srl	a5,s8,a5
   19e3a:	0087e6b3          	or	a3,a5,s0
   19e3e:	00cc1433          	sll	s0,s8,a2
   19e42:	7771                	lui	a4,0xffffc
   19e44:	0745                	add	a4,a4,17 # ffffffffffffc011 <__BSS_END__+0xfffffffffffded29>
   19e46:	87a2                	mv	a5,s0
   19e48:	8f09                	sub	a4,a4,a0
   19e4a:	8436                	mv	s0,a3
   19e4c:	bf95                	j	19dc0 <__multf3+0x11c>
   19e4e:	8562                	mv	a0,s8
   19e50:	1d2010ef          	jal	1b022 <__clzdi2>
   19e54:	0405051b          	addw	a0,a0,64
   19e58:	ff150793          	add	a5,a0,-15
   19e5c:	03c00713          	li	a4,60
   19e60:	fcf753e3          	bge	a4,a5,19e26 <__multf3+0x182>
   19e64:	fc37879b          	addw	a5,a5,-61
   19e68:	00fc16b3          	sll	a3,s8,a5
   19e6c:	bfd9                	j	19e42 <__multf3+0x19e>
   19e6e:	008c6633          	or	a2,s8,s0
   19e72:	ce01                	beqz	a2,19e8a <__multf3+0x1e6>
   19e74:	82c5                	srl	a3,a3,0x11
   19e76:	488d                	li	a7,3
   19e78:	f486e5e3          	bltu	a3,s0,19dc2 <__multf3+0x11e>
   19e7c:	44c1                	li	s1,16
   19e7e:	b791                	j	19dc2 <__multf3+0x11e>
   19e80:	4401                	li	s0,0
   19e82:	4781                	li	a5,0
   19e84:	4701                	li	a4,0
   19e86:	4885                	li	a7,1
   19e88:	bf2d                	j	19dc2 <__multf3+0x11e>
   19e8a:	4401                	li	s0,0
   19e8c:	4781                	li	a5,0
   19e8e:	4889                	li	a7,2
   19e90:	bf0d                	j	19dc2 <__multf3+0x11e>
   19e92:	4705                	li	a4,1
   19e94:	00d716b3          	sll	a3,a4,a3
   19e98:	5306f513          	and	a0,a3,1328
   19e9c:	20051863          	bnez	a0,1a0ac <__multf3+0x408>
   19ea0:	2406f313          	and	t1,a3,576
   19ea4:	3e031f63          	bnez	t1,1a2a2 <__multf3+0x5fe>
   19ea8:	0886f693          	and	a3,a3,136
   19eac:	1e069e63          	bnez	a3,1a0a8 <__multf3+0x404>
   19eb0:	56fd                	li	a3,-1
   19eb2:	9281                	srl	a3,a3,0x20
   19eb4:	00878f33          	add	t5,a5,s0
   19eb8:	020b5513          	srl	a0,s6,0x20
   19ebc:	0207d313          	srl	t1,a5,0x20
   19ec0:	01690fb3          	add	t6,s2,s6
   19ec4:	00ff3eb3          	sltu	t4,t5,a5
   19ec8:	00db7b33          	and	s6,s6,a3
   19ecc:	8ff5                	and	a5,a5,a3
   19ece:	036782b3          	mul	t0,a5,s6
   19ed2:	012fbe33          	sltu	t3,t6,s2
   19ed6:	88f2                	mv	a7,t3
   19ed8:	8776                	mv	a4,t4
   19eda:	02f507b3          	mul	a5,a0,a5
   19ede:	026506b3          	mul	a3,a0,t1
   19ee2:	0202d513          	srl	a0,t0,0x20
   19ee6:	03630333          	mul	t1,t1,s6
   19eea:	933e                	add	t1,t1,a5
   19eec:	951a                	add	a0,a0,t1
   19eee:	00f57563          	bgeu	a0,a5,19ef8 <__multf3+0x254>
   19ef2:	4785                	li	a5,1
   19ef4:	1782                	sll	a5,a5,0x20
   19ef6:	96be                	add	a3,a3,a5
   19ef8:	57fd                	li	a5,-1
   19efa:	9381                	srl	a5,a5,0x20
   19efc:	02055313          	srl	t1,a0,0x20
   19f00:	8d7d                	and	a0,a0,a5
   19f02:	00f2f2b3          	and	t0,t0,a5
   19f06:	1502                	sll	a0,a0,0x20
   19f08:	00fff3b3          	and	t2,t6,a5
   19f0c:	9336                	add	t1,t1,a3
   19f0e:	00ff77b3          	and	a5,t5,a5
   19f12:	020f5693          	srl	a3,t5,0x20
   19f16:	9516                	add	a0,a0,t0
   19f18:	020fd293          	srl	t0,t6,0x20
   19f1c:	02778ab3          	mul	s5,a5,t2
   19f20:	02f287b3          	mul	a5,t0,a5
   19f24:	020ada13          	srl	s4,s5,0x20
   19f28:	02d282b3          	mul	t0,t0,a3
   19f2c:	027686b3          	mul	a3,a3,t2
   19f30:	96be                	add	a3,a3,a5
   19f32:	9a36                	add	s4,s4,a3
   19f34:	00fa7563          	bgeu	s4,a5,19f3e <__multf3+0x29a>
   19f38:	4785                	li	a5,1
   19f3a:	1782                	sll	a5,a5,0x20
   19f3c:	92be                	add	t0,t0,a5
   19f3e:	57fd                	li	a5,-1
   19f40:	9381                	srl	a5,a5,0x20
   19f42:	020a5393          	srl	t2,s4,0x20
   19f46:	00fa7a33          	and	s4,s4,a5
   19f4a:	00fafab3          	and	s5,s5,a5
   19f4e:	1a02                	sll	s4,s4,0x20
   19f50:	02045693          	srl	a3,s0,0x20
   19f54:	9a56                	add	s4,s4,s5
   19f56:	02095a93          	srl	s5,s2,0x20
   19f5a:	00f97933          	and	s2,s2,a5
   19f5e:	8fe1                	and	a5,a5,s0
   19f60:	02f90b33          	mul	s6,s2,a5
   19f64:	02fa87b3          	mul	a5,s5,a5
   19f68:	020b5413          	srl	s0,s6,0x20
   19f6c:	02da8ab3          	mul	s5,s5,a3
   19f70:	032686b3          	mul	a3,a3,s2
   19f74:	96be                	add	a3,a3,a5
   19f76:	9436                	add	s0,s0,a3
   19f78:	00f47563          	bgeu	s0,a5,19f82 <__multf3+0x2de>
   19f7c:	4785                	li	a5,1
   19f7e:	1782                	sll	a5,a5,0x20
   19f80:	9abe                	add	s5,s5,a5
   19f82:	597d                	li	s2,-1
   19f84:	02095913          	srl	s2,s2,0x20
   19f88:	02045693          	srl	a3,s0,0x20
   19f8c:	012477b3          	and	a5,s0,s2
   19f90:	40e00733          	neg	a4,a4
   19f94:	006a0433          	add	s0,s4,t1
   19f98:	01f77733          	and	a4,a4,t6
   19f9c:	411008b3          	neg	a7,a7
   19fa0:	01443fb3          	sltu	t6,s0,s4
   19fa4:	01e8f8b3          	and	a7,a7,t5
   19fa8:	01f38f33          	add	t5,t2,t6
   19fac:	9f16                	add	t5,t5,t0
   19fae:	01de7e33          	and	t3,t3,t4
   19fb2:	01ff3fb3          	sltu	t6,t5,t6
   19fb6:	977a                	add	a4,a4,t5
   19fb8:	9ff2                	add	t6,t6,t3
   19fba:	01e73f33          	sltu	t5,a4,t5
   19fbe:	9746                	add	a4,a4,a7
   19fc0:	9f7e                	add	t5,t5,t6
   19fc2:	011738b3          	sltu	a7,a4,a7
   19fc6:	40a40eb3          	sub	t4,s0,a0
   19fca:	40670e33          	sub	t3,a4,t1
   19fce:	1782                	sll	a5,a5,0x20
   19fd0:	012b7b33          	and	s6,s6,s2
   19fd4:	98fa                	add	a7,a7,t5
   19fd6:	01d43f33          	sltu	t5,s0,t4
   19fda:	01c73fb3          	sltu	t6,a4,t3
   19fde:	96d6                	add	a3,a3,s5
   19fe0:	41ee0e33          	sub	t3,t3,t5
   19fe4:	97da                	add	a5,a5,s6
   19fe6:	4f01                	li	t5,0
   19fe8:	01d47663          	bgeu	s0,t4,19ff4 <__multf3+0x350>
   19fec:	40e30333          	sub	t1,t1,a4
   19ff0:	00133f13          	seqz	t5,t1
   19ff4:	01ff6f33          	or	t5,t5,t6
   19ff8:	40fe8fb3          	sub	t6,t4,a5
   19ffc:	98b6                	add	a7,a7,a3
   19ffe:	01feb733          	sltu	a4,t4,t6
   1a002:	40de06b3          	sub	a3,t3,a3
   1a006:	00de3e33          	sltu	t3,t3,a3
   1a00a:	40e78733          	sub	a4,a5,a4
   1a00e:	4301                	li	t1,0
   1a010:	01fef463          	bgeu	t4,t6,1a018 <__multf3+0x374>
   1a014:	0016b313          	seqz	t1,a3
   1a018:	96ba                	add	a3,a3,a4
   1a01a:	00f6b733          	sltu	a4,a3,a5
   1a01e:	9746                	add	a4,a4,a7
   1a020:	41e70733          	sub	a4,a4,t5
   1a024:	01c36333          	or	t1,t1,t3
   1a028:	40670733          	sub	a4,a4,t1
   1a02c:	00df9793          	sll	a5,t6,0xd
   1a030:	0736                	sll	a4,a4,0xd
   1a032:	0336d413          	srl	s0,a3,0x33
   1a036:	8fc9                	or	a5,a5,a0
   1a038:	8c59                	or	s0,s0,a4
   1a03a:	00f037b3          	snez	a5,a5
   1a03e:	033fd513          	srl	a0,t6,0x33
   1a042:	9351                	srl	a4,a4,0x34
   1a044:	8fc9                	or	a5,a5,a0
   1a046:	06b6                	sll	a3,a3,0xd
   1a048:	8b05                	and	a4,a4,1
   1a04a:	8fd5                	or	a5,a5,a3
   1a04c:	c33d                	beqz	a4,1a0b2 <__multf3+0x40e>
   1a04e:	0017d713          	srl	a4,a5,0x1
   1a052:	8b85                	and	a5,a5,1
   1a054:	8f5d                	or	a4,a4,a5
   1a056:	03f41793          	sll	a5,s0,0x3f
   1a05a:	8fd9                	or	a5,a5,a4
   1a05c:	8005                	srl	s0,s0,0x1
   1a05e:	6691                	lui	a3,0x4
   1a060:	16fd                	add	a3,a3,-1 # 3fff <exit-0xc0e9>
   1a062:	96ae                	add	a3,a3,a1
   1a064:	0ed05063          	blez	a3,1a144 <__multf3+0x4a0>
   1a068:	0077f713          	and	a4,a5,7
   1a06c:	cb31                	beqz	a4,1a0c0 <__multf3+0x41c>
   1a06e:	4709                	li	a4,2
   1a070:	0014e493          	or	s1,s1,1
   1a074:	04e98563          	beq	s3,a4,1a0be <__multf3+0x41a>
   1a078:	470d                	li	a4,3
   1a07a:	02e98e63          	beq	s3,a4,1a0b6 <__multf3+0x412>
   1a07e:	04099163          	bnez	s3,1a0c0 <__multf3+0x41c>
   1a082:	00f7f713          	and	a4,a5,15
   1a086:	4511                	li	a0,4
   1a088:	02a70c63          	beq	a4,a0,1a0c0 <__multf3+0x41c>
   1a08c:	00478713          	add	a4,a5,4
   1a090:	00f73533          	sltu	a0,a4,a5
   1a094:	942a                	add	s0,s0,a0
   1a096:	87ba                	mv	a5,a4
   1a098:	a025                	j	1a0c0 <__multf3+0x41c>
   1a09a:	473d                	li	a4,15
   1a09c:	20e68e63          	beq	a3,a4,1a2b8 <__multf3+0x614>
   1a0a0:	472d                	li	a4,11
   1a0a2:	8656                	mv	a2,s5
   1a0a4:	00e69463          	bne	a3,a4,1a0ac <__multf3+0x408>
   1a0a8:	8652                	mv	a2,s4
   1a0aa:	b381                	j	19dea <__multf3+0x146>
   1a0ac:	844a                	mv	s0,s2
   1a0ae:	87da                	mv	a5,s6
   1a0b0:	bb35                	j	19dec <__multf3+0x148>
   1a0b2:	85c2                	mv	a1,a6
   1a0b4:	b76d                	j	1a05e <__multf3+0x3ba>
   1a0b6:	e609                	bnez	a2,1a0c0 <__multf3+0x41c>
   1a0b8:	00878713          	add	a4,a5,8
   1a0bc:	bfd1                	j	1a090 <__multf3+0x3ec>
   1a0be:	fe6d                	bnez	a2,1a0b8 <__multf3+0x414>
   1a0c0:	03445713          	srl	a4,s0,0x34
   1a0c4:	8b05                	and	a4,a4,1
   1a0c6:	c719                	beqz	a4,1a0d4 <__multf3+0x430>
   1a0c8:	577d                	li	a4,-1
   1a0ca:	1752                	sll	a4,a4,0x34
   1a0cc:	177d                	add	a4,a4,-1
   1a0ce:	6691                	lui	a3,0x4
   1a0d0:	8c79                	and	s0,s0,a4
   1a0d2:	96ae                	add	a3,a3,a1
   1a0d4:	65a1                	lui	a1,0x8
   1a0d6:	ffe58713          	add	a4,a1,-2 # 7ffe <exit-0x80ea>
   1a0da:	04d74063          	blt	a4,a3,1a11a <__multf3+0x476>
   1a0de:	838d                	srl	a5,a5,0x3
   1a0e0:	03d41513          	sll	a0,s0,0x3d
   1a0e4:	8d5d                	or	a0,a0,a5
   1a0e6:	00345713          	srl	a4,s0,0x3
   1a0ea:	00f6161b          	sllw	a2,a2,0xf
   1a0ee:	01071593          	sll	a1,a4,0x10
   1a0f2:	8ed1                	or	a3,a3,a2
   1a0f4:	16c2                	sll	a3,a3,0x30
   1a0f6:	81c1                	srl	a1,a1,0x10
   1a0f8:	8dd5                	or	a1,a1,a3
   1a0fa:	c099                	beqz	s1,1a100 <__multf3+0x45c>
   1a0fc:	0014a073          	csrs	fflags,s1
   1a100:	60e6                	ld	ra,88(sp)
   1a102:	6446                	ld	s0,80(sp)
   1a104:	64a6                	ld	s1,72(sp)
   1a106:	6906                	ld	s2,64(sp)
   1a108:	79e2                	ld	s3,56(sp)
   1a10a:	7a42                	ld	s4,48(sp)
   1a10c:	7aa2                	ld	s5,40(sp)
   1a10e:	7b02                	ld	s6,32(sp)
   1a110:	6be2                	ld	s7,24(sp)
   1a112:	6c42                	ld	s8,16(sp)
   1a114:	6ca2                	ld	s9,8(sp)
   1a116:	6125                	add	sp,sp,96
   1a118:	8082                	ret
   1a11a:	4789                	li	a5,2
   1a11c:	02f98263          	beq	s3,a5,1a140 <__multf3+0x49c>
   1a120:	478d                	li	a5,3
   1a122:	00f98763          	beq	s3,a5,1a130 <__multf3+0x48c>
   1a126:	00098663          	beqz	s3,1a132 <__multf3+0x48e>
   1a12a:	557d                	li	a0,-1
   1a12c:	86ba                	mv	a3,a4
   1a12e:	a029                	j	1a138 <__multf3+0x494>
   1a130:	fe6d                	bnez	a2,1a12a <__multf3+0x486>
   1a132:	4501                	li	a0,0
   1a134:	fff58693          	add	a3,a1,-1
   1a138:	0054e493          	or	s1,s1,5
   1a13c:	872a                	mv	a4,a0
   1a13e:	b775                	j	1a0ea <__multf3+0x446>
   1a140:	d66d                	beqz	a2,1a12a <__multf3+0x486>
   1a142:	bfc5                	j	1a132 <__multf3+0x48e>
   1a144:	e2c5                	bnez	a3,1a1e4 <__multf3+0x540>
   1a146:	0077f693          	and	a3,a5,7
   1a14a:	8722                	mv	a4,s0
   1a14c:	ce8d                	beqz	a3,1a186 <__multf3+0x4e2>
   1a14e:	4689                	li	a3,2
   1a150:	0014e493          	or	s1,s1,1
   1a154:	02d98863          	beq	s3,a3,1a184 <__multf3+0x4e0>
   1a158:	468d                	li	a3,3
   1a15a:	02d98163          	beq	s3,a3,1a17c <__multf3+0x4d8>
   1a15e:	02099463          	bnez	s3,1a186 <__multf3+0x4e2>
   1a162:	00f7f693          	and	a3,a5,15
   1a166:	4591                	li	a1,4
   1a168:	00b68f63          	beq	a3,a1,1a186 <__multf3+0x4e2>
   1a16c:	ffc7b713          	sltiu	a4,a5,-4
   1a170:	00174713          	xor	a4,a4,1
   1a174:	1702                	sll	a4,a4,0x20
   1a176:	9301                	srl	a4,a4,0x20
   1a178:	9722                	add	a4,a4,s0
   1a17a:	a031                	j	1a186 <__multf3+0x4e2>
   1a17c:	e609                	bnez	a2,1a186 <__multf3+0x4e2>
   1a17e:	ff87b713          	sltiu	a4,a5,-8
   1a182:	b7fd                	j	1a170 <__multf3+0x4cc>
   1a184:	fe6d                	bnez	a2,1a17e <__multf3+0x4da>
   1a186:	9351                	srl	a4,a4,0x34
   1a188:	00174713          	xor	a4,a4,1
   1a18c:	00177593          	and	a1,a4,1
   1a190:	4705                	li	a4,1
   1a192:	04000693          	li	a3,64
   1a196:	9e99                	subw	a3,a3,a4
   1a198:	00d41533          	sll	a0,s0,a3
   1a19c:	00e7d833          	srl	a6,a5,a4
   1a1a0:	00d796b3          	sll	a3,a5,a3
   1a1a4:	01056533          	or	a0,a0,a6
   1a1a8:	00d036b3          	snez	a3,a3
   1a1ac:	8d55                	or	a0,a0,a3
   1a1ae:	00e45733          	srl	a4,s0,a4
   1a1b2:	00757793          	and	a5,a0,7
   1a1b6:	cfbd                	beqz	a5,1a234 <__multf3+0x590>
   1a1b8:	4789                	li	a5,2
   1a1ba:	0014e493          	or	s1,s1,1
   1a1be:	06f98a63          	beq	s3,a5,1a232 <__multf3+0x58e>
   1a1c2:	478d                	li	a5,3
   1a1c4:	06f98363          	beq	s3,a5,1a22a <__multf3+0x586>
   1a1c8:	06099663          	bnez	s3,1a234 <__multf3+0x590>
   1a1cc:	00f57793          	and	a5,a0,15
   1a1d0:	4691                	li	a3,4
   1a1d2:	06d78163          	beq	a5,a3,1a234 <__multf3+0x590>
   1a1d6:	00450793          	add	a5,a0,4
   1a1da:	00a7b6b3          	sltu	a3,a5,a0
   1a1de:	9736                	add	a4,a4,a3
   1a1e0:	853e                	mv	a0,a5
   1a1e2:	a889                	j	1a234 <__multf3+0x590>
   1a1e4:	4705                	li	a4,1
   1a1e6:	8f15                	sub	a4,a4,a3
   1a1e8:	07400693          	li	a3,116
   1a1ec:	06e6cf63          	blt	a3,a4,1a26a <__multf3+0x5c6>
   1a1f0:	03f00693          	li	a3,63
   1a1f4:	0007059b          	sext.w	a1,a4
   1a1f8:	00e6c463          	blt	a3,a4,1a200 <__multf3+0x55c>
   1a1fc:	4585                	li	a1,1
   1a1fe:	bf51                	j	1a192 <__multf3+0x4ee>
   1a200:	fc05851b          	addw	a0,a1,-64
   1a204:	04000813          	li	a6,64
   1a208:	00a45533          	srl	a0,s0,a0
   1a20c:	4681                	li	a3,0
   1a20e:	01070763          	beq	a4,a6,1a21c <__multf3+0x578>
   1a212:	08000693          	li	a3,128
   1a216:	9e8d                	subw	a3,a3,a1
   1a218:	00d416b3          	sll	a3,s0,a3
   1a21c:	8edd                	or	a3,a3,a5
   1a21e:	00d036b3          	snez	a3,a3
   1a222:	8d55                	or	a0,a0,a3
   1a224:	4585                	li	a1,1
   1a226:	4701                	li	a4,0
   1a228:	b769                	j	1a1b2 <__multf3+0x50e>
   1a22a:	e609                	bnez	a2,1a234 <__multf3+0x590>
   1a22c:	00850793          	add	a5,a0,8
   1a230:	b76d                	j	1a1da <__multf3+0x536>
   1a232:	fe6d                	bnez	a2,1a22c <__multf3+0x588>
   1a234:	03375793          	srl	a5,a4,0x33
   1a238:	8b85                	and	a5,a5,1
   1a23a:	cb99                	beqz	a5,1a250 <__multf3+0x5ac>
   1a23c:	0014e493          	or	s1,s1,1
   1a240:	4701                	li	a4,0
   1a242:	4501                	li	a0,0
   1a244:	4685                	li	a3,1
   1a246:	ea0582e3          	beqz	a1,1a0ea <__multf3+0x446>
   1a24a:	0024e493          	or	s1,s1,2
   1a24e:	bd71                	j	1a0ea <__multf3+0x446>
   1a250:	03d71793          	sll	a5,a4,0x3d
   1a254:	810d                	srl	a0,a0,0x3
   1a256:	8d5d                	or	a0,a0,a5
   1a258:	830d                	srl	a4,a4,0x3
   1a25a:	4681                	li	a3,0
   1a25c:	e80587e3          	beqz	a1,1a0ea <__multf3+0x446>
   1a260:	0014f793          	and	a5,s1,1
   1a264:	e80783e3          	beqz	a5,1a0ea <__multf3+0x446>
   1a268:	b7cd                	j	1a24a <__multf3+0x5a6>
   1a26a:	0087e533          	or	a0,a5,s0
   1a26e:	cd11                	beqz	a0,1a28a <__multf3+0x5e6>
   1a270:	4789                	li	a5,2
   1a272:	0014e493          	or	s1,s1,1
   1a276:	02f98363          	beq	s3,a5,1a29c <__multf3+0x5f8>
   1a27a:	478d                	li	a5,3
   1a27c:	00f98c63          	beq	s3,a5,1a294 <__multf3+0x5f0>
   1a280:	4515                	li	a0,5
   1a282:	00098363          	beqz	s3,1a288 <__multf3+0x5e4>
   1a286:	4505                	li	a0,1
   1a288:	810d                	srl	a0,a0,0x3
   1a28a:	0024e493          	or	s1,s1,2
   1a28e:	4701                	li	a4,0
   1a290:	4681                	li	a3,0
   1a292:	bda1                	j	1a0ea <__multf3+0x446>
   1a294:	4505                	li	a0,1
   1a296:	fa6d                	bnez	a2,1a288 <__multf3+0x5e4>
   1a298:	4525                	li	a0,9
   1a29a:	b7fd                	j	1a288 <__multf3+0x5e4>
   1a29c:	4505                	li	a0,1
   1a29e:	d66d                	beqz	a2,1a288 <__multf3+0x5e4>
   1a2a0:	bfe5                	j	1a298 <__multf3+0x5f4>
   1a2a2:	66a1                	lui	a3,0x8
   1a2a4:	173e                	sll	a4,a4,0x2f
   1a2a6:	16fd                	add	a3,a3,-1 # 7fff <exit-0x80e9>
   1a2a8:	4601                	li	a2,0
   1a2aa:	44c1                	li	s1,16
   1a2ac:	bd3d                	j	1a0ea <__multf3+0x446>
   1a2ae:	66a1                	lui	a3,0x8
   1a2b0:	4701                	li	a4,0
   1a2b2:	4501                	li	a0,0
   1a2b4:	16fd                	add	a3,a3,-1 # 7fff <exit-0x80e9>
   1a2b6:	bd15                	j	1a0ea <__multf3+0x446>
   1a2b8:	4705                	li	a4,1
   1a2ba:	66a1                	lui	a3,0x8
   1a2bc:	173e                	sll	a4,a4,0x2f
   1a2be:	4501                	li	a0,0
   1a2c0:	16fd                	add	a3,a3,-1 # 7fff <exit-0x80e9>
   1a2c2:	4601                	li	a2,0
   1a2c4:	b51d                	j	1a0ea <__multf3+0x446>

000000000001a2c6 <__subtf3>:
   1a2c6:	7179                	add	sp,sp,-48
   1a2c8:	f406                	sd	ra,40(sp)
   1a2ca:	f022                	sd	s0,32(sp)
   1a2cc:	ec26                	sd	s1,24(sp)
   1a2ce:	e84a                	sd	s2,16(sp)
   1a2d0:	e44e                	sd	s3,8(sp)
   1a2d2:	e052                	sd	s4,0(sp)
   1a2d4:	00202973          	frrm	s2
   1a2d8:	537d                	li	t1,-1
   1a2da:	01035313          	srl	t1,t1,0x10
   1a2de:	0305d413          	srl	s0,a1,0x30
   1a2e2:	68a1                	lui	a7,0x8
   1a2e4:	03f5d493          	srl	s1,a1,0x3f
   1a2e8:	0065f5b3          	and	a1,a1,t1
   1a2ec:	00359793          	sll	a5,a1,0x3
   1a2f0:	18fd                	add	a7,a7,-1 # 7fff <exit-0x80e9>
   1a2f2:	03d55593          	srl	a1,a0,0x3d
   1a2f6:	0306d713          	srl	a4,a3,0x30
   1a2fa:	03f6d813          	srl	a6,a3,0x3f
   1a2fe:	0066f6b3          	and	a3,a3,t1
   1a302:	8ddd                	or	a1,a1,a5
   1a304:	01177733          	and	a4,a4,a7
   1a308:	00369793          	sll	a5,a3,0x3
   1a30c:	03d65693          	srl	a3,a2,0x3d
   1a310:	2901                	sext.w	s2,s2
   1a312:	01147433          	and	s0,s0,a7
   1a316:	050e                	sll	a0,a0,0x3
   1a318:	8edd                	or	a3,a3,a5
   1a31a:	060e                	sll	a2,a2,0x3
   1a31c:	05171863          	bne	a4,a7,1a36c <__subtf3+0xa6>
   1a320:	77e1                	lui	a5,0xffff8
   1a322:	2785                	addw	a5,a5,1 # ffffffffffff8001 <__BSS_END__+0xfffffffffffdad19>
   1a324:	00c6e8b3          	or	a7,a3,a2
   1a328:	9fa1                	addw	a5,a5,s0
   1a32a:	02088763          	beqz	a7,1a358 <__subtf3+0x92>
   1a32e:	8342                	mv	t1,a6
   1a330:	4b049363          	bne	s1,a6,1a7d6 <__subtf3+0x510>
   1a334:	24078d63          	beqz	a5,1a58e <__subtf3+0x2c8>
   1a338:	4a041263          	bnez	s0,1a7dc <__subtf3+0x516>
   1a33c:	00a5e833          	or	a6,a1,a0
   1a340:	1e081763          	bnez	a6,1a52e <__subtf3+0x268>
   1a344:	65a1                	lui	a1,0x8
   1a346:	15fd                	add	a1,a1,-1 # 7fff <exit-0x80e9>
   1a348:	4781                	li	a5,0
   1a34a:	0ab71463          	bne	a4,a1,1a3f2 <__subtf3+0x12c>
   1a34e:	00c6e833          	or	a6,a3,a2
   1a352:	2c080563          	beqz	a6,1a61c <__subtf3+0x356>
   1a356:	a159                	j	1a7dc <__subtf3+0x516>
   1a358:	00184313          	xor	t1,a6,1
   1a35c:	48649763          	bne	s1,t1,1a7ea <__subtf3+0x524>
   1a360:	22078763          	beqz	a5,1a58e <__subtf3+0x2c8>
   1a364:	dc61                	beqz	s0,1a33c <__subtf3+0x76>
   1a366:	4801                	li	a6,0
   1a368:	4581                	li	a1,0
   1a36a:	abb5                	j	1a8e6 <__subtf3+0x620>
   1a36c:	00184313          	xor	t1,a6,1
   1a370:	40e407bb          	subw	a5,s0,a4
   1a374:	883e                	mv	a6,a5
   1a376:	38649963          	bne	s1,t1,1a708 <__subtf3+0x442>
   1a37a:	16f05063          	blez	a5,1a4da <__subtf3+0x214>
   1a37e:	eb69                	bnez	a4,1a450 <__subtf3+0x18a>
   1a380:	00c6e7b3          	or	a5,a3,a2
   1a384:	e791                	bnez	a5,1a390 <__subtf3+0xca>
   1a386:	05140963          	beq	s0,a7,1a3d8 <__subtf3+0x112>
   1a38a:	86ae                	mv	a3,a1
   1a38c:	862a                	mv	a2,a0
   1a38e:	aca1                	j	1a5e6 <__subtf3+0x320>
   1a390:	fff8079b          	addw	a5,a6,-1
   1a394:	e3a1                	bnez	a5,1a3d4 <__subtf3+0x10e>
   1a396:	962a                	add	a2,a2,a0
   1a398:	96ae                	add	a3,a3,a1
   1a39a:	00a63533          	sltu	a0,a2,a0
   1a39e:	96aa                	add	a3,a3,a0
   1a3a0:	8722                	mv	a4,s0
   1a3a2:	0336d793          	srl	a5,a3,0x33
   1a3a6:	8b85                	and	a5,a5,1
   1a3a8:	22078763          	beqz	a5,1a5d6 <__subtf3+0x310>
   1a3ac:	67a1                	lui	a5,0x8
   1a3ae:	0705                	add	a4,a4,1
   1a3b0:	fff78593          	add	a1,a5,-1 # 7fff <exit-0x80e9>
   1a3b4:	32b70363          	beq	a4,a1,1a6da <__subtf3+0x414>
   1a3b8:	57fd                	li	a5,-1
   1a3ba:	17ce                	sll	a5,a5,0x33
   1a3bc:	17fd                	add	a5,a5,-1
   1a3be:	8ff5                	and	a5,a5,a3
   1a3c0:	00165693          	srl	a3,a2,0x1
   1a3c4:	8a05                	and	a2,a2,1
   1a3c6:	8ed1                	or	a3,a3,a2
   1a3c8:	03f79613          	sll	a2,a5,0x3f
   1a3cc:	8e55                	or	a2,a2,a3
   1a3ce:	0017d693          	srl	a3,a5,0x1
   1a3d2:	a411                	j	1a5d6 <__subtf3+0x310>
   1a3d4:	0d141563          	bne	s0,a7,1a49e <__subtf3+0x1d8>
   1a3d8:	00a5e833          	or	a6,a1,a0
   1a3dc:	7e080263          	beqz	a6,1abc0 <__subtf3+0x8fa>
   1a3e0:	0325d793          	srl	a5,a1,0x32
   1a3e4:	0017c793          	xor	a5,a5,1
   1a3e8:	8b85                	and	a5,a5,1
   1a3ea:	0792                	sll	a5,a5,0x4
   1a3ec:	86ae                	mv	a3,a1
   1a3ee:	862a                	mv	a2,a0
   1a3f0:	8722                	mv	a4,s0
   1a3f2:	00767593          	and	a1,a2,7
   1a3f6:	78059063          	bnez	a1,1ab76 <__subtf3+0x8b0>
   1a3fa:	85b6                	mv	a1,a3
   1a3fc:	8532                	mv	a0,a2
   1a3fe:	0335d693          	srl	a3,a1,0x33
   1a402:	8a85                	and	a3,a3,1
   1a404:	7c068163          	beqz	a3,1abc6 <__subtf3+0x900>
   1a408:	66a1                	lui	a3,0x8
   1a40a:	0705                	add	a4,a4,1
   1a40c:	fff68613          	add	a2,a3,-1 # 7fff <exit-0x80e9>
   1a410:	78c70063          	beq	a4,a2,1ab90 <__subtf3+0x8ca>
   1a414:	56fd                	li	a3,-1
   1a416:	16ce                	sll	a3,a3,0x33
   1a418:	16fd                	add	a3,a3,-1
   1a41a:	8df5                	and	a1,a1,a3
   1a41c:	00355693          	srl	a3,a0,0x3
   1a420:	03d59513          	sll	a0,a1,0x3d
   1a424:	8d55                	or	a0,a0,a3
   1a426:	818d                	srl	a1,a1,0x3
   1a428:	1746                	sll	a4,a4,0x31
   1a42a:	00f4949b          	sllw	s1,s1,0xf
   1a42e:	9345                	srl	a4,a4,0x31
   1a430:	05c2                	sll	a1,a1,0x10
   1a432:	8f45                	or	a4,a4,s1
   1a434:	1742                	sll	a4,a4,0x30
   1a436:	81c1                	srl	a1,a1,0x10
   1a438:	8dd9                	or	a1,a1,a4
   1a43a:	c399                	beqz	a5,1a440 <__subtf3+0x17a>
   1a43c:	0017a073          	csrs	fflags,a5
   1a440:	70a2                	ld	ra,40(sp)
   1a442:	7402                	ld	s0,32(sp)
   1a444:	64e2                	ld	s1,24(sp)
   1a446:	6942                	ld	s2,16(sp)
   1a448:	69a2                	ld	s3,8(sp)
   1a44a:	6a02                	ld	s4,0(sp)
   1a44c:	6145                	add	sp,sp,48
   1a44e:	8082                	ret
   1a450:	f91404e3          	beq	s0,a7,1a3d8 <__subtf3+0x112>
   1a454:	07400713          	li	a4,116
   1a458:	04f74763          	blt	a4,a5,1a4a6 <__subtf3+0x1e0>
   1a45c:	4705                	li	a4,1
   1a45e:	174e                	sll	a4,a4,0x33
   1a460:	8ed9                	or	a3,a3,a4
   1a462:	03f00713          	li	a4,63
   1a466:	04f74363          	blt	a4,a5,1a4ac <__subtf3+0x1e6>
   1a46a:	04000813          	li	a6,64
   1a46e:	40f8083b          	subw	a6,a6,a5
   1a472:	01069733          	sll	a4,a3,a6
   1a476:	00f658b3          	srl	a7,a2,a5
   1a47a:	01061833          	sll	a6,a2,a6
   1a47e:	01176733          	or	a4,a4,a7
   1a482:	01003833          	snez	a6,a6
   1a486:	01076733          	or	a4,a4,a6
   1a48a:	00f6d7b3          	srl	a5,a3,a5
   1a48e:	00a70633          	add	a2,a4,a0
   1a492:	97ae                	add	a5,a5,a1
   1a494:	00e63733          	sltu	a4,a2,a4
   1a498:	00e786b3          	add	a3,a5,a4
   1a49c:	b711                	j	1a3a0 <__subtf3+0xda>
   1a49e:	07400713          	li	a4,116
   1a4a2:	fcf750e3          	bge	a4,a5,1a462 <__subtf3+0x19c>
   1a4a6:	4781                	li	a5,0
   1a4a8:	4705                	li	a4,1
   1a4aa:	b7d5                	j	1a48e <__subtf3+0x1c8>
   1a4ac:	fc07871b          	addw	a4,a5,-64
   1a4b0:	04000893          	li	a7,64
   1a4b4:	00e6d733          	srl	a4,a3,a4
   1a4b8:	4801                	li	a6,0
   1a4ba:	01178863          	beq	a5,a7,1a4ca <__subtf3+0x204>
   1a4be:	08000813          	li	a6,128
   1a4c2:	40f8083b          	subw	a6,a6,a5
   1a4c6:	01069833          	sll	a6,a3,a6
   1a4ca:	00c86833          	or	a6,a6,a2
   1a4ce:	01003833          	snez	a6,a6
   1a4d2:	01076733          	or	a4,a4,a6
   1a4d6:	4781                	li	a5,0
   1a4d8:	bf5d                	j	1a48e <__subtf3+0x1c8>
   1a4da:	cbd5                	beqz	a5,1a58e <__subtf3+0x2c8>
   1a4dc:	e60400e3          	beqz	s0,1a33c <__subtf3+0x76>
   1a4e0:	f8c00893          	li	a7,-116
   1a4e4:	0717cb63          	blt	a5,a7,1a55a <__subtf3+0x294>
   1a4e8:	4805                	li	a6,1
   1a4ea:	184e                	sll	a6,a6,0x33
   1a4ec:	40f007bb          	negw	a5,a5
   1a4f0:	0105e5b3          	or	a1,a1,a6
   1a4f4:	03f00813          	li	a6,63
   1a4f8:	06f84463          	blt	a6,a5,1a560 <__subtf3+0x29a>
   1a4fc:	04000893          	li	a7,64
   1a500:	40f888bb          	subw	a7,a7,a5
   1a504:	00f55333          	srl	t1,a0,a5
   1a508:	01159833          	sll	a6,a1,a7
   1a50c:	011518b3          	sll	a7,a0,a7
   1a510:	00686833          	or	a6,a6,t1
   1a514:	011038b3          	snez	a7,a7
   1a518:	01186533          	or	a0,a6,a7
   1a51c:	00f5d7b3          	srl	a5,a1,a5
   1a520:	962a                	add	a2,a2,a0
   1a522:	97b6                	add	a5,a5,a3
   1a524:	00a63533          	sltu	a0,a2,a0
   1a528:	00a786b3          	add	a3,a5,a0
   1a52c:	bd9d                	j	1a3a2 <__subtf3+0xdc>
   1a52e:	fff7c793          	not	a5,a5
   1a532:	e799                	bnez	a5,1a540 <__subtf3+0x27a>
   1a534:	962a                	add	a2,a2,a0
   1a536:	96ae                	add	a3,a3,a1
   1a538:	00a63533          	sltu	a0,a2,a0
   1a53c:	96aa                	add	a3,a3,a0
   1a53e:	b595                	j	1a3a2 <__subtf3+0xdc>
   1a540:	6821                	lui	a6,0x8
   1a542:	187d                	add	a6,a6,-1 # 7fff <exit-0x80e9>
   1a544:	01071763          	bne	a4,a6,1a552 <__subtf3+0x28c>
   1a548:	00c6e833          	or	a6,a3,a2
   1a54c:	e0080ee3          	beqz	a6,1a368 <__subtf3+0xa2>
   1a550:	a471                	j	1a7dc <__subtf3+0x516>
   1a552:	07400813          	li	a6,116
   1a556:	f8f85fe3          	bge	a6,a5,1a4f4 <__subtf3+0x22e>
   1a55a:	4781                	li	a5,0
   1a55c:	4505                	li	a0,1
   1a55e:	b7c9                	j	1a520 <__subtf3+0x25a>
   1a560:	fc07881b          	addw	a6,a5,-64
   1a564:	04000313          	li	t1,64
   1a568:	0105d833          	srl	a6,a1,a6
   1a56c:	4881                	li	a7,0
   1a56e:	00678863          	beq	a5,t1,1a57e <__subtf3+0x2b8>
   1a572:	08000893          	li	a7,128
   1a576:	40f888bb          	subw	a7,a7,a5
   1a57a:	011598b3          	sll	a7,a1,a7
   1a57e:	00a8e8b3          	or	a7,a7,a0
   1a582:	011038b3          	snez	a7,a7
   1a586:	01186533          	or	a0,a6,a7
   1a58a:	4781                	li	a5,0
   1a58c:	bf51                	j	1a520 <__subtf3+0x25a>
   1a58e:	68a1                	lui	a7,0x8
   1a590:	ffe88813          	add	a6,a7,-2 # 7ffe <exit-0x80ea>
   1a594:	00140793          	add	a5,s0,1
   1a598:	0107f333          	and	t1,a5,a6
   1a59c:	18fd                	add	a7,a7,-1
   1a59e:	0c031963          	bnez	t1,1a670 <__subtf3+0x3aa>
   1a5a2:	00a5e833          	or	a6,a1,a0
   1a5a6:	e815                	bnez	s0,1a5da <__subtf3+0x314>
   1a5a8:	54080063          	beqz	a6,1aae8 <__subtf3+0x822>
   1a5ac:	00c6e7b3          	or	a5,a3,a2
   1a5b0:	46078b63          	beqz	a5,1aa26 <__subtf3+0x760>
   1a5b4:	962a                	add	a2,a2,a0
   1a5b6:	00a637b3          	sltu	a5,a2,a0
   1a5ba:	96ae                	add	a3,a3,a1
   1a5bc:	00f685b3          	add	a1,a3,a5
   1a5c0:	0335d793          	srl	a5,a1,0x33
   1a5c4:	8b85                	and	a5,a5,1
   1a5c6:	8532                	mv	a0,a2
   1a5c8:	44078f63          	beqz	a5,1aa26 <__subtf3+0x760>
   1a5cc:	56fd                	li	a3,-1
   1a5ce:	16ce                	sll	a3,a3,0x33
   1a5d0:	16fd                	add	a3,a3,-1
   1a5d2:	8eed                	and	a3,a3,a1
   1a5d4:	4705                	li	a4,1
   1a5d6:	4781                	li	a5,0
   1a5d8:	bd29                	j	1a3f2 <__subtf3+0x12c>
   1a5da:	03141863          	bne	s0,a7,1a60a <__subtf3+0x344>
   1a5de:	00081663          	bnez	a6,1a5ea <__subtf3+0x324>
   1a5e2:	f68703e3          	beq	a4,s0,1a548 <__subtf3+0x282>
   1a5e6:	8722                	mv	a4,s0
   1a5e8:	b7fd                	j	1a5d6 <__subtf3+0x310>
   1a5ea:	4885                	li	a7,1
   1a5ec:	18ca                	sll	a7,a7,0x32
   1a5ee:	0115f7b3          	and	a5,a1,a7
   1a5f2:	00c6e333          	or	t1,a3,a2
   1a5f6:	5c078a63          	beqz	a5,1abca <__subtf3+0x904>
   1a5fa:	4781                	li	a5,0
   1a5fc:	06871363          	bne	a4,s0,1a662 <__subtf3+0x39c>
   1a600:	02031063          	bnez	t1,1a620 <__subtf3+0x35a>
   1a604:	86ae                	mv	a3,a1
   1a606:	862a                	mv	a2,a0
   1a608:	b3ed                	j	1a3f2 <__subtf3+0x12c>
   1a60a:	4781                	li	a5,0
   1a60c:	05171963          	bne	a4,a7,1a65e <__subtf3+0x398>
   1a610:	00c6e8b3          	or	a7,a3,a2
   1a614:	5c089063          	bnez	a7,1abd4 <__subtf3+0x90e>
   1a618:	fe0816e3          	bnez	a6,1a604 <__subtf3+0x33e>
   1a61c:	4581                	li	a1,0
   1a61e:	a819                	j	1a634 <__subtf3+0x36e>
   1a620:	0116f8b3          	and	a7,a3,a7
   1a624:	04088463          	beqz	a7,1a66c <__subtf3+0x3a6>
   1a628:	4585                	li	a1,1
   1a62a:	6721                	lui	a4,0x8
   1a62c:	4481                	li	s1,0
   1a62e:	15ca                	sll	a1,a1,0x32
   1a630:	4801                	li	a6,0
   1a632:	177d                	add	a4,a4,-1 # 7fff <exit-0x80e9>
   1a634:	66a1                	lui	a3,0x8
   1a636:	03d59513          	sll	a0,a1,0x3d
   1a63a:	00385813          	srl	a6,a6,0x3
   1a63e:	16fd                	add	a3,a3,-1 # 7fff <exit-0x80e9>
   1a640:	01056533          	or	a0,a0,a6
   1a644:	818d                	srl	a1,a1,0x3
   1a646:	ded711e3          	bne	a4,a3,1a428 <__subtf3+0x162>
   1a64a:	8d4d                	or	a0,a0,a1
   1a64c:	4581                	li	a1,0
   1a64e:	dc050de3          	beqz	a0,1a428 <__subtf3+0x162>
   1a652:	4585                	li	a1,1
   1a654:	15be                	sll	a1,a1,0x2f
   1a656:	4501                	li	a0,0
   1a658:	4481                	li	s1,0
   1a65a:	b3f9                	j	1a428 <__subtf3+0x162>
   1a65c:	47c1                	li	a5,16
   1a65e:	58080263          	beqz	a6,1abe2 <__subtf3+0x91c>
   1a662:	8ed1                	or	a3,a3,a2
   1a664:	f2f1                	bnez	a3,1a628 <__subtf3+0x362>
   1a666:	86ae                	mv	a3,a1
   1a668:	862a                	mv	a2,a0
   1a66a:	aba5                	j	1abe2 <__subtf3+0x91c>
   1a66c:	47c1                	li	a5,16
   1a66e:	bfd5                	j	1a662 <__subtf3+0x39c>
   1a670:	01178e63          	beq	a5,a7,1a68c <__subtf3+0x3c6>
   1a674:	962a                	add	a2,a2,a0
   1a676:	00a63533          	sltu	a0,a2,a0
   1a67a:	96ae                	add	a3,a3,a1
   1a67c:	96aa                	add	a3,a3,a0
   1a67e:	03f69713          	sll	a4,a3,0x3f
   1a682:	8205                	srl	a2,a2,0x1
   1a684:	8e59                	or	a2,a2,a4
   1a686:	8285                	srl	a3,a3,0x1
   1a688:	873e                	mv	a4,a5
   1a68a:	b7b1                	j	1a5d6 <__subtf3+0x310>
   1a68c:	52090563          	beqz	s2,1abb6 <__subtf3+0x8f0>
   1a690:	470d                	li	a4,3
   1a692:	02e91a63          	bne	s2,a4,1a6c6 <__subtf3+0x400>
   1a696:	52048063          	beqz	s1,1abb6 <__subtf3+0x8f0>
   1a69a:	4681                	li	a3,0
   1a69c:	55fd                	li	a1,-1
   1a69e:	557d                	li	a0,-1
   1a6a0:	8742                	mv	a4,a6
   1a6a2:	4795                	li	a5,5
   1a6a4:	460d                	li	a2,3
   1a6a6:	4cc90e63          	beq	s2,a2,1ab82 <__subtf3+0x8bc>
   1a6aa:	4c091d63          	bnez	s2,1ab84 <__subtf3+0x8be>
   1a6ae:	00f57613          	and	a2,a0,15
   1a6b2:	4811                	li	a6,4
   1a6b4:	4d060863          	beq	a2,a6,1ab84 <__subtf3+0x8be>
   1a6b8:	00450613          	add	a2,a0,4
   1a6bc:	00a63833          	sltu	a6,a2,a0
   1a6c0:	95c2                	add	a1,a1,a6
   1a6c2:	8532                	mv	a0,a2
   1a6c4:	a1c1                	j	1ab84 <__subtf3+0x8be>
   1a6c6:	4709                	li	a4,2
   1a6c8:	00e91463          	bne	s2,a4,1a6d0 <__subtf3+0x40a>
   1a6cc:	4e049563          	bnez	s1,1abb6 <__subtf3+0x8f0>
   1a6d0:	55fd                	li	a1,-1
   1a6d2:	557d                	li	a0,-1
   1a6d4:	8742                	mv	a4,a6
   1a6d6:	4795                	li	a5,5
   1a6d8:	b31d                	j	1a3fe <__subtf3+0x138>
   1a6da:	4c090f63          	beqz	s2,1abb8 <__subtf3+0x8f2>
   1a6de:	468d                	li	a3,3
   1a6e0:	00d91a63          	bne	s2,a3,1a6f4 <__subtf3+0x42e>
   1a6e4:	4c048a63          	beqz	s1,1abb8 <__subtf3+0x8f2>
   1a6e8:	4681                	li	a3,0
   1a6ea:	55fd                	li	a1,-1
   1a6ec:	557d                	li	a0,-1
   1a6ee:	ffe78713          	add	a4,a5,-2
   1a6f2:	bf45                	j	1a6a2 <__subtf3+0x3dc>
   1a6f4:	4689                	li	a3,2
   1a6f6:	00d91463          	bne	s2,a3,1a6fe <__subtf3+0x438>
   1a6fa:	4a049f63          	bnez	s1,1abb8 <__subtf3+0x8f2>
   1a6fe:	55fd                	li	a1,-1
   1a700:	557d                	li	a0,-1
   1a702:	ffe78713          	add	a4,a5,-2
   1a706:	bfc1                	j	1a6d6 <__subtf3+0x410>
   1a708:	10f05463          	blez	a5,1a810 <__subtf3+0x54a>
   1a70c:	e729                	bnez	a4,1a756 <__subtf3+0x490>
   1a70e:	00c6e7b3          	or	a5,a3,a2
   1a712:	c6078ae3          	beqz	a5,1a386 <__subtf3+0xc0>
   1a716:	fff8079b          	addw	a5,a6,-1
   1a71a:	e78d                	bnez	a5,1a744 <__subtf3+0x47e>
   1a71c:	40c50633          	sub	a2,a0,a2
   1a720:	40d586b3          	sub	a3,a1,a3
   1a724:	00c53533          	sltu	a0,a0,a2
   1a728:	8e89                	sub	a3,a3,a0
   1a72a:	8722                	mv	a4,s0
   1a72c:	0336d793          	srl	a5,a3,0x33
   1a730:	8b85                	and	a5,a5,1
   1a732:	ea0782e3          	beqz	a5,1a5d6 <__subtf3+0x310>
   1a736:	00d69993          	sll	s3,a3,0xd
   1a73a:	00d9d993          	srl	s3,s3,0xd
   1a73e:	8a32                	mv	s4,a2
   1a740:	843a                	mv	s0,a4
   1a742:	ac69                	j	1a9dc <__subtf3+0x716>
   1a744:	c9140ae3          	beq	s0,a7,1a3d8 <__subtf3+0x112>
   1a748:	07400713          	li	a4,116
   1a74c:	00f75e63          	bge	a4,a5,1a768 <__subtf3+0x4a2>
   1a750:	4781                	li	a5,0
   1a752:	4705                	li	a4,1
   1a754:	a081                	j	1a794 <__subtf3+0x4ce>
   1a756:	c91401e3          	beq	s0,a7,1a3d8 <__subtf3+0x112>
   1a75a:	07400713          	li	a4,116
   1a75e:	fef749e3          	blt	a4,a5,1a750 <__subtf3+0x48a>
   1a762:	4705                	li	a4,1
   1a764:	174e                	sll	a4,a4,0x33
   1a766:	8ed9                	or	a3,a3,a4
   1a768:	03f00713          	li	a4,63
   1a76c:	02f74e63          	blt	a4,a5,1a7a8 <__subtf3+0x4e2>
   1a770:	04000813          	li	a6,64
   1a774:	40f8083b          	subw	a6,a6,a5
   1a778:	01069733          	sll	a4,a3,a6
   1a77c:	00f658b3          	srl	a7,a2,a5
   1a780:	01061833          	sll	a6,a2,a6
   1a784:	01176733          	or	a4,a4,a7
   1a788:	01003833          	snez	a6,a6
   1a78c:	01076733          	or	a4,a4,a6
   1a790:	00f6d7b3          	srl	a5,a3,a5
   1a794:	40e50733          	sub	a4,a0,a4
   1a798:	40f587b3          	sub	a5,a1,a5
   1a79c:	00e536b3          	sltu	a3,a0,a4
   1a7a0:	863a                	mv	a2,a4
   1a7a2:	40d786b3          	sub	a3,a5,a3
   1a7a6:	b751                	j	1a72a <__subtf3+0x464>
   1a7a8:	fc07871b          	addw	a4,a5,-64
   1a7ac:	04000893          	li	a7,64
   1a7b0:	00e6d733          	srl	a4,a3,a4
   1a7b4:	4801                	li	a6,0
   1a7b6:	01178863          	beq	a5,a7,1a7c6 <__subtf3+0x500>
   1a7ba:	08000813          	li	a6,128
   1a7be:	40f8083b          	subw	a6,a6,a5
   1a7c2:	01069833          	sll	a6,a3,a6
   1a7c6:	00c86833          	or	a6,a6,a2
   1a7ca:	01003833          	snez	a6,a6
   1a7ce:	01076733          	or	a4,a4,a6
   1a7d2:	4781                	li	a5,0
   1a7d4:	b7c1                	j	1a794 <__subtf3+0x4ce>
   1a7d6:	c3e5                	beqz	a5,1a8b6 <__subtf3+0x5f0>
   1a7d8:	84c2                	mv	s1,a6
   1a7da:	cc01                	beqz	s0,1a7f2 <__subtf3+0x52c>
   1a7dc:	0326d793          	srl	a5,a3,0x32
   1a7e0:	0017c793          	xor	a5,a5,1
   1a7e4:	8b85                	and	a5,a5,1
   1a7e6:	0792                	sll	a5,a5,0x4
   1a7e8:	b129                	j	1a3f2 <__subtf3+0x12c>
   1a7ea:	c7f1                	beqz	a5,1a8b6 <__subtf3+0x5f0>
   1a7ec:	849a                	mv	s1,t1
   1a7ee:	b6041ce3          	bnez	s0,1a366 <__subtf3+0xa0>
   1a7f2:	00a5e833          	or	a6,a1,a0
   1a7f6:	b40807e3          	beqz	a6,1a344 <__subtf3+0x7e>
   1a7fa:	fff7c793          	not	a5,a5
   1a7fe:	ef89                	bnez	a5,1a818 <__subtf3+0x552>
   1a800:	40a60533          	sub	a0,a2,a0
   1a804:	00a637b3          	sltu	a5,a2,a0
   1a808:	8e8d                	sub	a3,a3,a1
   1a80a:	862a                	mv	a2,a0
   1a80c:	8e9d                	sub	a3,a3,a5
   1a80e:	bf39                	j	1a72c <__subtf3+0x466>
   1a810:	c3dd                	beqz	a5,1a8b6 <__subtf3+0x5f0>
   1a812:	ec11                	bnez	s0,1a82e <__subtf3+0x568>
   1a814:	849a                	mv	s1,t1
   1a816:	bff1                	j	1a7f2 <__subtf3+0x52c>
   1a818:	6821                	lui	a6,0x8
   1a81a:	187d                	add	a6,a6,-1 # 7fff <exit-0x80e9>
   1a81c:	d30706e3          	beq	a4,a6,1a548 <__subtf3+0x282>
   1a820:	07400813          	li	a6,116
   1a824:	02f85063          	bge	a6,a5,1a844 <__subtf3+0x57e>
   1a828:	4781                	li	a5,0
   1a82a:	4505                	li	a0,1
   1a82c:	a091                	j	1a870 <__subtf3+0x5aa>
   1a82e:	f8c00893          	li	a7,-116
   1a832:	0917c063          	blt	a5,a7,1a8b2 <__subtf3+0x5ec>
   1a836:	4805                	li	a6,1
   1a838:	184e                	sll	a6,a6,0x33
   1a83a:	40f007bb          	negw	a5,a5
   1a83e:	0105e5b3          	or	a1,a1,a6
   1a842:	849a                	mv	s1,t1
   1a844:	03f00813          	li	a6,63
   1a848:	02f84e63          	blt	a6,a5,1a884 <__subtf3+0x5be>
   1a84c:	04000893          	li	a7,64
   1a850:	40f888bb          	subw	a7,a7,a5
   1a854:	00f55333          	srl	t1,a0,a5
   1a858:	01159833          	sll	a6,a1,a7
   1a85c:	011518b3          	sll	a7,a0,a7
   1a860:	00686833          	or	a6,a6,t1
   1a864:	011038b3          	snez	a7,a7
   1a868:	01186533          	or	a0,a6,a7
   1a86c:	00f5d7b3          	srl	a5,a1,a5
   1a870:	40a60533          	sub	a0,a2,a0
   1a874:	00a635b3          	sltu	a1,a2,a0
   1a878:	40f687b3          	sub	a5,a3,a5
   1a87c:	862a                	mv	a2,a0
   1a87e:	40b786b3          	sub	a3,a5,a1
   1a882:	b56d                	j	1a72c <__subtf3+0x466>
   1a884:	fc07881b          	addw	a6,a5,-64
   1a888:	04000313          	li	t1,64
   1a88c:	0105d833          	srl	a6,a1,a6
   1a890:	4881                	li	a7,0
   1a892:	00678863          	beq	a5,t1,1a8a2 <__subtf3+0x5dc>
   1a896:	08000893          	li	a7,128
   1a89a:	40f888bb          	subw	a7,a7,a5
   1a89e:	011598b3          	sll	a7,a1,a7
   1a8a2:	00a8e8b3          	or	a7,a7,a0
   1a8a6:	011038b3          	snez	a7,a7
   1a8aa:	01186533          	or	a0,a6,a7
   1a8ae:	4781                	li	a5,0
   1a8b0:	b7c1                	j	1a870 <__subtf3+0x5aa>
   1a8b2:	849a                	mv	s1,t1
   1a8b4:	bf95                	j	1a828 <__subtf3+0x562>
   1a8b6:	6e21                	lui	t3,0x8
   1a8b8:	00140793          	add	a5,s0,1
   1a8bc:	ffee0813          	add	a6,t3,-2 # 7ffe <exit-0x80ea>
   1a8c0:	0107f7b3          	and	a5,a5,a6
   1a8c4:	e7f5                	bnez	a5,1a9b0 <__subtf3+0x6ea>
   1a8c6:	00c6e833          	or	a6,a3,a2
   1a8ca:	00a5e8b3          	or	a7,a1,a0
   1a8ce:	ec29                	bnez	s0,1a928 <__subtf3+0x662>
   1a8d0:	00089d63          	bnez	a7,1a8ea <__subtf3+0x624>
   1a8d4:	20081d63          	bnez	a6,1aaee <__subtf3+0x828>
   1a8d8:	ffe90493          	add	s1,s2,-2
   1a8dc:	0014b493          	seqz	s1,s1
   1a8e0:	4581                	li	a1,0
   1a8e2:	4801                	li	a6,0
   1a8e4:	4701                	li	a4,0
   1a8e6:	4781                	li	a5,0
   1a8e8:	b3b1                	j	1a634 <__subtf3+0x36e>
   1a8ea:	12080e63          	beqz	a6,1aa26 <__subtf3+0x760>
   1a8ee:	40c50733          	sub	a4,a0,a2
   1a8f2:	00e53833          	sltu	a6,a0,a4
   1a8f6:	40d587b3          	sub	a5,a1,a3
   1a8fa:	410787b3          	sub	a5,a5,a6
   1a8fe:	0337d813          	srl	a6,a5,0x33
   1a902:	00187813          	and	a6,a6,1
   1a906:	00080b63          	beqz	a6,1a91c <__subtf3+0x656>
   1a90a:	40a60533          	sub	a0,a2,a0
   1a90e:	8e8d                	sub	a3,a3,a1
   1a910:	00a63633          	sltu	a2,a2,a0
   1a914:	40c685b3          	sub	a1,a3,a2
   1a918:	849a                	mv	s1,t1
   1a91a:	a231                	j	1aa26 <__subtf3+0x760>
   1a91c:	00f766b3          	or	a3,a4,a5
   1a920:	dec5                	beqz	a3,1a8d8 <__subtf3+0x612>
   1a922:	85be                	mv	a1,a5
   1a924:	853a                	mv	a0,a4
   1a926:	a201                	j	1aa26 <__subtf3+0x760>
   1a928:	1e7d                	add	t3,t3,-1
   1a92a:	05c41063          	bne	s0,t3,1a96a <__subtf3+0x6a4>
   1a92e:	00089e63          	bnez	a7,1a94a <__subtf3+0x684>
   1a932:	4781                	li	a5,0
   1a934:	06871363          	bne	a4,s0,1a99a <__subtf3+0x6d4>
   1a938:	4585                	li	a1,1
   1a93a:	15ca                	sll	a1,a1,0x32
   1a93c:	4481                	li	s1,0
   1a93e:	04080063          	beqz	a6,1a97e <__subtf3+0x6b8>
   1a942:	8df5                	and	a1,a1,a3
   1a944:	c5a5                	beqz	a1,1a9ac <__subtf3+0x6e6>
   1a946:	849a                	mv	s1,t1
   1a948:	b46d                	j	1a3f2 <__subtf3+0x12c>
   1a94a:	4605                	li	a2,1
   1a94c:	164a                	sll	a2,a2,0x32
   1a94e:	00c5f7b3          	and	a5,a1,a2
   1a952:	28078b63          	beqz	a5,1abe8 <__subtf3+0x922>
   1a956:	4781                	li	a5,0
   1a958:	2a871063          	bne	a4,s0,1abf8 <__subtf3+0x932>
   1a95c:	d00805e3          	beqz	a6,1a666 <__subtf3+0x3a0>
   1a960:	8e75                	and	a2,a2,a3
   1a962:	cc0613e3          	bnez	a2,1a628 <__subtf3+0x362>
   1a966:	47c1                	li	a5,16
   1a968:	ac41                	j	1abf8 <__subtf3+0x932>
   1a96a:	4781                	li	a5,0
   1a96c:	03c71563          	bne	a4,t3,1a996 <__subtf3+0x6d0>
   1a970:	00081963          	bnez	a6,1a982 <__subtf3+0x6bc>
   1a974:	ce0899e3          	bnez	a7,1a666 <__subtf3+0x3a0>
   1a978:	4585                	li	a1,1
   1a97a:	4481                	li	s1,0
   1a97c:	15ca                	sll	a1,a1,0x32
   1a97e:	47c1                	li	a5,16
   1a980:	b955                	j	1a634 <__subtf3+0x36e>
   1a982:	0326de13          	srl	t3,a3,0x32
   1a986:	001e7e13          	and	t3,t3,1
   1a98a:	000e0563          	beqz	t3,1a994 <__subtf3+0x6ce>
   1a98e:	c8089de3          	bnez	a7,1a628 <__subtf3+0x362>
   1a992:	bf55                	j	1a946 <__subtf3+0x680>
   1a994:	47c1                	li	a5,16
   1a996:	26089163          	bnez	a7,1abf8 <__subtf3+0x932>
   1a99a:	849a                	mv	s1,t1
   1a99c:	24081363          	bnez	a6,1abe2 <__subtf3+0x91c>
   1a9a0:	4585                	li	a1,1
   1a9a2:	6721                	lui	a4,0x8
   1a9a4:	4481                	li	s1,0
   1a9a6:	15ca                	sll	a1,a1,0x32
   1a9a8:	177d                	add	a4,a4,-1 # 7fff <exit-0x80e9>
   1a9aa:	bfd1                	j	1a97e <__subtf3+0x6b8>
   1a9ac:	47c1                	li	a5,16
   1a9ae:	b7f5                	j	1a99a <__subtf3+0x6d4>
   1a9b0:	40c507b3          	sub	a5,a0,a2
   1a9b4:	00f53733          	sltu	a4,a0,a5
   1a9b8:	40d589b3          	sub	s3,a1,a3
   1a9bc:	40e989b3          	sub	s3,s3,a4
   1a9c0:	0339d713          	srl	a4,s3,0x33
   1a9c4:	8b05                	and	a4,a4,1
   1a9c6:	8a3e                	mv	s4,a5
   1a9c8:	cf45                	beqz	a4,1aa80 <__subtf3+0x7ba>
   1a9ca:	40a60a33          	sub	s4,a2,a0
   1a9ce:	40b689b3          	sub	s3,a3,a1
   1a9d2:	01463633          	sltu	a2,a2,s4
   1a9d6:	40c989b3          	sub	s3,s3,a2
   1a9da:	849a                	mv	s1,t1
   1a9dc:	0a098663          	beqz	s3,1aa88 <__subtf3+0x7c2>
   1a9e0:	854e                	mv	a0,s3
   1a9e2:	640000ef          	jal	1b022 <__clzdi2>
   1a9e6:	ff45071b          	addw	a4,a0,-12
   1a9ea:	04000693          	li	a3,64
   1a9ee:	9e99                	subw	a3,a3,a4
   1a9f0:	00e999b3          	sll	s3,s3,a4
   1a9f4:	00da56b3          	srl	a3,s4,a3
   1a9f8:	0136e6b3          	or	a3,a3,s3
   1a9fc:	00ea19b3          	sll	s3,s4,a4
   1aa00:	0c874c63          	blt	a4,s0,1aad8 <__subtf3+0x812>
   1aa04:	9f01                	subw	a4,a4,s0
   1aa06:	2705                	addw	a4,a4,1
   1aa08:	04000793          	li	a5,64
   1aa0c:	9f99                	subw	a5,a5,a4
   1aa0e:	00f69533          	sll	a0,a3,a5
   1aa12:	00e9d633          	srl	a2,s3,a4
   1aa16:	00f997b3          	sll	a5,s3,a5
   1aa1a:	8d51                	or	a0,a0,a2
   1aa1c:	00f037b3          	snez	a5,a5
   1aa20:	8d5d                	or	a0,a0,a5
   1aa22:	00e6d5b3          	srl	a1,a3,a4
   1aa26:	00b567b3          	or	a5,a0,a1
   1aa2a:	ea078be3          	beqz	a5,1a8e0 <__subtf3+0x61a>
   1aa2e:	03f55793          	srl	a5,a0,0x3f
   1aa32:	00159713          	sll	a4,a1,0x1
   1aa36:	973e                	add	a4,a4,a5
   1aa38:	00151793          	sll	a5,a0,0x1
   1aa3c:	0077f613          	and	a2,a5,7
   1aa40:	00757693          	and	a3,a0,7
   1aa44:	0e060f63          	beqz	a2,1ab42 <__subtf3+0x87c>
   1aa48:	4609                	li	a2,2
   1aa4a:	0cc90763          	beq	s2,a2,1ab18 <__subtf3+0x852>
   1aa4e:	4605                	li	a2,1
   1aa50:	480d                	li	a6,3
   1aa52:	1652                	sll	a2,a2,0x34
   1aa54:	0b090063          	beq	s2,a6,1aaf4 <__subtf3+0x82e>
   1aa58:	08091f63          	bnez	s2,1aaf6 <__subtf3+0x830>
   1aa5c:	00f7f813          	and	a6,a5,15
   1aa60:	4891                	li	a7,4
   1aa62:	09180a63          	beq	a6,a7,1aaf6 <__subtf3+0x830>
   1aa66:	ffc7b793          	sltiu	a5,a5,-4
   1aa6a:	0017c793          	xor	a5,a5,1
   1aa6e:	1782                	sll	a5,a5,0x20
   1aa70:	9381                	srl	a5,a5,0x20
   1aa72:	97ba                	add	a5,a5,a4
   1aa74:	8ff1                	and	a5,a5,a2
   1aa76:	e3e5                	bnez	a5,1ab56 <__subtf3+0x890>
   1aa78:	c2f9                	beqz	a3,1ab3e <__subtf3+0x878>
   1aa7a:	4685                	li	a3,1
   1aa7c:	4701                	li	a4,0
   1aa7e:	a201                	j	1ab7e <__subtf3+0x8b8>
   1aa80:	0137e7b3          	or	a5,a5,s3
   1aa84:	ffa1                	bnez	a5,1a9dc <__subtf3+0x716>
   1aa86:	bd89                	j	1a8d8 <__subtf3+0x612>
   1aa88:	8552                	mv	a0,s4
   1aa8a:	598000ef          	jal	1b022 <__clzdi2>
   1aa8e:	0345071b          	addw	a4,a0,52
   1aa92:	03f00593          	li	a1,63
   1aa96:	f4e5dae3          	bge	a1,a4,1a9ea <__subtf3+0x724>
   1aa9a:	ff45069b          	addw	a3,a0,-12
   1aa9e:	00da16b3          	sll	a3,s4,a3
   1aaa2:	02874b63          	blt	a4,s0,1aad8 <__subtf3+0x812>
   1aaa6:	408707bb          	subw	a5,a4,s0
   1aaaa:	0017871b          	addw	a4,a5,1
   1aaae:	f4e5dde3          	bge	a1,a4,1aa08 <__subtf3+0x742>
   1aab2:	fc17879b          	addw	a5,a5,-63
   1aab6:	04000593          	li	a1,64
   1aaba:	00f6d7b3          	srl	a5,a3,a5
   1aabe:	4501                	li	a0,0
   1aac0:	00b70763          	beq	a4,a1,1aace <__subtf3+0x808>
   1aac4:	08000513          	li	a0,128
   1aac8:	9d19                	subw	a0,a0,a4
   1aaca:	00a69533          	sll	a0,a3,a0
   1aace:	00a03533          	snez	a0,a0
   1aad2:	8d5d                	or	a0,a0,a5
   1aad4:	4581                	li	a1,0
   1aad6:	bf81                	j	1aa26 <__subtf3+0x760>
   1aad8:	57fd                	li	a5,-1
   1aada:	17ce                	sll	a5,a5,0x33
   1aadc:	17fd                	add	a5,a5,-1
   1aade:	40e40733          	sub	a4,s0,a4
   1aae2:	8efd                	and	a3,a3,a5
   1aae4:	864e                	mv	a2,s3
   1aae6:	bcc5                	j	1a5d6 <__subtf3+0x310>
   1aae8:	85b6                	mv	a1,a3
   1aaea:	8532                	mv	a0,a2
   1aaec:	bf2d                	j	1aa26 <__subtf3+0x760>
   1aaee:	85b6                	mv	a1,a3
   1aaf0:	8532                	mv	a0,a2
   1aaf2:	b51d                	j	1a918 <__subtf3+0x652>
   1aaf4:	c489                	beqz	s1,1aafe <__subtf3+0x838>
   1aaf6:	8f71                	and	a4,a4,a2
   1aaf8:	ef39                	bnez	a4,1ab56 <__subtf3+0x890>
   1aafa:	f2c1                	bnez	a3,1aa7a <__subtf3+0x7b4>
   1aafc:	a821                	j	1ab14 <__subtf3+0x84e>
   1aafe:	ff87b793          	sltiu	a5,a5,-8
   1ab02:	0017c793          	xor	a5,a5,1
   1ab06:	1782                	sll	a5,a5,0x20
   1ab08:	9381                	srl	a5,a5,0x20
   1ab0a:	97ba                	add	a5,a5,a4
   1ab0c:	8ff1                	and	a5,a5,a2
   1ab0e:	e7a1                	bnez	a5,1ab56 <__subtf3+0x890>
   1ab10:	4701                	li	a4,0
   1ab12:	e6ad                	bnez	a3,1ab7c <__subtf3+0x8b6>
   1ab14:	4785                	li	a5,1
   1ab16:	a031                	j	1ab22 <__subtf3+0x85c>
   1ab18:	e881                	bnez	s1,1ab28 <__subtf3+0x862>
   1ab1a:	9351                	srl	a4,a4,0x34
   1ab1c:	8b05                	and	a4,a4,1
   1ab1e:	4785                	li	a5,1
   1ab20:	ef05                	bnez	a4,1ab58 <__subtf3+0x892>
   1ab22:	0027e793          	or	a5,a5,2
   1ab26:	b8e1                	j	1a3fe <__subtf3+0x138>
   1ab28:	ff87b793          	sltiu	a5,a5,-8
   1ab2c:	0017c793          	xor	a5,a5,1
   1ab30:	1782                	sll	a5,a5,0x20
   1ab32:	9381                	srl	a5,a5,0x20
   1ab34:	97ba                	add	a5,a5,a4
   1ab36:	93d1                	srl	a5,a5,0x34
   1ab38:	8b85                	and	a5,a5,1
   1ab3a:	ef91                	bnez	a5,1ab56 <__subtf3+0x890>
   1ab3c:	e6b1                	bnez	a3,1ab88 <__subtf3+0x8c2>
   1ab3e:	4701                	li	a4,0
   1ab40:	bfd1                	j	1ab14 <__subtf3+0x84e>
   1ab42:	9351                	srl	a4,a4,0x34
   1ab44:	8b05                	and	a4,a4,1
   1ab46:	e715                	bnez	a4,1ab72 <__subtf3+0x8ac>
   1ab48:	4781                	li	a5,0
   1ab4a:	8a068ae3          	beqz	a3,1a3fe <__subtf3+0x138>
   1ab4e:	4685                	li	a3,1
   1ab50:	4701                	li	a4,0
   1ab52:	4781                	li	a5,0
   1ab54:	a031                	j	1ab60 <__subtf3+0x89a>
   1ab56:	4785                	li	a5,1
   1ab58:	4701                	li	a4,0
   1ab5a:	8a0682e3          	beqz	a3,1a3fe <__subtf3+0x138>
   1ab5e:	4681                	li	a3,0
   1ab60:	4609                	li	a2,2
   1ab62:	0017e793          	or	a5,a5,1
   1ab66:	b2c91fe3          	bne	s2,a2,1a6a4 <__subtf3+0x3de>
   1ab6a:	cc89                	beqz	s1,1ab84 <__subtf3+0x8be>
   1ab6c:	00850613          	add	a2,a0,8
   1ab70:	b6b1                	j	1a6bc <__subtf3+0x3f6>
   1ab72:	4781                	li	a5,0
   1ab74:	b7d5                	j	1ab58 <__subtf3+0x892>
   1ab76:	85b6                	mv	a1,a3
   1ab78:	8532                	mv	a0,a2
   1ab7a:	b7d5                	j	1ab5e <__subtf3+0x898>
   1ab7c:	4685                	li	a3,1
   1ab7e:	4785                	li	a5,1
   1ab80:	b615                	j	1a6a4 <__subtf3+0x3de>
   1ab82:	d4ed                	beqz	s1,1ab6c <__subtf3+0x8a6>
   1ab84:	fed9                	bnez	a3,1ab22 <__subtf3+0x85c>
   1ab86:	b8a5                	j	1a3fe <__subtf3+0x138>
   1ab88:	4685                	li	a3,1
   1ab8a:	4701                	li	a4,0
   1ab8c:	4785                	li	a5,1
   1ab8e:	bff1                	j	1ab6a <__subtf3+0x8a4>
   1ab90:	4801                	li	a6,0
   1ab92:	00090663          	beqz	s2,1ab9e <__subtf3+0x8d8>
   1ab96:	460d                	li	a2,3
   1ab98:	00c91763          	bne	s2,a2,1aba6 <__subtf3+0x8e0>
   1ab9c:	e889                	bnez	s1,1abae <__subtf3+0x8e8>
   1ab9e:	0057e793          	or	a5,a5,5
   1aba2:	85c2                	mv	a1,a6
   1aba4:	bc41                	j	1a634 <__subtf3+0x36e>
   1aba6:	4609                	li	a2,2
   1aba8:	00c91363          	bne	s2,a2,1abae <__subtf3+0x8e8>
   1abac:	f8ed                	bnez	s1,1ab9e <__subtf3+0x8d8>
   1abae:	587d                	li	a6,-1
   1abb0:	ffe68713          	add	a4,a3,-2
   1abb4:	b7ed                	j	1ab9e <__subtf3+0x8d8>
   1abb6:	873e                	mv	a4,a5
   1abb8:	4581                	li	a1,0
   1abba:	4801                	li	a6,0
   1abbc:	4795                	li	a5,5
   1abbe:	bc9d                	j	1a634 <__subtf3+0x36e>
   1abc0:	4581                	li	a1,0
   1abc2:	8722                	mv	a4,s0
   1abc4:	b30d                	j	1a8e6 <__subtf3+0x620>
   1abc6:	882a                	mv	a6,a0
   1abc8:	b4b5                	j	1a634 <__subtf3+0x36e>
   1abca:	47c1                	li	a5,16
   1abcc:	a8871be3          	bne	a4,s0,1a662 <__subtf3+0x39c>
   1abd0:	a2030ae3          	beqz	t1,1a604 <__subtf3+0x33e>
   1abd4:	0326d713          	srl	a4,a3,0x32
   1abd8:	8b05                	and	a4,a4,1
   1abda:	a80701e3          	beqz	a4,1a65c <__subtf3+0x396>
   1abde:	a40815e3          	bnez	a6,1a628 <__subtf3+0x362>
   1abe2:	6721                	lui	a4,0x8
   1abe4:	177d                	add	a4,a4,-1 # 7fff <exit-0x80e9>
   1abe6:	b031                	j	1a3f2 <__subtf3+0x12c>
   1abe8:	47c1                	li	a5,16
   1abea:	00871763          	bne	a4,s0,1abf8 <__subtf3+0x932>
   1abee:	a6080ce3          	beqz	a6,1a666 <__subtf3+0x3a0>
   1abf2:	8e75                	and	a2,a2,a3
   1abf4:	a2061ae3          	bnez	a2,1a628 <__subtf3+0x362>
   1abf8:	a20818e3          	bnez	a6,1a628 <__subtf3+0x362>
   1abfc:	b4ad                	j	1a666 <__subtf3+0x3a0>

000000000001abfe <__fixtfsi>:
   1abfe:	862a                	mv	a2,a0
   1ac00:	002027f3          	frrm	a5
   1ac04:	6811                	lui	a6,0x4
   1ac06:	00159693          	sll	a3,a1,0x1
   1ac0a:	01059793          	sll	a5,a1,0x10
   1ac0e:	92c5                	srl	a3,a3,0x31
   1ac10:	ffe80713          	add	a4,a6,-2 # 3ffe <exit-0xc0ea>
   1ac14:	83c1                	srl	a5,a5,0x10
   1ac16:	91fd                	srl	a1,a1,0x3f
   1ac18:	00d74763          	blt	a4,a3,1ac26 <__fixtfsi+0x28>
   1ac1c:	e2bd                	bnez	a3,1ac82 <__fixtfsi+0x84>
   1ac1e:	8fc9                	or	a5,a5,a0
   1ac20:	4501                	li	a0,0
   1ac22:	efb1                	bnez	a5,1ac7e <__fixtfsi+0x80>
   1ac24:	8082                	ret
   1ac26:	01d80713          	add	a4,a6,29
   1ac2a:	02d75463          	bge	a4,a3,1ac52 <__fixtfsi+0x54>
   1ac2e:	80000737          	lui	a4,0x80000
   1ac32:	fff74713          	not	a4,a4
   1ac36:	00b7053b          	addw	a0,a4,a1
   1ac3a:	c5b1                	beqz	a1,1ac86 <__fixtfsi+0x88>
   1ac3c:	0879                	add	a6,a6,30
   1ac3e:	4741                	li	a4,16
   1ac40:	05069463          	bne	a3,a6,1ac88 <__fixtfsi+0x8a>
   1ac44:	0117d693          	srl	a3,a5,0x11
   1ac48:	e2a1                	bnez	a3,1ac88 <__fixtfsi+0x8a>
   1ac4a:	17be                	sll	a5,a5,0x2f
   1ac4c:	8fd1                	or	a5,a5,a2
   1ac4e:	eb85                	bnez	a5,1ac7e <__fixtfsi+0x80>
   1ac50:	8082                	ret
   1ac52:	4705                	li	a4,1
   1ac54:	1742                	sll	a4,a4,0x30
   1ac56:	8fd9                	or	a5,a5,a4
   1ac58:	6611                	lui	a2,0x4
   1ac5a:	7771                	lui	a4,0xffffc
   1ac5c:	2745                	addw	a4,a4,17 # ffffffffffffc011 <__BSS_END__+0xfffffffffffded29>
   1ac5e:	02f6061b          	addw	a2,a2,47 # 402f <exit-0xc0b9>
   1ac62:	9f35                	addw	a4,a4,a3
   1ac64:	40d606bb          	subw	a3,a2,a3
   1ac68:	00e79733          	sll	a4,a5,a4
   1ac6c:	00d7d7b3          	srl	a5,a5,a3
   1ac70:	8f49                	or	a4,a4,a0
   1ac72:	0007851b          	sext.w	a0,a5
   1ac76:	c199                	beqz	a1,1ac7c <__fixtfsi+0x7e>
   1ac78:	40a0053b          	negw	a0,a0
   1ac7c:	cb01                	beqz	a4,1ac8c <__fixtfsi+0x8e>
   1ac7e:	4705                	li	a4,1
   1ac80:	a021                	j	1ac88 <__fixtfsi+0x8a>
   1ac82:	4501                	li	a0,0
   1ac84:	bfed                	j	1ac7e <__fixtfsi+0x80>
   1ac86:	4741                	li	a4,16
   1ac88:	00172073          	csrs	fflags,a4
   1ac8c:	8082                	ret

000000000001ac8e <__floatsitf>:
   1ac8e:	1101                	add	sp,sp,-32
   1ac90:	ec06                	sd	ra,24(sp)
   1ac92:	e822                	sd	s0,16(sp)
   1ac94:	e426                	sd	s1,8(sp)
   1ac96:	c139                	beqz	a0,1acdc <__floatsitf+0x4e>
   1ac98:	0005079b          	sext.w	a5,a0
   1ac9c:	03f55493          	srl	s1,a0,0x3f
   1aca0:	00055463          	bgez	a0,1aca8 <__floatsitf+0x1a>
   1aca4:	40f007bb          	negw	a5,a5
   1aca8:	02079413          	sll	s0,a5,0x20
   1acac:	9001                	srl	s0,s0,0x20
   1acae:	8522                	mv	a0,s0
   1acb0:	372000ef          	jal	1b022 <__clzdi2>
   1acb4:	6591                	lui	a1,0x4
   1acb6:	03e5859b          	addw	a1,a1,62 # 403e <exit-0xc0aa>
   1acba:	9d89                	subw	a1,a1,a0
   1acbc:	3545                	addw	a0,a0,-15
   1acbe:	00a417b3          	sll	a5,s0,a0
   1acc2:	60e2                	ld	ra,24(sp)
   1acc4:	6442                	ld	s0,16(sp)
   1acc6:	00f4949b          	sllw	s1,s1,0xf
   1acca:	8dc5                	or	a1,a1,s1
   1accc:	07c2                	sll	a5,a5,0x10
   1acce:	15c2                	sll	a1,a1,0x30
   1acd0:	83c1                	srl	a5,a5,0x10
   1acd2:	64a2                	ld	s1,8(sp)
   1acd4:	4501                	li	a0,0
   1acd6:	8ddd                	or	a1,a1,a5
   1acd8:	6105                	add	sp,sp,32
   1acda:	8082                	ret
   1acdc:	4781                	li	a5,0
   1acde:	4581                	li	a1,0
   1ace0:	4481                	li	s1,0
   1ace2:	b7c5                	j	1acc2 <__floatsitf+0x34>

000000000001ace4 <__extenddftf2>:
   1ace4:	1101                	add	sp,sp,-32
   1ace6:	e20507d3          	fmv.x.d	a5,fa0
   1acea:	ec06                	sd	ra,24(sp)
   1acec:	e822                	sd	s0,16(sp)
   1acee:	e426                	sd	s1,8(sp)
   1acf0:	00202773          	frrm	a4
   1acf4:	0347d513          	srl	a0,a5,0x34
   1acf8:	7ff57513          	and	a0,a0,2047
   1acfc:	00c79413          	sll	s0,a5,0xc
   1ad00:	03f7d493          	srl	s1,a5,0x3f
   1ad04:	00150793          	add	a5,a0,1
   1ad08:	7fe7f793          	and	a5,a5,2046
   1ad0c:	8031                	srl	s0,s0,0xc
   1ad0e:	cb91                	beqz	a5,1ad22 <__extenddftf2+0x3e>
   1ad10:	6791                	lui	a5,0x4
   1ad12:	c0078793          	add	a5,a5,-1024 # 3c00 <exit-0xc4e8>
   1ad16:	953e                	add	a0,a0,a5
   1ad18:	00445793          	srl	a5,s0,0x4
   1ad1c:	1472                	sll	s0,s0,0x3c
   1ad1e:	4701                	li	a4,0
   1ad20:	a8b9                	j	1ad7e <__extenddftf2+0x9a>
   1ad22:	ed1d                	bnez	a0,1ad60 <__extenddftf2+0x7c>
   1ad24:	4781                	li	a5,0
   1ad26:	dc65                	beqz	s0,1ad1e <__extenddftf2+0x3a>
   1ad28:	8522                	mv	a0,s0
   1ad2a:	2f8000ef          	jal	1b022 <__clzdi2>
   1ad2e:	0005071b          	sext.w	a4,a0
   1ad32:	47b9                	li	a5,14
   1ad34:	02e7c063          	blt	a5,a4,1ad54 <__extenddftf2+0x70>
   1ad38:	47bd                	li	a5,15
   1ad3a:	9f89                	subw	a5,a5,a0
   1ad3c:	0315071b          	addw	a4,a0,49
   1ad40:	00f457b3          	srl	a5,s0,a5
   1ad44:	00e41433          	sll	s0,s0,a4
   1ad48:	6711                	lui	a4,0x4
   1ad4a:	c0c7071b          	addw	a4,a4,-1012 # 3c0c <exit-0xc4dc>
   1ad4e:	40a7053b          	subw	a0,a4,a0
   1ad52:	b7f1                	j	1ad1e <__extenddftf2+0x3a>
   1ad54:	ff15079b          	addw	a5,a0,-15
   1ad58:	00f417b3          	sll	a5,s0,a5
   1ad5c:	4401                	li	s0,0
   1ad5e:	b7ed                	j	1ad48 <__extenddftf2+0x64>
   1ad60:	c021                	beqz	s0,1ada0 <__extenddftf2+0xbc>
   1ad62:	4685                	li	a3,1
   1ad64:	03369713          	sll	a4,a3,0x33
   1ad68:	00e43733          	sltu	a4,s0,a4
   1ad6c:	00445793          	srl	a5,s0,0x4
   1ad70:	16be                	sll	a3,a3,0x2f
   1ad72:	6521                	lui	a0,0x8
   1ad74:	0047171b          	sllw	a4,a4,0x4
   1ad78:	8fd5                	or	a5,a5,a3
   1ad7a:	1472                	sll	s0,s0,0x3c
   1ad7c:	157d                	add	a0,a0,-1 # 7fff <exit-0x80e9>
   1ad7e:	01079593          	sll	a1,a5,0x10
   1ad82:	00f4979b          	sllw	a5,s1,0xf
   1ad86:	8d5d                	or	a0,a0,a5
   1ad88:	1542                	sll	a0,a0,0x30
   1ad8a:	81c1                	srl	a1,a1,0x10
   1ad8c:	8dc9                	or	a1,a1,a0
   1ad8e:	c319                	beqz	a4,1ad94 <__extenddftf2+0xb0>
   1ad90:	00186073          	csrs	fflags,16
   1ad94:	60e2                	ld	ra,24(sp)
   1ad96:	8522                	mv	a0,s0
   1ad98:	6442                	ld	s0,16(sp)
   1ad9a:	64a2                	ld	s1,8(sp)
   1ad9c:	6105                	add	sp,sp,32
   1ad9e:	8082                	ret
   1ada0:	6521                	lui	a0,0x8
   1ada2:	4781                	li	a5,0
   1ada4:	157d                	add	a0,a0,-1 # 7fff <exit-0x80e9>
   1ada6:	bfa5                	j	1ad1e <__extenddftf2+0x3a>

000000000001ada8 <__trunctfdf2>:
   1ada8:	00202873          	frrm	a6
   1adac:	68a1                	lui	a7,0x8
   1adae:	0305d713          	srl	a4,a1,0x30
   1adb2:	fff88e13          	add	t3,a7,-1 # 7fff <exit-0x80e9>
   1adb6:	57fd                	li	a5,-1
   1adb8:	0107d693          	srl	a3,a5,0x10
   1adbc:	01c77733          	and	a4,a4,t3
   1adc0:	03f5d613          	srl	a2,a1,0x3f
   1adc4:	00170313          	add	t1,a4,1
   1adc8:	8df5                	and	a1,a1,a3
   1adca:	18f9                	add	a7,a7,-2
   1adcc:	058e                	sll	a1,a1,0x3
   1adce:	03d55693          	srl	a3,a0,0x3d
   1add2:	011378b3          	and	a7,t1,a7
   1add6:	8ecd                	or	a3,a3,a1
   1add8:	2801                	sext.w	a6,a6
   1adda:	00351593          	sll	a1,a0,0x3
   1adde:	10088163          	beqz	a7,1aee0 <__trunctfdf2+0x138>
   1ade2:	78f1                	lui	a7,0xffffc
   1ade4:	40088893          	add	a7,a7,1024 # ffffffffffffc400 <__BSS_END__+0xfffffffffffdf118>
   1ade8:	9746                	add	a4,a4,a7
   1adea:	7fe00893          	li	a7,2046
   1adee:	02e8d463          	bge	a7,a4,1ae16 <__trunctfdf2+0x6e>
   1adf2:	20080563          	beqz	a6,1affc <__trunctfdf2+0x254>
   1adf6:	470d                	li	a4,3
   1adf8:	00e81863          	bne	a6,a4,1ae08 <__trunctfdf2+0x60>
   1adfc:	20060f63          	beqz	a2,1b01a <__trunctfdf2+0x272>
   1ae00:	7fe00713          	li	a4,2046
   1ae04:	4515                	li	a0,5
   1ae06:	a259                	j	1af8c <__trunctfdf2+0x1e4>
   1ae08:	4709                	li	a4,2
   1ae0a:	00e81463          	bne	a6,a4,1ae12 <__trunctfdf2+0x6a>
   1ae0e:	20061863          	bnez	a2,1b01e <__trunctfdf2+0x276>
   1ae12:	57fd                	li	a5,-1
   1ae14:	b7f5                	j	1ae00 <__trunctfdf2+0x58>
   1ae16:	0ae04763          	bgtz	a4,1aec4 <__trunctfdf2+0x11c>
   1ae1a:	fcc00793          	li	a5,-52
   1ae1e:	0cf74663          	blt	a4,a5,1aeea <__trunctfdf2+0x142>
   1ae22:	4785                	li	a5,1
   1ae24:	17ce                	sll	a5,a5,0x33
   1ae26:	03d00893          	li	a7,61
   1ae2a:	8edd                	or	a3,a3,a5
   1ae2c:	40e888b3          	sub	a7,a7,a4
   1ae30:	03f00793          	li	a5,63
   1ae34:	2701                	sext.w	a4,a4
   1ae36:	0717c563          	blt	a5,a7,1aea0 <__trunctfdf2+0xf8>
   1ae3a:	03d00793          	li	a5,61
   1ae3e:	0037051b          	addw	a0,a4,3
   1ae42:	9f99                	subw	a5,a5,a4
   1ae44:	00f5d7b3          	srl	a5,a1,a5
   1ae48:	00a595b3          	sll	a1,a1,a0
   1ae4c:	00b035b3          	snez	a1,a1
   1ae50:	8fcd                	or	a5,a5,a1
   1ae52:	00a696b3          	sll	a3,a3,a0
   1ae56:	8fd5                	or	a5,a5,a3
   1ae58:	00179713          	sll	a4,a5,0x1
   1ae5c:	00777693          	and	a3,a4,7
   1ae60:	e6d9                	bnez	a3,1aeee <__trunctfdf2+0x146>
   1ae62:	0077f593          	and	a1,a5,7
   1ae66:	4701                	li	a4,0
   1ae68:	4685                	li	a3,1
   1ae6a:	4501                	li	a0,0
   1ae6c:	c185                	beqz	a1,1ae8c <__trunctfdf2+0xe4>
   1ae6e:	4589                	li	a1,2
   1ae70:	12b80f63          	beq	a6,a1,1afae <__trunctfdf2+0x206>
   1ae74:	458d                	li	a1,3
   1ae76:	10b80863          	beq	a6,a1,1af86 <__trunctfdf2+0x1de>
   1ae7a:	12081d63          	bnez	a6,1afb4 <__trunctfdf2+0x20c>
   1ae7e:	00f7f593          	and	a1,a5,15
   1ae82:	4511                	li	a0,4
   1ae84:	0ea59b63          	bne	a1,a0,1af7a <__trunctfdf2+0x1d2>
   1ae88:	4505                	li	a0,1
   1ae8a:	e6e9                	bnez	a3,1af54 <__trunctfdf2+0x1ac>
   1ae8c:	7ff00693          	li	a3,2047
   1ae90:	838d                	srl	a5,a5,0x3
   1ae92:	08d71b63          	bne	a4,a3,1af28 <__trunctfdf2+0x180>
   1ae96:	cbc9                	beqz	a5,1af28 <__trunctfdf2+0x180>
   1ae98:	4785                	li	a5,1
   1ae9a:	17ce                	sll	a5,a5,0x33
   1ae9c:	4601                	li	a2,0
   1ae9e:	a069                	j	1af28 <__trunctfdf2+0x180>
   1aea0:	5575                	li	a0,-3
   1aea2:	9d19                	subw	a0,a0,a4
   1aea4:	04000313          	li	t1,64
   1aea8:	00a6d533          	srl	a0,a3,a0
   1aeac:	4781                	li	a5,0
   1aeae:	00688663          	beq	a7,t1,1aeba <__trunctfdf2+0x112>
   1aeb2:	0437071b          	addw	a4,a4,67
   1aeb6:	00e697b3          	sll	a5,a3,a4
   1aeba:	8fcd                	or	a5,a5,a1
   1aebc:	00f037b3          	snez	a5,a5
   1aec0:	8fc9                	or	a5,a5,a0
   1aec2:	bf59                	j	1ae58 <__trunctfdf2+0xb0>
   1aec4:	051e                	sll	a0,a0,0x7
   1aec6:	00a03533          	snez	a0,a0
   1aeca:	91f1                	srl	a1,a1,0x3c
   1aecc:	8d4d                	or	a0,a0,a1
   1aece:	00469793          	sll	a5,a3,0x4
   1aed2:	8fc9                	or	a5,a5,a0
   1aed4:	891d                	and	a0,a0,7
   1aed6:	4681                	li	a3,0
   1aed8:	f959                	bnez	a0,1ae6e <__trunctfdf2+0xc6>
   1aeda:	838d                	srl	a5,a5,0x3
   1aedc:	4501                	li	a0,0
   1aede:	a0a9                	j	1af28 <__trunctfdf2+0x180>
   1aee0:	8dd5                	or	a1,a1,a3
   1aee2:	e705                	bnez	a4,1af0a <__trunctfdf2+0x162>
   1aee4:	03f61793          	sll	a5,a2,0x3f
   1aee8:	c9b1                	beqz	a1,1af3c <__trunctfdf2+0x194>
   1aeea:	4785                	li	a5,1
   1aeec:	4709                	li	a4,2
   1aeee:	4689                	li	a3,2
   1aef0:	0077f513          	and	a0,a5,7
   1aef4:	08d80163          	beq	a6,a3,1af76 <__trunctfdf2+0x1ce>
   1aef8:	468d                	li	a3,3
   1aefa:	04d80f63          	beq	a6,a3,1af58 <__trunctfdf2+0x1b0>
   1aefe:	04080263          	beqz	a6,1af42 <__trunctfdf2+0x19a>
   1af02:	4701                	li	a4,0
   1af04:	4685                	li	a3,1
   1af06:	f525                	bnez	a0,1ae6e <__trunctfdf2+0xc6>
   1af08:	a0b1                	j	1af54 <__trunctfdf2+0x1ac>
   1af0a:	10058163          	beqz	a1,1b00c <__trunctfdf2+0x264>
   1af0e:	4501                	li	a0,0
   1af10:	01c71763          	bne	a4,t3,1af1e <__trunctfdf2+0x176>
   1af14:	92c9                	srl	a3,a3,0x32
   1af16:	0016c693          	xor	a3,a3,1
   1af1a:	00469513          	sll	a0,a3,0x4
   1af1e:	4785                	li	a5,1
   1af20:	4601                	li	a2,0
   1af22:	7ff00713          	li	a4,2047
   1af26:	17ce                	sll	a5,a5,0x33
   1af28:	7ff77713          	and	a4,a4,2047
   1af2c:	07b2                	sll	a5,a5,0xc
   1af2e:	83b1                	srl	a5,a5,0xc
   1af30:	1752                	sll	a4,a4,0x34
   1af32:	8f5d                	or	a4,a4,a5
   1af34:	03f61793          	sll	a5,a2,0x3f
   1af38:	8fd9                	or	a5,a5,a4
   1af3a:	e55d                	bnez	a0,1afe8 <__trunctfdf2+0x240>
   1af3c:	f2078553          	fmv.d.x	fa0,a5
   1af40:	8082                	ret
   1af42:	00f77593          	and	a1,a4,15
   1af46:	4691                	li	a3,4
   1af48:	0711                	add	a4,a4,4
   1af4a:	00d59963          	bne	a1,a3,1af5c <__trunctfdf2+0x1b4>
   1af4e:	4685                	li	a3,1
   1af50:	4701                	li	a4,0
   1af52:	f10d                	bnez	a0,1ae74 <__trunctfdf2+0xcc>
   1af54:	450d                	li	a0,3
   1af56:	bf1d                	j	1ae8c <__trunctfdf2+0xe4>
   1af58:	f64d                	bnez	a2,1af02 <__trunctfdf2+0x15a>
   1af5a:	0721                	add	a4,a4,8
   1af5c:	4685                	li	a3,1
   1af5e:	16e2                	sll	a3,a3,0x38
   1af60:	00d775b3          	and	a1,a4,a3
   1af64:	0015b693          	seqz	a3,a1
   1af68:	4701                	li	a4,0
   1af6a:	f111                	bnez	a0,1ae6e <__trunctfdf2+0xc6>
   1af6c:	450d                	li	a0,3
   1af6e:	dd99                	beqz	a1,1ae8c <__trunctfdf2+0xe4>
   1af70:	838d                	srl	a5,a5,0x3
   1af72:	4505                	li	a0,1
   1af74:	bf55                	j	1af28 <__trunctfdf2+0x180>
   1af76:	f275                	bnez	a2,1af5a <__trunctfdf2+0x1b2>
   1af78:	b769                	j	1af02 <__trunctfdf2+0x15a>
   1af7a:	0791                	add	a5,a5,4
   1af7c:	4505                	li	a0,1
   1af7e:	c699                	beqz	a3,1af8c <__trunctfdf2+0x1e4>
   1af80:	0026e513          	or	a0,a3,2
   1af84:	a021                	j	1af8c <__trunctfdf2+0x1e4>
   1af86:	c60d                	beqz	a2,1afb0 <__trunctfdf2+0x208>
   1af88:	4505                	li	a0,1
   1af8a:	ea85                	bnez	a3,1afba <__trunctfdf2+0x212>
   1af8c:	0377d693          	srl	a3,a5,0x37
   1af90:	8a85                	and	a3,a3,1
   1af92:	ee068de3          	beqz	a3,1ae8c <__trunctfdf2+0xe4>
   1af96:	0705                	add	a4,a4,1
   1af98:	7ff00693          	li	a3,2047
   1af9c:	02d70163          	beq	a4,a3,1afbe <__trunctfdf2+0x216>
   1afa0:	1ff00693          	li	a3,511
   1afa4:	16d2                	sll	a3,a3,0x34
   1afa6:	838d                	srl	a5,a5,0x3
   1afa8:	16fd                	add	a3,a3,-1
   1afaa:	8ff5                	and	a5,a5,a3
   1afac:	bfb5                	j	1af28 <__trunctfdf2+0x180>
   1afae:	d679                	beqz	a2,1af7c <__trunctfdf2+0x1d4>
   1afb0:	07a1                	add	a5,a5,8
   1afb2:	b7e9                	j	1af7c <__trunctfdf2+0x1d4>
   1afb4:	4505                	li	a0,1
   1afb6:	f6e9                	bnez	a3,1af80 <__trunctfdf2+0x1d8>
   1afb8:	bfd1                	j	1af8c <__trunctfdf2+0x1e4>
   1afba:	4685                	li	a3,1
   1afbc:	b7d1                	j	1af80 <__trunctfdf2+0x1d8>
   1afbe:	00556513          	or	a0,a0,5
   1afc2:	02080663          	beqz	a6,1afee <__trunctfdf2+0x246>
   1afc6:	478d                	li	a5,3
   1afc8:	00f81a63          	bne	a6,a5,1afdc <__trunctfdf2+0x234>
   1afcc:	c20d                	beqz	a2,1afee <__trunctfdf2+0x246>
   1afce:	7ff00713          	li	a4,2047
   1afd2:	1752                	sll	a4,a4,0x34
   1afd4:	03f61793          	sll	a5,a2,0x3f
   1afd8:	177d                	add	a4,a4,-1
   1afda:	a839                	j	1aff8 <__trunctfdf2+0x250>
   1afdc:	4789                	li	a5,2
   1afde:	fef818e3          	bne	a6,a5,1afce <__trunctfdf2+0x226>
   1afe2:	e611                	bnez	a2,1afee <__trunctfdf2+0x246>
   1afe4:	6681b783          	ld	a5,1640(gp) # 1d150 <mask+0x8>
   1afe8:	00152073          	csrs	fflags,a0
   1afec:	bf81                	j	1af3c <__trunctfdf2+0x194>
   1afee:	7ff00713          	li	a4,2047
   1aff2:	03f61793          	sll	a5,a2,0x3f
   1aff6:	1752                	sll	a4,a4,0x34
   1aff8:	8fd9                	or	a5,a5,a4
   1affa:	b7fd                	j	1afe8 <__trunctfdf2+0x240>
   1affc:	7ff00713          	li	a4,2047
   1b000:	03f61793          	sll	a5,a2,0x3f
   1b004:	1752                	sll	a4,a4,0x34
   1b006:	8fd9                	or	a5,a5,a4
   1b008:	4515                	li	a0,5
   1b00a:	bff9                	j	1afe8 <__trunctfdf2+0x240>
   1b00c:	7ff00793          	li	a5,2047
   1b010:	03f61713          	sll	a4,a2,0x3f
   1b014:	17d2                	sll	a5,a5,0x34
   1b016:	8fd9                	or	a5,a5,a4
   1b018:	b715                	j	1af3c <__trunctfdf2+0x194>
   1b01a:	7ff00793          	li	a5,2047
   1b01e:	17d2                	sll	a5,a5,0x34
   1b020:	b7e5                	j	1b008 <__trunctfdf2+0x260>

000000000001b022 <__clzdi2>:
   1b022:	03855793          	srl	a5,a0,0x38
   1b026:	eb85                	bnez	a5,1b056 <__clzdi2+0x34>
   1b028:	03800793          	li	a5,56
   1b02c:	17e1                	add	a5,a5,-8
   1b02e:	c791                	beqz	a5,1b03a <__clzdi2+0x18>
   1b030:	00f55733          	srl	a4,a0,a5
   1b034:	0ff77713          	zext.b	a4,a4
   1b038:	db75                	beqz	a4,1b02c <__clzdi2+0xa>
   1b03a:	6771                	lui	a4,0x1c
   1b03c:	04000693          	li	a3,64
   1b040:	8e9d                	sub	a3,a3,a5
   1b042:	00f55533          	srl	a0,a0,a5
   1b046:	c3870793          	add	a5,a4,-968 # 1bc38 <__clz_tab>
   1b04a:	97aa                	add	a5,a5,a0
   1b04c:	0007c503          	lbu	a0,0(a5)
   1b050:	40a6853b          	subw	a0,a3,a0
   1b054:	8082                	ret
   1b056:	03800793          	li	a5,56
   1b05a:	b7c5                	j	1b03a <__clzdi2+0x18>
