
helloworld.elf:     file format elf64-littleriscv


Disassembly of section .text:

00000000000100e8 <exit>:
   100e8:	1141                	add	sp,sp,-16
   100ea:	4581                	li	a1,0
   100ec:	e022                	sd	s0,0(sp)
   100ee:	e406                	sd	ra,8(sp)
   100f0:	842a                	mv	s0,a0
   100f2:	2f4020ef          	jal	123e6 <__call_exitprocs>
   100f6:	7481b503          	ld	a0,1864(gp) # 1d230 <_global_impure_ptr>
   100fa:	6d3c                	ld	a5,88(a0)
   100fc:	c391                	beqz	a5,10100 <exit+0x18>
   100fe:	9782                	jalr	a5
   10100:	8522                	mv	a0,s0
   10102:	7c2090ef          	jal	198c4 <_exit>

0000000000010106 <register_fini>:
   10106:	00000793          	li	a5,0
   1010a:	c791                	beqz	a5,10116 <register_fini+0x10>
   1010c:	6549                	lui	a0,0x12
   1010e:	4a850513          	add	a0,a0,1192 # 124a8 <__libc_fini_array>
   10112:	4870606f          	j	16d98 <atexit>
   10116:	8082                	ret

0000000000010118 <_start>:
   10118:	0000d197          	auipc	gp,0xd
   1011c:	9d018193          	add	gp,gp,-1584 # 1cae8 <__global_pointer$>
   10120:	77018513          	add	a0,gp,1904 # 1d258 <_PathLocale>
   10124:	0000d617          	auipc	a2,0xd
   10128:	1c460613          	add	a2,a2,452 # 1d2e8 <__BSS_END__>
   1012c:	8e09                	sub	a2,a2,a0
   1012e:	4581                	li	a1,0
   10130:	654000ef          	jal	10784 <memset>
   10134:	00007517          	auipc	a0,0x7
   10138:	c6450513          	add	a0,a0,-924 # 16d98 <atexit>
   1013c:	c519                	beqz	a0,1014a <_start+0x32>
   1013e:	00002517          	auipc	a0,0x2
   10142:	36a50513          	add	a0,a0,874 # 124a8 <__libc_fini_array>
   10146:	453060ef          	jal	16d98 <atexit>
   1014a:	5d0000ef          	jal	1071a <__libc_init_array>
   1014e:	4502                	lw	a0,0(sp)
   10150:	002c                	add	a1,sp,8
   10152:	4601                	li	a2,0
   10154:	5ae000ef          	jal	10702 <main>
   10158:	bf41                	j	100e8 <exit>

000000000001015a <__do_global_dtors_aux>:
   1015a:	1141                	add	sp,sp,-16
   1015c:	e022                	sd	s0,0(sp)
   1015e:	7a01c783          	lbu	a5,1952(gp) # 1d288 <completed.1>
   10162:	e406                	sd	ra,8(sp)
   10164:	ef91                	bnez	a5,10180 <__do_global_dtors_aux+0x26>
   10166:	00000793          	li	a5,0
   1016a:	cb81                	beqz	a5,1017a <__do_global_dtors_aux+0x20>
   1016c:	6571                	lui	a0,0x1c
   1016e:	00050513          	mv	a0,a0
   10172:	00000097          	auipc	ra,0x0
   10176:	000000e7          	jalr	zero # 0 <exit-0x100e8>
   1017a:	4785                	li	a5,1
   1017c:	7af18023          	sb	a5,1952(gp) # 1d288 <completed.1>
   10180:	60a2                	ld	ra,8(sp)
   10182:	6402                	ld	s0,0(sp)
   10184:	0141                	add	sp,sp,16
   10186:	8082                	ret

0000000000010188 <frame_dummy>:
   10188:	00000793          	li	a5,0
   1018c:	cb91                	beqz	a5,101a0 <frame_dummy+0x18>
   1018e:	6571                	lui	a0,0x1c
   10190:	7a818593          	add	a1,gp,1960 # 1d290 <object.0>
   10194:	00050513          	mv	a0,a0
   10198:	00000317          	auipc	t1,0x0
   1019c:	00000067          	jr	zero # 0 <exit-0x100e8>
   101a0:	8082                	ret

00000000000101a2 <get_dev_bar>:
   101a2:	715d                	add	sp,sp,-80
   101a4:	e4a2                	sd	s0,72(sp)
   101a6:	0880                	add	s0,sp,80
   101a8:	faa43c23          	sd	a0,-72(s0)
   101ac:	87ae                	mv	a5,a1
   101ae:	8732                	mv	a4,a2
   101b0:	faf41b23          	sh	a5,-74(s0)
   101b4:	87ba                	mv	a5,a4
   101b6:	faf41a23          	sh	a5,-76(s0)
   101ba:	fb843783          	ld	a5,-72(s0)
   101be:	479c                	lw	a5,8(a5)
   101c0:	0087d79b          	srlw	a5,a5,0x8
   101c4:	2781                	sext.w	a5,a5
   101c6:	2781                	sext.w	a5,a5
   101c8:	0ff7f793          	zext.b	a5,a5
   101cc:	fef42223          	sw	a5,-28(s0)
   101d0:	fe042623          	sw	zero,-20(s0)
   101d4:	fe042423          	sw	zero,-24(s0)
   101d8:	a8a5                	j	10250 <get_dev_bar+0xae>
   101da:	fec42783          	lw	a5,-20(s0)
   101de:	04078793          	add	a5,a5,64
   101e2:	fb843703          	ld	a4,-72(s0)
   101e6:	97ba                	add	a5,a5,a4
   101e8:	6390                	ld	a2,0(a5)
   101ea:	6794                	ld	a3,8(a5)
   101ec:	6b98                	ld	a4,16(a5)
   101ee:	6f9c                	ld	a5,24(a5)
   101f0:	fcc43023          	sd	a2,-64(s0)
   101f4:	fcd43423          	sd	a3,-56(s0)
   101f8:	fce43823          	sd	a4,-48(s0)
   101fc:	fcf43c23          	sd	a5,-40(s0)
   10200:	fec42783          	lw	a5,-20(s0)
   10204:	0207879b          	addw	a5,a5,32
   10208:	2781                	sext.w	a5,a5
   1020a:	fef42623          	sw	a5,-20(s0)
   1020e:	fc043783          	ld	a5,-64(s0)
   10212:	3007f713          	and	a4,a5,768
   10216:	20000793          	li	a5,512
   1021a:	02f71563          	bne	a4,a5,10244 <get_dev_bar+0xa2>
   1021e:	fc645783          	lhu	a5,-58(s0)
   10222:	fb645703          	lhu	a4,-74(s0)
   10226:	2701                	sext.w	a4,a4
   10228:	2781                	sext.w	a5,a5
   1022a:	00f71e63          	bne	a4,a5,10246 <get_dev_bar+0xa4>
   1022e:	fc445783          	lhu	a5,-60(s0)
   10232:	fb445703          	lhu	a4,-76(s0)
   10236:	2701                	sext.w	a4,a4
   10238:	2781                	sext.w	a5,a5
   1023a:	00f71663          	bne	a4,a5,10246 <get_dev_bar+0xa4>
   1023e:	fd043783          	ld	a5,-48(s0)
   10242:	a00d                	j	10264 <get_dev_bar+0xc2>
   10244:	0001                	nop
   10246:	fe842783          	lw	a5,-24(s0)
   1024a:	2785                	addw	a5,a5,1
   1024c:	fef42423          	sw	a5,-24(s0)
   10250:	fe842783          	lw	a5,-24(s0)
   10254:	873e                	mv	a4,a5
   10256:	fe442783          	lw	a5,-28(s0)
   1025a:	2701                	sext.w	a4,a4
   1025c:	2781                	sext.w	a5,a5
   1025e:	f6f74ee3          	blt	a4,a5,101da <get_dev_bar+0x38>
   10262:	57fd                	li	a5,-1
   10264:	853e                	mv	a0,a5
   10266:	6426                	ld	s0,72(sp)
   10268:	6161                	add	sp,sp,80
   1026a:	8082                	ret

000000000001026c <mpu_region_total>:
   1026c:	1101                	add	sp,sp,-32
   1026e:	ec22                	sd	s0,24(sp)
   10270:	1000                	add	s0,sp,32
   10272:	fe043423          	sd	zero,-24(s0)
   10276:	bc4027f3          	csrr	a5,0xbc4
   1027a:	fef43423          	sd	a5,-24(s0)
   1027e:	fe843783          	ld	a5,-24(s0)
   10282:	83a1                	srl	a5,a5,0x8
   10284:	2781                	sext.w	a5,a5
   10286:	853e                	mv	a0,a5
   10288:	6462                	ld	s0,24(sp)
   1028a:	6105                	add	sp,sp,32
   1028c:	8082                	ret

000000000001028e <mpu_disable_region>:
   1028e:	7179                	add	sp,sp,-48
   10290:	f422                	sd	s0,40(sp)
   10292:	1800                	add	s0,sp,48
   10294:	87aa                	mv	a5,a0
   10296:	fcf42e23          	sw	a5,-36(s0)
   1029a:	fe043423          	sd	zero,-24(s0)
   1029e:	fdc42783          	lw	a5,-36(s0)
   102a2:	0ff7f793          	zext.b	a5,a5
   102a6:	fef404a3          	sb	a5,-23(s0)
   102aa:	fe843783          	ld	a5,-24(s0)
   102ae:	0807e793          	or	a5,a5,128
   102b2:	fef43423          	sd	a5,-24(s0)
   102b6:	fe843783          	ld	a5,-24(s0)
   102ba:	bc479073          	csrw	0xbc4,a5
   102be:	0001                	nop
   102c0:	7422                	ld	s0,40(sp)
   102c2:	6145                	add	sp,sp,48
   102c4:	8082                	ret

00000000000102c6 <mpu_enable_region>:
   102c6:	715d                	add	sp,sp,-80
   102c8:	e4a2                	sd	s0,72(sp)
   102ca:	0880                	add	s0,sp,80
   102cc:	87aa                	mv	a5,a0
   102ce:	fcb43023          	sd	a1,-64(s0)
   102d2:	fac43c23          	sd	a2,-72(s0)
   102d6:	fae43823          	sd	a4,-80(s0)
   102da:	fcf42623          	sw	a5,-52(s0)
   102de:	87b6                	mv	a5,a3
   102e0:	fcf42423          	sw	a5,-56(s0)
   102e4:	c0000793          	li	a5,-1024
   102e8:	fef43423          	sd	a5,-24(s0)
   102ec:	fb043783          	ld	a5,-80(s0)
   102f0:	fef43023          	sd	a5,-32(s0)
   102f4:	fc043783          	ld	a5,-64(s0)
   102f8:	bc279073          	csrw	0xbc2,a5
   102fc:	fb843783          	ld	a5,-72(s0)
   10300:	8385                	srl	a5,a5,0x1
   10302:	faf43c23          	sd	a5,-72(s0)
   10306:	a819                	j	1031c <mpu_enable_region+0x56>
   10308:	fe843783          	ld	a5,-24(s0)
   1030c:	0786                	sll	a5,a5,0x1
   1030e:	fef43423          	sd	a5,-24(s0)
   10312:	fb843783          	ld	a5,-72(s0)
   10316:	8385                	srl	a5,a5,0x1
   10318:	faf43c23          	sd	a5,-72(s0)
   1031c:	fb843783          	ld	a5,-72(s0)
   10320:	f7e5                	bnez	a5,10308 <mpu_enable_region+0x42>
   10322:	fe843783          	ld	a5,-24(s0)
   10326:	bc379073          	csrw	0xbc3,a5
   1032a:	fc043c23          	sd	zero,-40(s0)
   1032e:	fcc42783          	lw	a5,-52(s0)
   10332:	0ff7f793          	zext.b	a5,a5
   10336:	fcf40ca3          	sb	a5,-39(s0)
   1033a:	fd843783          	ld	a5,-40(s0)
   1033e:	0107e793          	or	a5,a5,16
   10342:	fcf43c23          	sd	a5,-40(s0)
   10346:	fc842783          	lw	a5,-56(s0)
   1034a:	8b85                	and	a5,a5,1
   1034c:	0ff7f793          	zext.b	a5,a5
   10350:	8b85                	and	a5,a5,1
   10352:	078e                	sll	a5,a5,0x3
   10354:	fd843703          	ld	a4,-40(s0)
   10358:	9b5d                	and	a4,a4,-9
   1035a:	8fd9                	or	a5,a5,a4
   1035c:	fcf43c23          	sd	a5,-40(s0)
   10360:	fd843783          	ld	a5,-40(s0)
   10364:	0807e793          	or	a5,a5,128
   10368:	fcf43c23          	sd	a5,-40(s0)
   1036c:	a09d                	j	103d2 <mpu_enable_region+0x10c>
   1036e:	fe043783          	ld	a5,-32(s0)
   10372:	0007c783          	lbu	a5,0(a5)
   10376:	873e                	mv	a4,a5
   10378:	07200793          	li	a5,114
   1037c:	00f71863          	bne	a4,a5,1038c <mpu_enable_region+0xc6>
   10380:	fd843783          	ld	a5,-40(s0)
   10384:	0027e793          	or	a5,a5,2
   10388:	fcf43c23          	sd	a5,-40(s0)
   1038c:	fe043783          	ld	a5,-32(s0)
   10390:	0007c783          	lbu	a5,0(a5)
   10394:	873e                	mv	a4,a5
   10396:	07700793          	li	a5,119
   1039a:	00f71863          	bne	a4,a5,103aa <mpu_enable_region+0xe4>
   1039e:	fd843783          	ld	a5,-40(s0)
   103a2:	0017e793          	or	a5,a5,1
   103a6:	fcf43c23          	sd	a5,-40(s0)
   103aa:	fe043783          	ld	a5,-32(s0)
   103ae:	0007c783          	lbu	a5,0(a5)
   103b2:	873e                	mv	a4,a5
   103b4:	07800793          	li	a5,120
   103b8:	00f71863          	bne	a4,a5,103c8 <mpu_enable_region+0x102>
   103bc:	fd843783          	ld	a5,-40(s0)
   103c0:	0047e793          	or	a5,a5,4
   103c4:	fcf43c23          	sd	a5,-40(s0)
   103c8:	fe043783          	ld	a5,-32(s0)
   103cc:	0785                	add	a5,a5,1
   103ce:	fef43023          	sd	a5,-32(s0)
   103d2:	fe043783          	ld	a5,-32(s0)
   103d6:	0007c783          	lbu	a5,0(a5)
   103da:	fbd1                	bnez	a5,1036e <mpu_enable_region+0xa8>
   103dc:	fd843783          	ld	a5,-40(s0)
   103e0:	bc479073          	csrw	0xbc4,a5
   103e4:	0001                	nop
   103e6:	6426                	ld	s0,72(sp)
   103e8:	6161                	add	sp,sp,80
   103ea:	8082                	ret

00000000000103ec <sbrk>:
   103ec:	1101                	add	sp,sp,-32
   103ee:	ec22                	sd	s0,24(sp)
   103f0:	1000                	add	s0,sp,32
   103f2:	87aa                	mv	a5,a0
   103f4:	fef42623          	sw	a5,-20(s0)
   103f8:	67f5                	lui	a5,0x1d
   103fa:	2e878793          	add	a5,a5,744 # 1d2e8 <__BSS_END__>
   103fe:	853e                	mv	a0,a5
   10400:	6462                	ld	s0,24(sp)
   10402:	6105                	add	sp,sp,32
   10404:	8082                	ret

0000000000010406 <print_uart>:
   10406:	7139                	add	sp,sp,-64
   10408:	fc22                	sd	s0,56(sp)
   1040a:	0080                	add	s0,sp,64
   1040c:	fca43423          	sd	a0,-56(s0)
   10410:	87ae                	mv	a5,a1
   10412:	fcf42223          	sw	a5,-60(s0)
   10416:	100107b7          	lui	a5,0x10010
   1041a:	fef43023          	sd	a5,-32(s0)
   1041e:	fe042623          	sw	zero,-20(s0)
   10422:	a081                	j	10462 <print_uart+0x5c>
   10424:	fe043783          	ld	a5,-32(s0)
   10428:	439c                	lw	a5,0(a5)
   1042a:	2781                	sext.w	a5,a5
   1042c:	fcf42c23          	sw	a5,-40(s0)
   10430:	fd842783          	lw	a5,-40(s0)
   10434:	873e                	mv	a4,a5
   10436:	800007b7          	lui	a5,0x80000
   1043a:	8ff9                	and	a5,a5,a4
   1043c:	2781                	sext.w	a5,a5
   1043e:	f3fd                	bnez	a5,10424 <print_uart+0x1e>
   10440:	fec42783          	lw	a5,-20(s0)
   10444:	fc843703          	ld	a4,-56(s0)
   10448:	97ba                	add	a5,a5,a4
   1044a:	0007c783          	lbu	a5,0(a5) # ffffffff80000000 <__BSS_END__+0xffffffff7ffe2d18>
   1044e:	0007871b          	sext.w	a4,a5
   10452:	fe043783          	ld	a5,-32(s0)
   10456:	c398                	sw	a4,0(a5)
   10458:	fec42783          	lw	a5,-20(s0)
   1045c:	2785                	addw	a5,a5,1
   1045e:	fef42623          	sw	a5,-20(s0)
   10462:	fec42783          	lw	a5,-20(s0)
   10466:	873e                	mv	a4,a5
   10468:	fc442783          	lw	a5,-60(s0)
   1046c:	2701                	sext.w	a4,a4
   1046e:	2781                	sext.w	a5,a5
   10470:	faf74ae3          	blt	a4,a5,10424 <print_uart+0x1e>
   10474:	0001                	nop
   10476:	0001                	nop
   10478:	7462                	ld	s0,56(sp)
   1047a:	6121                	add	sp,sp,64
   1047c:	8082                	ret

000000000001047e <helloWorld>:
   1047e:	712d                	add	sp,sp,-288
   10480:	ee06                	sd	ra,280(sp)
   10482:	ea22                	sd	s0,272(sp)
   10484:	1200                	add	s0,sp,288
   10486:	ee840713          	add	a4,s0,-280
   1048a:	4605                	li	a2,1
   1048c:	67ed                	lui	a5,0x1b
   1048e:	06078593          	add	a1,a5,96 # 1b060 <__clzdi2+0x3e>
   10492:	853a                	mv	a0,a4
   10494:	3dc000ef          	jal	10870 <sprintf>
   10498:	87aa                	mv	a5,a0
   1049a:	fef42623          	sw	a5,-20(s0)
   1049e:	fec42703          	lw	a4,-20(s0)
   104a2:	ee840793          	add	a5,s0,-280
   104a6:	85ba                	mv	a1,a4
   104a8:	853e                	mv	a0,a5
   104aa:	f5dff0ef          	jal	10406 <print_uart>
   104ae:	0001                	nop
   104b0:	60f2                	ld	ra,280(sp)
   104b2:	6452                	ld	s0,272(sp)
   104b4:	6115                	add	sp,sp,288
   104b6:	8082                	ret

00000000000104b8 <get_dev_bar>:
   104b8:	715d                	add	sp,sp,-80
   104ba:	e4a2                	sd	s0,72(sp)
   104bc:	0880                	add	s0,sp,80
   104be:	faa43c23          	sd	a0,-72(s0)
   104c2:	87ae                	mv	a5,a1
   104c4:	8732                	mv	a4,a2
   104c6:	faf41b23          	sh	a5,-74(s0)
   104ca:	87ba                	mv	a5,a4
   104cc:	faf41a23          	sh	a5,-76(s0)
   104d0:	fb843783          	ld	a5,-72(s0)
   104d4:	479c                	lw	a5,8(a5)
   104d6:	0087d79b          	srlw	a5,a5,0x8
   104da:	2781                	sext.w	a5,a5
   104dc:	2781                	sext.w	a5,a5
   104de:	0ff7f793          	zext.b	a5,a5
   104e2:	fef42223          	sw	a5,-28(s0)
   104e6:	fe042623          	sw	zero,-20(s0)
   104ea:	fe042423          	sw	zero,-24(s0)
   104ee:	a8a5                	j	10566 <get_dev_bar+0xae>
   104f0:	fec42783          	lw	a5,-20(s0)
   104f4:	04078793          	add	a5,a5,64
   104f8:	fb843703          	ld	a4,-72(s0)
   104fc:	97ba                	add	a5,a5,a4
   104fe:	6390                	ld	a2,0(a5)
   10500:	6794                	ld	a3,8(a5)
   10502:	6b98                	ld	a4,16(a5)
   10504:	6f9c                	ld	a5,24(a5)
   10506:	fcc43023          	sd	a2,-64(s0)
   1050a:	fcd43423          	sd	a3,-56(s0)
   1050e:	fce43823          	sd	a4,-48(s0)
   10512:	fcf43c23          	sd	a5,-40(s0)
   10516:	fec42783          	lw	a5,-20(s0)
   1051a:	0207879b          	addw	a5,a5,32
   1051e:	2781                	sext.w	a5,a5
   10520:	fef42623          	sw	a5,-20(s0)
   10524:	fc043783          	ld	a5,-64(s0)
   10528:	3007f713          	and	a4,a5,768
   1052c:	20000793          	li	a5,512
   10530:	02f71563          	bne	a4,a5,1055a <get_dev_bar+0xa2>
   10534:	fc645783          	lhu	a5,-58(s0)
   10538:	fb645703          	lhu	a4,-74(s0)
   1053c:	2701                	sext.w	a4,a4
   1053e:	2781                	sext.w	a5,a5
   10540:	00f71e63          	bne	a4,a5,1055c <get_dev_bar+0xa4>
   10544:	fc445783          	lhu	a5,-60(s0)
   10548:	fb445703          	lhu	a4,-76(s0)
   1054c:	2701                	sext.w	a4,a4
   1054e:	2781                	sext.w	a5,a5
   10550:	00f71663          	bne	a4,a5,1055c <get_dev_bar+0xa4>
   10554:	fd043783          	ld	a5,-48(s0)
   10558:	a00d                	j	1057a <get_dev_bar+0xc2>
   1055a:	0001                	nop
   1055c:	fe842783          	lw	a5,-24(s0)
   10560:	2785                	addw	a5,a5,1
   10562:	fef42423          	sw	a5,-24(s0)
   10566:	fe842783          	lw	a5,-24(s0)
   1056a:	873e                	mv	a4,a5
   1056c:	fe442783          	lw	a5,-28(s0)
   10570:	2701                	sext.w	a4,a4
   10572:	2781                	sext.w	a5,a5
   10574:	f6f74ee3          	blt	a4,a5,104f0 <get_dev_bar+0x38>
   10578:	57fd                	li	a5,-1
   1057a:	853e                	mv	a0,a5
   1057c:	6426                	ld	s0,72(sp)
   1057e:	6161                	add	sp,sp,80
   10580:	8082                	ret

0000000000010582 <mpu_region_total>:
   10582:	1101                	add	sp,sp,-32
   10584:	ec22                	sd	s0,24(sp)
   10586:	1000                	add	s0,sp,32
   10588:	fe043423          	sd	zero,-24(s0)
   1058c:	bc4027f3          	csrr	a5,0xbc4
   10590:	fef43423          	sd	a5,-24(s0)
   10594:	fe843783          	ld	a5,-24(s0)
   10598:	83a1                	srl	a5,a5,0x8
   1059a:	2781                	sext.w	a5,a5
   1059c:	853e                	mv	a0,a5
   1059e:	6462                	ld	s0,24(sp)
   105a0:	6105                	add	sp,sp,32
   105a2:	8082                	ret

00000000000105a4 <mpu_disable_region>:
   105a4:	7179                	add	sp,sp,-48
   105a6:	f422                	sd	s0,40(sp)
   105a8:	1800                	add	s0,sp,48
   105aa:	87aa                	mv	a5,a0
   105ac:	fcf42e23          	sw	a5,-36(s0)
   105b0:	fe043423          	sd	zero,-24(s0)
   105b4:	fdc42783          	lw	a5,-36(s0)
   105b8:	0ff7f793          	zext.b	a5,a5
   105bc:	fef404a3          	sb	a5,-23(s0)
   105c0:	fe843783          	ld	a5,-24(s0)
   105c4:	0807e793          	or	a5,a5,128
   105c8:	fef43423          	sd	a5,-24(s0)
   105cc:	fe843783          	ld	a5,-24(s0)
   105d0:	bc479073          	csrw	0xbc4,a5
   105d4:	0001                	nop
   105d6:	7422                	ld	s0,40(sp)
   105d8:	6145                	add	sp,sp,48
   105da:	8082                	ret

00000000000105dc <mpu_enable_region>:
   105dc:	715d                	add	sp,sp,-80
   105de:	e4a2                	sd	s0,72(sp)
   105e0:	0880                	add	s0,sp,80
   105e2:	87aa                	mv	a5,a0
   105e4:	fcb43023          	sd	a1,-64(s0)
   105e8:	fac43c23          	sd	a2,-72(s0)
   105ec:	fae43823          	sd	a4,-80(s0)
   105f0:	fcf42623          	sw	a5,-52(s0)
   105f4:	87b6                	mv	a5,a3
   105f6:	fcf42423          	sw	a5,-56(s0)
   105fa:	c0000793          	li	a5,-1024
   105fe:	fef43423          	sd	a5,-24(s0)
   10602:	fb043783          	ld	a5,-80(s0)
   10606:	fef43023          	sd	a5,-32(s0)
   1060a:	fc043783          	ld	a5,-64(s0)
   1060e:	bc279073          	csrw	0xbc2,a5
   10612:	fb843783          	ld	a5,-72(s0)
   10616:	8385                	srl	a5,a5,0x1
   10618:	faf43c23          	sd	a5,-72(s0)
   1061c:	a819                	j	10632 <mpu_enable_region+0x56>
   1061e:	fe843783          	ld	a5,-24(s0)
   10622:	0786                	sll	a5,a5,0x1
   10624:	fef43423          	sd	a5,-24(s0)
   10628:	fb843783          	ld	a5,-72(s0)
   1062c:	8385                	srl	a5,a5,0x1
   1062e:	faf43c23          	sd	a5,-72(s0)
   10632:	fb843783          	ld	a5,-72(s0)
   10636:	f7e5                	bnez	a5,1061e <mpu_enable_region+0x42>
   10638:	fe843783          	ld	a5,-24(s0)
   1063c:	bc379073          	csrw	0xbc3,a5
   10640:	fc043c23          	sd	zero,-40(s0)
   10644:	fcc42783          	lw	a5,-52(s0)
   10648:	0ff7f793          	zext.b	a5,a5
   1064c:	fcf40ca3          	sb	a5,-39(s0)
   10650:	fd843783          	ld	a5,-40(s0)
   10654:	0107e793          	or	a5,a5,16
   10658:	fcf43c23          	sd	a5,-40(s0)
   1065c:	fc842783          	lw	a5,-56(s0)
   10660:	8b85                	and	a5,a5,1
   10662:	0ff7f793          	zext.b	a5,a5
   10666:	8b85                	and	a5,a5,1
   10668:	078e                	sll	a5,a5,0x3
   1066a:	fd843703          	ld	a4,-40(s0)
   1066e:	9b5d                	and	a4,a4,-9
   10670:	8fd9                	or	a5,a5,a4
   10672:	fcf43c23          	sd	a5,-40(s0)
   10676:	fd843783          	ld	a5,-40(s0)
   1067a:	0807e793          	or	a5,a5,128
   1067e:	fcf43c23          	sd	a5,-40(s0)
   10682:	a09d                	j	106e8 <mpu_enable_region+0x10c>
   10684:	fe043783          	ld	a5,-32(s0)
   10688:	0007c783          	lbu	a5,0(a5)
   1068c:	873e                	mv	a4,a5
   1068e:	07200793          	li	a5,114
   10692:	00f71863          	bne	a4,a5,106a2 <mpu_enable_region+0xc6>
   10696:	fd843783          	ld	a5,-40(s0)
   1069a:	0027e793          	or	a5,a5,2
   1069e:	fcf43c23          	sd	a5,-40(s0)
   106a2:	fe043783          	ld	a5,-32(s0)
   106a6:	0007c783          	lbu	a5,0(a5)
   106aa:	873e                	mv	a4,a5
   106ac:	07700793          	li	a5,119
   106b0:	00f71863          	bne	a4,a5,106c0 <mpu_enable_region+0xe4>
   106b4:	fd843783          	ld	a5,-40(s0)
   106b8:	0017e793          	or	a5,a5,1
   106bc:	fcf43c23          	sd	a5,-40(s0)
   106c0:	fe043783          	ld	a5,-32(s0)
   106c4:	0007c783          	lbu	a5,0(a5)
   106c8:	873e                	mv	a4,a5
   106ca:	07800793          	li	a5,120
   106ce:	00f71863          	bne	a4,a5,106de <mpu_enable_region+0x102>
   106d2:	fd843783          	ld	a5,-40(s0)
   106d6:	0047e793          	or	a5,a5,4
   106da:	fcf43c23          	sd	a5,-40(s0)
   106de:	fe043783          	ld	a5,-32(s0)
   106e2:	0785                	add	a5,a5,1
   106e4:	fef43023          	sd	a5,-32(s0)
   106e8:	fe043783          	ld	a5,-32(s0)
   106ec:	0007c783          	lbu	a5,0(a5)
   106f0:	fbd1                	bnez	a5,10684 <mpu_enable_region+0xa8>
   106f2:	fd843783          	ld	a5,-40(s0)
   106f6:	bc479073          	csrw	0xbc4,a5
   106fa:	0001                	nop
   106fc:	6426                	ld	s0,72(sp)
   106fe:	6161                	add	sp,sp,80
   10700:	8082                	ret

0000000000010702 <main>:
   10702:	1141                	add	sp,sp,-16
   10704:	e406                	sd	ra,8(sp)
   10706:	e022                	sd	s0,0(sp)
   10708:	0800                	add	s0,sp,16
   1070a:	d75ff0ef          	jal	1047e <helloWorld>
   1070e:	4781                	li	a5,0
   10710:	853e                	mv	a0,a5
   10712:	60a2                	ld	ra,8(sp)
   10714:	6402                	ld	s0,0(sp)
   10716:	0141                	add	sp,sp,16
   10718:	8082                	ret

000000000001071a <__libc_init_array>:
   1071a:	1101                	add	sp,sp,-32
   1071c:	e822                	sd	s0,16(sp)
   1071e:	67f1                	lui	a5,0x1c
   10720:	6471                	lui	s0,0x1c
   10722:	e04a                	sd	s2,0(sp)
   10724:	00478793          	add	a5,a5,4 # 1c004 <__preinit_array_end>
   10728:	00440713          	add	a4,s0,4 # 1c004 <__preinit_array_end>
   1072c:	ec06                	sd	ra,24(sp)
   1072e:	e426                	sd	s1,8(sp)
   10730:	40e78933          	sub	s2,a5,a4
   10734:	00e78d63          	beq	a5,a4,1074e <__libc_init_array+0x34>
   10738:	40395913          	sra	s2,s2,0x3
   1073c:	00440413          	add	s0,s0,4
   10740:	4481                	li	s1,0
   10742:	601c                	ld	a5,0(s0)
   10744:	0485                	add	s1,s1,1
   10746:	0421                	add	s0,s0,8
   10748:	9782                	jalr	a5
   1074a:	ff24ece3          	bltu	s1,s2,10742 <__libc_init_array+0x28>
   1074e:	6471                	lui	s0,0x1c
   10750:	67f1                	lui	a5,0x1c
   10752:	01878793          	add	a5,a5,24 # 1c018 <__do_global_dtors_aux_fini_array_entry>
   10756:	00840713          	add	a4,s0,8 # 1c008 <__init_array_start>
   1075a:	40e78933          	sub	s2,a5,a4
   1075e:	40395913          	sra	s2,s2,0x3
   10762:	00e78b63          	beq	a5,a4,10778 <__libc_init_array+0x5e>
   10766:	00840413          	add	s0,s0,8
   1076a:	4481                	li	s1,0
   1076c:	601c                	ld	a5,0(s0)
   1076e:	0485                	add	s1,s1,1
   10770:	0421                	add	s0,s0,8
   10772:	9782                	jalr	a5
   10774:	ff24ece3          	bltu	s1,s2,1076c <__libc_init_array+0x52>
   10778:	60e2                	ld	ra,24(sp)
   1077a:	6442                	ld	s0,16(sp)
   1077c:	64a2                	ld	s1,8(sp)
   1077e:	6902                	ld	s2,0(sp)
   10780:	6105                	add	sp,sp,32
   10782:	8082                	ret

0000000000010784 <memset>:
   10784:	433d                	li	t1,15
   10786:	872a                	mv	a4,a0
   10788:	02c37163          	bgeu	t1,a2,107aa <memset+0x26>
   1078c:	00f77793          	and	a5,a4,15
   10790:	e3c1                	bnez	a5,10810 <memset+0x8c>
   10792:	e1bd                	bnez	a1,107f8 <memset+0x74>
   10794:	ff067693          	and	a3,a2,-16
   10798:	8a3d                	and	a2,a2,15
   1079a:	96ba                	add	a3,a3,a4
   1079c:	e30c                	sd	a1,0(a4)
   1079e:	e70c                	sd	a1,8(a4)
   107a0:	0741                	add	a4,a4,16
   107a2:	fed76de3          	bltu	a4,a3,1079c <memset+0x18>
   107a6:	e211                	bnez	a2,107aa <memset+0x26>
   107a8:	8082                	ret
   107aa:	40c306b3          	sub	a3,t1,a2
   107ae:	068a                	sll	a3,a3,0x2
   107b0:	00000297          	auipc	t0,0x0
   107b4:	9696                	add	a3,a3,t0
   107b6:	00a68067          	jr	10(a3)
   107ba:	00b70723          	sb	a1,14(a4)
   107be:	00b706a3          	sb	a1,13(a4)
   107c2:	00b70623          	sb	a1,12(a4)
   107c6:	00b705a3          	sb	a1,11(a4)
   107ca:	00b70523          	sb	a1,10(a4)
   107ce:	00b704a3          	sb	a1,9(a4)
   107d2:	00b70423          	sb	a1,8(a4)
   107d6:	00b703a3          	sb	a1,7(a4)
   107da:	00b70323          	sb	a1,6(a4)
   107de:	00b702a3          	sb	a1,5(a4)
   107e2:	00b70223          	sb	a1,4(a4)
   107e6:	00b701a3          	sb	a1,3(a4)
   107ea:	00b70123          	sb	a1,2(a4)
   107ee:	00b700a3          	sb	a1,1(a4)
   107f2:	00b70023          	sb	a1,0(a4)
   107f6:	8082                	ret
   107f8:	0ff5f593          	zext.b	a1,a1
   107fc:	00859693          	sll	a3,a1,0x8
   10800:	8dd5                	or	a1,a1,a3
   10802:	01059693          	sll	a3,a1,0x10
   10806:	8dd5                	or	a1,a1,a3
   10808:	02059693          	sll	a3,a1,0x20
   1080c:	8dd5                	or	a1,a1,a3
   1080e:	b759                	j	10794 <memset+0x10>
   10810:	00279693          	sll	a3,a5,0x2
   10814:	00000297          	auipc	t0,0x0
   10818:	9696                	add	a3,a3,t0
   1081a:	8286                	mv	t0,ra
   1081c:	fa2680e7          	jalr	-94(a3)
   10820:	8096                	mv	ra,t0
   10822:	17c1                	add	a5,a5,-16
   10824:	8f1d                	sub	a4,a4,a5
   10826:	963e                	add	a2,a2,a5
   10828:	f8c371e3          	bgeu	t1,a2,107aa <memset+0x26>
   1082c:	b79d                	j	10792 <memset+0xe>

000000000001082e <_sprintf_r>:
   1082e:	7111                	add	sp,sp,-256
   10830:	0d810e93          	add	t4,sp,216
   10834:	f5be                	sd	a5,232(sp)
   10836:	80000337          	lui	t1,0x80000
   1083a:	77c1                	lui	a5,0xffff0
   1083c:	8e2e                	mv	t3,a1
   1083e:	fff34313          	not	t1,t1
   10842:	edb6                	sd	a3,216(sp)
   10844:	20878793          	add	a5,a5,520 # ffffffffffff0208 <__BSS_END__+0xfffffffffffd2f20>
   10848:	080c                	add	a1,sp,16
   1084a:	86f6                	mv	a3,t4
   1084c:	e586                	sd	ra,200(sp)
   1084e:	d03e                	sw	a5,32(sp)
   10850:	f1ba                	sd	a4,224(sp)
   10852:	f9c2                	sd	a6,240(sp)
   10854:	fdc6                	sd	a7,248(sp)
   10856:	e872                	sd	t3,16(sp)
   10858:	f472                	sd	t3,40(sp)
   1085a:	ce1a                	sw	t1,28(sp)
   1085c:	d81a                	sw	t1,48(sp)
   1085e:	e476                	sd	t4,8(sp)
   10860:	05a000ef          	jal	108ba <_svfprintf_r>
   10864:	67c2                	ld	a5,16(sp)
   10866:	00078023          	sb	zero,0(a5)
   1086a:	60ae                	ld	ra,200(sp)
   1086c:	6111                	add	sp,sp,256
   1086e:	8082                	ret

0000000000010870 <sprintf>:
   10870:	8e2a                	mv	t3,a0
   10872:	7111                	add	sp,sp,-256
   10874:	7581b503          	ld	a0,1880(gp) # 1d240 <_impure_ptr>
   10878:	0d010e93          	add	t4,sp,208
   1087c:	f5be                	sd	a5,232(sp)
   1087e:	80000337          	lui	t1,0x80000
   10882:	77c1                	lui	a5,0xffff0
   10884:	fff34313          	not	t1,t1
   10888:	e9b2                	sd	a2,208(sp)
   1088a:	edb6                	sd	a3,216(sp)
   1088c:	20878793          	add	a5,a5,520 # ffffffffffff0208 <__BSS_END__+0xfffffffffffd2f20>
   10890:	862e                	mv	a2,a1
   10892:	86f6                	mv	a3,t4
   10894:	080c                	add	a1,sp,16
   10896:	e586                	sd	ra,200(sp)
   10898:	d03e                	sw	a5,32(sp)
   1089a:	f1ba                	sd	a4,224(sp)
   1089c:	f9c2                	sd	a6,240(sp)
   1089e:	fdc6                	sd	a7,248(sp)
   108a0:	e872                	sd	t3,16(sp)
   108a2:	f472                	sd	t3,40(sp)
   108a4:	ce1a                	sw	t1,28(sp)
   108a6:	d81a                	sw	t1,48(sp)
   108a8:	e476                	sd	t4,8(sp)
   108aa:	010000ef          	jal	108ba <_svfprintf_r>
   108ae:	67c2                	ld	a5,16(sp)
   108b0:	00078023          	sb	zero,0(a5)
   108b4:	60ae                	ld	ra,200(sp)
   108b6:	6111                	add	sp,sp,256
   108b8:	8082                	ret

00000000000108ba <_svfprintf_r>:
   108ba:	d9010113          	add	sp,sp,-624
   108be:	26113423          	sd	ra,616(sp)
   108c2:	26813023          	sd	s0,608(sp)
   108c6:	25213823          	sd	s2,592(sp)
   108ca:	842e                	mv	s0,a1
   108cc:	e02e                	sd	a1,0(sp)
   108ce:	8932                	mv	s2,a2
   108d0:	f036                	sd	a3,32(sp)
   108d2:	24913c23          	sd	s1,600(sp)
   108d6:	25313423          	sd	s3,584(sp)
   108da:	25413023          	sd	s4,576(sp)
   108de:	23513c23          	sd	s5,568(sp)
   108e2:	23613823          	sd	s6,560(sp)
   108e6:	23713423          	sd	s7,552(sp)
   108ea:	23813023          	sd	s8,544(sp)
   108ee:	21913c23          	sd	s9,536(sp)
   108f2:	21a13823          	sd	s10,528(sp)
   108f6:	21b13423          	sd	s11,520(sp)
   108fa:	e8aa                	sd	a0,80(sp)
   108fc:	004040ef          	jal	14900 <_localeconv_r>
   10900:	611c                	ld	a5,0(a0)
   10902:	853e                	mv	a0,a5
   10904:	f0be                	sd	a5,96(sp)
   10906:	640050ef          	jal	15f46 <strlen>
   1090a:	01045703          	lhu	a4,16(s0)
   1090e:	f982                	sd	zero,240(sp)
   10910:	fd82                	sd	zero,248(sp)
   10912:	08077713          	and	a4,a4,128
   10916:	ecaa                	sd	a0,88(sp)
   10918:	c701                	beqz	a4,10920 <_svfprintf_r+0x66>
   1091a:	6c18                	ld	a4,24(s0)
   1091c:	680707e3          	beqz	a4,117aa <_svfprintf_r+0xef0>
   10920:	031c                	add	a5,sp,384
   10922:	676d                	lui	a4,0x1b
   10924:	833e                	mv	t1,a5
   10926:	e23e                	sd	a5,256(sp)
   10928:	8b4a                	mv	s6,s2
   1092a:	0d470793          	add	a5,a4,212 # 1b0d4 <__clzdi2+0xb2>
   1092e:	676d                	lui	a4,0x1b
   10930:	f43e                	sd	a5,40(sp)
   10932:	2d870793          	add	a5,a4,728 # 1b2d8 <zeroes.0>
   10936:	000b4703          	lbu	a4,0(s6)
   1093a:	ea02                	sd	zero,272(sp)
   1093c:	10012423          	sw	zero,264(sp)
   10940:	fc02                	sd	zero,56(sp)
   10942:	f482                	sd	zero,104(sp)
   10944:	f882                	sd	zero,112(sp)
   10946:	fc82                	sd	zero,120(sp)
   10948:	e102                	sd	zero,128(sp)
   1094a:	e502                	sd	zero,136(sp)
   1094c:	e802                	sd	zero,16(sp)
   1094e:	e43e                	sd	a5,8(sp)
   10950:	69c6                	ld	s3,80(sp)
   10952:	841a                	mv	s0,t1
   10954:	1c070163          	beqz	a4,10b16 <_svfprintf_r+0x25c>
   10958:	84da                	mv	s1,s6
   1095a:	02500693          	li	a3,37
   1095e:	20d70c63          	beq	a4,a3,10b76 <_svfprintf_r+0x2bc>
   10962:	0014c703          	lbu	a4,1(s1)
   10966:	0485                	add	s1,s1,1
   10968:	fb7d                	bnez	a4,1095e <_svfprintf_r+0xa4>
   1096a:	4164893b          	subw	s2,s1,s6
   1096e:	1a090463          	beqz	s2,10b16 <_svfprintf_r+0x25c>
   10972:	6bd2                	ld	s7,272(sp)
   10974:	10812683          	lw	a3,264(sp)
   10978:	01643023          	sd	s6,0(s0)
   1097c:	012b8733          	add	a4,s7,s2
   10980:	0016861b          	addw	a2,a3,1
   10984:	01243423          	sd	s2,8(s0)
   10988:	ea3a                	sd	a4,272(sp)
   1098a:	10c12423          	sw	a2,264(sp)
   1098e:	471d                	li	a4,7
   10990:	0441                	add	s0,s0,16
   10992:	1ec74963          	blt	a4,a2,10b84 <_svfprintf_r+0x2ca>
   10996:	67c2                	ld	a5,16(sp)
   10998:	0004c703          	lbu	a4,0(s1)
   1099c:	012787bb          	addw	a5,a5,s2
   109a0:	e83e                	sd	a5,16(sp)
   109a2:	16070a63          	beqz	a4,10b16 <_svfprintf_r+0x25c>
   109a6:	537d                	li	t1,-1
   109a8:	0014ce03          	lbu	t3,1(s1)
   109ac:	0c0107a3          	sb	zero,207(sp)
   109b0:	0485                	add	s1,s1,1
   109b2:	4a01                	li	s4,0
   109b4:	4901                	li	s2,0
   109b6:	05a00b93          	li	s7,90
   109ba:	8a9a                	mv	s5,t1
   109bc:	0485                	add	s1,s1,1
   109be:	000e0d1b          	sext.w	s10,t3
   109c2:	fe0d079b          	addw	a5,s10,-32
   109c6:	0007871b          	sext.w	a4,a5
   109ca:	04ebe563          	bltu	s7,a4,10a14 <_svfprintf_r+0x15a>
   109ce:	02079713          	sll	a4,a5,0x20
   109d2:	01e75793          	srl	a5,a4,0x1e
   109d6:	7722                	ld	a4,40(sp)
   109d8:	97ba                	add	a5,a5,a4
   109da:	439c                	lw	a5,0(a5)
   109dc:	8782                	jr	a5
   109de:	4a01                	li	s4,0
   109e0:	46a5                	li	a3,9
   109e2:	0004c703          	lbu	a4,0(s1)
   109e6:	002a179b          	sllw	a5,s4,0x2
   109ea:	01478a3b          	addw	s4,a5,s4
   109ee:	fd0d0d1b          	addw	s10,s10,-48
   109f2:	001a1a1b          	sllw	s4,s4,0x1
   109f6:	fd07079b          	addw	a5,a4,-48
   109fa:	014d0a3b          	addw	s4,s10,s4
   109fe:	0485                	add	s1,s1,1
   10a00:	00070d1b          	sext.w	s10,a4
   10a04:	fcf6ffe3          	bgeu	a3,a5,109e2 <_svfprintf_r+0x128>
   10a08:	fe0d079b          	addw	a5,s10,-32
   10a0c:	0007871b          	sext.w	a4,a5
   10a10:	faebffe3          	bgeu	s7,a4,109ce <_svfprintf_r+0x114>
   10a14:	100d0163          	beqz	s10,10b16 <_svfprintf_r+0x25c>
   10a18:	11a10c23          	sb	s10,280(sp)
   10a1c:	0c0107a3          	sb	zero,207(sp)
   10a20:	4c05                	li	s8,1
   10a22:	4d85                	li	s11,1
   10a24:	11810b13          	add	s6,sp,280
   10a28:	ec02                	sd	zero,24(sp)
   10a2a:	4301                	li	t1,0
   10a2c:	e482                	sd	zero,72(sp)
   10a2e:	e082                	sd	zero,64(sp)
   10a30:	f802                	sd	zero,48(sp)
   10a32:	00297c93          	and	s9,s2,2
   10a36:	000c8363          	beqz	s9,10a3c <_svfprintf_r+0x182>
   10a3a:	2c09                	addw	s8,s8,2
   10a3c:	08497a93          	and	s5,s2,132
   10a40:	000a9663          	bnez	s5,10a4c <_svfprintf_r+0x192>
   10a44:	418a073b          	subw	a4,s4,s8
   10a48:	00e046e3          	bgtz	a4,11254 <_svfprintf_r+0x99a>
   10a4c:	0cf14703          	lbu	a4,207(sp)
   10a50:	6bd2                	ld	s7,272(sp)
   10a52:	c31d                	beqz	a4,10a78 <_svfprintf_r+0x1be>
   10a54:	10812603          	lw	a2,264(sp)
   10a58:	0cf10593          	add	a1,sp,207
   10a5c:	e00c                	sd	a1,0(s0)
   10a5e:	2605                	addw	a2,a2,1
   10a60:	4585                	li	a1,1
   10a62:	0b85                	add	s7,s7,1
   10a64:	e40c                	sd	a1,8(s0)
   10a66:	10c12423          	sw	a2,264(sp)
   10a6a:	0006059b          	sext.w	a1,a2
   10a6e:	ea5e                	sd	s7,272(sp)
   10a70:	461d                	li	a2,7
   10a72:	0441                	add	s0,s0,16
   10a74:	1cb64c63          	blt	a2,a1,10c4c <_svfprintf_r+0x392>
   10a78:	020c8363          	beqz	s9,10a9e <_svfprintf_r+0x1e4>
   10a7c:	10812603          	lw	a2,264(sp)
   10a80:	4589                	li	a1,2
   10a82:	0b89                	add	s7,s7,2
   10a84:	2605                	addw	a2,a2,1
   10a86:	099c                	add	a5,sp,208
   10a88:	e40c                	sd	a1,8(s0)
   10a8a:	e01c                	sd	a5,0(s0)
   10a8c:	0006059b          	sext.w	a1,a2
   10a90:	10c12423          	sw	a2,264(sp)
   10a94:	ea5e                	sd	s7,272(sp)
   10a96:	461d                	li	a2,7
   10a98:	0441                	add	s0,s0,16
   10a9a:	06b649e3          	blt	a2,a1,1130c <_svfprintf_r+0xa52>
   10a9e:	08000613          	li	a2,128
   10aa2:	66ca8563          	beq	s5,a2,1110c <_svfprintf_r+0x852>
   10aa6:	41b30cbb          	subw	s9,t1,s11
   10aaa:	6f904f63          	bgtz	s9,111a8 <_svfprintf_r+0x8ee>
   10aae:	10097613          	and	a2,s2,256
   10ab2:	50061a63          	bnez	a2,10fc6 <_svfprintf_r+0x70c>
   10ab6:	10812603          	lw	a2,264(sp)
   10aba:	017d8733          	add	a4,s11,s7
   10abe:	01643023          	sd	s6,0(s0)
   10ac2:	0016069b          	addw	a3,a2,1
   10ac6:	01b43423          	sd	s11,8(s0)
   10aca:	ea3a                	sd	a4,272(sp)
   10acc:	10d12423          	sw	a3,264(sp)
   10ad0:	479d                	li	a5,7
   10ad2:	22d7ce63          	blt	a5,a3,10d0e <_svfprintf_r+0x454>
   10ad6:	0441                	add	s0,s0,16
   10ad8:	00497913          	and	s2,s2,4
   10adc:	00090663          	beqz	s2,10ae8 <_svfprintf_r+0x22e>
   10ae0:	418a093b          	subw	s2,s4,s8
   10ae4:	052040e3          	bgtz	s2,11324 <_svfprintf_r+0xa6a>
   10ae8:	87d2                	mv	a5,s4
   10aea:	018a5363          	bge	s4,s8,10af0 <_svfprintf_r+0x236>
   10aee:	87e2                	mv	a5,s8
   10af0:	66c2                	ld	a3,16(sp)
   10af2:	9fb5                	addw	a5,a5,a3
   10af4:	e83e                	sd	a5,16(sp)
   10af6:	74071163          	bnez	a4,11238 <_svfprintf_r+0x97e>
   10afa:	67e2                	ld	a5,24(sp)
   10afc:	10012423          	sw	zero,264(sp)
   10b00:	c789                	beqz	a5,10b0a <_svfprintf_r+0x250>
   10b02:	65e2                	ld	a1,24(sp)
   10b04:	854e                	mv	a0,s3
   10b06:	2a5010ef          	jal	125aa <_free_r>
   10b0a:	0300                	add	s0,sp,384
   10b0c:	8b26                	mv	s6,s1
   10b0e:	000b4703          	lbu	a4,0(s6)
   10b12:	e40713e3          	bnez	a4,10958 <_svfprintf_r+0x9e>
   10b16:	67d2                	ld	a5,272(sp)
   10b18:	c399                	beqz	a5,10b1e <_svfprintf_r+0x264>
   10b1a:	3080106f          	j	11e22 <_svfprintf_r+0x1568>
   10b1e:	6782                	ld	a5,0(sp)
   10b20:	0107d783          	lhu	a5,16(a5)
   10b24:	0407f793          	and	a5,a5,64
   10b28:	c399                	beqz	a5,10b2e <_svfprintf_r+0x274>
   10b2a:	78a0106f          	j	122b4 <_svfprintf_r+0x19fa>
   10b2e:	26813083          	ld	ra,616(sp)
   10b32:	26013403          	ld	s0,608(sp)
   10b36:	6542                	ld	a0,16(sp)
   10b38:	25813483          	ld	s1,600(sp)
   10b3c:	25013903          	ld	s2,592(sp)
   10b40:	24813983          	ld	s3,584(sp)
   10b44:	24013a03          	ld	s4,576(sp)
   10b48:	23813a83          	ld	s5,568(sp)
   10b4c:	23013b03          	ld	s6,560(sp)
   10b50:	22813b83          	ld	s7,552(sp)
   10b54:	22013c03          	ld	s8,544(sp)
   10b58:	21813c83          	ld	s9,536(sp)
   10b5c:	21013d03          	ld	s10,528(sp)
   10b60:	20813d83          	ld	s11,520(sp)
   10b64:	27010113          	add	sp,sp,624
   10b68:	8082                	ret
   10b6a:	01096913          	or	s2,s2,16
   10b6e:	0004ce03          	lbu	t3,0(s1)
   10b72:	2901                	sext.w	s2,s2
   10b74:	b5a1                	j	109bc <_svfprintf_r+0x102>
   10b76:	4164893b          	subw	s2,s1,s6
   10b7a:	de091ce3          	bnez	s2,10972 <_svfprintf_r+0xb8>
   10b7e:	0004c703          	lbu	a4,0(s1)
   10b82:	b505                	j	109a2 <_svfprintf_r+0xe8>
   10b84:	6582                	ld	a1,0(sp)
   10b86:	0210                	add	a2,sp,256
   10b88:	854e                	mv	a0,s3
   10b8a:	4be050ef          	jal	16048 <__ssprint_r>
   10b8e:	f941                	bnez	a0,10b1e <_svfprintf_r+0x264>
   10b90:	0300                	add	s0,sp,384
   10b92:	b511                	j	10996 <_svfprintf_r+0xdc>
   10b94:	00897713          	and	a4,s2,8
   10b98:	8356                	mv	t1,s5
   10b9a:	2e070de3          	beqz	a4,11694 <_svfprintf_r+0xdda>
   10b9e:	7782                	ld	a5,32(sp)
   10ba0:	00f78a93          	add	s5,a5,15
   10ba4:	ff0afa93          	and	s5,s5,-16
   10ba8:	000ab703          	ld	a4,0(s5)
   10bac:	008ab583          	ld	a1,8(s5)
   10bb0:	010a8793          	add	a5,s5,16
   10bb4:	f03e                	sd	a5,32(sp)
   10bb6:	1988                	add	a0,sp,240
   10bb8:	ec1a                	sd	t1,24(sp)
   10bba:	f9ba                	sd	a4,240(sp)
   10bbc:	fdae                	sd	a1,248(sp)
   10bbe:	4fb030ef          	jal	148b8 <_ldcheck>
   10bc2:	cdaa                	sw	a0,216(sp)
   10bc4:	4709                	li	a4,2
   10bc6:	6362                	ld	t1,24(sp)
   10bc8:	6ce50ce3          	beq	a0,a4,11aa0 <_svfprintf_r+0x11e6>
   10bcc:	4705                	li	a4,1
   10bce:	00e51463          	bne	a0,a4,10bd6 <_svfprintf_r+0x31c>
   10bd2:	7fd0006f          	j	11bce <_svfprintf_r+0x1314>
   10bd6:	06100713          	li	a4,97
   10bda:	00ed1463          	bne	s10,a4,10be2 <_svfprintf_r+0x328>
   10bde:	4640106f          	j	12042 <_svfprintf_r+0x1788>
   10be2:	04100713          	li	a4,65
   10be6:	00ed1463          	bne	s10,a4,10bee <_svfprintf_r+0x334>
   10bea:	5880106f          	j	12172 <_svfprintf_r+0x18b8>
   10bee:	577d                	li	a4,-1
   10bf0:	00e31463          	bne	t1,a4,10bf8 <_svfprintf_r+0x33e>
   10bf4:	25a0106f          	j	11e4e <_svfprintf_r+0x1594>
   10bf8:	fdfd7713          	and	a4,s10,-33
   10bfc:	04700693          	li	a3,71
   10c00:	00d71463          	bne	a4,a3,10c08 <_svfprintf_r+0x34e>
   10c04:	6d00106f          	j	122d4 <_svfprintf_r+0x1a1a>
   10c08:	10096713          	or	a4,s2,256
   10c0c:	7cee                	ld	s9,248(sp)
   10c0e:	0007079b          	sext.w	a5,a4
   10c12:	e93e                	sd	a5,144(sp)
   10c14:	e0ca                	sd	s2,64(sp)
   10c16:	7c4e                	ld	s8,240(sp)
   10c18:	000cd463          	bgez	s9,10c20 <_svfprintf_r+0x366>
   10c1c:	4aa0106f          	j	120c6 <_svfprintf_r+0x180c>
   10c20:	ed02                	sd	zero,152(sp)
   10c22:	ec02                	sd	zero,24(sp)
   10c24:	fbfd071b          	addw	a4,s10,-65
   10c28:	0007061b          	sext.w	a2,a4
   10c2c:	02500693          	li	a3,37
   10c30:	00c6f463          	bgeu	a3,a2,10c38 <_svfprintf_r+0x37e>
   10c34:	04a0106f          	j	11c7e <_svfprintf_r+0x13c4>
   10c38:	02071693          	sll	a3,a4,0x20
   10c3c:	01e6d713          	srl	a4,a3,0x1e
   10c40:	66ed                	lui	a3,0x1b
   10c42:	24068693          	add	a3,a3,576 # 1b240 <__clzdi2+0x21e>
   10c46:	9736                	add	a4,a4,a3
   10c48:	4318                	lw	a4,0(a4)
   10c4a:	8702                	jr	a4
   10c4c:	6582                	ld	a1,0(sp)
   10c4e:	0210                	add	a2,sp,256
   10c50:	854e                	mv	a0,s3
   10c52:	e91a                	sd	t1,144(sp)
   10c54:	3f4050ef          	jal	16048 <__ssprint_r>
   10c58:	5e051763          	bnez	a0,11246 <_svfprintf_r+0x98c>
   10c5c:	6bd2                	ld	s7,272(sp)
   10c5e:	634a                	ld	t1,144(sp)
   10c60:	0300                	add	s0,sp,384
   10c62:	bd19                	j	10a78 <_svfprintf_r+0x1be>
   10c64:	77e2                	ld	a5,56(sp)
   10c66:	4685                	li	a3,1
   10c68:	01040c93          	add	s9,s0,16
   10c6c:	06f6d1e3          	bge	a3,a5,114ce <_svfprintf_r+0xc14>
   10c70:	10812603          	lw	a2,264(sp)
   10c74:	4685                	li	a3,1
   10c76:	001b8713          	add	a4,s7,1
   10c7a:	2605                	addw	a2,a2,1
   10c7c:	e414                	sd	a3,8(s0)
   10c7e:	10c12423          	sw	a2,264(sp)
   10c82:	0006069b          	sext.w	a3,a2
   10c86:	01643023          	sd	s6,0(s0)
   10c8a:	ea3a                	sd	a4,272(sp)
   10c8c:	461d                	li	a2,7
   10c8e:	16d644e3          	blt	a2,a3,115f6 <_svfprintf_r+0xd3c>
   10c92:	67e6                	ld	a5,88(sp)
   10c94:	0016841b          	addw	s0,a3,1
   10c98:	10812423          	sw	s0,264(sp)
   10c9c:	00e78d33          	add	s10,a5,a4
   10ca0:	7706                	ld	a4,96(sp)
   10ca2:	00fcb423          	sd	a5,8(s9)
   10ca6:	ea6a                	sd	s10,272(sp)
   10ca8:	00ecb023          	sd	a4,0(s9)
   10cac:	471d                	li	a4,7
   10cae:	0cc1                	add	s9,s9,16
   10cb0:	168741e3          	blt	a4,s0,11612 <_svfprintf_r+0xd58>
   10cb4:	754e                	ld	a0,240(sp)
   10cb6:	75ee                	ld	a1,248(sp)
   10cb8:	4601                	li	a2,0
   10cba:	4681                	li	a3,0
   10cbc:	5cf080ef          	jal	19a8a <__eqtf2>
   10cc0:	77e2                	ld	a5,56(sp)
   10cc2:	fff78d9b          	addw	s11,a5,-1
   10cc6:	040507e3          	beqz	a0,11514 <_svfprintf_r+0xc5a>
   10cca:	001b0793          	add	a5,s6,1
   10cce:	2405                	addw	s0,s0,1
   10cd0:	9d6e                	add	s10,s10,s11
   10cd2:	00fcb023          	sd	a5,0(s9)
   10cd6:	01bcb423          	sd	s11,8(s9)
   10cda:	ea6a                	sd	s10,272(sp)
   10cdc:	10812423          	sw	s0,264(sp)
   10ce0:	479d                	li	a5,7
   10ce2:	0087cbe3          	blt	a5,s0,114f8 <_svfprintf_r+0xc3e>
   10ce6:	0cc1                	add	s9,s9,16
   10ce8:	76c6                	ld	a3,112(sp)
   10cea:	2405                	addw	s0,s0,1
   10cec:	119c                	add	a5,sp,224
   10cee:	01a68733          	add	a4,a3,s10
   10cf2:	00fcb023          	sd	a5,0(s9)
   10cf6:	00dcb423          	sd	a3,8(s9)
   10cfa:	10812423          	sw	s0,264(sp)
   10cfe:	0004069b          	sext.w	a3,s0
   10d02:	ea3a                	sd	a4,272(sp)
   10d04:	479d                	li	a5,7
   10d06:	010c8413          	add	s0,s9,16
   10d0a:	dcd7d7e3          	bge	a5,a3,10ad8 <_svfprintf_r+0x21e>
   10d0e:	6582                	ld	a1,0(sp)
   10d10:	0210                	add	a2,sp,256
   10d12:	854e                	mv	a0,s3
   10d14:	334050ef          	jal	16048 <__ssprint_r>
   10d18:	52051763          	bnez	a0,11246 <_svfprintf_r+0x98c>
   10d1c:	6752                	ld	a4,272(sp)
   10d1e:	0300                	add	s0,sp,384
   10d20:	bb65                	j	10ad8 <_svfprintf_r+0x21e>
   10d22:	7702                	ld	a4,32(sp)
   10d24:	0c0107a3          	sb	zero,207(sp)
   10d28:	4c05                	li	s8,1
   10d2a:	431c                	lw	a5,0(a4)
   10d2c:	0721                	add	a4,a4,8
   10d2e:	f03a                	sd	a4,32(sp)
   10d30:	10f10c23          	sb	a5,280(sp)
   10d34:	4d85                	li	s11,1
   10d36:	11810b13          	add	s6,sp,280
   10d3a:	b1fd                	j	10a28 <_svfprintf_r+0x16e>
   10d3c:	7782                	ld	a5,32(sp)
   10d3e:	0c0107a3          	sb	zero,207(sp)
   10d42:	8356                	mv	t1,s5
   10d44:	0007bb03          	ld	s6,0(a5)
   10d48:	00878a93          	add	s5,a5,8
   10d4c:	580b09e3          	beqz	s6,11ade <_svfprintf_r+0x1224>
   10d50:	577d                	li	a4,-1
   10d52:	2ce305e3          	beq	t1,a4,1181c <_svfprintf_r+0xf62>
   10d56:	861a                	mv	a2,t1
   10d58:	4581                	li	a1,0
   10d5a:	855a                	mv	a0,s6
   10d5c:	f01a                	sd	t1,32(sp)
   10d5e:	27a040ef          	jal	14fd8 <memchr>
   10d62:	ec2a                	sd	a0,24(sp)
   10d64:	7302                	ld	t1,32(sp)
   10d66:	e119                	bnez	a0,10d6c <_svfprintf_r+0x4b2>
   10d68:	3c60106f          	j	1212e <_svfprintf_r+0x1874>
   10d6c:	67e2                	ld	a5,24(sp)
   10d6e:	41678dbb          	subw	s11,a5,s6
   10d72:	0cf14703          	lbu	a4,207(sp)
   10d76:	fffdc813          	not	a6,s11
   10d7a:	43f85813          	sra	a6,a6,0x3f
   10d7e:	f056                	sd	s5,32(sp)
   10d80:	ec02                	sd	zero,24(sp)
   10d82:	e482                	sd	zero,72(sp)
   10d84:	e082                	sd	zero,64(sp)
   10d86:	f802                	sd	zero,48(sp)
   10d88:	01b87c33          	and	s8,a6,s11
   10d8c:	4301                	li	t1,0
   10d8e:	ca0702e3          	beqz	a4,10a32 <_svfprintf_r+0x178>
   10d92:	2c05                	addw	s8,s8,1
   10d94:	b979                	j	10a32 <_svfprintf_r+0x178>
   10d96:	7782                	ld	a5,32(sp)
   10d98:	0007aa03          	lw	s4,0(a5)
   10d9c:	07a1                	add	a5,a5,8
   10d9e:	0a0a50e3          	bgez	s4,1163e <_svfprintf_r+0xd84>
   10da2:	41400a3b          	negw	s4,s4
   10da6:	f03e                	sd	a5,32(sp)
   10da8:	00496913          	or	s2,s2,4
   10dac:	0004ce03          	lbu	t3,0(s1)
   10db0:	2901                	sext.w	s2,s2
   10db2:	b129                	j	109bc <_svfprintf_r+0x102>
   10db4:	02b00793          	li	a5,43
   10db8:	0004ce03          	lbu	t3,0(s1)
   10dbc:	0cf107a3          	sb	a5,207(sp)
   10dc0:	bef5                	j	109bc <_svfprintf_r+0x102>
   10dc2:	08096913          	or	s2,s2,128
   10dc6:	0004ce03          	lbu	t3,0(s1)
   10dca:	2901                	sext.w	s2,s2
   10dcc:	bec5                	j	109bc <_svfprintf_r+0x102>
   10dce:	0004cd03          	lbu	s10,0(s1)
   10dd2:	02a00693          	li	a3,42
   10dd6:	00148793          	add	a5,s1,1
   10dda:	00dd1463          	bne	s10,a3,10de2 <_svfprintf_r+0x528>
   10dde:	59c0106f          	j	1237a <_svfprintf_r+0x1ac0>
   10de2:	fd0d071b          	addw	a4,s10,-48
   10de6:	4625                	li	a2,9
   10de8:	84be                	mv	s1,a5
   10dea:	4a81                	li	s5,0
   10dec:	46a5                	li	a3,9
   10dee:	bce66ae3          	bltu	a2,a4,109c2 <_svfprintf_r+0x108>
   10df2:	0004cd03          	lbu	s10,0(s1)
   10df6:	002a979b          	sllw	a5,s5,0x2
   10dfa:	0157833b          	addw	t1,a5,s5
   10dfe:	0013131b          	sllw	t1,t1,0x1
   10e02:	00e30abb          	addw	s5,t1,a4
   10e06:	fd0d071b          	addw	a4,s10,-48
   10e0a:	0485                	add	s1,s1,1
   10e0c:	fee6f3e3          	bgeu	a3,a4,10df2 <_svfprintf_r+0x538>
   10e10:	be4d                	j	109c2 <_svfprintf_r+0x108>
   10e12:	854e                	mv	a0,s3
   10e14:	2ed030ef          	jal	14900 <_localeconv_r>
   10e18:	651c                	ld	a5,8(a0)
   10e1a:	853e                	mv	a0,a5
   10e1c:	e53e                	sd	a5,136(sp)
   10e1e:	128050ef          	jal	15f46 <strlen>
   10e22:	87aa                	mv	a5,a0
   10e24:	854e                	mv	a0,s3
   10e26:	8c3e                	mv	s8,a5
   10e28:	e13e                	sd	a5,128(sp)
   10e2a:	2d7030ef          	jal	14900 <_localeconv_r>
   10e2e:	691c                	ld	a5,16(a0)
   10e30:	0004ce03          	lbu	t3,0(s1)
   10e34:	fcbe                	sd	a5,120(sp)
   10e36:	b80c03e3          	beqz	s8,109bc <_svfprintf_r+0x102>
   10e3a:	b80781e3          	beqz	a5,109bc <_svfprintf_r+0x102>
   10e3e:	0007c783          	lbu	a5,0(a5)
   10e42:	b6078de3          	beqz	a5,109bc <_svfprintf_r+0x102>
   10e46:	40096913          	or	s2,s2,1024
   10e4a:	2901                	sext.w	s2,s2
   10e4c:	be85                	j	109bc <_svfprintf_r+0x102>
   10e4e:	00196913          	or	s2,s2,1
   10e52:	0004ce03          	lbu	t3,0(s1)
   10e56:	2901                	sext.w	s2,s2
   10e58:	b695                	j	109bc <_svfprintf_r+0x102>
   10e5a:	0cf14783          	lbu	a5,207(sp)
   10e5e:	0004ce03          	lbu	t3,0(s1)
   10e62:	b4079de3          	bnez	a5,109bc <_svfprintf_r+0x102>
   10e66:	02000793          	li	a5,32
   10e6a:	0cf107a3          	sb	a5,207(sp)
   10e6e:	b6b9                	j	109bc <_svfprintf_r+0x102>
   10e70:	01096c93          	or	s9,s2,16
   10e74:	8356                	mv	t1,s5
   10e76:	2c81                	sext.w	s9,s9
   10e78:	7682                	ld	a3,32(sp)
   10e7a:	020cf793          	and	a5,s9,32
   10e7e:	00868713          	add	a4,a3,8
   10e82:	70078d63          	beqz	a5,1159c <_svfprintf_r+0xce2>
   10e86:	0006bb83          	ld	s7,0(a3)
   10e8a:	4785                	li	a5,1
   10e8c:	f03a                	sd	a4,32(sp)
   10e8e:	4701                	li	a4,0
   10e90:	0ce107a3          	sb	a4,207(sp)
   10e94:	577d                	li	a4,-1
   10e96:	1ee30a63          	beq	t1,a4,1108a <_svfprintf_r+0x7d0>
   10e9a:	f7fcf913          	and	s2,s9,-129
   10e9e:	2901                	sext.w	s2,s2
   10ea0:	1e0b9463          	bnez	s7,11088 <_svfprintf_r+0x7ce>
   10ea4:	22031763          	bnez	t1,110d2 <_svfprintf_r+0x818>
   10ea8:	74079363          	bnez	a5,115ee <_svfprintf_r+0xd34>
   10eac:	001cfd93          	and	s11,s9,1
   10eb0:	17c10b13          	add	s6,sp,380
   10eb4:	780d9a63          	bnez	s11,11648 <_svfprintf_r+0xd8e>
   10eb8:	0cf14703          	lbu	a4,207(sp)
   10ebc:	881a                	mv	a6,t1
   10ebe:	01b35363          	bge	t1,s11,10ec4 <_svfprintf_r+0x60a>
   10ec2:	886e                	mv	a6,s11
   10ec4:	ec02                	sd	zero,24(sp)
   10ec6:	e482                	sd	zero,72(sp)
   10ec8:	e082                	sd	zero,64(sp)
   10eca:	f802                	sd	zero,48(sp)
   10ecc:	00080c1b          	sext.w	s8,a6
   10ed0:	ec0711e3          	bnez	a4,10d92 <_svfprintf_r+0x4d8>
   10ed4:	beb9                	j	10a32 <_svfprintf_r+0x178>
   10ed6:	00896913          	or	s2,s2,8
   10eda:	0004ce03          	lbu	t3,0(s1)
   10ede:	2901                	sext.w	s2,s2
   10ee0:	bcf1                	j	109bc <_svfprintf_r+0x102>
   10ee2:	01096913          	or	s2,s2,16
   10ee6:	8356                	mv	t1,s5
   10ee8:	2901                	sext.w	s2,s2
   10eea:	7682                	ld	a3,32(sp)
   10eec:	02097793          	and	a5,s2,32
   10ef0:	00868713          	add	a4,a3,8
   10ef4:	6c078463          	beqz	a5,115bc <_svfprintf_r+0xd02>
   10ef8:	629c                	ld	a5,0(a3)
   10efa:	8bbe                	mv	s7,a5
   10efc:	6e07c163          	bltz	a5,115de <_svfprintf_r+0xd24>
   10f00:	57fd                	li	a5,-1
   10f02:	3ef30763          	beq	t1,a5,112f0 <_svfprintf_r+0xa36>
   10f06:	f7f97c93          	and	s9,s2,-129
   10f0a:	2c81                	sext.w	s9,s9
   10f0c:	7a0b9663          	bnez	s7,116b8 <_svfprintf_r+0xdfe>
   10f10:	00030463          	beqz	t1,10f18 <_svfprintf_r+0x65e>
   10f14:	3a80106f          	j	122bc <_svfprintf_r+0x1a02>
   10f18:	4d81                	li	s11,0
   10f1a:	f03a                	sd	a4,32(sp)
   10f1c:	8966                	mv	s2,s9
   10f1e:	17c10b13          	add	s6,sp,380
   10f22:	bf59                	j	10eb8 <_svfprintf_r+0x5fe>
   10f24:	01096913          	or	s2,s2,16
   10f28:	8356                	mv	t1,s5
   10f2a:	2901                	sext.w	s2,s2
   10f2c:	7682                	ld	a3,32(sp)
   10f2e:	02097793          	and	a5,s2,32
   10f32:	00868713          	add	a4,a3,8
   10f36:	64078563          	beqz	a5,11580 <_svfprintf_r+0xcc6>
   10f3a:	0006bb83          	ld	s7,0(a3)
   10f3e:	bff97c93          	and	s9,s2,-1025
   10f42:	2c81                	sext.w	s9,s9
   10f44:	f03a                	sd	a4,32(sp)
   10f46:	4781                	li	a5,0
   10f48:	b799                	j	10e8e <_svfprintf_r+0x5d4>
   10f4a:	02096913          	or	s2,s2,32
   10f4e:	0004ce03          	lbu	t3,0(s1)
   10f52:	2901                	sext.w	s2,s2
   10f54:	b4a5                	j	109bc <_svfprintf_r+0x102>
   10f56:	7702                	ld	a4,32(sp)
   10f58:	02097793          	and	a5,s2,32
   10f5c:	6318                	ld	a4,0(a4)
   10f5e:	70078b63          	beqz	a5,11674 <_svfprintf_r+0xdba>
   10f62:	67c2                	ld	a5,16(sp)
   10f64:	e31c                	sd	a5,0(a4)
   10f66:	7782                	ld	a5,32(sp)
   10f68:	8b26                	mv	s6,s1
   10f6a:	07a1                	add	a5,a5,8
   10f6c:	f03e                	sd	a5,32(sp)
   10f6e:	b645                	j	10b0e <_svfprintf_r+0x254>
   10f70:	0004ce03          	lbu	t3,0(s1)
   10f74:	06c00793          	li	a5,108
   10f78:	02fe01e3          	beq	t3,a5,1179a <_svfprintf_r+0xee0>
   10f7c:	01096913          	or	s2,s2,16
   10f80:	2901                	sext.w	s2,s2
   10f82:	bc2d                	j	109bc <_svfprintf_r+0x102>
   10f84:	0004ce03          	lbu	t3,0(s1)
   10f88:	06800793          	li	a5,104
   10f8c:	7efe0f63          	beq	t3,a5,1178a <_svfprintf_r+0xed0>
   10f90:	04096913          	or	s2,s2,64
   10f94:	2901                	sext.w	s2,s2
   10f96:	b41d                	j	109bc <_svfprintf_r+0x102>
   10f98:	7702                	ld	a4,32(sp)
   10f9a:	77e1                	lui	a5,0xffff8
   10f9c:	8307c793          	xor	a5,a5,-2000
   10fa0:	0cf11823          	sh	a5,208(sp)
   10fa4:	00870793          	add	a5,a4,8
   10fa8:	f03e                	sd	a5,32(sp)
   10faa:	67ed                	lui	a5,0x1b
   10fac:	0b078793          	add	a5,a5,176 # 1b0b0 <__clzdi2+0x8e>
   10fb0:	00296c93          	or	s9,s2,2
   10fb4:	f4be                	sd	a5,104(sp)
   10fb6:	00073b83          	ld	s7,0(a4)
   10fba:	8356                	mv	t1,s5
   10fbc:	2c81                	sext.w	s9,s9
   10fbe:	4789                	li	a5,2
   10fc0:	07800d13          	li	s10,120
   10fc4:	b5e9                	j	10e8e <_svfprintf_r+0x5d4>
   10fc6:	06500693          	li	a3,101
   10fca:	c9a6dde3          	bge	a3,s10,10c64 <_svfprintf_r+0x3aa>
   10fce:	754e                	ld	a0,240(sp)
   10fd0:	75ee                	ld	a1,248(sp)
   10fd2:	4601                	li	a2,0
   10fd4:	4681                	li	a3,0
   10fd6:	2b5080ef          	jal	19a8a <__eqtf2>
   10fda:	3c051563          	bnez	a0,113a4 <_svfprintf_r+0xaea>
   10fde:	10812783          	lw	a5,264(sp)
   10fe2:	66ed                	lui	a3,0x1b
   10fe4:	0d068693          	add	a3,a3,208 # 1b0d0 <__clzdi2+0xae>
   10fe8:	2785                	addw	a5,a5,1
   10fea:	e014                	sd	a3,0(s0)
   10fec:	0b85                	add	s7,s7,1
   10fee:	4685                	li	a3,1
   10ff0:	e414                	sd	a3,8(s0)
   10ff2:	10f12423          	sw	a5,264(sp)
   10ff6:	0007869b          	sext.w	a3,a5
   10ffa:	ea5e                	sd	s7,272(sp)
   10ffc:	479d                	li	a5,7
   10ffe:	0441                	add	s0,s0,16
   11000:	22d7c7e3          	blt	a5,a3,11a2e <_svfprintf_r+0x1174>
   11004:	47ee                	lw	a5,216(sp)
   11006:	7762                	ld	a4,56(sp)
   11008:	62e7d363          	bge	a5,a4,1162e <_svfprintf_r+0xd74>
   1100c:	66e6                	ld	a3,88(sp)
   1100e:	10812783          	lw	a5,264(sp)
   11012:	7606                	ld	a2,96(sp)
   11014:	01768733          	add	a4,a3,s7
   11018:	2785                	addw	a5,a5,1
   1101a:	e414                	sd	a3,8(s0)
   1101c:	e010                	sd	a2,0(s0)
   1101e:	0007869b          	sext.w	a3,a5
   11022:	10f12423          	sw	a5,264(sp)
   11026:	ea3a                	sd	a4,272(sp)
   11028:	479d                	li	a5,7
   1102a:	0441                	add	s0,s0,16
   1102c:	72d7cc63          	blt	a5,a3,11764 <_svfprintf_r+0xeaa>
   11030:	77e2                	ld	a5,56(sp)
   11032:	fff78c9b          	addw	s9,a5,-1
   11036:	ab9051e3          	blez	s9,10ad8 <_svfprintf_r+0x21e>
   1103a:	6f6d                	lui	t5,0x1b
   1103c:	46c1                	li	a3,16
   1103e:	10812783          	lw	a5,264(sp)
   11042:	2d8f0b93          	add	s7,t5,728 # 1b2d8 <zeroes.0>
   11046:	1f96dfe3          	bge	a3,s9,11a44 <_svfprintf_r+0x118a>
   1104a:	6a82                	ld	s5,0(sp)
   1104c:	4d41                	li	s10,16
   1104e:	4d9d                	li	s11,7
   11050:	a021                	j	11058 <_svfprintf_r+0x79e>
   11052:	3cc1                	addw	s9,s9,-16
   11054:	1f9d58e3          	bge	s10,s9,11a44 <_svfprintf_r+0x118a>
   11058:	2785                	addw	a5,a5,1
   1105a:	0741                	add	a4,a4,16
   1105c:	01743023          	sd	s7,0(s0)
   11060:	01a43423          	sd	s10,8(s0)
   11064:	ea3a                	sd	a4,272(sp)
   11066:	10f12423          	sw	a5,264(sp)
   1106a:	0441                	add	s0,s0,16
   1106c:	fefdd3e3          	bge	s11,a5,11052 <_svfprintf_r+0x798>
   11070:	0210                	add	a2,sp,256
   11072:	85d6                	mv	a1,s5
   11074:	854e                	mv	a0,s3
   11076:	7d3040ef          	jal	16048 <__ssprint_r>
   1107a:	1c051663          	bnez	a0,11246 <_svfprintf_r+0x98c>
   1107e:	6752                	ld	a4,272(sp)
   11080:	10812783          	lw	a5,264(sp)
   11084:	0300                	add	s0,sp,384
   11086:	b7f1                	j	11052 <_svfprintf_r+0x798>
   11088:	8cca                	mv	s9,s2
   1108a:	4705                	li	a4,1
   1108c:	26e78463          	beq	a5,a4,112f4 <_svfprintf_r+0xa3a>
   11090:	4709                	li	a4,2
   11092:	04e78963          	beq	a5,a4,110e4 <_svfprintf_r+0x82a>
   11096:	17c10a93          	add	s5,sp,380
   1109a:	8b56                	mv	s6,s5
   1109c:	007bf713          	and	a4,s7,7
   110a0:	03070713          	add	a4,a4,48
   110a4:	feeb0fa3          	sb	a4,-1(s6)
   110a8:	003bdb93          	srl	s7,s7,0x3
   110ac:	865a                	mv	a2,s6
   110ae:	1b7d                	add	s6,s6,-1
   110b0:	fe0b96e3          	bnez	s7,1109c <_svfprintf_r+0x7e2>
   110b4:	001cf593          	and	a1,s9,1
   110b8:	c5b1                	beqz	a1,11104 <_svfprintf_r+0x84a>
   110ba:	03000593          	li	a1,48
   110be:	04b70363          	beq	a4,a1,11104 <_svfprintf_r+0x84a>
   110c2:	1679                	add	a2,a2,-2
   110c4:	febb0fa3          	sb	a1,-1(s6)
   110c8:	40ca8dbb          	subw	s11,s5,a2
   110cc:	8966                	mv	s2,s9
   110ce:	8b32                	mv	s6,a2
   110d0:	b3e5                	j	10eb8 <_svfprintf_r+0x5fe>
   110d2:	4705                	li	a4,1
   110d4:	00e79463          	bne	a5,a4,110dc <_svfprintf_r+0x822>
   110d8:	0a00106f          	j	12178 <_svfprintf_r+0x18be>
   110dc:	4709                	li	a4,2
   110de:	8cca                	mv	s9,s2
   110e0:	fae79be3          	bne	a5,a4,11096 <_svfprintf_r+0x7dc>
   110e4:	7726                	ld	a4,104(sp)
   110e6:	17c10a93          	add	s5,sp,380
   110ea:	8b56                	mv	s6,s5
   110ec:	00fbf793          	and	a5,s7,15
   110f0:	97ba                	add	a5,a5,a4
   110f2:	0007c783          	lbu	a5,0(a5)
   110f6:	004bdb93          	srl	s7,s7,0x4
   110fa:	1b7d                	add	s6,s6,-1
   110fc:	00fb0023          	sb	a5,0(s6)
   11100:	fe0b96e3          	bnez	s7,110ec <_svfprintf_r+0x832>
   11104:	416a8dbb          	subw	s11,s5,s6
   11108:	8966                	mv	s2,s9
   1110a:	b37d                	j	10eb8 <_svfprintf_r+0x5fe>
   1110c:	418a0abb          	subw	s5,s4,s8
   11110:	99505be3          	blez	s5,10aa6 <_svfprintf_r+0x1ec>
   11114:	6f6d                	lui	t5,0x1b
   11116:	45c1                	li	a1,16
   11118:	875e                	mv	a4,s7
   1111a:	10812603          	lw	a2,264(sp)
   1111e:	2d8f0b93          	add	s7,t5,728 # 1b2d8 <zeroes.0>
   11122:	0755d063          	bge	a1,s5,11182 <_svfprintf_r+0x8c8>
   11126:	e926                	sd	s1,144(sp)
   11128:	4fc1                	li	t6,16
   1112a:	84d6                	mv	s1,s5
   1112c:	4c9d                	li	s9,7
   1112e:	8ad2                	mv	s5,s4
   11130:	8a4a                	mv	s4,s2
   11132:	895e                	mv	s2,s7
   11134:	8bda                	mv	s7,s6
   11136:	8b1a                	mv	s6,t1
   11138:	a021                	j	11140 <_svfprintf_r+0x886>
   1113a:	34c1                	addw	s1,s1,-16
   1113c:	029fdc63          	bge	t6,s1,11174 <_svfprintf_r+0x8ba>
   11140:	2605                	addw	a2,a2,1
   11142:	0741                	add	a4,a4,16
   11144:	01243023          	sd	s2,0(s0)
   11148:	01f43423          	sd	t6,8(s0)
   1114c:	ea3a                	sd	a4,272(sp)
   1114e:	10c12423          	sw	a2,264(sp)
   11152:	0441                	add	s0,s0,16
   11154:	feccd3e3          	bge	s9,a2,1113a <_svfprintf_r+0x880>
   11158:	6582                	ld	a1,0(sp)
   1115a:	0210                	add	a2,sp,256
   1115c:	854e                	mv	a0,s3
   1115e:	6eb040ef          	jal	16048 <__ssprint_r>
   11162:	e175                	bnez	a0,11246 <_svfprintf_r+0x98c>
   11164:	4fc1                	li	t6,16
   11166:	34c1                	addw	s1,s1,-16
   11168:	6752                	ld	a4,272(sp)
   1116a:	10812603          	lw	a2,264(sp)
   1116e:	0300                	add	s0,sp,384
   11170:	fc9fc8e3          	blt	t6,s1,11140 <_svfprintf_r+0x886>
   11174:	835a                	mv	t1,s6
   11176:	8b5e                	mv	s6,s7
   11178:	8bca                	mv	s7,s2
   1117a:	8952                	mv	s2,s4
   1117c:	8a56                	mv	s4,s5
   1117e:	8aa6                	mv	s5,s1
   11180:	64ca                	ld	s1,144(sp)
   11182:	0016059b          	addw	a1,a2,1
   11186:	9756                	add	a4,a4,s5
   11188:	01743023          	sd	s7,0(s0)
   1118c:	01543423          	sd	s5,8(s0)
   11190:	ea3a                	sd	a4,272(sp)
   11192:	10b12423          	sw	a1,264(sp)
   11196:	461d                	li	a2,7
   11198:	0eb647e3          	blt	a2,a1,11a86 <_svfprintf_r+0x11cc>
   1119c:	41b30cbb          	subw	s9,t1,s11
   111a0:	0441                	add	s0,s0,16
   111a2:	8bba                	mv	s7,a4
   111a4:	919055e3          	blez	s9,10aae <_svfprintf_r+0x1f4>
   111a8:	6f6d                	lui	t5,0x1b
   111aa:	45c1                	li	a1,16
   111ac:	875e                	mv	a4,s7
   111ae:	10812603          	lw	a2,264(sp)
   111b2:	2d8f0b93          	add	s7,t5,728 # 1b2d8 <zeroes.0>
   111b6:	0795d163          	bge	a1,s9,11218 <_svfprintf_r+0x95e>
   111ba:	6ba2                	ld	s7,8(sp)
   111bc:	48c1                	li	a7,16
   111be:	4a9d                	li	s5,7
   111c0:	87de                	mv	a5,s7
   111c2:	8bda                	mv	s7,s6
   111c4:	8b52                	mv	s6,s4
   111c6:	8a4a                	mv	s4,s2
   111c8:	8926                	mv	s2,s1
   111ca:	84e6                	mv	s1,s9
   111cc:	8cbe                	mv	s9,a5
   111ce:	a021                	j	111d6 <_svfprintf_r+0x91c>
   111d0:	34c1                	addw	s1,s1,-16
   111d2:	0298dc63          	bge	a7,s1,1120a <_svfprintf_r+0x950>
   111d6:	66a2                	ld	a3,8(sp)
   111d8:	2605                	addw	a2,a2,1
   111da:	0741                	add	a4,a4,16
   111dc:	e014                	sd	a3,0(s0)
   111de:	01143423          	sd	a7,8(s0)
   111e2:	ea3a                	sd	a4,272(sp)
   111e4:	10c12423          	sw	a2,264(sp)
   111e8:	0441                	add	s0,s0,16
   111ea:	fecad3e3          	bge	s5,a2,111d0 <_svfprintf_r+0x916>
   111ee:	6582                	ld	a1,0(sp)
   111f0:	0210                	add	a2,sp,256
   111f2:	854e                	mv	a0,s3
   111f4:	655040ef          	jal	16048 <__ssprint_r>
   111f8:	e539                	bnez	a0,11246 <_svfprintf_r+0x98c>
   111fa:	48c1                	li	a7,16
   111fc:	34c1                	addw	s1,s1,-16
   111fe:	6752                	ld	a4,272(sp)
   11200:	10812603          	lw	a2,264(sp)
   11204:	0300                	add	s0,sp,384
   11206:	fc98c8e3          	blt	a7,s1,111d6 <_svfprintf_r+0x91c>
   1120a:	87e6                	mv	a5,s9
   1120c:	8ca6                	mv	s9,s1
   1120e:	84ca                	mv	s1,s2
   11210:	8952                	mv	s2,s4
   11212:	8a5a                	mv	s4,s6
   11214:	8b5e                	mv	s6,s7
   11216:	8bbe                	mv	s7,a5
   11218:	0016059b          	addw	a1,a2,1
   1121c:	9766                	add	a4,a4,s9
   1121e:	01743023          	sd	s7,0(s0)
   11222:	01943423          	sd	s9,8(s0)
   11226:	ea3a                	sd	a4,272(sp)
   11228:	10b12423          	sw	a1,264(sp)
   1122c:	461d                	li	a2,7
   1122e:	32b64e63          	blt	a2,a1,1156a <_svfprintf_r+0xcb0>
   11232:	0441                	add	s0,s0,16
   11234:	8bba                	mv	s7,a4
   11236:	b8a5                	j	10aae <_svfprintf_r+0x1f4>
   11238:	6582                	ld	a1,0(sp)
   1123a:	0210                	add	a2,sp,256
   1123c:	854e                	mv	a0,s3
   1123e:	60b040ef          	jal	16048 <__ssprint_r>
   11242:	8a050ce3          	beqz	a0,10afa <_svfprintf_r+0x240>
   11246:	65e2                	ld	a1,24(sp)
   11248:	8c058be3          	beqz	a1,10b1e <_svfprintf_r+0x264>
   1124c:	6546                	ld	a0,80(sp)
   1124e:	35c010ef          	jal	125aa <_free_r>
   11252:	b0f1                	j	10b1e <_svfprintf_r+0x264>
   11254:	68ed                	lui	a7,0x1b
   11256:	4541                	li	a0,16
   11258:	65d2                	ld	a1,272(sp)
   1125a:	10812603          	lw	a2,264(sp)
   1125e:	2e888b93          	add	s7,a7,744 # 1b2e8 <blanks.1>
   11262:	04e55e63          	bge	a0,a4,112be <_svfprintf_r+0xa04>
   11266:	e926                	sd	s1,144(sp)
   11268:	87a2                	mv	a5,s0
   1126a:	84de                	mv	s1,s7
   1126c:	4f41                	li	t5,16
   1126e:	8bda                	mv	s7,s6
   11270:	439d                	li	t2,7
   11272:	843a                	mv	s0,a4
   11274:	8b1a                	mv	s6,t1
   11276:	a021                	j	1127e <_svfprintf_r+0x9c4>
   11278:	3441                	addw	s0,s0,-16
   1127a:	028f5c63          	bge	t5,s0,112b2 <_svfprintf_r+0x9f8>
   1127e:	2605                	addw	a2,a2,1
   11280:	05c1                	add	a1,a1,16
   11282:	e384                	sd	s1,0(a5)
   11284:	01e7b423          	sd	t5,8(a5)
   11288:	ea2e                	sd	a1,272(sp)
   1128a:	10c12423          	sw	a2,264(sp)
   1128e:	07c1                	add	a5,a5,16
   11290:	fec3d4e3          	bge	t2,a2,11278 <_svfprintf_r+0x9be>
   11294:	6582                	ld	a1,0(sp)
   11296:	0210                	add	a2,sp,256
   11298:	854e                	mv	a0,s3
   1129a:	5af040ef          	jal	16048 <__ssprint_r>
   1129e:	f545                	bnez	a0,11246 <_svfprintf_r+0x98c>
   112a0:	4f41                	li	t5,16
   112a2:	3441                	addw	s0,s0,-16
   112a4:	65d2                	ld	a1,272(sp)
   112a6:	10812603          	lw	a2,264(sp)
   112aa:	031c                	add	a5,sp,384
   112ac:	439d                	li	t2,7
   112ae:	fc8f48e3          	blt	t5,s0,1127e <_svfprintf_r+0x9c4>
   112b2:	835a                	mv	t1,s6
   112b4:	8b5e                	mv	s6,s7
   112b6:	8ba6                	mv	s7,s1
   112b8:	64ca                	ld	s1,144(sp)
   112ba:	8722                	mv	a4,s0
   112bc:	843e                	mv	s0,a5
   112be:	95ba                	add	a1,a1,a4
   112c0:	2605                	addw	a2,a2,1
   112c2:	e418                	sd	a4,8(s0)
   112c4:	01743023          	sd	s7,0(s0)
   112c8:	ea2e                	sd	a1,272(sp)
   112ca:	10c12423          	sw	a2,264(sp)
   112ce:	0006059b          	sext.w	a1,a2
   112d2:	471d                	li	a4,7
   112d4:	0441                	add	s0,s0,16
   112d6:	f6b75b63          	bge	a4,a1,10a4c <_svfprintf_r+0x192>
   112da:	6582                	ld	a1,0(sp)
   112dc:	0210                	add	a2,sp,256
   112de:	854e                	mv	a0,s3
   112e0:	e91a                	sd	t1,144(sp)
   112e2:	567040ef          	jal	16048 <__ssprint_r>
   112e6:	f125                	bnez	a0,11246 <_svfprintf_r+0x98c>
   112e8:	634a                	ld	t1,144(sp)
   112ea:	0300                	add	s0,sp,384
   112ec:	f60ff06f          	j	10a4c <_svfprintf_r+0x192>
   112f0:	8cca                	mv	s9,s2
   112f2:	f03a                	sd	a4,32(sp)
   112f4:	47a5                	li	a5,9
   112f6:	3d77e563          	bltu	a5,s7,116c0 <_svfprintf_r+0xe06>
   112fa:	030b8b9b          	addw	s7,s7,48
   112fe:	17710da3          	sb	s7,379(sp)
   11302:	8966                	mv	s2,s9
   11304:	4d85                	li	s11,1
   11306:	17b10b13          	add	s6,sp,379
   1130a:	b67d                	j	10eb8 <_svfprintf_r+0x5fe>
   1130c:	6582                	ld	a1,0(sp)
   1130e:	0210                	add	a2,sp,256
   11310:	854e                	mv	a0,s3
   11312:	e91a                	sd	t1,144(sp)
   11314:	535040ef          	jal	16048 <__ssprint_r>
   11318:	f51d                	bnez	a0,11246 <_svfprintf_r+0x98c>
   1131a:	6bd2                	ld	s7,272(sp)
   1131c:	634a                	ld	t1,144(sp)
   1131e:	0300                	add	s0,sp,384
   11320:	f7eff06f          	j	10a9e <_svfprintf_r+0x1e4>
   11324:	68ed                	lui	a7,0x1b
   11326:	46c1                	li	a3,16
   11328:	10812783          	lw	a5,264(sp)
   1132c:	2e888b93          	add	s7,a7,744 # 1b2e8 <blanks.1>
   11330:	0526d363          	bge	a3,s2,11376 <_svfprintf_r+0xabc>
   11334:	6a82                	ld	s5,0(sp)
   11336:	4cc1                	li	s9,16
   11338:	4d1d                	li	s10,7
   1133a:	a021                	j	11342 <_svfprintf_r+0xa88>
   1133c:	3941                	addw	s2,s2,-16
   1133e:	032cdc63          	bge	s9,s2,11376 <_svfprintf_r+0xabc>
   11342:	2785                	addw	a5,a5,1
   11344:	0741                	add	a4,a4,16
   11346:	01743023          	sd	s7,0(s0)
   1134a:	01943423          	sd	s9,8(s0)
   1134e:	ea3a                	sd	a4,272(sp)
   11350:	10f12423          	sw	a5,264(sp)
   11354:	0441                	add	s0,s0,16
   11356:	fefd53e3          	bge	s10,a5,1133c <_svfprintf_r+0xa82>
   1135a:	0210                	add	a2,sp,256
   1135c:	85d6                	mv	a1,s5
   1135e:	854e                	mv	a0,s3
   11360:	4e9040ef          	jal	16048 <__ssprint_r>
   11364:	ee0511e3          	bnez	a0,11246 <_svfprintf_r+0x98c>
   11368:	3941                	addw	s2,s2,-16
   1136a:	6752                	ld	a4,272(sp)
   1136c:	10812783          	lw	a5,264(sp)
   11370:	0300                	add	s0,sp,384
   11372:	fd2cc8e3          	blt	s9,s2,11342 <_svfprintf_r+0xa88>
   11376:	0017869b          	addw	a3,a5,1
   1137a:	974a                	add	a4,a4,s2
   1137c:	01743023          	sd	s7,0(s0)
   11380:	01243423          	sd	s2,8(s0)
   11384:	ea3a                	sd	a4,272(sp)
   11386:	10d12423          	sw	a3,264(sp)
   1138a:	479d                	li	a5,7
   1138c:	f4d7de63          	bge	a5,a3,10ae8 <_svfprintf_r+0x22e>
   11390:	6582                	ld	a1,0(sp)
   11392:	0210                	add	a2,sp,256
   11394:	854e                	mv	a0,s3
   11396:	4b3040ef          	jal	16048 <__ssprint_r>
   1139a:	ea0516e3          	bnez	a0,11246 <_svfprintf_r+0x98c>
   1139e:	6752                	ld	a4,272(sp)
   113a0:	f48ff06f          	j	10ae8 <_svfprintf_r+0x22e>
   113a4:	466e                	lw	a2,216(sp)
   113a6:	5ec05363          	blez	a2,1198c <_svfprintf_r+0x10d2>
   113aa:	77e2                	ld	a5,56(sp)
   113ac:	7742                	ld	a4,48(sp)
   113ae:	00fb0ab3          	add	s5,s6,a5
   113b2:	86be                	mv	a3,a5
   113b4:	2ef74c63          	blt	a4,a5,116ac <_svfprintf_r+0xdf2>
   113b8:	00068d1b          	sext.w	s10,a3
   113bc:	03a05263          	blez	s10,113e0 <_svfprintf_r+0xb26>
   113c0:	10812603          	lw	a2,264(sp)
   113c4:	9bea                	add	s7,s7,s10
   113c6:	01643023          	sd	s6,0(s0)
   113ca:	0016059b          	addw	a1,a2,1
   113ce:	01a43423          	sd	s10,8(s0)
   113d2:	ea5e                	sd	s7,272(sp)
   113d4:	10b12423          	sw	a1,264(sp)
   113d8:	461d                	li	a2,7
   113da:	0441                	add	s0,s0,16
   113dc:	06b647e3          	blt	a2,a1,11c4a <_svfprintf_r+0x1390>
   113e0:	fffd4613          	not	a2,s10
   113e4:	77c2                	ld	a5,48(sp)
   113e6:	967d                	sra	a2,a2,0x3f
   113e8:	00cd76b3          	and	a3,s10,a2
   113ec:	40d78d3b          	subw	s10,a5,a3
   113f0:	3da04d63          	bgtz	s10,117ca <_svfprintf_r+0xf10>
   113f4:	77c2                	ld	a5,48(sp)
   113f6:	40097693          	and	a3,s2,1024
   113fa:	9b3e                	add	s6,s6,a5
   113fc:	42069763          	bnez	a3,1182a <_svfprintf_r+0xf70>
   11400:	46ee                	lw	a3,216(sp)
   11402:	77e2                	ld	a5,56(sp)
   11404:	00f6c663          	blt	a3,a5,11410 <_svfprintf_r+0xb56>
   11408:	00197613          	and	a2,s2,1
   1140c:	04060ce3          	beqz	a2,11c64 <_svfprintf_r+0x13aa>
   11410:	10812603          	lw	a2,264(sp)
   11414:	67e6                	ld	a5,88(sp)
   11416:	7586                	ld	a1,96(sp)
   11418:	0441                	add	s0,s0,16
   1141a:	01778733          	add	a4,a5,s7
   1141e:	feb43823          	sd	a1,-16(s0)
   11422:	0016059b          	addw	a1,a2,1
   11426:	fef43c23          	sd	a5,-8(s0)
   1142a:	ea3a                	sd	a4,272(sp)
   1142c:	10b12423          	sw	a1,264(sp)
   11430:	461d                	li	a2,7
   11432:	4ab643e3          	blt	a2,a1,120d8 <_svfprintf_r+0x181e>
   11436:	77e2                	ld	a5,56(sp)
   11438:	416a8cb3          	sub	s9,s5,s6
   1143c:	000c859b          	sext.w	a1,s9
   11440:	40d7863b          	subw	a2,a5,a3
   11444:	00b65363          	bge	a2,a1,1144a <_svfprintf_r+0xb90>
   11448:	8cb2                	mv	s9,a2
   1144a:	2c81                	sext.w	s9,s9
   1144c:	03905163          	blez	s9,1146e <_svfprintf_r+0xbb4>
   11450:	10812683          	lw	a3,264(sp)
   11454:	9766                	add	a4,a4,s9
   11456:	01643023          	sd	s6,0(s0)
   1145a:	2685                	addw	a3,a3,1
   1145c:	01943423          	sd	s9,8(s0)
   11460:	ea3a                	sd	a4,272(sp)
   11462:	10d12423          	sw	a3,264(sp)
   11466:	479d                	li	a5,7
   11468:	0441                	add	s0,s0,16
   1146a:	4ed7c0e3          	blt	a5,a3,1214a <_svfprintf_r+0x1890>
   1146e:	fffcc793          	not	a5,s9
   11472:	97fd                	sra	a5,a5,0x3f
   11474:	00fcfcb3          	and	s9,s9,a5
   11478:	41960cbb          	subw	s9,a2,s9
   1147c:	e5905e63          	blez	s9,10ad8 <_svfprintf_r+0x21e>
   11480:	6f6d                	lui	t5,0x1b
   11482:	46c1                	li	a3,16
   11484:	10812783          	lw	a5,264(sp)
   11488:	2d8f0b93          	add	s7,t5,728 # 1b2d8 <zeroes.0>
   1148c:	5b96dc63          	bge	a3,s9,11a44 <_svfprintf_r+0x118a>
   11490:	6a82                	ld	s5,0(sp)
   11492:	4d41                	li	s10,16
   11494:	4d9d                	li	s11,7
   11496:	a021                	j	1149e <_svfprintf_r+0xbe4>
   11498:	3cc1                	addw	s9,s9,-16
   1149a:	5b9d5563          	bge	s10,s9,11a44 <_svfprintf_r+0x118a>
   1149e:	2785                	addw	a5,a5,1
   114a0:	0741                	add	a4,a4,16
   114a2:	01743023          	sd	s7,0(s0)
   114a6:	01a43423          	sd	s10,8(s0)
   114aa:	ea3a                	sd	a4,272(sp)
   114ac:	10f12423          	sw	a5,264(sp)
   114b0:	0441                	add	s0,s0,16
   114b2:	fefdd3e3          	bge	s11,a5,11498 <_svfprintf_r+0xbde>
   114b6:	0210                	add	a2,sp,256
   114b8:	85d6                	mv	a1,s5
   114ba:	854e                	mv	a0,s3
   114bc:	38d040ef          	jal	16048 <__ssprint_r>
   114c0:	d80513e3          	bnez	a0,11246 <_svfprintf_r+0x98c>
   114c4:	6752                	ld	a4,272(sp)
   114c6:	10812783          	lw	a5,264(sp)
   114ca:	0300                	add	s0,sp,384
   114cc:	b7f1                	j	11498 <_svfprintf_r+0xbde>
   114ce:	00197613          	and	a2,s2,1
   114d2:	f8061f63          	bnez	a2,10c70 <_svfprintf_r+0x3b6>
   114d6:	10812603          	lw	a2,264(sp)
   114da:	001b8d13          	add	s10,s7,1
   114de:	01643023          	sd	s6,0(s0)
   114e2:	0016079b          	addw	a5,a2,1
   114e6:	e414                	sd	a3,8(s0)
   114e8:	10f12423          	sw	a5,264(sp)
   114ec:	0007841b          	sext.w	s0,a5
   114f0:	ea6a                	sd	s10,272(sp)
   114f2:	479d                	li	a5,7
   114f4:	fe87da63          	bge	a5,s0,10ce8 <_svfprintf_r+0x42e>
   114f8:	6582                	ld	a1,0(sp)
   114fa:	0210                	add	a2,sp,256
   114fc:	854e                	mv	a0,s3
   114fe:	34b040ef          	jal	16048 <__ssprint_r>
   11502:	d40512e3          	bnez	a0,11246 <_svfprintf_r+0x98c>
   11506:	6d52                	ld	s10,272(sp)
   11508:	10812403          	lw	s0,264(sp)
   1150c:	18010c93          	add	s9,sp,384
   11510:	fd8ff06f          	j	10ce8 <_svfprintf_r+0x42e>
   11514:	7762                	ld	a4,56(sp)
   11516:	4785                	li	a5,1
   11518:	fce7d863          	bge	a5,a4,10ce8 <_svfprintf_r+0x42e>
   1151c:	6f6d                	lui	t5,0x1b
   1151e:	47c5                	li	a5,17
   11520:	2d8f0b93          	add	s7,t5,728 # 1b2d8 <zeroes.0>
   11524:	5ce7da63          	bge	a5,a4,11af8 <_svfprintf_r+0x123e>
   11528:	6a82                	ld	s5,0(sp)
   1152a:	4741                	li	a4,16
   1152c:	4b1d                	li	s6,7
   1152e:	a021                	j	11536 <_svfprintf_r+0xc7c>
   11530:	3dc1                	addw	s11,s11,-16
   11532:	5db75363          	bge	a4,s11,11af8 <_svfprintf_r+0x123e>
   11536:	2405                	addw	s0,s0,1
   11538:	0d41                	add	s10,s10,16
   1153a:	017cb023          	sd	s7,0(s9)
   1153e:	00ecb423          	sd	a4,8(s9)
   11542:	ea6a                	sd	s10,272(sp)
   11544:	10812423          	sw	s0,264(sp)
   11548:	0cc1                	add	s9,s9,16
   1154a:	fe8b53e3          	bge	s6,s0,11530 <_svfprintf_r+0xc76>
   1154e:	0210                	add	a2,sp,256
   11550:	85d6                	mv	a1,s5
   11552:	854e                	mv	a0,s3
   11554:	2f5040ef          	jal	16048 <__ssprint_r>
   11558:	ce0517e3          	bnez	a0,11246 <_svfprintf_r+0x98c>
   1155c:	6d52                	ld	s10,272(sp)
   1155e:	10812403          	lw	s0,264(sp)
   11562:	18010c93          	add	s9,sp,384
   11566:	4741                	li	a4,16
   11568:	b7e1                	j	11530 <_svfprintf_r+0xc76>
   1156a:	6582                	ld	a1,0(sp)
   1156c:	0210                	add	a2,sp,256
   1156e:	854e                	mv	a0,s3
   11570:	2d9040ef          	jal	16048 <__ssprint_r>
   11574:	cc0519e3          	bnez	a0,11246 <_svfprintf_r+0x98c>
   11578:	6bd2                	ld	s7,272(sp)
   1157a:	0300                	add	s0,sp,384
   1157c:	d32ff06f          	j	10aae <_svfprintf_r+0x1f4>
   11580:	01097793          	and	a5,s2,16
   11584:	e7e5                	bnez	a5,1166c <_svfprintf_r+0xdb2>
   11586:	7682                	ld	a3,32(sp)
   11588:	04097793          	and	a5,s2,64
   1158c:	0006ab83          	lw	s7,0(a3)
   11590:	5e078b63          	beqz	a5,11b86 <_svfprintf_r+0x12cc>
   11594:	1bc2                	sll	s7,s7,0x30
   11596:	030bdb93          	srl	s7,s7,0x30
   1159a:	b255                	j	10f3e <_svfprintf_r+0x684>
   1159c:	010cf793          	and	a5,s9,16
   115a0:	efdd                	bnez	a5,1165e <_svfprintf_r+0xda4>
   115a2:	7682                	ld	a3,32(sp)
   115a4:	040cf793          	and	a5,s9,64
   115a8:	0006ab83          	lw	s7,0(a3)
   115ac:	5e078563          	beqz	a5,11b96 <_svfprintf_r+0x12dc>
   115b0:	1bc2                	sll	s7,s7,0x30
   115b2:	030bdb93          	srl	s7,s7,0x30
   115b6:	f03a                	sd	a4,32(sp)
   115b8:	4785                	li	a5,1
   115ba:	b8d1                	j	10e8e <_svfprintf_r+0x5d4>
   115bc:	01097793          	and	a5,s2,16
   115c0:	ebd9                	bnez	a5,11656 <_svfprintf_r+0xd9c>
   115c2:	7682                	ld	a3,32(sp)
   115c4:	04097793          	and	a5,s2,64
   115c8:	0006ab83          	lw	s7,0(a3)
   115cc:	5c078f63          	beqz	a5,11baa <_svfprintf_r+0x12f0>
   115d0:	010b9b9b          	sllw	s7,s7,0x10
   115d4:	410bdb9b          	sraw	s7,s7,0x10
   115d8:	87de                	mv	a5,s7
   115da:	9207d3e3          	bgez	a5,10f00 <_svfprintf_r+0x646>
   115de:	f03a                	sd	a4,32(sp)
   115e0:	41700bb3          	neg	s7,s7
   115e4:	8cca                	mv	s9,s2
   115e6:	02d00713          	li	a4,45
   115ea:	4785                	li	a5,1
   115ec:	b055                	j	10e90 <_svfprintf_r+0x5d6>
   115ee:	4d81                	li	s11,0
   115f0:	17c10b13          	add	s6,sp,380
   115f4:	b0d1                	j	10eb8 <_svfprintf_r+0x5fe>
   115f6:	6582                	ld	a1,0(sp)
   115f8:	0210                	add	a2,sp,256
   115fa:	854e                	mv	a0,s3
   115fc:	24d040ef          	jal	16048 <__ssprint_r>
   11600:	c40513e3          	bnez	a0,11246 <_svfprintf_r+0x98c>
   11604:	6752                	ld	a4,272(sp)
   11606:	10812683          	lw	a3,264(sp)
   1160a:	18010c93          	add	s9,sp,384
   1160e:	e84ff06f          	j	10c92 <_svfprintf_r+0x3d8>
   11612:	6582                	ld	a1,0(sp)
   11614:	0210                	add	a2,sp,256
   11616:	854e                	mv	a0,s3
   11618:	231040ef          	jal	16048 <__ssprint_r>
   1161c:	c20515e3          	bnez	a0,11246 <_svfprintf_r+0x98c>
   11620:	6d52                	ld	s10,272(sp)
   11622:	10812403          	lw	s0,264(sp)
   11626:	18010c93          	add	s9,sp,384
   1162a:	e8aff06f          	j	10cb4 <_svfprintf_r+0x3fa>
   1162e:	00197793          	and	a5,s2,1
   11632:	875e                	mv	a4,s7
   11634:	ca078263          	beqz	a5,10ad8 <_svfprintf_r+0x21e>
   11638:	bad1                	j	1100c <_svfprintf_r+0x752>
   1163a:	8356                	mv	t1,s5
   1163c:	b07d                	j	10eea <_svfprintf_r+0x630>
   1163e:	0004ce03          	lbu	t3,0(s1)
   11642:	f03e                	sd	a5,32(sp)
   11644:	b78ff06f          	j	109bc <_svfprintf_r+0x102>
   11648:	03000793          	li	a5,48
   1164c:	16f10da3          	sb	a5,379(sp)
   11650:	17b10b13          	add	s6,sp,379
   11654:	b095                	j	10eb8 <_svfprintf_r+0x5fe>
   11656:	7782                	ld	a5,32(sp)
   11658:	639c                	ld	a5,0(a5)
   1165a:	8bbe                	mv	s7,a5
   1165c:	b045                	j	10efc <_svfprintf_r+0x642>
   1165e:	7782                	ld	a5,32(sp)
   11660:	f03a                	sd	a4,32(sp)
   11662:	0007bb83          	ld	s7,0(a5)
   11666:	4785                	li	a5,1
   11668:	827ff06f          	j	10e8e <_svfprintf_r+0x5d4>
   1166c:	7782                	ld	a5,32(sp)
   1166e:	0007bb83          	ld	s7,0(a5)
   11672:	b0f1                	j	10f3e <_svfprintf_r+0x684>
   11674:	01097793          	and	a5,s2,16
   11678:	8e0795e3          	bnez	a5,10f62 <_svfprintf_r+0x6a8>
   1167c:	04097793          	and	a5,s2,64
   11680:	78079263          	bnez	a5,11e04 <_svfprintf_r+0x154a>
   11684:	20097913          	and	s2,s2,512
   11688:	67c2                	ld	a5,16(sp)
   1168a:	440902e3          	beqz	s2,122ce <_svfprintf_r+0x1a14>
   1168e:	00f70023          	sb	a5,0(a4)
   11692:	b8d1                	j	10f66 <_svfprintf_r+0x6ac>
   11694:	7782                	ld	a5,32(sp)
   11696:	ec56                	sd	s5,24(sp)
   11698:	2388                	fld	fa0,0(a5)
   1169a:	00878a93          	add	s5,a5,8
   1169e:	f056                	sd	s5,32(sp)
   116a0:	644090ef          	jal	1ace4 <__extenddftf2>
   116a4:	6362                	ld	t1,24(sp)
   116a6:	872a                	mv	a4,a0
   116a8:	d0eff06f          	j	10bb6 <_svfprintf_r+0x2fc>
   116ac:	86ba                	mv	a3,a4
   116ae:	00068d1b          	sext.w	s10,a3
   116b2:	d1a047e3          	bgtz	s10,113c0 <_svfprintf_r+0xb06>
   116b6:	b32d                	j	113e0 <_svfprintf_r+0xb26>
   116b8:	f03a                	sd	a4,32(sp)
   116ba:	47a5                	li	a5,9
   116bc:	c377ffe3          	bgeu	a5,s7,112fa <_svfprintf_r+0xa40>
   116c0:	17c10a93          	add	s5,sp,380
   116c4:	7866                	ld	a6,120(sp)
   116c6:	400cf793          	and	a5,s9,1024
   116ca:	4681                	li	a3,0
   116cc:	85d6                	mv	a1,s5
   116ce:	4929                	li	s2,10
   116d0:	4da5                	li	s11,9
   116d2:	0ff00c13          	li	s8,255
   116d6:	a039                	j	116e4 <_svfprintf_r+0xe2a>
   116d8:	032bd733          	divu	a4,s7,s2
   116dc:	037df663          	bgeu	s11,s7,11708 <_svfprintf_r+0xe4e>
   116e0:	8bba                	mv	s7,a4
   116e2:	85da                	mv	a1,s6
   116e4:	fff58b13          	add	s6,a1,-1
   116e8:	2685                	addw	a3,a3,1
   116ea:	032bf733          	remu	a4,s7,s2
   116ee:	0307071b          	addw	a4,a4,48
   116f2:	fee58fa3          	sb	a4,-1(a1)
   116f6:	d3ed                	beqz	a5,116d8 <_svfprintf_r+0xe1e>
   116f8:	00084703          	lbu	a4,0(a6)
   116fc:	fce69ee3          	bne	a3,a4,116d8 <_svfprintf_r+0xe1e>
   11700:	fd870ce3          	beq	a4,s8,116d8 <_svfprintf_r+0xe1e>
   11704:	517de763          	bltu	s11,s7,11c12 <_svfprintf_r+0x1358>
   11708:	fcc2                	sd	a6,120(sp)
   1170a:	fc36                	sd	a3,56(sp)
   1170c:	416a8dbb          	subw	s11,s5,s6
   11710:	8966                	mv	s2,s9
   11712:	fa6ff06f          	j	10eb8 <_svfprintf_r+0x5fe>
   11716:	67ed                	lui	a5,0x1b
   11718:	09878793          	add	a5,a5,152 # 1b098 <__clzdi2+0x76>
   1171c:	8356                	mv	t1,s5
   1171e:	f4be                	sd	a5,104(sp)
   11720:	7682                	ld	a3,32(sp)
   11722:	02097793          	and	a5,s2,32
   11726:	00868713          	add	a4,a3,8
   1172a:	22078e63          	beqz	a5,11966 <_svfprintf_r+0x10ac>
   1172e:	0006bb83          	ld	s7,0(a3)
   11732:	00197793          	and	a5,s2,1
   11736:	cf81                	beqz	a5,1174e <_svfprintf_r+0xe94>
   11738:	000b8b63          	beqz	s7,1174e <_svfprintf_r+0xe94>
   1173c:	00296913          	or	s2,s2,2
   11740:	03000793          	li	a5,48
   11744:	0cf10823          	sb	a5,208(sp)
   11748:	0da108a3          	sb	s10,209(sp)
   1174c:	2901                	sext.w	s2,s2
   1174e:	bff97c93          	and	s9,s2,-1025
   11752:	2c81                	sext.w	s9,s9
   11754:	f03a                	sd	a4,32(sp)
   11756:	4789                	li	a5,2
   11758:	f36ff06f          	j	10e8e <_svfprintf_r+0x5d4>
   1175c:	8356                	mv	t1,s5
   1175e:	8cca                	mv	s9,s2
   11760:	f18ff06f          	j	10e78 <_svfprintf_r+0x5be>
   11764:	6582                	ld	a1,0(sp)
   11766:	0210                	add	a2,sp,256
   11768:	854e                	mv	a0,s3
   1176a:	0df040ef          	jal	16048 <__ssprint_r>
   1176e:	ac051ce3          	bnez	a0,11246 <_svfprintf_r+0x98c>
   11772:	6752                	ld	a4,272(sp)
   11774:	0300                	add	s0,sp,384
   11776:	b86d                	j	11030 <_svfprintf_r+0x776>
   11778:	67ed                	lui	a5,0x1b
   1177a:	0b078793          	add	a5,a5,176 # 1b0b0 <__clzdi2+0x8e>
   1177e:	8356                	mv	t1,s5
   11780:	f4be                	sd	a5,104(sp)
   11782:	bf79                	j	11720 <_svfprintf_r+0xe66>
   11784:	8356                	mv	t1,s5
   11786:	fa6ff06f          	j	10f2c <_svfprintf_r+0x672>
   1178a:	20096913          	or	s2,s2,512
   1178e:	0014ce03          	lbu	t3,1(s1)
   11792:	2901                	sext.w	s2,s2
   11794:	0485                	add	s1,s1,1
   11796:	a26ff06f          	j	109bc <_svfprintf_r+0x102>
   1179a:	02096913          	or	s2,s2,32
   1179e:	0014ce03          	lbu	t3,1(s1)
   117a2:	2901                	sext.w	s2,s2
   117a4:	0485                	add	s1,s1,1
   117a6:	a16ff06f          	j	109bc <_svfprintf_r+0x102>
   117aa:	6546                	ld	a0,80(sp)
   117ac:	04000593          	li	a1,64
   117b0:	1fa030ef          	jal	149aa <_malloc_r>
   117b4:	6782                	ld	a5,0(sp)
   117b6:	e388                	sd	a0,0(a5)
   117b8:	ef88                	sd	a0,24(a5)
   117ba:	2e050ae3          	beqz	a0,122ae <_svfprintf_r+0x19f4>
   117be:	6782                	ld	a5,0(sp)
   117c0:	04000713          	li	a4,64
   117c4:	d398                	sw	a4,32(a5)
   117c6:	95aff06f          	j	10920 <_svfprintf_r+0x66>
   117ca:	6f6d                	lui	t5,0x1b
   117cc:	45c1                	li	a1,16
   117ce:	875e                	mv	a4,s7
   117d0:	10812603          	lw	a2,264(sp)
   117d4:	2d8f0b93          	add	s7,t5,728 # 1b2d8 <zeroes.0>
   117d8:	41a5dc63          	bge	a1,s10,11bf0 <_svfprintf_r+0x1336>
   117dc:	6c82                	ld	s9,0(sp)
   117de:	48c1                	li	a7,16
   117e0:	4d9d                	li	s11,7
   117e2:	a021                	j	117ea <_svfprintf_r+0xf30>
   117e4:	3d41                	addw	s10,s10,-16
   117e6:	41a8d563          	bge	a7,s10,11bf0 <_svfprintf_r+0x1336>
   117ea:	2605                	addw	a2,a2,1
   117ec:	0741                	add	a4,a4,16
   117ee:	01743023          	sd	s7,0(s0)
   117f2:	01143423          	sd	a7,8(s0)
   117f6:	ea3a                	sd	a4,272(sp)
   117f8:	10c12423          	sw	a2,264(sp)
   117fc:	0441                	add	s0,s0,16
   117fe:	fecdd3e3          	bge	s11,a2,117e4 <_svfprintf_r+0xf2a>
   11802:	0210                	add	a2,sp,256
   11804:	85e6                	mv	a1,s9
   11806:	854e                	mv	a0,s3
   11808:	041040ef          	jal	16048 <__ssprint_r>
   1180c:	a2051de3          	bnez	a0,11246 <_svfprintf_r+0x98c>
   11810:	6752                	ld	a4,272(sp)
   11812:	10812603          	lw	a2,264(sp)
   11816:	0300                	add	s0,sp,384
   11818:	48c1                	li	a7,16
   1181a:	b7e9                	j	117e4 <_svfprintf_r+0xf2a>
   1181c:	855a                	mv	a0,s6
   1181e:	728040ef          	jal	15f46 <strlen>
   11822:	00050d9b          	sext.w	s11,a0
   11826:	d4cff06f          	j	10d72 <_svfprintf_r+0x4b8>
   1182a:	6d06                	ld	s10,64(sp)
   1182c:	6e6d                	lui	t3,0x1b
   1182e:	e926                	sd	s1,144(sp)
   11830:	ed4a                	sd	s2,152(sp)
   11832:	f152                	sd	s4,160(sp)
   11834:	e0e2                	sd	s8,64(sp)
   11836:	8a5a                	mv	s4,s6
   11838:	7966                	ld	s2,120(sp)
   1183a:	64aa                	ld	s1,136(sp)
   1183c:	6b0a                	ld	s6,128(sp)
   1183e:	6c26                	ld	s8,72(sp)
   11840:	6c82                	ld	s9,0(sp)
   11842:	431d                	li	t1,7
   11844:	48c1                	li	a7,16
   11846:	2d8e0d93          	add	s11,t3,728 # 1b2d8 <zeroes.0>
   1184a:	875e                	mv	a4,s7
   1184c:	080d0063          	beqz	s10,118cc <_svfprintf_r+0x1012>
   11850:	100c0863          	beqz	s8,11960 <_svfprintf_r+0x10a6>
   11854:	3c7d                	addw	s8,s8,-1
   11856:	10812783          	lw	a5,264(sp)
   1185a:	975a                	add	a4,a4,s6
   1185c:	e004                	sd	s1,0(s0)
   1185e:	0017869b          	addw	a3,a5,1
   11862:	01643423          	sd	s6,8(s0)
   11866:	ea3a                	sd	a4,272(sp)
   11868:	10d12423          	sw	a3,264(sp)
   1186c:	0441                	add	s0,s0,16
   1186e:	10d34363          	blt	t1,a3,11974 <_svfprintf_r+0x10ba>
   11872:	00094683          	lbu	a3,0(s2)
   11876:	414a8bb3          	sub	s7,s5,s4
   1187a:	000b879b          	sext.w	a5,s7
   1187e:	0006861b          	sext.w	a2,a3
   11882:	00f6d363          	bge	a3,a5,11888 <_svfprintf_r+0xfce>
   11886:	8bb2                	mv	s7,a2
   11888:	2b81                	sext.w	s7,s7
   1188a:	03705563          	blez	s7,118b4 <_svfprintf_r+0xffa>
   1188e:	10812783          	lw	a5,264(sp)
   11892:	975e                	add	a4,a4,s7
   11894:	01443023          	sd	s4,0(s0)
   11898:	0017869b          	addw	a3,a5,1
   1189c:	01743423          	sd	s7,8(s0)
   118a0:	ea3a                	sd	a4,272(sp)
   118a2:	10d12423          	sw	a3,264(sp)
   118a6:	1cd34063          	blt	t1,a3,11a66 <_svfprintf_r+0x11ac>
   118aa:	00094683          	lbu	a3,0(s2)
   118ae:	0441                	add	s0,s0,16
   118b0:	0006861b          	sext.w	a2,a3
   118b4:	fffbc793          	not	a5,s7
   118b8:	97fd                	sra	a5,a5,0x3f
   118ba:	00fbf7b3          	and	a5,s7,a5
   118be:	40f60bbb          	subw	s7,a2,a5
   118c2:	03704263          	bgtz	s7,118e6 <_svfprintf_r+0x102c>
   118c6:	9a36                	add	s4,s4,a3
   118c8:	f80d14e3          	bnez	s10,11850 <_svfprintf_r+0xf96>
   118cc:	f80c14e3          	bnez	s8,11854 <_svfprintf_r+0xf9a>
   118d0:	fcca                	sd	s2,120(sp)
   118d2:	8b52                	mv	s6,s4
   118d4:	64ca                	ld	s1,144(sp)
   118d6:	696a                	ld	s2,152(sp)
   118d8:	7a0a                	ld	s4,160(sp)
   118da:	6c06                	ld	s8,64(sp)
   118dc:	8bba                	mv	s7,a4
   118de:	b36af1e3          	bgeu	s5,s6,11400 <_svfprintf_r+0xb46>
   118e2:	8b56                	mv	s6,s5
   118e4:	be31                	j	11400 <_svfprintf_r+0xb46>
   118e6:	666d                	lui	a2,0x1b
   118e8:	10812783          	lw	a5,264(sp)
   118ec:	2d860613          	add	a2,a2,728 # 1b2d8 <zeroes.0>
   118f0:	0578d863          	bge	a7,s7,11940 <_svfprintf_r+0x1086>
   118f4:	f826                	sd	s1,48(sp)
   118f6:	84de                	mv	s1,s7
   118f8:	8bee                	mv	s7,s11
   118fa:	a021                	j	11902 <_svfprintf_r+0x1048>
   118fc:	34c1                	addw	s1,s1,-16
   118fe:	0298de63          	bge	a7,s1,1193a <_svfprintf_r+0x1080>
   11902:	2785                	addw	a5,a5,1
   11904:	0741                	add	a4,a4,16
   11906:	01b43023          	sd	s11,0(s0)
   1190a:	01143423          	sd	a7,8(s0)
   1190e:	ea3a                	sd	a4,272(sp)
   11910:	10f12423          	sw	a5,264(sp)
   11914:	0441                	add	s0,s0,16
   11916:	fef353e3          	bge	t1,a5,118fc <_svfprintf_r+0x1042>
   1191a:	0210                	add	a2,sp,256
   1191c:	85e6                	mv	a1,s9
   1191e:	854e                	mv	a0,s3
   11920:	728040ef          	jal	16048 <__ssprint_r>
   11924:	920511e3          	bnez	a0,11246 <_svfprintf_r+0x98c>
   11928:	48c1                	li	a7,16
   1192a:	34c1                	addw	s1,s1,-16
   1192c:	6752                	ld	a4,272(sp)
   1192e:	10812783          	lw	a5,264(sp)
   11932:	0300                	add	s0,sp,384
   11934:	431d                	li	t1,7
   11936:	fc98c6e3          	blt	a7,s1,11902 <_svfprintf_r+0x1048>
   1193a:	865e                	mv	a2,s7
   1193c:	8ba6                	mv	s7,s1
   1193e:	74c2                	ld	s1,48(sp)
   11940:	0017869b          	addw	a3,a5,1
   11944:	975e                	add	a4,a4,s7
   11946:	e010                	sd	a2,0(s0)
   11948:	01743423          	sd	s7,8(s0)
   1194c:	ea3a                	sd	a4,272(sp)
   1194e:	10d12423          	sw	a3,264(sp)
   11952:	6cd34963          	blt	t1,a3,12024 <_svfprintf_r+0x176a>
   11956:	00094683          	lbu	a3,0(s2)
   1195a:	0441                	add	s0,s0,16
   1195c:	9a36                	add	s4,s4,a3
   1195e:	b7ad                	j	118c8 <_svfprintf_r+0x100e>
   11960:	197d                	add	s2,s2,-1
   11962:	3d7d                	addw	s10,s10,-1
   11964:	bdcd                	j	11856 <_svfprintf_r+0xf9c>
   11966:	01097793          	and	a5,s2,16
   1196a:	c7dd                	beqz	a5,11a18 <_svfprintf_r+0x115e>
   1196c:	7782                	ld	a5,32(sp)
   1196e:	0007bb83          	ld	s7,0(a5)
   11972:	b3c1                	j	11732 <_svfprintf_r+0xe78>
   11974:	0210                	add	a2,sp,256
   11976:	85e6                	mv	a1,s9
   11978:	854e                	mv	a0,s3
   1197a:	6ce040ef          	jal	16048 <__ssprint_r>
   1197e:	8c0514e3          	bnez	a0,11246 <_svfprintf_r+0x98c>
   11982:	6752                	ld	a4,272(sp)
   11984:	0300                	add	s0,sp,384
   11986:	48c1                	li	a7,16
   11988:	431d                	li	t1,7
   1198a:	b5e5                	j	11872 <_svfprintf_r+0xfb8>
   1198c:	10812683          	lw	a3,264(sp)
   11990:	65ed                	lui	a1,0x1b
   11992:	0d058593          	add	a1,a1,208 # 1b0d0 <__clzdi2+0xae>
   11996:	2685                	addw	a3,a3,1
   11998:	e00c                	sd	a1,0(s0)
   1199a:	001b8713          	add	a4,s7,1
   1199e:	4585                	li	a1,1
   119a0:	e40c                	sd	a1,8(s0)
   119a2:	10d12423          	sw	a3,264(sp)
   119a6:	0006859b          	sext.w	a1,a3
   119aa:	ea3a                	sd	a4,272(sp)
   119ac:	469d                	li	a3,7
   119ae:	0441                	add	s0,s0,16
   119b0:	04b6c963          	blt	a3,a1,11a02 <_svfprintf_r+0x1148>
   119b4:	14061f63          	bnez	a2,11b12 <_svfprintf_r+0x1258>
   119b8:	77e2                	ld	a5,56(sp)
   119ba:	00197693          	and	a3,s2,1
   119be:	8edd                	or	a3,a3,a5
   119c0:	90068c63          	beqz	a3,10ad8 <_svfprintf_r+0x21e>
   119c4:	10812603          	lw	a2,264(sp)
   119c8:	67e6                	ld	a5,88(sp)
   119ca:	7686                	ld	a3,96(sp)
   119cc:	973e                	add	a4,a4,a5
   119ce:	e014                	sd	a3,0(s0)
   119d0:	0016069b          	addw	a3,a2,1
   119d4:	e41c                	sd	a5,8(s0)
   119d6:	ea3a                	sd	a4,272(sp)
   119d8:	10d12423          	sw	a3,264(sp)
   119dc:	461d                	li	a2,7
   119de:	44d64963          	blt	a2,a3,11e30 <_svfprintf_r+0x1576>
   119e2:	0441                	add	s0,s0,16
   119e4:	77e2                	ld	a5,56(sp)
   119e6:	0016861b          	addw	a2,a3,1
   119ea:	01643023          	sd	s6,0(s0)
   119ee:	973e                	add	a4,a4,a5
   119f0:	e41c                	sd	a5,8(s0)
   119f2:	ea3a                	sd	a4,272(sp)
   119f4:	10c12423          	sw	a2,264(sp)
   119f8:	479d                	li	a5,7
   119fa:	8cc7de63          	bge	a5,a2,10ad6 <_svfprintf_r+0x21c>
   119fe:	b10ff06f          	j	10d0e <_svfprintf_r+0x454>
   11a02:	6582                	ld	a1,0(sp)
   11a04:	0210                	add	a2,sp,256
   11a06:	854e                	mv	a0,s3
   11a08:	640040ef          	jal	16048 <__ssprint_r>
   11a0c:	82051de3          	bnez	a0,11246 <_svfprintf_r+0x98c>
   11a10:	466e                	lw	a2,216(sp)
   11a12:	6752                	ld	a4,272(sp)
   11a14:	0300                	add	s0,sp,384
   11a16:	bf79                	j	119b4 <_svfprintf_r+0x10fa>
   11a18:	7682                	ld	a3,32(sp)
   11a1a:	04097793          	and	a5,s2,64
   11a1e:	0006ab83          	lw	s7,0(a3)
   11a22:	18078f63          	beqz	a5,11bc0 <_svfprintf_r+0x1306>
   11a26:	1bc2                	sll	s7,s7,0x30
   11a28:	030bdb93          	srl	s7,s7,0x30
   11a2c:	b319                	j	11732 <_svfprintf_r+0xe78>
   11a2e:	6582                	ld	a1,0(sp)
   11a30:	0210                	add	a2,sp,256
   11a32:	854e                	mv	a0,s3
   11a34:	614040ef          	jal	16048 <__ssprint_r>
   11a38:	800517e3          	bnez	a0,11246 <_svfprintf_r+0x98c>
   11a3c:	6bd2                	ld	s7,272(sp)
   11a3e:	0300                	add	s0,sp,384
   11a40:	dc4ff06f          	j	11004 <_svfprintf_r+0x74a>
   11a44:	0017869b          	addw	a3,a5,1
   11a48:	01743023          	sd	s7,0(s0)
   11a4c:	01943423          	sd	s9,8(s0)
   11a50:	9766                	add	a4,a4,s9
   11a52:	ea3a                	sd	a4,272(sp)
   11a54:	10d12423          	sw	a3,264(sp)
   11a58:	479d                	li	a5,7
   11a5a:	00d7c463          	blt	a5,a3,11a62 <_svfprintf_r+0x11a8>
   11a5e:	878ff06f          	j	10ad6 <_svfprintf_r+0x21c>
   11a62:	aacff06f          	j	10d0e <_svfprintf_r+0x454>
   11a66:	0210                	add	a2,sp,256
   11a68:	85e6                	mv	a1,s9
   11a6a:	854e                	mv	a0,s3
   11a6c:	5dc040ef          	jal	16048 <__ssprint_r>
   11a70:	fc051b63          	bnez	a0,11246 <_svfprintf_r+0x98c>
   11a74:	00094683          	lbu	a3,0(s2)
   11a78:	6752                	ld	a4,272(sp)
   11a7a:	0300                	add	s0,sp,384
   11a7c:	0006861b          	sext.w	a2,a3
   11a80:	48c1                	li	a7,16
   11a82:	431d                	li	t1,7
   11a84:	bd05                	j	118b4 <_svfprintf_r+0xffa>
   11a86:	6582                	ld	a1,0(sp)
   11a88:	0210                	add	a2,sp,256
   11a8a:	854e                	mv	a0,s3
   11a8c:	e91a                	sd	t1,144(sp)
   11a8e:	5ba040ef          	jal	16048 <__ssprint_r>
   11a92:	fa051a63          	bnez	a0,11246 <_svfprintf_r+0x98c>
   11a96:	6bd2                	ld	s7,272(sp)
   11a98:	634a                	ld	t1,144(sp)
   11a9a:	0300                	add	s0,sp,384
   11a9c:	80aff06f          	j	10aa6 <_svfprintf_r+0x1ec>
   11aa0:	754e                	ld	a0,240(sp)
   11aa2:	75ee                	ld	a1,248(sp)
   11aa4:	4601                	li	a2,0
   11aa6:	4681                	li	a3,0
   11aa8:	13c080ef          	jal	19be4 <__letf2>
   11aac:	64054263          	bltz	a0,120f0 <_svfprintf_r+0x1836>
   11ab0:	0cf14703          	lbu	a4,207(sp)
   11ab4:	04700793          	li	a5,71
   11ab8:	19a7d563          	bge	a5,s10,11c42 <_svfprintf_r+0x1388>
   11abc:	67ed                	lui	a5,0x1b
   11abe:	08078b13          	add	s6,a5,128 # 1b080 <__clzdi2+0x5e>
   11ac2:	f7f97913          	and	s2,s2,-129
   11ac6:	ec02                	sd	zero,24(sp)
   11ac8:	e482                	sd	zero,72(sp)
   11aca:	e082                	sd	zero,64(sp)
   11acc:	f802                	sd	zero,48(sp)
   11ace:	2901                	sext.w	s2,s2
   11ad0:	4c0d                	li	s8,3
   11ad2:	4d8d                	li	s11,3
   11ad4:	4301                	li	t1,0
   11ad6:	aa071e63          	bnez	a4,10d92 <_svfprintf_r+0x4d8>
   11ada:	f59fe06f          	j	10a32 <_svfprintf_r+0x178>
   11ade:	4799                	li	a5,6
   11ae0:	869a                	mv	a3,t1
   11ae2:	1667ef63          	bltu	a5,t1,11c60 <_svfprintf_r+0x13a6>
   11ae6:	00068d9b          	sext.w	s11,a3
   11aea:	67ed                	lui	a5,0x1b
   11aec:	8c6e                	mv	s8,s11
   11aee:	f056                	sd	s5,32(sp)
   11af0:	0c878b13          	add	s6,a5,200 # 1b0c8 <__clzdi2+0xa6>
   11af4:	f35fe06f          	j	10a28 <_svfprintf_r+0x16e>
   11af8:	2405                	addw	s0,s0,1
   11afa:	9d6e                	add	s10,s10,s11
   11afc:	017cb023          	sd	s7,0(s9)
   11b00:	01bcb423          	sd	s11,8(s9)
   11b04:	ea6a                	sd	s10,272(sp)
   11b06:	10812423          	sw	s0,264(sp)
   11b0a:	479d                	li	a5,7
   11b0c:	9c87dd63          	bge	a5,s0,10ce6 <_svfprintf_r+0x42c>
   11b10:	b2e5                	j	114f8 <_svfprintf_r+0xc3e>
   11b12:	10812583          	lw	a1,264(sp)
   11b16:	67e6                	ld	a5,88(sp)
   11b18:	7686                	ld	a3,96(sp)
   11b1a:	0441                	add	s0,s0,16
   11b1c:	973e                	add	a4,a4,a5
   11b1e:	fed43823          	sd	a3,-16(s0)
   11b22:	0015869b          	addw	a3,a1,1
   11b26:	fef43c23          	sd	a5,-8(s0)
   11b2a:	ea3a                	sd	a4,272(sp)
   11b2c:	10d12423          	sw	a3,264(sp)
   11b30:	459d                	li	a1,7
   11b32:	2ed5cf63          	blt	a1,a3,11e30 <_svfprintf_r+0x1576>
   11b36:	ea0657e3          	bgez	a2,119e4 <_svfprintf_r+0x112a>
   11b3a:	6f6d                	lui	t5,0x1b
   11b3c:	55c1                	li	a1,-16
   11b3e:	40c00cbb          	negw	s9,a2
   11b42:	2d8f0b93          	add	s7,t5,728 # 1b2d8 <zeroes.0>
   11b46:	4d41                	li	s10,16
   11b48:	4d9d                	li	s11,7
   11b4a:	00b64663          	blt	a2,a1,11b56 <_svfprintf_r+0x129c>
   11b4e:	a731                	j	1225a <_svfprintf_r+0x19a0>
   11b50:	3cc1                	addw	s9,s9,-16
   11b52:	719d5463          	bge	s10,s9,1225a <_svfprintf_r+0x19a0>
   11b56:	2685                	addw	a3,a3,1
   11b58:	0741                	add	a4,a4,16
   11b5a:	01743023          	sd	s7,0(s0)
   11b5e:	01a43423          	sd	s10,8(s0)
   11b62:	ea3a                	sd	a4,272(sp)
   11b64:	10d12423          	sw	a3,264(sp)
   11b68:	0441                	add	s0,s0,16
   11b6a:	feddd3e3          	bge	s11,a3,11b50 <_svfprintf_r+0x1296>
   11b6e:	6582                	ld	a1,0(sp)
   11b70:	0210                	add	a2,sp,256
   11b72:	854e                	mv	a0,s3
   11b74:	4d4040ef          	jal	16048 <__ssprint_r>
   11b78:	ec051763          	bnez	a0,11246 <_svfprintf_r+0x98c>
   11b7c:	6752                	ld	a4,272(sp)
   11b7e:	10812683          	lw	a3,264(sp)
   11b82:	0300                	add	s0,sp,384
   11b84:	b7f1                	j	11b50 <_svfprintf_r+0x1296>
   11b86:	20097793          	and	a5,s2,512
   11b8a:	26078863          	beqz	a5,11dfa <_svfprintf_r+0x1540>
   11b8e:	0ffbfb93          	zext.b	s7,s7
   11b92:	bacff06f          	j	10f3e <_svfprintf_r+0x684>
   11b96:	200cf793          	and	a5,s9,512
   11b9a:	24078963          	beqz	a5,11dec <_svfprintf_r+0x1532>
   11b9e:	0ffbfb93          	zext.b	s7,s7
   11ba2:	f03a                	sd	a4,32(sp)
   11ba4:	4785                	li	a5,1
   11ba6:	ae8ff06f          	j	10e8e <_svfprintf_r+0x5d4>
   11baa:	20097793          	and	a5,s2,512
   11bae:	26078463          	beqz	a5,11e16 <_svfprintf_r+0x155c>
   11bb2:	018b9b9b          	sllw	s7,s7,0x18
   11bb6:	418bdb9b          	sraw	s7,s7,0x18
   11bba:	87de                	mv	a5,s7
   11bbc:	b40ff06f          	j	10efc <_svfprintf_r+0x642>
   11bc0:	20097793          	and	a5,s2,512
   11bc4:	24078563          	beqz	a5,11e0e <_svfprintf_r+0x1554>
   11bc8:	0ffbfb93          	zext.b	s7,s7
   11bcc:	b69d                	j	11732 <_svfprintf_r+0xe78>
   11bce:	77ee                	ld	a5,248(sp)
   11bd0:	2407d663          	bgez	a5,11e1c <_svfprintf_r+0x1562>
   11bd4:	02d00793          	li	a5,45
   11bd8:	0cf107a3          	sb	a5,207(sp)
   11bdc:	02d00713          	li	a4,45
   11be0:	04700793          	li	a5,71
   11be4:	59a7d363          	bge	a5,s10,1216a <_svfprintf_r+0x18b0>
   11be8:	67ed                	lui	a5,0x1b
   11bea:	09078b13          	add	s6,a5,144 # 1b090 <__clzdi2+0x6e>
   11bee:	bdd1                	j	11ac2 <_svfprintf_r+0x1208>
   11bf0:	0016059b          	addw	a1,a2,1
   11bf4:	976a                	add	a4,a4,s10
   11bf6:	01743023          	sd	s7,0(s0)
   11bfa:	01a43423          	sd	s10,8(s0)
   11bfe:	ea3a                	sd	a4,272(sp)
   11c00:	10b12423          	sw	a1,264(sp)
   11c04:	469d                	li	a3,7
   11c06:	24b6c763          	blt	a3,a1,11e54 <_svfprintf_r+0x159a>
   11c0a:	0441                	add	s0,s0,16
   11c0c:	8bba                	mv	s7,a4
   11c0e:	fe6ff06f          	j	113f4 <_svfprintf_r+0xb3a>
   11c12:	fc3e                	sd	a5,56(sp)
   11c14:	678a                	ld	a5,128(sp)
   11c16:	65aa                	ld	a1,136(sp)
   11c18:	f81a                	sd	t1,48(sp)
   11c1a:	40fb0b33          	sub	s6,s6,a5
   11c1e:	863e                	mv	a2,a5
   11c20:	855a                	mv	a0,s6
   11c22:	ec42                	sd	a6,24(sp)
   11c24:	3b2040ef          	jal	15fd6 <strncpy>
   11c28:	6862                	ld	a6,24(sp)
   11c2a:	4729                	li	a4,10
   11c2c:	02ebd733          	divu	a4,s7,a4
   11c30:	00184683          	lbu	a3,1(a6)
   11c34:	7342                	ld	t1,48(sp)
   11c36:	77e2                	ld	a5,56(sp)
   11c38:	00d036b3          	snez	a3,a3
   11c3c:	9836                	add	a6,a6,a3
   11c3e:	4681                	li	a3,0
   11c40:	b445                	j	116e0 <_svfprintf_r+0xe26>
   11c42:	67ed                	lui	a5,0x1b
   11c44:	07878b13          	add	s6,a5,120 # 1b078 <__clzdi2+0x56>
   11c48:	bdad                	j	11ac2 <_svfprintf_r+0x1208>
   11c4a:	6582                	ld	a1,0(sp)
   11c4c:	0210                	add	a2,sp,256
   11c4e:	854e                	mv	a0,s3
   11c50:	3f8040ef          	jal	16048 <__ssprint_r>
   11c54:	de051963          	bnez	a0,11246 <_svfprintf_r+0x98c>
   11c58:	6bd2                	ld	s7,272(sp)
   11c5a:	0300                	add	s0,sp,384
   11c5c:	f84ff06f          	j	113e0 <_svfprintf_r+0xb26>
   11c60:	4699                	li	a3,6
   11c62:	b551                	j	11ae6 <_svfprintf_r+0x122c>
   11c64:	416a8cb3          	sub	s9,s5,s6
   11c68:	40d7863b          	subw	a2,a5,a3
   11c6c:	000c879b          	sext.w	a5,s9
   11c70:	875e                	mv	a4,s7
   11c72:	00f65363          	bge	a2,a5,11c78 <_svfprintf_r+0x13be>
   11c76:	8cb2                	mv	s9,a2
   11c78:	2c81                	sext.w	s9,s9
   11c7a:	ff4ff06f          	j	1146e <_svfprintf_r+0xbb4>
   11c7e:	891a                	mv	s2,t1
   11c80:	4689                	li	a3,2
   11c82:	874a                	mv	a4,s2
   11c84:	0e810893          	add	a7,sp,232
   11c88:	0dc10813          	add	a6,sp,220
   11c8c:	09bc                	add	a5,sp,216
   11c8e:	85e2                	mv	a1,s8
   11c90:	8666                	mv	a2,s9
   11c92:	854e                	mv	a0,s3
   11c94:	f81a                	sd	t1,48(sp)
   11c96:	5f5010ef          	jal	13a8a <_ldtoa_r>
   11c9a:	06700713          	li	a4,103
   11c9e:	7342                	ld	t1,48(sp)
   11ca0:	8b2a                	mv	s6,a0
   11ca2:	36ed0863          	beq	s10,a4,12012 <_svfprintf_r+0x1758>
   11ca6:	04700713          	li	a4,71
   11caa:	36ed0463          	beq	s10,a4,12012 <_svfprintf_r+0x1758>
   11cae:	fdfd7d93          	and	s11,s10,-33
   11cb2:	04600713          	li	a4,70
   11cb6:	01250ab3          	add	s5,a0,s2
   11cba:	44ed8263          	beq	s11,a4,120fe <_svfprintf_r+0x1844>
   11cbe:	8562                	mv	a0,s8
   11cc0:	4601                	li	a2,0
   11cc2:	4681                	li	a3,0
   11cc4:	85e6                	mv	a1,s9
   11cc6:	f81a                	sd	t1,48(sp)
   11cc8:	5c3070ef          	jal	19a8a <__eqtf2>
   11ccc:	7342                	ld	t1,48(sp)
   11cce:	8c56                	mv	s8,s5
   11cd0:	cd11                	beqz	a0,11cec <_svfprintf_r+0x1432>
   11cd2:	7c2e                	ld	s8,232(sp)
   11cd4:	015c7c63          	bgeu	s8,s5,11cec <_svfprintf_r+0x1432>
   11cd8:	03000693          	li	a3,48
   11cdc:	001c0793          	add	a5,s8,1
   11ce0:	f5be                	sd	a5,232(sp)
   11ce2:	00dc0023          	sb	a3,0(s8)
   11ce6:	7c2e                	ld	s8,232(sp)
   11ce8:	ff5c6ae3          	bltu	s8,s5,11cdc <_svfprintf_r+0x1422>
   11cec:	416c07bb          	subw	a5,s8,s6
   11cf0:	fc3e                	sd	a5,56(sp)
   11cf2:	466e                	lw	a2,216(sp)
   11cf4:	04700713          	li	a4,71
   11cf8:	f832                	sd	a2,48(sp)
   11cfa:	2aed8763          	beq	s11,a4,11fa8 <_svfprintf_r+0x16ee>
   11cfe:	04600713          	li	a4,70
   11d02:	4aed8663          	beq	s11,a4,121ae <_svfprintf_r+0x18f4>
   11d06:	fff6071b          	addw	a4,a2,-1
   11d0a:	cdba                	sw	a4,216(sp)
   11d0c:	06100693          	li	a3,97
   11d10:	66dd0263          	beq	s10,a3,12374 <_svfprintf_r+0x1aba>
   11d14:	04100593          	li	a1,65
   11d18:	05000693          	li	a3,80
   11d1c:	2abd1063          	bne	s10,a1,11fbc <_svfprintf_r+0x1702>
   11d20:	4585                	li	a1,1
   11d22:	0ed10023          	sb	a3,224(sp)
   11d26:	02b00693          	li	a3,43
   11d2a:	00075663          	bgez	a4,11d36 <_svfprintf_r+0x147c>
   11d2e:	4705                	li	a4,1
   11d30:	9f11                	subw	a4,a4,a2
   11d32:	02d00693          	li	a3,45
   11d36:	0ed100a3          	sb	a3,225(sp)
   11d3a:	46a5                	li	a3,9
   11d3c:	48e6d763          	bge	a3,a4,121ca <_svfprintf_r+0x1910>
   11d40:	0ef10813          	add	a6,sp,239
   11d44:	88c2                	mv	a7,a6
   11d46:	4329                	li	t1,10
   11d48:	06300f13          	li	t5,99
   11d4c:	026767bb          	remw	a5,a4,t1
   11d50:	8646                	mv	a2,a7
   11d52:	86ba                	mv	a3,a4
   11d54:	18fd                	add	a7,a7,-1
   11d56:	0307879b          	addw	a5,a5,48
   11d5a:	fef60fa3          	sb	a5,-1(a2)
   11d5e:	0267473b          	divw	a4,a4,t1
   11d62:	fedf45e3          	blt	t5,a3,11d4c <_svfprintf_r+0x1492>
   11d66:	0307051b          	addw	a0,a4,48
   11d6a:	fea88fa3          	sb	a0,-1(a7)
   11d6e:	ffe60713          	add	a4,a2,-2
   11d72:	65077b63          	bgeu	a4,a6,123c8 <_svfprintf_r+0x1b0e>
   11d76:	0e210693          	add	a3,sp,226
   11d7a:	00074783          	lbu	a5,0(a4)
   11d7e:	0705                	add	a4,a4,1
   11d80:	0685                	add	a3,a3,1
   11d82:	fef68fa3          	sb	a5,-1(a3)
   11d86:	ff071ae3          	bne	a4,a6,11d7a <_svfprintf_r+0x14c0>
   11d8a:	0f110713          	add	a4,sp,241
   11d8e:	0e210793          	add	a5,sp,226
   11d92:	8f11                	sub	a4,a4,a2
   11d94:	973e                	add	a4,a4,a5
   11d96:	1194                	add	a3,sp,224
   11d98:	40d707bb          	subw	a5,a4,a3
   11d9c:	f8be                	sd	a5,112(sp)
   11d9e:	7746                	ld	a4,112(sp)
   11da0:	77e2                	ld	a5,56(sp)
   11da2:	4605                	li	a2,1
   11da4:	00f70dbb          	addw	s11,a4,a5
   11da8:	876e                	mv	a4,s11
   11daa:	50f65c63          	bge	a2,a5,122c2 <_svfprintf_r+0x1a08>
   11dae:	67e6                	ld	a5,88(sp)
   11db0:	00f70dbb          	addw	s11,a4,a5
   11db4:	6786                	ld	a5,64(sp)
   11db6:	fffdc813          	not	a6,s11
   11dba:	43f85813          	sra	a6,a6,0x3f
   11dbe:	bff7f913          	and	s2,a5,-1025
   11dc2:	2901                	sext.w	s2,s2
   11dc4:	010df833          	and	a6,s11,a6
   11dc8:	10096913          	or	s2,s2,256
   11dcc:	00080c1b          	sext.w	s8,a6
   11dd0:	e482                	sd	zero,72(sp)
   11dd2:	e082                	sd	zero,64(sp)
   11dd4:	f802                	sd	zero,48(sp)
   11dd6:	67ea                	ld	a5,152(sp)
   11dd8:	1e078663          	beqz	a5,11fc4 <_svfprintf_r+0x170a>
   11ddc:	02d00713          	li	a4,45
   11de0:	0ce107a3          	sb	a4,207(sp)
   11de4:	4301                	li	t1,0
   11de6:	2c05                	addw	s8,s8,1
   11de8:	c4bfe06f          	j	10a32 <_svfprintf_r+0x178>
   11dec:	1b82                	sll	s7,s7,0x20
   11dee:	020bdb93          	srl	s7,s7,0x20
   11df2:	f03a                	sd	a4,32(sp)
   11df4:	4785                	li	a5,1
   11df6:	898ff06f          	j	10e8e <_svfprintf_r+0x5d4>
   11dfa:	1b82                	sll	s7,s7,0x20
   11dfc:	020bdb93          	srl	s7,s7,0x20
   11e00:	93eff06f          	j	10f3e <_svfprintf_r+0x684>
   11e04:	67c2                	ld	a5,16(sp)
   11e06:	00f71023          	sh	a5,0(a4)
   11e0a:	95cff06f          	j	10f66 <_svfprintf_r+0x6ac>
   11e0e:	1b82                	sll	s7,s7,0x20
   11e10:	020bdb93          	srl	s7,s7,0x20
   11e14:	ba39                	j	11732 <_svfprintf_r+0xe78>
   11e16:	87de                	mv	a5,s7
   11e18:	8e4ff06f          	j	10efc <_svfprintf_r+0x642>
   11e1c:	0cf14703          	lbu	a4,207(sp)
   11e20:	b3c1                	j	11be0 <_svfprintf_r+0x1326>
   11e22:	6582                	ld	a1,0(sp)
   11e24:	6546                	ld	a0,80(sp)
   11e26:	0210                	add	a2,sp,256
   11e28:	220040ef          	jal	16048 <__ssprint_r>
   11e2c:	cf3fe06f          	j	10b1e <_svfprintf_r+0x264>
   11e30:	6582                	ld	a1,0(sp)
   11e32:	0210                	add	a2,sp,256
   11e34:	854e                	mv	a0,s3
   11e36:	212040ef          	jal	16048 <__ssprint_r>
   11e3a:	c0051663          	bnez	a0,11246 <_svfprintf_r+0x98c>
   11e3e:	466e                	lw	a2,216(sp)
   11e40:	6752                	ld	a4,272(sp)
   11e42:	10812683          	lw	a3,264(sp)
   11e46:	0300                	add	s0,sp,384
   11e48:	b8065ee3          	bgez	a2,119e4 <_svfprintf_r+0x112a>
   11e4c:	b1fd                	j	11b3a <_svfprintf_r+0x1280>
   11e4e:	4319                	li	t1,6
   11e50:	db9fe06f          	j	10c08 <_svfprintf_r+0x34e>
   11e54:	6582                	ld	a1,0(sp)
   11e56:	0210                	add	a2,sp,256
   11e58:	854e                	mv	a0,s3
   11e5a:	1ee040ef          	jal	16048 <__ssprint_r>
   11e5e:	be051463          	bnez	a0,11246 <_svfprintf_r+0x98c>
   11e62:	6bd2                	ld	s7,272(sp)
   11e64:	0300                	add	s0,sp,384
   11e66:	d8eff06f          	j	113f4 <_svfprintf_r+0xb3a>
   11e6a:	0013091b          	addw	s2,t1,1 # ffffffff80000001 <__BSS_END__+0xffffffff7ffe2d19>
   11e6e:	4689                	li	a3,2
   11e70:	bd09                	j	11c82 <_svfprintf_r+0x13c8>
   11e72:	891a                	mv	s2,t1
   11e74:	468d                	li	a3,3
   11e76:	b531                	j	11c82 <_svfprintf_r+0x13c8>
   11e78:	85e6                	mv	a1,s9
   11e7a:	8562                	mv	a0,s8
   11e7c:	f81a                	sd	t1,48(sp)
   11e7e:	72b080ef          	jal	1ada8 <__trunctfdf2>
   11e82:	09a8                	add	a0,sp,216
   11e84:	6c3030ef          	jal	15d46 <frexp>
   11e88:	65d080ef          	jal	1ace4 <__extenddftf2>
   11e8c:	676d                	lui	a4,0x1b
   11e8e:	30873683          	ld	a3,776(a4) # 1b308 <blanks.1+0x20>
   11e92:	4601                	li	a2,0
   11e94:	611070ef          	jal	19ca4 <__multf3>
   11e98:	4601                	li	a2,0
   11e9a:	4681                	li	a3,0
   11e9c:	8daa                	mv	s11,a0
   11e9e:	892e                	mv	s2,a1
   11ea0:	3eb070ef          	jal	19a8a <__eqtf2>
   11ea4:	7342                	ld	t1,48(sp)
   11ea6:	e119                	bnez	a0,11eac <_svfprintf_r+0x15f2>
   11ea8:	4705                	li	a4,1
   11eaa:	cdba                	sw	a4,216(sp)
   11eac:	676d                	lui	a4,0x1b
   11eae:	09870793          	add	a5,a4,152 # 1b098 <__clzdi2+0x76>
   11eb2:	fc3e                	sd	a5,56(sp)
   11eb4:	66ed                	lui	a3,0x1b
   11eb6:	3186b783          	ld	a5,792(a3) # 1b318 <blanks.1+0x30>
   11eba:	02031713          	sll	a4,t1,0x20
   11ebe:	9301                	srl	a4,a4,0x20
   11ec0:	0705                	add	a4,a4,1
   11ec2:	f83e                	sd	a5,48(sp)
   11ec4:	0003061b          	sext.w	a2,t1
   11ec8:	00eb07b3          	add	a5,s6,a4
   11ecc:	e4a6                	sd	s1,72(sp)
   11ece:	f152                	sd	s4,160(sp)
   11ed0:	f922                	sd	s0,176(sp)
   11ed2:	84be                	mv	s1,a5
   11ed4:	7462                	ld	s0,56(sp)
   11ed6:	fd32                	sd	a2,184(sp)
   11ed8:	f51a                	sd	t1,168(sp)
   11eda:	8a5a                	mv	s4,s6
   11edc:	8bce                	mv	s7,s3
   11ede:	8cda                	mv	s9,s6
   11ee0:	a039                	j	11eee <_svfprintf_r+0x1634>
   11ee2:	4601                	li	a2,0
   11ee4:	4681                	li	a3,0
   11ee6:	3a5070ef          	jal	19a8a <__eqtf2>
   11eea:	3a050263          	beqz	a0,1228e <_svfprintf_r+0x19d4>
   11eee:	76c2                	ld	a3,48(sp)
   11ef0:	4601                	li	a2,0
   11ef2:	856e                	mv	a0,s11
   11ef4:	85ca                	mv	a1,s2
   11ef6:	5af070ef          	jal	19ca4 <__multf3>
   11efa:	892e                	mv	s2,a1
   11efc:	89aa                	mv	s3,a0
   11efe:	501080ef          	jal	1abfe <__fixtfsi>
   11f02:	00050c1b          	sext.w	s8,a0
   11f06:	8562                	mv	a0,s8
   11f08:	587080ef          	jal	1ac8e <__floatsitf>
   11f0c:	86ae                	mv	a3,a1
   11f0e:	862a                	mv	a2,a0
   11f10:	85ca                	mv	a1,s2
   11f12:	854e                	mv	a0,s3
   11f14:	3b2080ef          	jal	1a2c6 <__subtf3>
   11f18:	01840733          	add	a4,s0,s8
   11f1c:	00074683          	lbu	a3,0(a4)
   11f20:	89d2                	mv	s3,s4
   11f22:	0a05                	add	s4,s4,1
   11f24:	feda0fa3          	sb	a3,-1(s4)
   11f28:	8aaa                	mv	s5,a0
   11f2a:	8daa                	mv	s11,a0
   11f2c:	892e                	mv	s2,a1
   11f2e:	fb449ae3          	bne	s1,s4,11ee2 <_svfprintf_r+0x1628>
   11f32:	8ad2                	mv	s5,s4
   11f34:	64a6                	ld	s1,72(sp)
   11f36:	732a                	ld	t1,168(sp)
   11f38:	744a                	ld	s0,176(sp)
   11f3a:	7a0a                	ld	s4,160(sp)
   11f3c:	f84e                	sd	s3,48(sp)
   11f3e:	8b66                	mv	s6,s9
   11f40:	89de                	mv	s3,s7
   11f42:	8cae                	mv	s9,a1
   11f44:	8baa                	mv	s7,a0
   11f46:	5dfd                	li	s11,-1
   11f48:	66ed                	lui	a3,0x1b
   11f4a:	3286b903          	ld	s2,808(a3) # 1b328 <blanks.1+0x40>
   11f4e:	4601                	li	a2,0
   11f50:	855e                	mv	a0,s7
   11f52:	86ca                	mv	a3,s2
   11f54:	85e6                	mv	a1,s9
   11f56:	e49a                	sd	t1,72(sp)
   11f58:	3cd070ef          	jal	19b24 <__getf2>
   11f5c:	6326                	ld	t1,72(sp)
   11f5e:	28a04a63          	bgtz	a0,121f2 <_svfprintf_r+0x1938>
   11f62:	4601                	li	a2,0
   11f64:	86ca                	mv	a3,s2
   11f66:	855e                	mv	a0,s7
   11f68:	85e6                	mv	a1,s9
   11f6a:	321070ef          	jal	19a8a <__eqtf2>
   11f6e:	6326                	ld	t1,72(sp)
   11f70:	e509                	bnez	a0,11f7a <_svfprintf_r+0x16c0>
   11f72:	001c7c13          	and	s8,s8,1
   11f76:	260c1e63          	bnez	s8,121f2 <_svfprintf_r+0x1938>
   11f7a:	001d8c1b          	addw	s8,s11,1
   11f7e:	9c56                	add	s8,s8,s5
   11f80:	03000693          	li	a3,48
   11f84:	2a0dc763          	bltz	s11,12232 <_svfprintf_r+0x1978>
   11f88:	0a85                	add	s5,s5,1
   11f8a:	feda8fa3          	sb	a3,-1(s5)
   11f8e:	ff5c1de3          	bne	s8,s5,11f88 <_svfprintf_r+0x16ce>
   11f92:	416c07bb          	subw	a5,s8,s6
   11f96:	fc3e                	sd	a5,56(sp)
   11f98:	fdfd7d93          	and	s11,s10,-33
   11f9c:	bb99                	j	11cf2 <_svfprintf_r+0x1438>
   11f9e:	7c2e                	ld	s8,232(sp)
   11fa0:	466e                	lw	a2,216(sp)
   11fa2:	416c07bb          	subw	a5,s8,s6
   11fa6:	fc3e                	sd	a5,56(sp)
   11fa8:	5775                	li	a4,-3
   11faa:	f832                	sd	a2,48(sp)
   11fac:	00e64463          	blt	a2,a4,11fb4 <_svfprintf_r+0x16fa>
   11fb0:	02c35263          	bge	t1,a2,11fd4 <_svfprintf_r+0x171a>
   11fb4:	fff6071b          	addw	a4,a2,-1
   11fb8:	3d79                	addw	s10,s10,-2
   11fba:	cdba                	sw	a4,216(sp)
   11fbc:	0ffd7693          	zext.b	a3,s10
   11fc0:	4581                	li	a1,0
   11fc2:	b385                	j	11d22 <_svfprintf_r+0x1468>
   11fc4:	0cf14703          	lbu	a4,207(sp)
   11fc8:	4301                	li	t1,0
   11fca:	c319                	beqz	a4,11fd0 <_svfprintf_r+0x1716>
   11fcc:	dc7fe06f          	j	10d92 <_svfprintf_r+0x4d8>
   11fd0:	a63fe06f          	j	10a32 <_svfprintf_r+0x178>
   11fd4:	77e2                	ld	a5,56(sp)
   11fd6:	1af64463          	blt	a2,a5,1217e <_svfprintf_r+0x18c4>
   11fda:	6786                	ld	a5,64(sp)
   11fdc:	8db2                	mv	s11,a2
   11fde:	0017f713          	and	a4,a5,1
   11fe2:	c701                	beqz	a4,11fea <_svfprintf_r+0x1730>
   11fe4:	67e6                	ld	a5,88(sp)
   11fe6:	00c78dbb          	addw	s11,a5,a2
   11fea:	6786                	ld	a5,64(sp)
   11fec:	4007f713          	and	a4,a5,1024
   11ff0:	c319                	beqz	a4,11ff6 <_svfprintf_r+0x173c>
   11ff2:	2ec04863          	bgtz	a2,122e2 <_svfprintf_r+0x1a28>
   11ff6:	fffdc813          	not	a6,s11
   11ffa:	43f85813          	sra	a6,a6,0x3f
   11ffe:	694a                	ld	s2,144(sp)
   12000:	010df833          	and	a6,s11,a6
   12004:	00080c1b          	sext.w	s8,a6
   12008:	06700d13          	li	s10,103
   1200c:	e482                	sd	zero,72(sp)
   1200e:	e082                	sd	zero,64(sp)
   12010:	b3d9                	j	11dd6 <_svfprintf_r+0x151c>
   12012:	6786                	ld	a5,64(sp)
   12014:	0017f713          	and	a4,a5,1
   12018:	d359                	beqz	a4,11f9e <_svfprintf_r+0x16e4>
   1201a:	012b0ab3          	add	s5,s6,s2
   1201e:	04700d93          	li	s11,71
   12022:	b971                	j	11cbe <_svfprintf_r+0x1404>
   12024:	0210                	add	a2,sp,256
   12026:	85e6                	mv	a1,s9
   12028:	854e                	mv	a0,s3
   1202a:	01e040ef          	jal	16048 <__ssprint_r>
   1202e:	a0051c63          	bnez	a0,11246 <_svfprintf_r+0x98c>
   12032:	00094683          	lbu	a3,0(s2)
   12036:	6752                	ld	a4,272(sp)
   12038:	0300                	add	s0,sp,384
   1203a:	48c1                	li	a7,16
   1203c:	431d                	li	t1,7
   1203e:	9a36                	add	s4,s4,a3
   12040:	b061                	j	118c8 <_svfprintf_r+0x100e>
   12042:	07800713          	li	a4,120
   12046:	00296793          	or	a5,s2,2
   1204a:	03000693          	li	a3,48
   1204e:	2781                	sext.w	a5,a5
   12050:	0ce108a3          	sb	a4,209(sp)
   12054:	0cd10823          	sb	a3,208(sp)
   12058:	06300713          	li	a4,99
   1205c:	e0be                	sd	a5,64(sp)
   1205e:	ec02                	sd	zero,24(sp)
   12060:	11810b13          	add	s6,sp,280
   12064:	1c674963          	blt	a4,t1,12236 <_svfprintf_r+0x197c>
   12068:	10296913          	or	s2,s2,258
   1206c:	7cee                	ld	s9,248(sp)
   1206e:	0009079b          	sext.w	a5,s2
   12072:	e93e                	sd	a5,144(sp)
   12074:	ed02                	sd	zero,152(sp)
   12076:	7c4e                	ld	s8,240(sp)
   12078:	040cc863          	bltz	s9,120c8 <_svfprintf_r+0x180e>
   1207c:	06100713          	li	a4,97
   12080:	00ed0463          	beq	s10,a4,12088 <_svfprintf_r+0x17ce>
   12084:	ba1fe06f          	j	10c24 <_svfprintf_r+0x36a>
   12088:	85e6                	mv	a1,s9
   1208a:	8562                	mv	a0,s8
   1208c:	f81a                	sd	t1,48(sp)
   1208e:	51b080ef          	jal	1ada8 <__trunctfdf2>
   12092:	09a8                	add	a0,sp,216
   12094:	4b3030ef          	jal	15d46 <frexp>
   12098:	44d080ef          	jal	1ace4 <__extenddftf2>
   1209c:	676d                	lui	a4,0x1b
   1209e:	30873683          	ld	a3,776(a4) # 1b308 <blanks.1+0x20>
   120a2:	4601                	li	a2,0
   120a4:	401070ef          	jal	19ca4 <__multf3>
   120a8:	4601                	li	a2,0
   120aa:	4681                	li	a3,0
   120ac:	8daa                	mv	s11,a0
   120ae:	892e                	mv	s2,a1
   120b0:	1db070ef          	jal	19a8a <__eqtf2>
   120b4:	7342                	ld	t1,48(sp)
   120b6:	e119                	bnez	a0,120bc <_svfprintf_r+0x1802>
   120b8:	4705                	li	a4,1
   120ba:	cdba                	sw	a4,216(sp)
   120bc:	676d                	lui	a4,0x1b
   120be:	0b070793          	add	a5,a4,176 # 1b0b0 <__clzdi2+0x8e>
   120c2:	fc3e                	sd	a5,56(sp)
   120c4:	bbc5                	j	11eb4 <_svfprintf_r+0x15fa>
   120c6:	ec02                	sd	zero,24(sp)
   120c8:	577d                	li	a4,-1
   120ca:	177e                	sll	a4,a4,0x3f
   120cc:	02d00793          	li	a5,45
   120d0:	00ecccb3          	xor	s9,s9,a4
   120d4:	ed3e                	sd	a5,152(sp)
   120d6:	b75d                	j	1207c <_svfprintf_r+0x17c2>
   120d8:	6582                	ld	a1,0(sp)
   120da:	0210                	add	a2,sp,256
   120dc:	854e                	mv	a0,s3
   120de:	76b030ef          	jal	16048 <__ssprint_r>
   120e2:	96051263          	bnez	a0,11246 <_svfprintf_r+0x98c>
   120e6:	46ee                	lw	a3,216(sp)
   120e8:	6752                	ld	a4,272(sp)
   120ea:	0300                	add	s0,sp,384
   120ec:	b4aff06f          	j	11436 <_svfprintf_r+0xb7c>
   120f0:	02d00793          	li	a5,45
   120f4:	0cf107a3          	sb	a5,207(sp)
   120f8:	02d00713          	li	a4,45
   120fc:	ba65                	j	11ab4 <_svfprintf_r+0x11fa>
   120fe:	00054683          	lbu	a3,0(a0) # 1c000 <__EH_FRAME_BEGIN__>
   12102:	03000713          	li	a4,48
   12106:	00e68563          	beq	a3,a4,12110 <_svfprintf_r+0x1856>
   1210a:	46ee                	lw	a3,216(sp)
   1210c:	9ab6                	add	s5,s5,a3
   1210e:	be45                	j	11cbe <_svfprintf_r+0x1404>
   12110:	4601                	li	a2,0
   12112:	4681                	li	a3,0
   12114:	8562                	mv	a0,s8
   12116:	85e6                	mv	a1,s9
   12118:	f81a                	sd	t1,48(sp)
   1211a:	171070ef          	jal	19a8a <__eqtf2>
   1211e:	7342                	ld	t1,48(sp)
   12120:	d56d                	beqz	a0,1210a <_svfprintf_r+0x1850>
   12122:	4705                	li	a4,1
   12124:	412706bb          	subw	a3,a4,s2
   12128:	cdb6                	sw	a3,216(sp)
   1212a:	9ab6                	add	s5,s5,a3
   1212c:	be49                	j	11cbe <_svfprintf_r+0x1404>
   1212e:	0cf14703          	lbu	a4,207(sp)
   12132:	f056                	sd	s5,32(sp)
   12134:	e482                	sd	zero,72(sp)
   12136:	e082                	sd	zero,64(sp)
   12138:	f802                	sd	zero,48(sp)
   1213a:	8c1a                	mv	s8,t1
   1213c:	8d9a                	mv	s11,t1
   1213e:	4301                	li	t1,0
   12140:	c319                	beqz	a4,12146 <_svfprintf_r+0x188c>
   12142:	c51fe06f          	j	10d92 <_svfprintf_r+0x4d8>
   12146:	8edfe06f          	j	10a32 <_svfprintf_r+0x178>
   1214a:	6582                	ld	a1,0(sp)
   1214c:	0210                	add	a2,sp,256
   1214e:	854e                	mv	a0,s3
   12150:	6f9030ef          	jal	16048 <__ssprint_r>
   12154:	c119                	beqz	a0,1215a <_svfprintf_r+0x18a0>
   12156:	8f0ff06f          	j	11246 <_svfprintf_r+0x98c>
   1215a:	466e                	lw	a2,216(sp)
   1215c:	77e2                	ld	a5,56(sp)
   1215e:	6752                	ld	a4,272(sp)
   12160:	0300                	add	s0,sp,384
   12162:	40c7863b          	subw	a2,a5,a2
   12166:	b08ff06f          	j	1146e <_svfprintf_r+0xbb4>
   1216a:	67ed                	lui	a5,0x1b
   1216c:	08878b13          	add	s6,a5,136 # 1b088 <__clzdi2+0x66>
   12170:	ba89                	j	11ac2 <_svfprintf_r+0x1208>
   12172:	05800713          	li	a4,88
   12176:	bdc1                	j	12046 <_svfprintf_r+0x178c>
   12178:	8cca                	mv	s9,s2
   1217a:	980ff06f          	j	112fa <_svfprintf_r+0xa40>
   1217e:	67e6                	ld	a5,88(sp)
   12180:	7762                	ld	a4,56(sp)
   12182:	06700d13          	li	s10,103
   12186:	00e78dbb          	addw	s11,a5,a4
   1218a:	77c2                	ld	a5,48(sp)
   1218c:	1af05f63          	blez	a5,1234a <_svfprintf_r+0x1a90>
   12190:	6786                	ld	a5,64(sp)
   12192:	4007f713          	and	a4,a5,1024
   12196:	14071863          	bnez	a4,122e6 <_svfprintf_r+0x1a2c>
   1219a:	fffdc813          	not	a6,s11
   1219e:	43f85813          	sra	a6,a6,0x3f
   121a2:	010df833          	and	a6,s11,a6
   121a6:	694a                	ld	s2,144(sp)
   121a8:	00080c1b          	sext.w	s8,a6
   121ac:	b585                	j	1200c <_svfprintf_r+0x1752>
   121ae:	6786                	ld	a5,64(sp)
   121b0:	0017f713          	and	a4,a5,1
   121b4:	77c2                	ld	a5,48(sp)
   121b6:	00e36733          	or	a4,t1,a4
   121ba:	1cf05f63          	blez	a5,12398 <_svfprintf_r+0x1ade>
   121be:	1a071363          	bnez	a4,12364 <_svfprintf_r+0x1aaa>
   121c2:	7dc2                	ld	s11,48(sp)
   121c4:	06600d13          	li	s10,102
   121c8:	b7e1                	j	12190 <_svfprintf_r+0x18d6>
   121ca:	0e210693          	add	a3,sp,226
   121ce:	e599                	bnez	a1,121dc <_svfprintf_r+0x1922>
   121d0:	03000693          	li	a3,48
   121d4:	0ed10123          	sb	a3,226(sp)
   121d8:	0e310693          	add	a3,sp,227
   121dc:	041c                	add	a5,sp,512
   121de:	40f68633          	sub	a2,a3,a5
   121e2:	0307071b          	addw	a4,a4,48
   121e6:	1216079b          	addw	a5,a2,289
   121ea:	00e68023          	sb	a4,0(a3)
   121ee:	f8be                	sd	a5,112(sp)
   121f0:	b67d                	j	11d9e <_svfprintf_r+0x14e4>
   121f2:	77c2                	ld	a5,48(sp)
   121f4:	86d6                	mv	a3,s5
   121f6:	f5be                	sd	a5,232(sp)
   121f8:	77e2                	ld	a5,56(sp)
   121fa:	fffac603          	lbu	a2,-1(s5)
   121fe:	00f7c583          	lbu	a1,15(a5)
   12202:	00c59e63          	bne	a1,a2,1221e <_svfprintf_r+0x1964>
   12206:	03000513          	li	a0,48
   1220a:	fea68fa3          	sb	a0,-1(a3)
   1220e:	76ae                	ld	a3,232(sp)
   12210:	fff68793          	add	a5,a3,-1
   12214:	f5be                	sd	a5,232(sp)
   12216:	fff6c603          	lbu	a2,-1(a3)
   1221a:	fec588e3          	beq	a1,a2,1220a <_svfprintf_r+0x1950>
   1221e:	0016059b          	addw	a1,a2,1
   12222:	03900513          	li	a0,57
   12226:	0ff5f593          	zext.b	a1,a1
   1222a:	02a60263          	beq	a2,a0,1224e <_svfprintf_r+0x1994>
   1222e:	feb68fa3          	sb	a1,-1(a3)
   12232:	8c56                	mv	s8,s5
   12234:	bbb9                	j	11f92 <_svfprintf_r+0x16d8>
   12236:	0013059b          	addw	a1,t1,1
   1223a:	854e                	mv	a0,s3
   1223c:	ec1a                	sd	t1,24(sp)
   1223e:	76c020ef          	jal	149aa <_malloc_r>
   12242:	6362                	ld	t1,24(sp)
   12244:	8b2a                	mv	s6,a0
   12246:	18050763          	beqz	a0,123d4 <_svfprintf_r+0x1b1a>
   1224a:	ec2a                	sd	a0,24(sp)
   1224c:	bd31                	j	12068 <_svfprintf_r+0x17ae>
   1224e:	77e2                	ld	a5,56(sp)
   12250:	00a7c583          	lbu	a1,10(a5)
   12254:	feb68fa3          	sb	a1,-1(a3)
   12258:	bfe9                	j	12232 <_svfprintf_r+0x1978>
   1225a:	2685                	addw	a3,a3,1
   1225c:	9766                	add	a4,a4,s9
   1225e:	01743023          	sd	s7,0(s0)
   12262:	01943423          	sd	s9,8(s0)
   12266:	ea3a                	sd	a4,272(sp)
   12268:	10d12423          	sw	a3,264(sp)
   1226c:	461d                	li	a2,7
   1226e:	f6d65a63          	bge	a2,a3,119e2 <_svfprintf_r+0x1128>
   12272:	6582                	ld	a1,0(sp)
   12274:	0210                	add	a2,sp,256
   12276:	854e                	mv	a0,s3
   12278:	5d1030ef          	jal	16048 <__ssprint_r>
   1227c:	c119                	beqz	a0,12282 <_svfprintf_r+0x19c8>
   1227e:	fc9fe06f          	j	11246 <_svfprintf_r+0x98c>
   12282:	6752                	ld	a4,272(sp)
   12284:	10812683          	lw	a3,264(sp)
   12288:	0300                	add	s0,sp,384
   1228a:	f5aff06f          	j	119e4 <_svfprintf_r+0x112a>
   1228e:	766a                	ld	a2,184(sp)
   12290:	8b66                	mv	s6,s9
   12292:	f84e                	sd	s3,48(sp)
   12294:	00cb063b          	addw	a2,s6,a2
   12298:	89de                	mv	s3,s7
   1229a:	8bd6                	mv	s7,s5
   1229c:	8ad2                	mv	s5,s4
   1229e:	64a6                	ld	s1,72(sp)
   122a0:	732a                	ld	t1,168(sp)
   122a2:	744a                	ld	s0,176(sp)
   122a4:	7a0a                	ld	s4,160(sp)
   122a6:	8cca                	mv	s9,s2
   122a8:	41560dbb          	subw	s11,a2,s5
   122ac:	b971                	j	11f48 <_svfprintf_r+0x168e>
   122ae:	6746                	ld	a4,80(sp)
   122b0:	47b1                	li	a5,12
   122b2:	c31c                	sw	a5,0(a4)
   122b4:	57fd                	li	a5,-1
   122b6:	e83e                	sd	a5,16(sp)
   122b8:	877fe06f          	j	10b2e <_svfprintf_r+0x274>
   122bc:	f03a                	sd	a4,32(sp)
   122be:	83cff06f          	j	112fa <_svfprintf_r+0xa40>
   122c2:	6786                	ld	a5,64(sp)
   122c4:	0017f613          	and	a2,a5,1
   122c8:	ae0606e3          	beqz	a2,11db4 <_svfprintf_r+0x14fa>
   122cc:	b4cd                	j	11dae <_svfprintf_r+0x14f4>
   122ce:	c31c                	sw	a5,0(a4)
   122d0:	c97fe06f          	j	10f66 <_svfprintf_r+0x6ac>
   122d4:	00030463          	beqz	t1,122dc <_svfprintf_r+0x1a22>
   122d8:	931fe06f          	j	10c08 <_svfprintf_r+0x34e>
   122dc:	4305                	li	t1,1
   122de:	92bfe06f          	j	10c08 <_svfprintf_r+0x34e>
   122e2:	06700d13          	li	s10,103
   122e6:	76e6                	ld	a3,120(sp)
   122e8:	0ff00613          	li	a2,255
   122ec:	0006c703          	lbu	a4,0(a3)
   122f0:	0cc70f63          	beq	a4,a2,123ce <_svfprintf_r+0x1b14>
   122f4:	77c2                	ld	a5,48(sp)
   122f6:	4801                	li	a6,0
   122f8:	4501                	li	a0,0
   122fa:	0ff00593          	li	a1,255
   122fe:	0007061b          	sext.w	a2,a4
   12302:	00f75a63          	bge	a4,a5,12316 <_svfprintf_r+0x1a5c>
   12306:	0016c703          	lbu	a4,1(a3)
   1230a:	9f91                	subw	a5,a5,a2
   1230c:	cb1d                	beqz	a4,12342 <_svfprintf_r+0x1a88>
   1230e:	2505                	addw	a0,a0,1
   12310:	0685                	add	a3,a3,1
   12312:	feb716e3          	bne	a4,a1,122fe <_svfprintf_r+0x1a44>
   12316:	fcb6                	sd	a3,120(sp)
   12318:	f83e                	sd	a5,48(sp)
   1231a:	e0aa                	sd	a0,64(sp)
   1231c:	e4c2                	sd	a6,72(sp)
   1231e:	67a6                	ld	a5,72(sp)
   12320:	6706                	ld	a4,64(sp)
   12322:	694a                	ld	s2,144(sp)
   12324:	9f3d                	addw	a4,a4,a5
   12326:	678a                	ld	a5,128(sp)
   12328:	02f7073b          	mulw	a4,a4,a5
   1232c:	01b7073b          	addw	a4,a4,s11
   12330:	00070d9b          	sext.w	s11,a4
   12334:	fffdc613          	not	a2,s11
   12338:	967d                	sra	a2,a2,0x3f
   1233a:	8f71                	and	a4,a4,a2
   1233c:	00070c1b          	sext.w	s8,a4
   12340:	bc59                	j	11dd6 <_svfprintf_r+0x151c>
   12342:	0006c703          	lbu	a4,0(a3)
   12346:	2805                	addw	a6,a6,1
   12348:	b7e9                	j	12312 <_svfprintf_r+0x1a58>
   1234a:	40fd873b          	subw	a4,s11,a5
   1234e:	2705                	addw	a4,a4,1
   12350:	00070d9b          	sext.w	s11,a4
   12354:	fffdc613          	not	a2,s11
   12358:	967d                	sra	a2,a2,0x3f
   1235a:	8f71                	and	a4,a4,a2
   1235c:	694a                	ld	s2,144(sp)
   1235e:	00070c1b          	sext.w	s8,a4
   12362:	b16d                	j	1200c <_svfprintf_r+0x1752>
   12364:	6766                	ld	a4,88(sp)
   12366:	06600d13          	li	s10,102
   1236a:	00f706bb          	addw	a3,a4,a5
   1236e:	00668dbb          	addw	s11,a3,t1
   12372:	bd39                	j	12190 <_svfprintf_r+0x18d6>
   12374:	07000693          	li	a3,112
   12378:	b265                	j	11d20 <_svfprintf_r+0x1466>
   1237a:	7682                	ld	a3,32(sp)
   1237c:	4298                	lw	a4,0(a3)
   1237e:	06a1                	add	a3,a3,8
   12380:	833a                	mv	t1,a4
   12382:	00075363          	bgez	a4,12388 <_svfprintf_r+0x1ace>
   12386:	537d                	li	t1,-1
   12388:	0014ce03          	lbu	t3,1(s1)
   1238c:	00030a9b          	sext.w	s5,t1
   12390:	f036                	sd	a3,32(sp)
   12392:	84be                	mv	s1,a5
   12394:	e28fe06f          	j	109bc <_svfprintf_r+0x102>
   12398:	e719                	bnez	a4,123a6 <_svfprintf_r+0x1aec>
   1239a:	694a                	ld	s2,144(sp)
   1239c:	4c05                	li	s8,1
   1239e:	06600d13          	li	s10,102
   123a2:	4d85                	li	s11,1
   123a4:	b1a5                	j	1200c <_svfprintf_r+0x1752>
   123a6:	67e6                	ld	a5,88(sp)
   123a8:	694a                	ld	s2,144(sp)
   123aa:	06600d13          	li	s10,102
   123ae:	0017871b          	addw	a4,a5,1
   123b2:	0067073b          	addw	a4,a4,t1
   123b6:	00070d9b          	sext.w	s11,a4
   123ba:	fffdc613          	not	a2,s11
   123be:	967d                	sra	a2,a2,0x3f
   123c0:	8f71                	and	a4,a4,a2
   123c2:	00070c1b          	sext.w	s8,a4
   123c6:	b199                	j	1200c <_svfprintf_r+0x1752>
   123c8:	4789                	li	a5,2
   123ca:	f8be                	sd	a5,112(sp)
   123cc:	bac9                	j	11d9e <_svfprintf_r+0x14e4>
   123ce:	e482                	sd	zero,72(sp)
   123d0:	e082                	sd	zero,64(sp)
   123d2:	b7b1                	j	1231e <_svfprintf_r+0x1a64>
   123d4:	6702                	ld	a4,0(sp)
   123d6:	01075783          	lhu	a5,16(a4)
   123da:	0407e793          	or	a5,a5,64
   123de:	00f71823          	sh	a5,16(a4)
   123e2:	f3cfe06f          	j	10b1e <_svfprintf_r+0x264>

00000000000123e6 <__call_exitprocs>:
   123e6:	715d                	add	sp,sp,-80
   123e8:	f052                	sd	s4,32(sp)
   123ea:	7481ba03          	ld	s4,1864(gp) # 1d230 <_global_impure_ptr>
   123ee:	f84a                	sd	s2,48(sp)
   123f0:	e486                	sd	ra,72(sp)
   123f2:	1f8a3903          	ld	s2,504(s4)
   123f6:	e0a2                	sd	s0,64(sp)
   123f8:	fc26                	sd	s1,56(sp)
   123fa:	f44e                	sd	s3,40(sp)
   123fc:	ec56                	sd	s5,24(sp)
   123fe:	e85a                	sd	s6,16(sp)
   12400:	e45e                	sd	s7,8(sp)
   12402:	e062                	sd	s8,0(sp)
   12404:	02090863          	beqz	s2,12434 <__call_exitprocs+0x4e>
   12408:	8b2a                	mv	s6,a0
   1240a:	8bae                	mv	s7,a1
   1240c:	4a85                	li	s5,1
   1240e:	59fd                	li	s3,-1
   12410:	00892483          	lw	s1,8(s2)
   12414:	fff4841b          	addw	s0,s1,-1
   12418:	00044e63          	bltz	s0,12434 <__call_exitprocs+0x4e>
   1241c:	048e                	sll	s1,s1,0x3
   1241e:	94ca                	add	s1,s1,s2
   12420:	020b8663          	beqz	s7,1244c <__call_exitprocs+0x66>
   12424:	2084b783          	ld	a5,520(s1)
   12428:	03778263          	beq	a5,s7,1244c <__call_exitprocs+0x66>
   1242c:	347d                	addw	s0,s0,-1
   1242e:	14e1                	add	s1,s1,-8
   12430:	ff3418e3          	bne	s0,s3,12420 <__call_exitprocs+0x3a>
   12434:	60a6                	ld	ra,72(sp)
   12436:	6406                	ld	s0,64(sp)
   12438:	74e2                	ld	s1,56(sp)
   1243a:	7942                	ld	s2,48(sp)
   1243c:	79a2                	ld	s3,40(sp)
   1243e:	7a02                	ld	s4,32(sp)
   12440:	6ae2                	ld	s5,24(sp)
   12442:	6b42                	ld	s6,16(sp)
   12444:	6ba2                	ld	s7,8(sp)
   12446:	6c02                	ld	s8,0(sp)
   12448:	6161                	add	sp,sp,80
   1244a:	8082                	ret
   1244c:	00892783          	lw	a5,8(s2)
   12450:	6498                	ld	a4,8(s1)
   12452:	37fd                	addw	a5,a5,-1
   12454:	04878463          	beq	a5,s0,1249c <__call_exitprocs+0xb6>
   12458:	0004b423          	sd	zero,8(s1)
   1245c:	db61                	beqz	a4,1242c <__call_exitprocs+0x46>
   1245e:	31092783          	lw	a5,784(s2)
   12462:	008a96bb          	sllw	a3,s5,s0
   12466:	00892c03          	lw	s8,8(s2)
   1246a:	8ff5                	and	a5,a5,a3
   1246c:	2781                	sext.w	a5,a5
   1246e:	ef89                	bnez	a5,12488 <__call_exitprocs+0xa2>
   12470:	9702                	jalr	a4
   12472:	00892703          	lw	a4,8(s2)
   12476:	1f8a3783          	ld	a5,504(s4)
   1247a:	01871463          	bne	a4,s8,12482 <__call_exitprocs+0x9c>
   1247e:	fb2787e3          	beq	a5,s2,1242c <__call_exitprocs+0x46>
   12482:	dbcd                	beqz	a5,12434 <__call_exitprocs+0x4e>
   12484:	893e                	mv	s2,a5
   12486:	b769                	j	12410 <__call_exitprocs+0x2a>
   12488:	31492783          	lw	a5,788(s2)
   1248c:	1084b583          	ld	a1,264(s1)
   12490:	8ff5                	and	a5,a5,a3
   12492:	2781                	sext.w	a5,a5
   12494:	e799                	bnez	a5,124a2 <__call_exitprocs+0xbc>
   12496:	855a                	mv	a0,s6
   12498:	9702                	jalr	a4
   1249a:	bfe1                	j	12472 <__call_exitprocs+0x8c>
   1249c:	00892423          	sw	s0,8(s2)
   124a0:	bf75                	j	1245c <__call_exitprocs+0x76>
   124a2:	852e                	mv	a0,a1
   124a4:	9702                	jalr	a4
   124a6:	b7f1                	j	12472 <__call_exitprocs+0x8c>

00000000000124a8 <__libc_fini_array>:
   124a8:	1101                	add	sp,sp,-32
   124aa:	e822                	sd	s0,16(sp)
   124ac:	67f1                	lui	a5,0x1c
   124ae:	6471                	lui	s0,0x1c
   124b0:	01878793          	add	a5,a5,24 # 1c018 <__do_global_dtors_aux_fini_array_entry>
   124b4:	02040413          	add	s0,s0,32 # 1c020 <impure_data>
   124b8:	8c1d                	sub	s0,s0,a5
   124ba:	e426                	sd	s1,8(sp)
   124bc:	ec06                	sd	ra,24(sp)
   124be:	40345493          	sra	s1,s0,0x3
   124c2:	c881                	beqz	s1,124d2 <__libc_fini_array+0x2a>
   124c4:	1461                	add	s0,s0,-8
   124c6:	943e                	add	s0,s0,a5
   124c8:	601c                	ld	a5,0(s0)
   124ca:	14fd                	add	s1,s1,-1
   124cc:	1461                	add	s0,s0,-8
   124ce:	9782                	jalr	a5
   124d0:	fce5                	bnez	s1,124c8 <__libc_fini_array+0x20>
   124d2:	60e2                	ld	ra,24(sp)
   124d4:	6442                	ld	s0,16(sp)
   124d6:	64a2                	ld	s1,8(sp)
   124d8:	6105                	add	sp,sp,32
   124da:	8082                	ret

00000000000124dc <_malloc_trim_r>:
   124dc:	7179                	add	sp,sp,-48
   124de:	e44e                	sd	s3,8(sp)
   124e0:	69f5                	lui	s3,0x1d
   124e2:	f022                	sd	s0,32(sp)
   124e4:	ec26                	sd	s1,24(sp)
   124e6:	e84a                	sd	s2,16(sp)
   124e8:	e052                	sd	s4,0(sp)
   124ea:	f406                	sd	ra,40(sp)
   124ec:	8a2e                	mv	s4,a1
   124ee:	892a                	mv	s2,a0
   124f0:	91098993          	add	s3,s3,-1776 # 1c910 <__malloc_av_>
   124f4:	373020ef          	jal	15066 <__malloc_lock>
   124f8:	0109b703          	ld	a4,16(s3)
   124fc:	6785                	lui	a5,0x1
   124fe:	fdf78413          	add	s0,a5,-33 # fdf <exit-0xf109>
   12502:	6704                	ld	s1,8(a4)
   12504:	98f1                	and	s1,s1,-4
   12506:	9426                	add	s0,s0,s1
   12508:	41440433          	sub	s0,s0,s4
   1250c:	8031                	srl	s0,s0,0xc
   1250e:	147d                	add	s0,s0,-1
   12510:	0432                	sll	s0,s0,0xc
   12512:	00f44b63          	blt	s0,a5,12528 <_malloc_trim_r+0x4c>
   12516:	4581                	li	a1,0
   12518:	854a                	mv	a0,s2
   1251a:	7f6030ef          	jal	15d10 <_sbrk_r>
   1251e:	0109b783          	ld	a5,16(s3)
   12522:	97a6                	add	a5,a5,s1
   12524:	00f50e63          	beq	a0,a5,12540 <_malloc_trim_r+0x64>
   12528:	854a                	mv	a0,s2
   1252a:	33f020ef          	jal	15068 <__malloc_unlock>
   1252e:	70a2                	ld	ra,40(sp)
   12530:	7402                	ld	s0,32(sp)
   12532:	64e2                	ld	s1,24(sp)
   12534:	6942                	ld	s2,16(sp)
   12536:	69a2                	ld	s3,8(sp)
   12538:	6a02                	ld	s4,0(sp)
   1253a:	4501                	li	a0,0
   1253c:	6145                	add	sp,sp,48
   1253e:	8082                	ret
   12540:	408005b3          	neg	a1,s0
   12544:	854a                	mv	a0,s2
   12546:	7ca030ef          	jal	15d10 <_sbrk_r>
   1254a:	57fd                	li	a5,-1
   1254c:	02f50a63          	beq	a0,a5,12580 <_malloc_trim_r+0xa4>
   12550:	67f5                	lui	a5,0x1d
   12552:	2c078793          	add	a5,a5,704 # 1d2c0 <__malloc_current_mallinfo>
   12556:	4398                	lw	a4,0(a5)
   12558:	0109b683          	ld	a3,16(s3)
   1255c:	8c81                	sub	s1,s1,s0
   1255e:	0014e493          	or	s1,s1,1
   12562:	9f01                	subw	a4,a4,s0
   12564:	854a                	mv	a0,s2
   12566:	e684                	sd	s1,8(a3)
   12568:	c398                	sw	a4,0(a5)
   1256a:	2ff020ef          	jal	15068 <__malloc_unlock>
   1256e:	70a2                	ld	ra,40(sp)
   12570:	7402                	ld	s0,32(sp)
   12572:	64e2                	ld	s1,24(sp)
   12574:	6942                	ld	s2,16(sp)
   12576:	69a2                	ld	s3,8(sp)
   12578:	6a02                	ld	s4,0(sp)
   1257a:	4505                	li	a0,1
   1257c:	6145                	add	sp,sp,48
   1257e:	8082                	ret
   12580:	4581                	li	a1,0
   12582:	854a                	mv	a0,s2
   12584:	78c030ef          	jal	15d10 <_sbrk_r>
   12588:	0109b703          	ld	a4,16(s3)
   1258c:	46fd                	li	a3,31
   1258e:	40e507b3          	sub	a5,a0,a4
   12592:	f8f6dbe3          	bge	a3,a5,12528 <_malloc_trim_r+0x4c>
   12596:	7601b683          	ld	a3,1888(gp) # 1d248 <__malloc_sbrk_base>
   1259a:	0017e793          	or	a5,a5,1
   1259e:	e71c                	sd	a5,8(a4)
   125a0:	8d15                	sub	a0,a0,a3
   125a2:	66f5                	lui	a3,0x1d
   125a4:	2ca6a023          	sw	a0,704(a3) # 1d2c0 <__malloc_current_mallinfo>
   125a8:	b741                	j	12528 <_malloc_trim_r+0x4c>

00000000000125aa <_free_r>:
   125aa:	12058363          	beqz	a1,126d0 <_free_r+0x126>
   125ae:	1101                	add	sp,sp,-32
   125b0:	e822                	sd	s0,16(sp)
   125b2:	e426                	sd	s1,8(sp)
   125b4:	842e                	mv	s0,a1
   125b6:	84aa                	mv	s1,a0
   125b8:	ec06                	sd	ra,24(sp)
   125ba:	2ad020ef          	jal	15066 <__malloc_lock>
   125be:	ff843503          	ld	a0,-8(s0)
   125c2:	ff040713          	add	a4,s0,-16
   125c6:	65f5                	lui	a1,0x1d
   125c8:	ffe57793          	and	a5,a0,-2
   125cc:	00f70633          	add	a2,a4,a5
   125d0:	91058593          	add	a1,a1,-1776 # 1c910 <__malloc_av_>
   125d4:	6614                	ld	a3,8(a2)
   125d6:	0105b803          	ld	a6,16(a1)
   125da:	9af1                	and	a3,a3,-4
   125dc:	12c80c63          	beq	a6,a2,12714 <_free_r+0x16a>
   125e0:	e614                	sd	a3,8(a2)
   125e2:	8905                	and	a0,a0,1
   125e4:	00d60833          	add	a6,a2,a3
   125e8:	e141                	bnez	a0,12668 <_free_r+0xbe>
   125ea:	ff043303          	ld	t1,-16(s0)
   125ee:	00883803          	ld	a6,8(a6)
   125f2:	6575                	lui	a0,0x1d
   125f4:	40670733          	sub	a4,a4,t1
   125f8:	01073883          	ld	a7,16(a4)
   125fc:	92050513          	add	a0,a0,-1760 # 1c920 <__malloc_av_+0x10>
   12600:	979a                	add	a5,a5,t1
   12602:	00187813          	and	a6,a6,1
   12606:	0ea88a63          	beq	a7,a0,126fa <_free_r+0x150>
   1260a:	01873303          	ld	t1,24(a4)
   1260e:	0068bc23          	sd	t1,24(a7)
   12612:	01133823          	sd	a7,16(t1)
   12616:	12080863          	beqz	a6,12746 <_free_r+0x19c>
   1261a:	0017e693          	or	a3,a5,1
   1261e:	e714                	sd	a3,8(a4)
   12620:	e21c                	sd	a5,0(a2)
   12622:	1ff00693          	li	a3,511
   12626:	04f6ee63          	bltu	a3,a5,12682 <_free_r+0xd8>
   1262a:	838d                	srl	a5,a5,0x3
   1262c:	0017869b          	addw	a3,a5,1
   12630:	0016969b          	sllw	a3,a3,0x1
   12634:	068e                	sll	a3,a3,0x3
   12636:	0085b803          	ld	a6,8(a1)
   1263a:	96ae                	add	a3,a3,a1
   1263c:	6288                	ld	a0,0(a3)
   1263e:	4027d61b          	sraw	a2,a5,0x2
   12642:	4785                	li	a5,1
   12644:	00c797b3          	sll	a5,a5,a2
   12648:	0107e7b3          	or	a5,a5,a6
   1264c:	ff068613          	add	a2,a3,-16
   12650:	ef10                	sd	a2,24(a4)
   12652:	eb08                	sd	a0,16(a4)
   12654:	e59c                	sd	a5,8(a1)
   12656:	e298                	sd	a4,0(a3)
   12658:	ed18                	sd	a4,24(a0)
   1265a:	6442                	ld	s0,16(sp)
   1265c:	60e2                	ld	ra,24(sp)
   1265e:	8526                	mv	a0,s1
   12660:	64a2                	ld	s1,8(sp)
   12662:	6105                	add	sp,sp,32
   12664:	2050206f          	j	15068 <__malloc_unlock>
   12668:	00883503          	ld	a0,8(a6)
   1266c:	8905                	and	a0,a0,1
   1266e:	c135                	beqz	a0,126d2 <_free_r+0x128>
   12670:	0017e693          	or	a3,a5,1
   12674:	fed43c23          	sd	a3,-8(s0)
   12678:	e21c                	sd	a5,0(a2)
   1267a:	1ff00693          	li	a3,511
   1267e:	faf6f6e3          	bgeu	a3,a5,1262a <_free_r+0x80>
   12682:	0097d693          	srl	a3,a5,0x9
   12686:	4611                	li	a2,4
   12688:	0cd66163          	bltu	a2,a3,1274a <_free_r+0x1a0>
   1268c:	0067d693          	srl	a3,a5,0x6
   12690:	0396851b          	addw	a0,a3,57
   12694:	0015151b          	sllw	a0,a0,0x1
   12698:	0386861b          	addw	a2,a3,56
   1269c:	050e                	sll	a0,a0,0x3
   1269e:	952e                	add	a0,a0,a1
   126a0:	6114                	ld	a3,0(a0)
   126a2:	1541                	add	a0,a0,-16
   126a4:	00d51663          	bne	a0,a3,126b0 <_free_r+0x106>
   126a8:	a0e5                	j	12790 <_free_r+0x1e6>
   126aa:	6a94                	ld	a3,16(a3)
   126ac:	00d50663          	beq	a0,a3,126b8 <_free_r+0x10e>
   126b0:	6690                	ld	a2,8(a3)
   126b2:	9a71                	and	a2,a2,-4
   126b4:	fec7ebe3          	bltu	a5,a2,126aa <_free_r+0x100>
   126b8:	6e88                	ld	a0,24(a3)
   126ba:	ef08                	sd	a0,24(a4)
   126bc:	eb14                	sd	a3,16(a4)
   126be:	6442                	ld	s0,16(sp)
   126c0:	e918                	sd	a4,16(a0)
   126c2:	60e2                	ld	ra,24(sp)
   126c4:	8526                	mv	a0,s1
   126c6:	64a2                	ld	s1,8(sp)
   126c8:	ee98                	sd	a4,24(a3)
   126ca:	6105                	add	sp,sp,32
   126cc:	19d0206f          	j	15068 <__malloc_unlock>
   126d0:	8082                	ret
   126d2:	6575                	lui	a0,0x1d
   126d4:	97b6                	add	a5,a5,a3
   126d6:	92050513          	add	a0,a0,-1760 # 1c920 <__malloc_av_+0x10>
   126da:	6a14                	ld	a3,16(a2)
   126dc:	0aa68063          	beq	a3,a0,1277c <_free_r+0x1d2>
   126e0:	01863803          	ld	a6,24(a2)
   126e4:	0017e513          	or	a0,a5,1
   126e8:	00f70633          	add	a2,a4,a5
   126ec:	0106bc23          	sd	a6,24(a3)
   126f0:	00d83823          	sd	a3,16(a6)
   126f4:	e708                	sd	a0,8(a4)
   126f6:	e21c                	sd	a5,0(a2)
   126f8:	b72d                	j	12622 <_free_r+0x78>
   126fa:	0e081763          	bnez	a6,127e8 <_free_r+0x23e>
   126fe:	6a0c                	ld	a1,16(a2)
   12700:	6e10                	ld	a2,24(a2)
   12702:	96be                	add	a3,a3,a5
   12704:	0016e793          	or	a5,a3,1
   12708:	ed90                	sd	a2,24(a1)
   1270a:	ea0c                	sd	a1,16(a2)
   1270c:	e71c                	sd	a5,8(a4)
   1270e:	9736                	add	a4,a4,a3
   12710:	e314                	sd	a3,0(a4)
   12712:	b7a1                	j	1265a <_free_r+0xb0>
   12714:	8905                	and	a0,a0,1
   12716:	96be                	add	a3,a3,a5
   12718:	e909                	bnez	a0,1272a <_free_r+0x180>
   1271a:	ff043503          	ld	a0,-16(s0)
   1271e:	8f09                	sub	a4,a4,a0
   12720:	6f1c                	ld	a5,24(a4)
   12722:	6b10                	ld	a2,16(a4)
   12724:	96aa                	add	a3,a3,a0
   12726:	ee1c                	sd	a5,24(a2)
   12728:	eb90                	sd	a2,16(a5)
   1272a:	0016e613          	or	a2,a3,1
   1272e:	7681b783          	ld	a5,1896(gp) # 1d250 <__malloc_trim_threshold>
   12732:	e710                	sd	a2,8(a4)
   12734:	e998                	sd	a4,16(a1)
   12736:	f2f6e2e3          	bltu	a3,a5,1265a <_free_r+0xb0>
   1273a:	7881b583          	ld	a1,1928(gp) # 1d270 <__malloc_top_pad>
   1273e:	8526                	mv	a0,s1
   12740:	d9dff0ef          	jal	124dc <_malloc_trim_r>
   12744:	bf19                	j	1265a <_free_r+0xb0>
   12746:	97b6                	add	a5,a5,a3
   12748:	bf49                	j	126da <_free_r+0x130>
   1274a:	4651                	li	a2,20
   1274c:	02d67063          	bgeu	a2,a3,1276c <_free_r+0x1c2>
   12750:	05400613          	li	a2,84
   12754:	04d66963          	bltu	a2,a3,127a6 <_free_r+0x1fc>
   12758:	00c7d693          	srl	a3,a5,0xc
   1275c:	06f6851b          	addw	a0,a3,111
   12760:	0015151b          	sllw	a0,a0,0x1
   12764:	06e6861b          	addw	a2,a3,110
   12768:	050e                	sll	a0,a0,0x3
   1276a:	bf15                	j	1269e <_free_r+0xf4>
   1276c:	05c6851b          	addw	a0,a3,92
   12770:	0015151b          	sllw	a0,a0,0x1
   12774:	05b6861b          	addw	a2,a3,91
   12778:	050e                	sll	a0,a0,0x3
   1277a:	b715                	j	1269e <_free_r+0xf4>
   1277c:	f598                	sd	a4,40(a1)
   1277e:	f198                	sd	a4,32(a1)
   12780:	0017e693          	or	a3,a5,1
   12784:	ef08                	sd	a0,24(a4)
   12786:	eb08                	sd	a0,16(a4)
   12788:	e714                	sd	a3,8(a4)
   1278a:	973e                	add	a4,a4,a5
   1278c:	e31c                	sd	a5,0(a4)
   1278e:	b5f1                	j	1265a <_free_r+0xb0>
   12790:	0085b803          	ld	a6,8(a1)
   12794:	4026561b          	sraw	a2,a2,0x2
   12798:	4785                	li	a5,1
   1279a:	00c797b3          	sll	a5,a5,a2
   1279e:	0107e7b3          	or	a5,a5,a6
   127a2:	e59c                	sd	a5,8(a1)
   127a4:	bf19                	j	126ba <_free_r+0x110>
   127a6:	15400613          	li	a2,340
   127aa:	00d66c63          	bltu	a2,a3,127c2 <_free_r+0x218>
   127ae:	00f7d693          	srl	a3,a5,0xf
   127b2:	0786851b          	addw	a0,a3,120
   127b6:	0015151b          	sllw	a0,a0,0x1
   127ba:	0776861b          	addw	a2,a3,119
   127be:	050e                	sll	a0,a0,0x3
   127c0:	bdf9                	j	1269e <_free_r+0xf4>
   127c2:	55400613          	li	a2,1364
   127c6:	00d66c63          	bltu	a2,a3,127de <_free_r+0x234>
   127ca:	0127d693          	srl	a3,a5,0x12
   127ce:	07d6851b          	addw	a0,a3,125
   127d2:	0015151b          	sllw	a0,a0,0x1
   127d6:	07c6861b          	addw	a2,a3,124
   127da:	050e                	sll	a0,a0,0x3
   127dc:	b5c9                	j	1269e <_free_r+0xf4>
   127de:	7f000513          	li	a0,2032
   127e2:	07e00613          	li	a2,126
   127e6:	bd65                	j	1269e <_free_r+0xf4>
   127e8:	0017e693          	or	a3,a5,1
   127ec:	e714                	sd	a3,8(a4)
   127ee:	e21c                	sd	a5,0(a2)
   127f0:	b5ad                	j	1265a <_free_r+0xb0>

00000000000127f2 <eshdn1>:
   127f2:	00450693          	add	a3,a0,4
   127f6:	4701                	li	a4,0
   127f8:	0569                	add	a0,a0,26
   127fa:	7861                	lui	a6,0xffff8
   127fc:	0006d783          	lhu	a5,0(a3)
   12800:	0017f613          	and	a2,a5,1
   12804:	c219                	beqz	a2,1280a <eshdn1+0x18>
   12806:	00176713          	or	a4,a4,1
   1280a:	00277613          	and	a2,a4,2
   1280e:	8385                	srl	a5,a5,0x1
   12810:	0017171b          	sllw	a4,a4,0x1
   12814:	0107e5b3          	or	a1,a5,a6
   12818:	c601                	beqz	a2,12820 <eshdn1+0x2e>
   1281a:	03059793          	sll	a5,a1,0x30
   1281e:	93c1                	srl	a5,a5,0x30
   12820:	00f69023          	sh	a5,0(a3)
   12824:	1742                	sll	a4,a4,0x30
   12826:	0689                	add	a3,a3,2
   12828:	9341                	srl	a4,a4,0x30
   1282a:	fcd519e3          	bne	a0,a3,127fc <eshdn1+0xa>
   1282e:	8082                	ret

0000000000012830 <eshup1>:
   12830:	01850693          	add	a3,a0,24
   12834:	4701                	li	a4,0
   12836:	0509                	add	a0,a0,2
   12838:	0006d783          	lhu	a5,0(a3)
   1283c:	00f7d613          	srl	a2,a5,0xf
   12840:	0017979b          	sllw	a5,a5,0x1
   12844:	c219                	beqz	a2,1284a <eshup1+0x1a>
   12846:	00176713          	or	a4,a4,1
   1284a:	00277613          	and	a2,a4,2
   1284e:	17c2                	sll	a5,a5,0x30
   12850:	0017171b          	sllw	a4,a4,0x1
   12854:	93c1                	srl	a5,a5,0x30
   12856:	c219                	beqz	a2,1285c <eshup1+0x2c>
   12858:	0017e793          	or	a5,a5,1
   1285c:	00f69023          	sh	a5,0(a3)
   12860:	1742                	sll	a4,a4,0x30
   12862:	16f9                	add	a3,a3,-2
   12864:	9341                	srl	a4,a4,0x30
   12866:	fcd519e3          	bne	a0,a3,12838 <eshup1+0x8>
   1286a:	8082                	ret

000000000001286c <m16m>:
   1286c:	1101                	add	sp,sp,-32
   1286e:	6e41                	lui	t3,0x10
   12870:	00011b23          	sh	zero,22(sp)
   12874:	00011c23          	sh	zero,24(sp)
   12878:	05e1                	add	a1,a1,24
   1287a:	083c                	add	a5,sp,24
   1287c:	00410813          	add	a6,sp,4
   12880:	1e7d                	add	t3,t3,-1 # ffff <exit-0xe9>
   12882:	0005d703          	lhu	a4,0(a1)
   12886:	17f9                	add	a5,a5,-2
   12888:	15f9                	add	a1,a1,-2
   1288a:	c705                	beqz	a4,128b2 <m16m+0x46>
   1288c:	02a70733          	mul	a4,a4,a0
   12890:	0027d883          	lhu	a7,2(a5)
   12894:	0007d303          	lhu	t1,0(a5)
   12898:	01c776b3          	and	a3,a4,t3
   1289c:	96c6                	add	a3,a3,a7
   1289e:	8341                	srl	a4,a4,0x10
   128a0:	0106d893          	srl	a7,a3,0x10
   128a4:	971a                	add	a4,a4,t1
   128a6:	9746                	add	a4,a4,a7
   128a8:	00e79023          	sh	a4,0(a5)
   128ac:	00d79123          	sh	a3,2(a5)
   128b0:	8341                	srl	a4,a4,0x10
   128b2:	fee79f23          	sh	a4,-2(a5)
   128b6:	fd0796e3          	bne	a5,a6,12882 <m16m+0x16>
   128ba:	0611                	add	a2,a2,4
   128bc:	01a10693          	add	a3,sp,26
   128c0:	0007d703          	lhu	a4,0(a5)
   128c4:	0789                	add	a5,a5,2
   128c6:	0609                	add	a2,a2,2
   128c8:	fee61f23          	sh	a4,-2(a2)
   128cc:	fef69ae3          	bne	a3,a5,128c0 <m16m+0x54>
   128d0:	6105                	add	sp,sp,32
   128d2:	8082                	ret

00000000000128d4 <emovo.constprop.0>:
   128d4:	00055703          	lhu	a4,0(a0)
   128d8:	00255783          	lhu	a5,2(a0)
   128dc:	c319                	beqz	a4,128e2 <emovo.constprop.0+0xe>
   128de:	6721                	lui	a4,0x8
   128e0:	8fd9                	or	a5,a5,a4
   128e2:	00f59923          	sh	a5,18(a1)
   128e6:	00255703          	lhu	a4,2(a0)
   128ea:	67a1                	lui	a5,0x8
   128ec:	17fd                	add	a5,a5,-1 # 7fff <exit-0x80e9>
   128ee:	00f70f63          	beq	a4,a5,1290c <emovo.constprop.0+0x38>
   128f2:	00650793          	add	a5,a0,6
   128f6:	05c1                	add	a1,a1,16
   128f8:	0561                	add	a0,a0,24
   128fa:	0007d703          	lhu	a4,0(a5)
   128fe:	0789                	add	a5,a5,2
   12900:	15f9                	add	a1,a1,-2
   12902:	00e59123          	sh	a4,2(a1)
   12906:	fea79ae3          	bne	a5,a0,128fa <emovo.constprop.0+0x26>
   1290a:	8082                	ret
   1290c:	00650793          	add	a5,a0,6
   12910:	0569                	add	a0,a0,26
   12912:	0007d703          	lhu	a4,0(a5)
   12916:	0789                	add	a5,a5,2
   12918:	e31d                	bnez	a4,1293e <emovo.constprop.0+0x6a>
   1291a:	fef51ce3          	bne	a0,a5,12912 <emovo.constprop.0+0x3e>
   1291e:	01258713          	add	a4,a1,18
   12922:	87ae                	mv	a5,a1
   12924:	0789                	add	a5,a5,2
   12926:	fe079f23          	sh	zero,-2(a5)
   1292a:	fee79de3          	bne	a5,a4,12924 <emovo.constprop.0+0x50>
   1292e:	0125d783          	lhu	a5,18(a1)
   12932:	6721                	lui	a4,0x8
   12934:	177d                	add	a4,a4,-1 # 7fff <exit-0x80e9>
   12936:	8fd9                	or	a5,a5,a4
   12938:	00f59923          	sh	a5,18(a1)
   1293c:	8082                	ret
   1293e:	01058713          	add	a4,a1,16
   12942:	87ae                	mv	a5,a1
   12944:	0789                	add	a5,a5,2
   12946:	fe079f23          	sh	zero,-2(a5)
   1294a:	fee79de3          	bne	a5,a4,12944 <emovo.constprop.0+0x70>
   1294e:	77f1                	lui	a5,0xffffc
   12950:	00f59823          	sh	a5,16(a1)
   12954:	77e1                	lui	a5,0xffff8
   12956:	fff7c793          	not	a5,a5
   1295a:	00f59923          	sh	a5,18(a1)
   1295e:	8082                	ret

0000000000012960 <enormlz>:
   12960:	00455783          	lhu	a5,4(a0)
   12964:	1101                	add	sp,sp,-32
   12966:	e426                	sd	s1,8(sp)
   12968:	ec06                	sd	ra,24(sp)
   1296a:	e822                	sd	s0,16(sp)
   1296c:	e04a                	sd	s2,0(sp)
   1296e:	84aa                	mv	s1,a0
   12970:	efd1                	bnez	a5,12a0c <enormlz+0xac>
   12972:	00655783          	lhu	a5,6(a0)
   12976:	4401                	li	s0,0
   12978:	00f7d713          	srl	a4,a5,0xf
   1297c:	e349                	bnez	a4,129fe <enormlz+0x9e>
   1297e:	01850693          	add	a3,a0,24
   12982:	0a000613          	li	a2,160
   12986:	e395                	bnez	a5,129aa <enormlz+0x4a>
   12988:	00448793          	add	a5,s1,4
   1298c:	0027d703          	lhu	a4,2(a5) # ffffffffffff8002 <__BSS_END__+0xfffffffffffdad1a>
   12990:	0789                	add	a5,a5,2
   12992:	fee79f23          	sh	a4,-2(a5)
   12996:	fed79be3          	bne	a5,a3,1298c <enormlz+0x2c>
   1299a:	00049c23          	sh	zero,24(s1)
   1299e:	2441                	addw	s0,s0,16
   129a0:	04c40f63          	beq	s0,a2,129fe <enormlz+0x9e>
   129a4:	0064d783          	lhu	a5,6(s1)
   129a8:	d3e5                	beqz	a5,12988 <enormlz+0x28>
   129aa:	0ff00713          	li	a4,255
   129ae:	02f76b63          	bltu	a4,a5,129e4 <enormlz+0x84>
   129b2:	01848813          	add	a6,s1,24
   129b6:	00248593          	add	a1,s1,2
   129ba:	0ff00513          	li	a0,255
   129be:	4781                	li	a5,0
   129c0:	8742                	mv	a4,a6
   129c2:	00075683          	lhu	a3,0(a4)
   129c6:	1779                	add	a4,a4,-2
   129c8:	0086961b          	sllw	a2,a3,0x8
   129cc:	8fd1                	or	a5,a5,a2
   129ce:	00f71123          	sh	a5,2(a4)
   129d2:	0086d793          	srl	a5,a3,0x8
   129d6:	feb716e3          	bne	a4,a1,129c2 <enormlz+0x62>
   129da:	0064d783          	lhu	a5,6(s1)
   129de:	2421                	addw	s0,s0,8
   129e0:	fcf57fe3          	bgeu	a0,a5,129be <enormlz+0x5e>
   129e4:	0a000913          	li	s2,160
   129e8:	a801                	j	129f8 <enormlz+0x98>
   129ea:	2405                	addw	s0,s0,1
   129ec:	e45ff0ef          	jal	12830 <eshup1>
   129f0:	00894763          	blt	s2,s0,129fe <enormlz+0x9e>
   129f4:	0064d783          	lhu	a5,6(s1)
   129f8:	83bd                	srl	a5,a5,0xf
   129fa:	8526                	mv	a0,s1
   129fc:	d7fd                	beqz	a5,129ea <enormlz+0x8a>
   129fe:	60e2                	ld	ra,24(sp)
   12a00:	8522                	mv	a0,s0
   12a02:	6442                	ld	s0,16(sp)
   12a04:	64a2                	ld	s1,8(sp)
   12a06:	6902                	ld	s2,0(sp)
   12a08:	6105                	add	sp,sp,32
   12a0a:	8082                	ret
   12a0c:	0ff00713          	li	a4,255
   12a10:	4401                	li	s0,0
   12a12:	02f76563          	bltu	a4,a5,12a3c <enormlz+0xdc>
   12a16:	f6f00913          	li	s2,-145
   12a1a:	a801                	j	12a2a <enormlz+0xca>
   12a1c:	347d                	addw	s0,s0,-1
   12a1e:	dd5ff0ef          	jal	127f2 <eshdn1>
   12a22:	fd240ee3          	beq	s0,s2,129fe <enormlz+0x9e>
   12a26:	0044d783          	lhu	a5,4(s1)
   12a2a:	8526                	mv	a0,s1
   12a2c:	fbe5                	bnez	a5,12a1c <enormlz+0xbc>
   12a2e:	60e2                	ld	ra,24(sp)
   12a30:	8522                	mv	a0,s0
   12a32:	6442                	ld	s0,16(sp)
   12a34:	64a2                	ld	s1,8(sp)
   12a36:	6902                	ld	s2,0(sp)
   12a38:	6105                	add	sp,sp,32
   12a3a:	8082                	ret
   12a3c:	00450713          	add	a4,a0,4
   12a40:	01a50593          	add	a1,a0,26
   12a44:	4781                	li	a5,0
   12a46:	00075683          	lhu	a3,0(a4)
   12a4a:	0709                	add	a4,a4,2
   12a4c:	0086d61b          	srlw	a2,a3,0x8
   12a50:	8fd1                	or	a5,a5,a2
   12a52:	0086969b          	sllw	a3,a3,0x8
   12a56:	fef71f23          	sh	a5,-2(a4)
   12a5a:	03069793          	sll	a5,a3,0x30
   12a5e:	93c1                	srl	a5,a5,0x30
   12a60:	feb713e3          	bne	a4,a1,12a46 <enormlz+0xe6>
   12a64:	0044d783          	lhu	a5,4(s1)
   12a68:	5461                	li	s0,-8
   12a6a:	b775                	j	12a16 <enormlz+0xb6>

0000000000012a6c <eshift.part.0>:
   12a6c:	7179                	add	sp,sp,-48
   12a6e:	f022                	sd	s0,32(sp)
   12a70:	ec26                	sd	s1,24(sp)
   12a72:	f406                	sd	ra,40(sp)
   12a74:	e84a                	sd	s2,16(sp)
   12a76:	e44e                	sd	s3,8(sp)
   12a78:	84ae                	mv	s1,a1
   12a7a:	842a                	mv	s0,a0
   12a7c:	0605cb63          	bltz	a1,12af2 <eshift.part.0+0x86>
   12a80:	47bd                	li	a5,15
   12a82:	862e                	mv	a2,a1
   12a84:	0511                	add	a0,a0,4
   12a86:	01840693          	add	a3,s0,24
   12a8a:	45bd                	li	a1,15
   12a8c:	0297d063          	bge	a5,s1,12aac <eshift.part.0+0x40>
   12a90:	87aa                	mv	a5,a0
   12a92:	0027d703          	lhu	a4,2(a5)
   12a96:	0789                	add	a5,a5,2
   12a98:	fee79f23          	sh	a4,-2(a5)
   12a9c:	fef69be3          	bne	a3,a5,12a92 <eshift.part.0+0x26>
   12aa0:	00041c23          	sh	zero,24(s0)
   12aa4:	3641                	addw	a2,a2,-16
   12aa6:	fec5c5e3          	blt	a1,a2,12a90 <eshift.part.0+0x24>
   12aaa:	88bd                	and	s1,s1,15
   12aac:	479d                	li	a5,7
   12aae:	0297d463          	bge	a5,s1,12ad6 <eshift.part.0+0x6a>
   12ab2:	01840713          	add	a4,s0,24
   12ab6:	00240593          	add	a1,s0,2
   12aba:	4781                	li	a5,0
   12abc:	00075683          	lhu	a3,0(a4)
   12ac0:	1779                	add	a4,a4,-2
   12ac2:	0086961b          	sllw	a2,a3,0x8
   12ac6:	8fd1                	or	a5,a5,a2
   12ac8:	00f71123          	sh	a5,2(a4)
   12acc:	0086d793          	srl	a5,a3,0x8
   12ad0:	feb716e3          	bne	a4,a1,12abc <eshift.part.0+0x50>
   12ad4:	34e1                	addw	s1,s1,-8
   12ad6:	c491                	beqz	s1,12ae2 <eshift.part.0+0x76>
   12ad8:	34fd                	addw	s1,s1,-1
   12ada:	8522                	mv	a0,s0
   12adc:	d55ff0ef          	jal	12830 <eshup1>
   12ae0:	fce5                	bnez	s1,12ad8 <eshift.part.0+0x6c>
   12ae2:	4501                	li	a0,0
   12ae4:	70a2                	ld	ra,40(sp)
   12ae6:	7402                	ld	s0,32(sp)
   12ae8:	64e2                	ld	s1,24(sp)
   12aea:	6942                	ld	s2,16(sp)
   12aec:	69a2                	ld	s3,8(sp)
   12aee:	6145                	add	sp,sp,48
   12af0:	8082                	ret
   12af2:	57c5                	li	a5,-15
   12af4:	40b0093b          	negw	s2,a1
   12af8:	4981                	li	s3,0
   12afa:	01850593          	add	a1,a0,24
   12afe:	00450693          	add	a3,a0,4
   12b02:	463d                	li	a2,15
   12b04:	0af4d463          	bge	s1,a5,12bac <eshift.part.0+0x140>
   12b08:	01845703          	lhu	a4,24(s0)
   12b0c:	87ae                	mv	a5,a1
   12b0e:	00e9e9b3          	or	s3,s3,a4
   12b12:	ffe7d703          	lhu	a4,-2(a5)
   12b16:	17f9                	add	a5,a5,-2
   12b18:	00e79123          	sh	a4,2(a5)
   12b1c:	fed79be3          	bne	a5,a3,12b12 <eshift.part.0+0xa6>
   12b20:	00041223          	sh	zero,4(s0)
   12b24:	3941                	addw	s2,s2,-16
   12b26:	ff2641e3          	blt	a2,s2,12b08 <eshift.part.0+0x9c>
   12b2a:	5941                	li	s2,-16
   12b2c:	5745                	li	a4,-15
   12b2e:	4099093b          	subw	s2,s2,s1
   12b32:	4781                	li	a5,0
   12b34:	06e4c763          	blt	s1,a4,12ba2 <eshift.part.0+0x136>
   12b38:	00f9093b          	addw	s2,s2,a5
   12b3c:	479d                	li	a5,7
   12b3e:	0327d963          	bge	a5,s2,12b70 <eshift.part.0+0x104>
   12b42:	01844783          	lbu	a5,24(s0)
   12b46:	01a40593          	add	a1,s0,26
   12b4a:	00f9e9b3          	or	s3,s3,a5
   12b4e:	4781                	li	a5,0
   12b50:	0006d703          	lhu	a4,0(a3)
   12b54:	0689                	add	a3,a3,2
   12b56:	0087561b          	srlw	a2,a4,0x8
   12b5a:	8fd1                	or	a5,a5,a2
   12b5c:	0087171b          	sllw	a4,a4,0x8
   12b60:	fef69f23          	sh	a5,-2(a3)
   12b64:	03071793          	sll	a5,a4,0x30
   12b68:	93c1                	srl	a5,a5,0x30
   12b6a:	feb693e3          	bne	a3,a1,12b50 <eshift.part.0+0xe4>
   12b6e:	3961                	addw	s2,s2,-8
   12b70:	01303533          	snez	a0,s3
   12b74:	f60908e3          	beqz	s2,12ae4 <eshift.part.0+0x78>
   12b78:	01845783          	lhu	a5,24(s0)
   12b7c:	397d                	addw	s2,s2,-1
   12b7e:	8522                	mv	a0,s0
   12b80:	8b85                	and	a5,a5,1
   12b82:	00f9e9b3          	or	s3,s3,a5
   12b86:	c6dff0ef          	jal	127f2 <eshdn1>
   12b8a:	fe0917e3          	bnez	s2,12b78 <eshift.part.0+0x10c>
   12b8e:	70a2                	ld	ra,40(sp)
   12b90:	7402                	ld	s0,32(sp)
   12b92:	2981                	sext.w	s3,s3
   12b94:	64e2                	ld	s1,24(sp)
   12b96:	6942                	ld	s2,16(sp)
   12b98:	01303533          	snez	a0,s3
   12b9c:	69a2                	ld	s3,8(sp)
   12b9e:	6145                	add	sp,sp,48
   12ba0:	8082                	ret
   12ba2:	ff097793          	and	a5,s2,-16
   12ba6:	40f007bb          	negw	a5,a5
   12baa:	b779                	j	12b38 <eshift.part.0+0xcc>
   12bac:	57e5                	li	a5,-7
   12bae:	f8f4cae3          	blt	s1,a5,12b42 <eshift.part.0+0xd6>
   12bb2:	b7d9                	j	12b78 <eshift.part.0+0x10c>

0000000000012bb4 <emovi>:
   12bb4:	01255783          	lhu	a5,18(a0)
   12bb8:	66a1                	lui	a3,0x8
   12bba:	16fd                	add	a3,a3,-1 # 7fff <exit-0x80e9>
   12bbc:	00f7d79b          	srlw	a5,a5,0xf
   12bc0:	40f007bb          	negw	a5,a5
   12bc4:	00f59023          	sh	a5,0(a1)
   12bc8:	01255703          	lhu	a4,18(a0)
   12bcc:	01050793          	add	a5,a0,16
   12bd0:	8f75                	and	a4,a4,a3
   12bd2:	00e59123          	sh	a4,2(a1)
   12bd6:	0007061b          	sext.w	a2,a4
   12bda:	02d70263          	beq	a4,a3,12bfe <emovi+0x4a>
   12bde:	00658713          	add	a4,a1,6
   12be2:	00059223          	sh	zero,4(a1)
   12be6:	1579                	add	a0,a0,-2
   12be8:	0007d683          	lhu	a3,0(a5)
   12bec:	17f9                	add	a5,a5,-2
   12bee:	0709                	add	a4,a4,2
   12bf0:	fed71f23          	sh	a3,-2(a4)
   12bf4:	fea79ae3          	bne	a5,a0,12be8 <emovi+0x34>
   12bf8:	00059c23          	sh	zero,24(a1)
   12bfc:	8082                	ret
   12bfe:	01255703          	lhu	a4,18(a0)
   12c02:	8f71                	and	a4,a4,a2
   12c04:	00c71b63          	bne	a4,a2,12c1a <emovi+0x66>
   12c08:	01250613          	add	a2,a0,18
   12c0c:	872a                	mv	a4,a0
   12c0e:	00075683          	lhu	a3,0(a4)
   12c12:	0709                	add	a4,a4,2
   12c14:	ee81                	bnez	a3,12c2c <emovi+0x78>
   12c16:	fec71ce3          	bne	a4,a2,12c0e <emovi+0x5a>
   12c1a:	00458793          	add	a5,a1,4
   12c1e:	05e9                	add	a1,a1,26
   12c20:	0789                	add	a5,a5,2
   12c22:	fe079f23          	sh	zero,-2(a5)
   12c26:	feb79de3          	bne	a5,a1,12c20 <emovi+0x6c>
   12c2a:	8082                	ret
   12c2c:	00658713          	add	a4,a1,6
   12c30:	00059223          	sh	zero,4(a1)
   12c34:	1571                	add	a0,a0,-4
   12c36:	0007d683          	lhu	a3,0(a5)
   12c3a:	17f9                	add	a5,a5,-2
   12c3c:	0709                	add	a4,a4,2
   12c3e:	fed71f23          	sh	a3,-2(a4)
   12c42:	fef51ae3          	bne	a0,a5,12c36 <emovi+0x82>
   12c46:	8082                	ret

0000000000012c48 <ecmp>:
   12c48:	01255783          	lhu	a5,18(a0)
   12c4c:	715d                	add	sp,sp,-80
   12c4e:	e0a2                	sd	s0,64(sp)
   12c50:	fff7c793          	not	a5,a5
   12c54:	e486                	sd	ra,72(sp)
   12c56:	03179713          	sll	a4,a5,0x31
   12c5a:	842e                	mv	s0,a1
   12c5c:	eb11                	bnez	a4,12c70 <ecmp+0x28>
   12c5e:	01250693          	add	a3,a0,18
   12c62:	87aa                	mv	a5,a0
   12c64:	0007d703          	lhu	a4,0(a5)
   12c68:	0789                	add	a5,a5,2
   12c6a:	eb25                	bnez	a4,12cda <ecmp+0x92>
   12c6c:	fed79ce3          	bne	a5,a3,12c64 <ecmp+0x1c>
   12c70:	01245783          	lhu	a5,18(s0)
   12c74:	fff7c793          	not	a5,a5
   12c78:	03179713          	sll	a4,a5,0x31
   12c7c:	c331                	beqz	a4,12cc0 <ecmp+0x78>
   12c7e:	858a                	mv	a1,sp
   12c80:	f35ff0ef          	jal	12bb4 <emovi>
   12c84:	100c                	add	a1,sp,32
   12c86:	8522                	mv	a0,s0
   12c88:	f2dff0ef          	jal	12bb4 <emovi>
   12c8c:	00015583          	lhu	a1,0(sp)
   12c90:	02015783          	lhu	a5,32(sp)
   12c94:	04b78863          	beq	a5,a1,12ce4 <ecmp+0x9c>
   12c98:	00210793          	add	a5,sp,2
   12c9c:	02210713          	add	a4,sp,34
   12ca0:	0830                	add	a2,sp,24
   12ca2:	0007d683          	lhu	a3,0(a5)
   12ca6:	0789                	add	a5,a5,2
   12ca8:	eab5                	bnez	a3,12d1c <ecmp+0xd4>
   12caa:	00075683          	lhu	a3,0(a4)
   12cae:	0709                	add	a4,a4,2
   12cb0:	e6b5                	bnez	a3,12d1c <ecmp+0xd4>
   12cb2:	fef618e3          	bne	a2,a5,12ca2 <ecmp+0x5a>
   12cb6:	4501                	li	a0,0
   12cb8:	60a6                	ld	ra,72(sp)
   12cba:	6406                	ld	s0,64(sp)
   12cbc:	6161                	add	sp,sp,80
   12cbe:	8082                	ret
   12cc0:	87a2                	mv	a5,s0
   12cc2:	0007d703          	lhu	a4,0(a5)
   12cc6:	01240693          	add	a3,s0,18
   12cca:	0789                	add	a5,a5,2
   12ccc:	e719                	bnez	a4,12cda <ecmp+0x92>
   12cce:	fad788e3          	beq	a5,a3,12c7e <ecmp+0x36>
   12cd2:	0007d703          	lhu	a4,0(a5)
   12cd6:	0789                	add	a5,a5,2
   12cd8:	db7d                	beqz	a4,12cce <ecmp+0x86>
   12cda:	60a6                	ld	ra,72(sp)
   12cdc:	6406                	ld	s0,64(sp)
   12cde:	5579                	li	a0,-2
   12ce0:	6161                	add	sp,sp,80
   12ce2:	8082                	ret
   12ce4:	557d                	li	a0,-1
   12ce6:	c1a9                	beqz	a1,12d28 <ecmp+0xe0>
   12ce8:	878a                	mv	a5,sp
   12cea:	0007d603          	lhu	a2,0(a5)
   12cee:	02015683          	lhu	a3,32(sp)
   12cf2:	1018                	add	a4,sp,32
   12cf4:	082c                	add	a1,sp,24
   12cf6:	0789                	add	a5,a5,2
   12cf8:	0709                	add	a4,a4,2
   12cfa:	00d61c63          	bne	a2,a3,12d12 <ecmp+0xca>
   12cfe:	fab78ce3          	beq	a5,a1,12cb6 <ecmp+0x6e>
   12d02:	0007d603          	lhu	a2,0(a5)
   12d06:	00075683          	lhu	a3,0(a4)
   12d0a:	0789                	add	a5,a5,2
   12d0c:	0709                	add	a4,a4,2
   12d0e:	fed608e3          	beq	a2,a3,12cfe <ecmp+0xb6>
   12d12:	fac6e3e3          	bltu	a3,a2,12cb8 <ecmp+0x70>
   12d16:	40a0053b          	negw	a0,a0
   12d1a:	bf79                	j	12cb8 <ecmp+0x70>
   12d1c:	e981                	bnez	a1,12d2c <ecmp+0xe4>
   12d1e:	60a6                	ld	ra,72(sp)
   12d20:	6406                	ld	s0,64(sp)
   12d22:	4505                	li	a0,1
   12d24:	6161                	add	sp,sp,80
   12d26:	8082                	ret
   12d28:	4505                	li	a0,1
   12d2a:	bf7d                	j	12ce8 <ecmp+0xa0>
   12d2c:	557d                	li	a0,-1
   12d2e:	b769                	j	12cb8 <ecmp+0x70>

0000000000012d30 <emdnorm>:
   12d30:	7139                	add	sp,sp,-64
   12d32:	f822                	sd	s0,48(sp)
   12d34:	f426                	sd	s1,40(sp)
   12d36:	f04a                	sd	s2,32(sp)
   12d38:	ec4e                	sd	s3,24(sp)
   12d3a:	e852                	sd	s4,16(sp)
   12d3c:	e456                	sd	s5,8(sp)
   12d3e:	8936                	mv	s2,a3
   12d40:	843e                	mv	s0,a5
   12d42:	fc06                	sd	ra,56(sp)
   12d44:	84aa                	mv	s1,a0
   12d46:	89ae                	mv	s3,a1
   12d48:	8a32                	mv	s4,a2
   12d4a:	8aba                	mv	s5,a4
   12d4c:	c15ff0ef          	jal	12960 <enormlz>
   12d50:	09000793          	li	a5,144
   12d54:	40a90933          	sub	s2,s2,a0
   12d58:	12a7d863          	bge	a5,a0,12e88 <emdnorm+0x158>
   12d5c:	67a1                	lui	a5,0x8
   12d5e:	17f9                	add	a5,a5,-2 # 7ffe <exit-0x80ea>
   12d60:	2327dd63          	bge	a5,s2,12f9a <emdnorm+0x26a>
   12d64:	1a0a8c63          	beqz	s5,12f1c <emdnorm+0x1ec>
   12d68:	00442a83          	lw	s5,4(s0)
   12d6c:	401c                	lw	a5,0(s0)
   12d6e:	20fa8363          	beq	s5,a5,12f74 <emdnorm+0x244>
   12d72:	01a40713          	add	a4,s0,26
   12d76:	03440793          	add	a5,s0,52
   12d7a:	0709                	add	a4,a4,2
   12d7c:	fe071f23          	sh	zero,-2(a4)
   12d80:	fee79de3          	bne	a5,a4,12d7a <emdnorm+0x4a>
   12d84:	03800793          	li	a5,56
   12d88:	2afa8f63          	beq	s5,a5,13046 <emdnorm+0x316>
   12d8c:	1557d663          	bge	a5,s5,12ed8 <emdnorm+0x1a8>
   12d90:	04000793          	li	a5,64
   12d94:	20fa8c63          	beq	s5,a5,12fac <emdnorm+0x27c>
   12d98:	07100793          	li	a5,113
   12d9c:	2cfa9d63          	bne	s5,a5,13076 <emdnorm+0x346>
   12da0:	400087b7          	lui	a5,0x40008
   12da4:	46a9                	li	a3,10
   12da6:	7761                	lui	a4,0xffff8
   12da8:	17fd                	add	a5,a5,-1 # 40007fff <__BSS_END__+0x3ffead17>
   12daa:	c414                	sw	a3,8(s0)
   12dac:	c85c                	sw	a5,20(s0)
   12dae:	00e41c23          	sh	a4,24(s0)
   12db2:	c454                	sw	a3,12(s0)
   12db4:	02e41723          	sh	a4,46(s0)
   12db8:	01542023          	sw	s5,0(s0)
   12dbc:	1b205263          	blez	s2,12f60 <emdnorm+0x230>
   12dc0:	0144d603          	lhu	a2,20(s1)
   12dc4:	01448593          	add	a1,s1,20
   12dc8:	47ad                	li	a5,11
   12dca:	1646                	sll	a2,a2,0x31
   12dcc:	9245                	srl	a2,a2,0x31
   12dce:	4731                	li	a4,12
   12dd0:	9f1d                	subw	a4,a4,a5
   12dd2:	1702                	sll	a4,a4,0x20
   12dd4:	9301                	srl	a4,a4,0x20
   12dd6:	973e                	add	a4,a4,a5
   12dd8:	0706                	sll	a4,a4,0x1
   12dda:	0786                	sll	a5,a5,0x1
   12ddc:	00248693          	add	a3,s1,2
   12de0:	97a6                	add	a5,a5,s1
   12de2:	9736                	add	a4,a4,a3
   12de4:	0007d683          	lhu	a3,0(a5)
   12de8:	c299                	beqz	a3,12dee <emdnorm+0xbe>
   12dea:	00166613          	or	a2,a2,1
   12dee:	00079023          	sh	zero,0(a5)
   12df2:	0789                	add	a5,a5,2
   12df4:	fef718e3          	bne	a4,a5,12de4 <emdnorm+0xb4>
   12df8:	0005d703          	lhu	a4,0(a1)
   12dfc:	01445683          	lhu	a3,20(s0)
   12e00:	fff6c693          	not	a3,a3
   12e04:	8f75                	and	a4,a4,a3
   12e06:	00e59023          	sh	a4,0(a1)
   12e0a:	01645783          	lhu	a5,22(s0)
   12e0e:	00c7f733          	and	a4,a5,a2
   12e12:	c721                	beqz	a4,12e5a <emdnorm+0x12a>
   12e14:	00c79d63          	bne	a5,a2,12e2e <emdnorm+0xfe>
   12e18:	22099463          	bnez	s3,13040 <emdnorm+0x310>
   12e1c:	445c                	lw	a5,12(s0)
   12e1e:	01845703          	lhu	a4,24(s0)
   12e22:	0786                	sll	a5,a5,0x1
   12e24:	97a6                	add	a5,a5,s1
   12e26:	0007d783          	lhu	a5,0(a5)
   12e2a:	8ff9                	and	a5,a5,a4
   12e2c:	c79d                	beqz	a5,12e5a <emdnorm+0x12a>
   12e2e:	03240793          	add	a5,s0,50
   12e32:	01848613          	add	a2,s1,24
   12e36:	00248513          	add	a0,s1,2
   12e3a:	4581                	li	a1,0
   12e3c:	0007d703          	lhu	a4,0(a5)
   12e40:	00065683          	lhu	a3,0(a2)
   12e44:	1679                	add	a2,a2,-2
   12e46:	17f9                	add	a5,a5,-2
   12e48:	9736                	add	a4,a4,a3
   12e4a:	972e                	add	a4,a4,a1
   12e4c:	01075593          	srl	a1,a4,0x10
   12e50:	00e61123          	sh	a4,2(a2)
   12e54:	8985                	and	a1,a1,1
   12e56:	fec513e3          	bne	a0,a2,12e3c <emdnorm+0x10c>
   12e5a:	1b205a63          	blez	s2,1300e <emdnorm+0x2de>
   12e5e:	0044d783          	lhu	a5,4(s1)
   12e62:	18079b63          	bnez	a5,12ff8 <emdnorm+0x2c8>
   12e66:	67a1                	lui	a5,0x8
   12e68:	00049c23          	sh	zero,24(s1)
   12e6c:	17f9                	add	a5,a5,-2 # 7ffe <exit-0x80ea>
   12e6e:	0b27c963          	blt	a5,s2,12f20 <emdnorm+0x1f0>
   12e72:	01249123          	sh	s2,2(s1)
   12e76:	70e2                	ld	ra,56(sp)
   12e78:	7442                	ld	s0,48(sp)
   12e7a:	74a2                	ld	s1,40(sp)
   12e7c:	7902                	ld	s2,32(sp)
   12e7e:	69e2                	ld	s3,24(sp)
   12e80:	6a42                	ld	s4,16(sp)
   12e82:	6aa2                	ld	s5,8(sp)
   12e84:	6121                	add	sp,sp,64
   12e86:	8082                	ret
   12e88:	02094b63          	bltz	s2,12ebe <emdnorm+0x18e>
   12e8c:	fc0a8de3          	beqz	s5,12e66 <emdnorm+0x136>
   12e90:	00442a83          	lw	s5,4(s0)
   12e94:	401c                	lw	a5,0(s0)
   12e96:	ecfa9ee3          	bne	s5,a5,12d72 <emdnorm+0x42>
   12e9a:	23204263          	bgtz	s2,130be <emdnorm+0x38e>
   12e9e:	09000713          	li	a4,144
   12ea2:	22e79063          	bne	a5,a4,130c2 <emdnorm+0x392>
   12ea6:	440c                	lw	a1,8(s0)
   12ea8:	01445683          	lhu	a3,20(s0)
   12eac:	09000a93          	li	s5,144
   12eb0:	0586                	sll	a1,a1,0x1
   12eb2:	95a6                	add	a1,a1,s1
   12eb4:	0005d703          	lhu	a4,0(a1)
   12eb8:	00d77633          	and	a2,a4,a3
   12ebc:	b791                	j	12e00 <emdnorm+0xd0>
   12ebe:	f7000793          	li	a5,-144
   12ec2:	10f95c63          	bge	s2,a5,12fda <emdnorm+0x2aa>
   12ec6:	00248793          	add	a5,s1,2
   12eca:	04e9                	add	s1,s1,26
   12ecc:	0789                	add	a5,a5,2
   12ece:	fe079f23          	sh	zero,-2(a5)
   12ed2:	fe979de3          	bne	a5,s1,12ecc <emdnorm+0x19c>
   12ed6:	b745                	j	12e76 <emdnorm+0x146>
   12ed8:	47e1                	li	a5,24
   12eda:	06fa8163          	beq	s5,a5,12f3c <emdnorm+0x20c>
   12ede:	03500793          	li	a5,53
   12ee2:	18fa9a63          	bne	s5,a5,13076 <emdnorm+0x346>
   12ee6:	6785                	lui	a5,0x1
   12ee8:	04000737          	lui	a4,0x4000
   12eec:	4699                	li	a3,6
   12eee:	80078793          	add	a5,a5,-2048 # 800 <exit-0xf8e8>
   12ef2:	7ff70713          	add	a4,a4,2047 # 40007ff <__BSS_END__+0x3fe3517>
   12ef6:	c414                	sw	a3,8(s0)
   12ef8:	c858                	sw	a4,20(s0)
   12efa:	00f41c23          	sh	a5,24(s0)
   12efe:	c454                	sw	a3,12(s0)
   12f00:	02f41323          	sh	a5,38(s0)
   12f04:	01542023          	sw	s5,0(s0)
   12f08:	05205c63          	blez	s2,12f60 <emdnorm+0x230>
   12f0c:	00c4d603          	lhu	a2,12(s1)
   12f10:	00c48593          	add	a1,s1,12
   12f14:	479d                	li	a5,7
   12f16:	7ff67613          	and	a2,a2,2047
   12f1a:	bd55                	j	12dce <emdnorm+0x9e>
   12f1c:	00049c23          	sh	zero,24(s1)
   12f20:	77e1                	lui	a5,0xffff8
   12f22:	fff7c793          	not	a5,a5
   12f26:	00f49123          	sh	a5,2(s1)
   12f2a:	00448793          	add	a5,s1,4
   12f2e:	04e1                	add	s1,s1,24
   12f30:	00079023          	sh	zero,0(a5) # ffffffffffff8000 <__BSS_END__+0xfffffffffffdad18>
   12f34:	0789                	add	a5,a5,2
   12f36:	fe979de3          	bne	a5,s1,12f30 <emdnorm+0x200>
   12f3a:	bf35                	j	12e76 <emdnorm+0x146>
   12f3c:	008007b7          	lui	a5,0x800
   12f40:	4691                	li	a3,4
   12f42:	10000713          	li	a4,256
   12f46:	0ff78793          	add	a5,a5,255 # 8000ff <__BSS_END__+0x7e2e17>
   12f4a:	c414                	sw	a3,8(s0)
   12f4c:	c85c                	sw	a5,20(s0)
   12f4e:	00e41c23          	sh	a4,24(s0)
   12f52:	c454                	sw	a3,12(s0)
   12f54:	02e41123          	sh	a4,34(s0)
   12f58:	01542023          	sw	s5,0(s0)
   12f5c:	15204663          	bgtz	s2,130a8 <emdnorm+0x378>
   12f60:	0184d783          	lhu	a5,24(s1)
   12f64:	8526                	mv	a0,s1
   12f66:	8b85                	and	a5,a5,1
   12f68:	00f9e7b3          	or	a5,s3,a5
   12f6c:	0007899b          	sext.w	s3,a5
   12f70:	883ff0ef          	jal	127f2 <eshdn1>
   12f74:	441c                	lw	a5,8(s0)
   12f76:	01445683          	lhu	a3,20(s0)
   12f7a:	08f00513          	li	a0,143
   12f7e:	00179593          	sll	a1,a5,0x1
   12f82:	95a6                	add	a1,a1,s1
   12f84:	0005d703          	lhu	a4,0(a1)
   12f88:	00d77633          	and	a2,a4,a3
   12f8c:	e7554ae3          	blt	a0,s5,12e00 <emdnorm+0xd0>
   12f90:	2785                	addw	a5,a5,1
   12f92:	4531                	li	a0,12
   12f94:	e2f55de3          	bge	a0,a5,12dce <emdnorm+0x9e>
   12f98:	b5a5                	j	12e00 <emdnorm+0xd0>
   12f9a:	00248793          	add	a5,s1,2
   12f9e:	04e9                	add	s1,s1,26
   12fa0:	0789                	add	a5,a5,2
   12fa2:	fe079f23          	sh	zero,-2(a5)
   12fa6:	fe979de3          	bne	a5,s1,12fa0 <emdnorm+0x270>
   12faa:	b5f1                	j	12e76 <emdnorm+0x146>
   12fac:	479d                	li	a5,7
   12fae:	c41c                	sw	a5,8(s0)
   12fb0:	800107b7          	lui	a5,0x80010
   12fb4:	17fd                	add	a5,a5,-1 # ffffffff8000ffff <__BSS_END__+0xffffffff7fff2d17>
   12fb6:	4705                	li	a4,1
   12fb8:	c85c                	sw	a5,20(s0)
   12fba:	4799                	li	a5,6
   12fbc:	00e41c23          	sh	a4,24(s0)
   12fc0:	c45c                	sw	a5,12(s0)
   12fc2:	02e41323          	sh	a4,38(s0)
   12fc6:	01542023          	sw	s5,0(s0)
   12fca:	f9205be3          	blez	s2,12f60 <emdnorm+0x230>
   12fce:	00e4d603          	lhu	a2,14(s1)
   12fd2:	00e48593          	add	a1,s1,14
   12fd6:	47a1                	li	a5,8
   12fd8:	bbdd                	j	12dce <emdnorm+0x9e>
   12fda:	0009059b          	sext.w	a1,s2
   12fde:	8526                	mv	a0,s1
   12fe0:	a8dff0ef          	jal	12a6c <eshift.part.0>
   12fe4:	c955                	beqz	a0,13098 <emdnorm+0x368>
   12fe6:	0c0a8763          	beqz	s5,130b4 <emdnorm+0x384>
   12fea:	00442a83          	lw	s5,4(s0)
   12fee:	401c                	lw	a5,0(s0)
   12ff0:	4985                	li	s3,1
   12ff2:	d8fa90e3          	bne	s5,a5,12d72 <emdnorm+0x42>
   12ff6:	b565                	j	12e9e <emdnorm+0x16e>
   12ff8:	8526                	mv	a0,s1
   12ffa:	ff8ff0ef          	jal	127f2 <eshdn1>
   12ffe:	67a1                	lui	a5,0x8
   13000:	0905                	add	s2,s2,1
   13002:	00049c23          	sh	zero,24(s1)
   13006:	17f9                	add	a5,a5,-2 # 7ffe <exit-0x80ea>
   13008:	f127cce3          	blt	a5,s2,12f20 <emdnorm+0x1f0>
   1300c:	b59d                	j	12e72 <emdnorm+0x142>
   1300e:	09000793          	li	a5,144
   13012:	00fa8f63          	beq	s5,a5,13030 <emdnorm+0x300>
   13016:	8526                	mv	a0,s1
   13018:	819ff0ef          	jal	12830 <eshup1>
   1301c:	0044d783          	lhu	a5,4(s1)
   13020:	eb99                	bnez	a5,13036 <emdnorm+0x306>
   13022:	00049c23          	sh	zero,24(s1)
   13026:	e40956e3          	bgez	s2,12e72 <emdnorm+0x142>
   1302a:	00049123          	sh	zero,2(s1)
   1302e:	b5a1                	j	12e76 <emdnorm+0x146>
   13030:	0044d783          	lhu	a5,4(s1)
   13034:	d7fd                	beqz	a5,13022 <emdnorm+0x2f2>
   13036:	8526                	mv	a0,s1
   13038:	fbaff0ef          	jal	127f2 <eshdn1>
   1303c:	0905                	add	s2,s2,1
   1303e:	b7d5                	j	13022 <emdnorm+0x2f2>
   13040:	de0a07e3          	beqz	s4,12e2e <emdnorm+0xfe>
   13044:	bd19                	j	12e5a <emdnorm+0x12a>
   13046:	008007b7          	lui	a5,0x800
   1304a:	4699                	li	a3,6
   1304c:	10000713          	li	a4,256
   13050:	0ff78793          	add	a5,a5,255 # 8000ff <__BSS_END__+0x7e2e17>
   13054:	c414                	sw	a3,8(s0)
   13056:	c85c                	sw	a5,20(s0)
   13058:	00e41c23          	sh	a4,24(s0)
   1305c:	c454                	sw	a3,12(s0)
   1305e:	02e41323          	sh	a4,38(s0)
   13062:	01542023          	sw	s5,0(s0)
   13066:	ef205de3          	blez	s2,12f60 <emdnorm+0x230>
   1306a:	00c4c603          	lbu	a2,12(s1)
   1306e:	00c48593          	add	a1,s1,12
   13072:	479d                	li	a5,7
   13074:	bba9                	j	12dce <emdnorm+0x9e>
   13076:	47b1                	li	a5,12
   13078:	c41c                	sw	a5,8(s0)
   1307a:	800107b7          	lui	a5,0x80010
   1307e:	17fd                	add	a5,a5,-1 # ffffffff8000ffff <__BSS_END__+0xffffffff7fff2d17>
   13080:	4705                	li	a4,1
   13082:	c85c                	sw	a5,20(s0)
   13084:	47ad                	li	a5,11
   13086:	c45c                	sw	a5,12(s0)
   13088:	00e41c23          	sh	a4,24(s0)
   1308c:	02e41823          	sh	a4,48(s0)
   13090:	01542023          	sw	s5,0(s0)
   13094:	87d6                	mv	a5,s5
   13096:	b511                	j	12e9a <emdnorm+0x16a>
   13098:	000a8e63          	beqz	s5,130b4 <emdnorm+0x384>
   1309c:	00442a83          	lw	s5,4(s0)
   130a0:	401c                	lw	a5,0(s0)
   130a2:	ccfa98e3          	bne	s5,a5,12d72 <emdnorm+0x42>
   130a6:	bbe5                	j	12e9e <emdnorm+0x16e>
   130a8:	0084c603          	lbu	a2,8(s1)
   130ac:	00848593          	add	a1,s1,8
   130b0:	4795                	li	a5,5
   130b2:	bb31                	j	12dce <emdnorm+0x9e>
   130b4:	00049c23          	sh	zero,24(s1)
   130b8:	00049123          	sh	zero,2(s1)
   130bc:	bb6d                	j	12e76 <emdnorm+0x146>
   130be:	8abe                	mv	s5,a5
   130c0:	bd55                	j	12f74 <emdnorm+0x244>
   130c2:	8abe                	mv	s5,a5
   130c4:	bd71                	j	12f60 <emdnorm+0x230>

00000000000130c6 <eiremain>:
   130c6:	711d                	add	sp,sp,-96
   130c8:	e0ca                	sd	s2,64(sp)
   130ca:	fc4e                	sd	s3,56(sp)
   130cc:	892e                	mv	s2,a1
   130ce:	00255983          	lhu	s3,2(a0)
   130d2:	ec86                	sd	ra,88(sp)
   130d4:	e8a2                	sd	s0,80(sp)
   130d6:	e4a6                	sd	s1,72(sp)
   130d8:	f852                	sd	s4,48(sp)
   130da:	84b2                	mv	s1,a2
   130dc:	ec5e                	sd	s7,24(sp)
   130de:	f456                	sd	s5,40(sp)
   130e0:	f05a                	sd	s6,32(sp)
   130e2:	e862                	sd	s8,16(sp)
   130e4:	e466                	sd	s9,8(sp)
   130e6:	e06a                	sd	s10,0(sp)
   130e8:	8baa                	mv	s7,a0
   130ea:	877ff0ef          	jal	12960 <enormlz>
   130ee:	00295403          	lhu	s0,2(s2)
   130f2:	87aa                	mv	a5,a0
   130f4:	854a                	mv	a0,s2
   130f6:	40f989b3          	sub	s3,s3,a5
   130fa:	03448a13          	add	s4,s1,52
   130fe:	863ff0ef          	jal	12960 <enormlz>
   13102:	8c09                	sub	s0,s0,a0
   13104:	04e48713          	add	a4,s1,78
   13108:	87d2                	mv	a5,s4
   1310a:	0789                	add	a5,a5,2
   1310c:	fe079f23          	sh	zero,-2(a5)
   13110:	fee79de3          	bne	a5,a4,1310a <eiremain+0x44>
   13114:	07344a63          	blt	s0,s3,13188 <eiremain+0xc2>
   13118:	004b8b13          	add	s6,s7,4
   1311c:	00490a93          	add	s5,s2,4
   13120:	01ab8c13          	add	s8,s7,26
   13124:	00290d13          	add	s10,s2,2
   13128:	8756                	mv	a4,s5
   1312a:	87da                	mv	a5,s6
   1312c:	0007d603          	lhu	a2,0(a5)
   13130:	00075683          	lhu	a3,0(a4)
   13134:	0789                	add	a5,a5,2
   13136:	0709                	add	a4,a4,2
   13138:	06d61c63          	bne	a2,a3,131b0 <eiremain+0xea>
   1313c:	fefc18e3          	bne	s8,a5,1312c <eiremain+0x66>
   13140:	018b8613          	add	a2,s7,24
   13144:	01890713          	add	a4,s2,24
   13148:	4681                	li	a3,0
   1314a:	00075783          	lhu	a5,0(a4)
   1314e:	00065583          	lhu	a1,0(a2)
   13152:	1779                	add	a4,a4,-2
   13154:	1679                	add	a2,a2,-2
   13156:	8f8d                	sub	a5,a5,a1
   13158:	8f95                	sub	a5,a5,a3
   1315a:	0107d693          	srl	a3,a5,0x10
   1315e:	00f71123          	sh	a5,2(a4)
   13162:	8a85                	and	a3,a3,1
   13164:	ffa713e3          	bne	a4,s10,1314a <eiremain+0x84>
   13168:	4c85                	li	s9,1
   1316a:	8552                	mv	a0,s4
   1316c:	ec4ff0ef          	jal	12830 <eshup1>
   13170:	04c4d783          	lhu	a5,76(s1)
   13174:	147d                	add	s0,s0,-1
   13176:	854a                	mv	a0,s2
   13178:	00fce7b3          	or	a5,s9,a5
   1317c:	04f49623          	sh	a5,76(s1)
   13180:	eb0ff0ef          	jal	12830 <eshup1>
   13184:	fb3452e3          	bge	s0,s3,13128 <eiremain+0x62>
   13188:	86a2                	mv	a3,s0
   1318a:	6446                	ld	s0,80(sp)
   1318c:	60e6                	ld	ra,88(sp)
   1318e:	79e2                	ld	s3,56(sp)
   13190:	7a42                	ld	s4,48(sp)
   13192:	7aa2                	ld	s5,40(sp)
   13194:	7b02                	ld	s6,32(sp)
   13196:	6be2                	ld	s7,24(sp)
   13198:	6c42                	ld	s8,16(sp)
   1319a:	6ca2                	ld	s9,8(sp)
   1319c:	6d02                	ld	s10,0(sp)
   1319e:	87a6                	mv	a5,s1
   131a0:	854a                	mv	a0,s2
   131a2:	64a6                	ld	s1,72(sp)
   131a4:	6906                	ld	s2,64(sp)
   131a6:	4701                	li	a4,0
   131a8:	4601                	li	a2,0
   131aa:	4581                	li	a1,0
   131ac:	6125                	add	sp,sp,96
   131ae:	b649                	j	12d30 <emdnorm>
   131b0:	4c81                	li	s9,0
   131b2:	fac6ece3          	bltu	a3,a2,1316a <eiremain+0xa4>
   131b6:	b769                	j	13140 <eiremain+0x7a>

00000000000131b8 <e113toe.isra.0>:
   131b8:	7179                	add	sp,sp,-48
   131ba:	f022                	sd	s0,32(sp)
   131bc:	f406                	sd	ra,40(sp)
   131be:	842e                	mv	s0,a1
   131c0:	878a                	mv	a5,sp
   131c2:	01a10713          	add	a4,sp,26
   131c6:	0789                	add	a5,a5,2
   131c8:	fe079f23          	sh	zero,-2(a5)
   131cc:	fee79de3          	bne	a5,a4,131c6 <e113toe.isra.0+0xe>
   131d0:	00e55783          	lhu	a5,14(a0)
   131d4:	6721                	lui	a4,0x8
   131d6:	177d                	add	a4,a4,-1 # 7fff <exit-0x80e9>
   131d8:	03079693          	sll	a3,a5,0x30
   131dc:	96fd                	sra	a3,a3,0x3f
   131de:	00d11023          	sh	a3,0(sp)
   131e2:	00e7f6b3          	and	a3,a5,a4
   131e6:	8636                	mv	a2,a3
   131e8:	04e68363          	beq	a3,a4,1322e <e113toe.isra.0+0x76>
   131ec:	00e50793          	add	a5,a0,14
   131f0:	00d11123          	sh	a3,2(sp)
   131f4:	00610713          	add	a4,sp,6
   131f8:	ffe7d683          	lhu	a3,-2(a5)
   131fc:	17f9                	add	a5,a5,-2
   131fe:	0709                	add	a4,a4,2
   13200:	fed71f23          	sh	a3,-2(a4)
   13204:	fef51ae3          	bne	a0,a5,131f8 <e113toe.isra.0+0x40>
   13208:	ea19                	bnez	a2,1321e <e113toe.isra.0+0x66>
   1320a:	00011223          	sh	zero,4(sp)
   1320e:	85a2                	mv	a1,s0
   13210:	850a                	mv	a0,sp
   13212:	ec2ff0ef          	jal	128d4 <emovo.constprop.0>
   13216:	70a2                	ld	ra,40(sp)
   13218:	7402                	ld	s0,32(sp)
   1321a:	6145                	add	sp,sp,48
   1321c:	8082                	ret
   1321e:	4785                	li	a5,1
   13220:	55fd                	li	a1,-1
   13222:	850a                	mv	a0,sp
   13224:	00f11223          	sh	a5,4(sp)
   13228:	845ff0ef          	jal	12a6c <eshift.part.0>
   1322c:	b7cd                	j	1320e <e113toe.isra.0+0x56>
   1322e:	87aa                	mv	a5,a0
   13230:	00e50693          	add	a3,a0,14
   13234:	0007d703          	lhu	a4,0(a5)
   13238:	0789                	add	a5,a5,2
   1323a:	ef21                	bnez	a4,13292 <e113toe.isra.0+0xda>
   1323c:	fed79ce3          	bne	a5,a3,13234 <e113toe.isra.0+0x7c>
   13240:	01440713          	add	a4,s0,20
   13244:	87a2                	mv	a5,s0
   13246:	0789                	add	a5,a5,2
   13248:	fe079f23          	sh	zero,-2(a5)
   1324c:	fee79de3          	bne	a5,a4,13246 <e113toe.isra.0+0x8e>
   13250:	01240713          	add	a4,s0,18
   13254:	87a2                	mv	a5,s0
   13256:	0789                	add	a5,a5,2
   13258:	fe079f23          	sh	zero,-2(a5)
   1325c:	fee79de3          	bne	a5,a4,13256 <e113toe.isra.0+0x9e>
   13260:	01245783          	lhu	a5,18(s0)
   13264:	66a1                	lui	a3,0x8
   13266:	16fd                	add	a3,a3,-1 # 7fff <exit-0x80e9>
   13268:	8fd5                	or	a5,a5,a3
   1326a:	17c2                	sll	a5,a5,0x30
   1326c:	93c1                	srl	a5,a5,0x30
   1326e:	00f41923          	sh	a5,18(s0)
   13272:	00e51683          	lh	a3,14(a0)
   13276:	fa06d0e3          	bgez	a3,13216 <e113toe.isra.0+0x5e>
   1327a:	86a2                	mv	a3,s0
   1327c:	0006d603          	lhu	a2,0(a3)
   13280:	0689                	add	a3,a3,2
   13282:	fa51                	bnez	a2,13216 <e113toe.isra.0+0x5e>
   13284:	fee69ce3          	bne	a3,a4,1327c <e113toe.isra.0+0xc4>
   13288:	7761                	lui	a4,0xffff8
   1328a:	8fb9                	xor	a5,a5,a4
   1328c:	00f41923          	sh	a5,18(s0)
   13290:	b759                	j	13216 <e113toe.isra.0+0x5e>
   13292:	01040713          	add	a4,s0,16
   13296:	87a2                	mv	a5,s0
   13298:	0789                	add	a5,a5,2
   1329a:	fe079f23          	sh	zero,-2(a5)
   1329e:	fee79de3          	bne	a5,a4,13298 <e113toe.isra.0+0xe0>
   132a2:	77f1                	lui	a5,0xffffc
   132a4:	00f41823          	sh	a5,16(s0)
   132a8:	77e1                	lui	a5,0xffff8
   132aa:	fff7c793          	not	a5,a5
   132ae:	00f41923          	sh	a5,18(s0)
   132b2:	b795                	j	13216 <e113toe.isra.0+0x5e>

00000000000132b4 <ediv>:
   132b4:	01255783          	lhu	a5,18(a0)
   132b8:	7151                	add	sp,sp,-240
   132ba:	f1a2                	sd	s0,224(sp)
   132bc:	fff7c793          	not	a5,a5
   132c0:	eda6                	sd	s1,216(sp)
   132c2:	e9ca                	sd	s2,208(sp)
   132c4:	e5ce                	sd	s3,200(sp)
   132c6:	f586                	sd	ra,232(sp)
   132c8:	e1d2                	sd	s4,192(sp)
   132ca:	fd56                	sd	s5,184(sp)
   132cc:	f95a                	sd	s6,176(sp)
   132ce:	f55e                	sd	s7,168(sp)
   132d0:	f162                	sd	s8,160(sp)
   132d2:	ed66                	sd	s9,152(sp)
   132d4:	e96a                	sd	s10,144(sp)
   132d6:	e56e                	sd	s11,136(sp)
   132d8:	03179713          	sll	a4,a5,0x31
   132dc:	84aa                	mv	s1,a0
   132de:	89ae                	mv	s3,a1
   132e0:	8432                	mv	s0,a2
   132e2:	8936                	mv	s2,a3
   132e4:	eb11                	bnez	a4,132f8 <ediv+0x44>
   132e6:	01250693          	add	a3,a0,18
   132ea:	87aa                	mv	a5,a0
   132ec:	0007d703          	lhu	a4,0(a5) # ffffffffffff8000 <__BSS_END__+0xfffffffffffdad18>
   132f0:	0789                	add	a5,a5,2
   132f2:	ef45                	bnez	a4,133aa <ediv+0xf6>
   132f4:	fed79ce3          	bne	a5,a3,132ec <ediv+0x38>
   132f8:	0129d783          	lhu	a5,18(s3)
   132fc:	fff7c793          	not	a5,a5
   13300:	03179713          	sll	a4,a5,0x31
   13304:	eb11                	bnez	a4,13318 <ediv+0x64>
   13306:	01298693          	add	a3,s3,18
   1330a:	87ce                	mv	a5,s3
   1330c:	0007d703          	lhu	a4,0(a5)
   13310:	0789                	add	a5,a5,2
   13312:	e75d                	bnez	a4,133c0 <ediv+0x10c>
   13314:	fed79ce3          	bne	a5,a3,1330c <ediv+0x58>
   13318:	6a6d                	lui	s4,0x1b
   1331a:	628a0593          	add	a1,s4,1576 # 1b628 <ezero>
   1331e:	8526                	mv	a0,s1
   13320:	929ff0ef          	jal	12c48 <ecmp>
   13324:	12050763          	beqz	a0,13452 <ediv+0x19e>
   13328:	0124d603          	lhu	a2,18(s1)
   1332c:	67a1                	lui	a5,0x8
   1332e:	17fd                	add	a5,a5,-1 # 7fff <exit-0x80e9>
   13330:	00f67533          	and	a0,a2,a5
   13334:	0af51163          	bne	a0,a5,133d6 <ediv+0x122>
   13338:	01248693          	add	a3,s1,18
   1333c:	87a6                	mv	a5,s1
   1333e:	0007d703          	lhu	a4,0(a5)
   13342:	0789                	add	a5,a5,2
   13344:	eb49                	bnez	a4,133d6 <ediv+0x122>
   13346:	fed79ce3          	bne	a5,a3,1333e <ediv+0x8a>
   1334a:	0129d703          	lhu	a4,18(s3)
   1334e:	fff74793          	not	a5,a4
   13352:	03179693          	sll	a3,a5,0x31
   13356:	e6f5                	bnez	a3,13442 <ediv+0x18e>
   13358:	01298693          	add	a3,s3,18
   1335c:	87ce                	mv	a5,s3
   1335e:	0007d583          	lhu	a1,0(a5)
   13362:	0789                	add	a5,a5,2
   13364:	36059a63          	bnez	a1,136d8 <ediv+0x424>
   13368:	fed79be3          	bne	a5,a3,1335e <ediv+0xaa>
   1336c:	01040713          	add	a4,s0,16
   13370:	87a2                	mv	a5,s0
   13372:	0789                	add	a5,a5,2
   13374:	fe079f23          	sh	zero,-2(a5)
   13378:	fee79de3          	bne	a5,a4,13372 <ediv+0xbe>
   1337c:	77f1                	lui	a5,0xffffc
   1337e:	00f41823          	sh	a5,16(s0)
   13382:	77e1                	lui	a5,0xffff8
   13384:	fff7c793          	not	a5,a5
   13388:	00f41923          	sh	a5,18(s0)
   1338c:	70ae                	ld	ra,232(sp)
   1338e:	740e                	ld	s0,224(sp)
   13390:	64ee                	ld	s1,216(sp)
   13392:	694e                	ld	s2,208(sp)
   13394:	69ae                	ld	s3,200(sp)
   13396:	6a0e                	ld	s4,192(sp)
   13398:	7aea                	ld	s5,184(sp)
   1339a:	7b4a                	ld	s6,176(sp)
   1339c:	7baa                	ld	s7,168(sp)
   1339e:	7c0a                	ld	s8,160(sp)
   133a0:	6cea                	ld	s9,152(sp)
   133a2:	6d4a                	ld	s10,144(sp)
   133a4:	6daa                	ld	s11,136(sp)
   133a6:	616d                	add	sp,sp,240
   133a8:	8082                	ret
   133aa:	01448713          	add	a4,s1,20
   133ae:	0004d783          	lhu	a5,0(s1)
   133b2:	0489                	add	s1,s1,2
   133b4:	0409                	add	s0,s0,2
   133b6:	fef41f23          	sh	a5,-2(s0)
   133ba:	fee49ae3          	bne	s1,a4,133ae <ediv+0xfa>
   133be:	b7f9                	j	1338c <ediv+0xd8>
   133c0:	01440713          	add	a4,s0,20
   133c4:	0009d783          	lhu	a5,0(s3)
   133c8:	0409                	add	s0,s0,2
   133ca:	0989                	add	s3,s3,2
   133cc:	fef41f23          	sh	a5,-2(s0)
   133d0:	fee41ae3          	bne	s0,a4,133c4 <ediv+0x110>
   133d4:	bf65                	j	1338c <ediv+0xd8>
   133d6:	0129d703          	lhu	a4,18(s3)
   133da:	fff74793          	not	a5,a4
   133de:	03179693          	sll	a3,a5,0x31
   133e2:	e2c1                	bnez	a3,13462 <ediv+0x1ae>
   133e4:	4801                	li	a6,0
   133e6:	01298693          	add	a3,s3,18
   133ea:	87ce                	mv	a5,s3
   133ec:	0007d583          	lhu	a1,0(a5) # ffffffffffff8000 <__BSS_END__+0xfffffffffffdad18>
   133f0:	0789                	add	a5,a5,2
   133f2:	e5b1                	bnez	a1,1343e <ediv+0x18a>
   133f4:	fed79ce3          	bne	a5,a3,133ec <ediv+0x138>
   133f8:	67a1                	lui	a5,0x8
   133fa:	17fd                	add	a5,a5,-1 # 7fff <exit-0x80e9>
   133fc:	0af50463          	beq	a0,a5,134a4 <ediv+0x1f0>
   13400:	823d                	srl	a2,a2,0xf
   13402:	0009d783          	lhu	a5,0(s3)
   13406:	0989                	add	s3,s3,2
   13408:	2c079463          	bnez	a5,136d0 <ediv+0x41c>
   1340c:	fed99be3          	bne	s3,a3,13402 <ediv+0x14e>
   13410:	00f75793          	srl	a5,a4,0xf
   13414:	8fb1                	xor	a5,a5,a2
   13416:	00f7979b          	sllw	a5,a5,0xf
   1341a:	00f41923          	sh	a5,18(s0)
   1341e:	01240713          	add	a4,s0,18
   13422:	87a2                	mv	a5,s0
   13424:	0789                	add	a5,a5,2
   13426:	fe079f23          	sh	zero,-2(a5)
   1342a:	fee79de3          	bne	a5,a4,13424 <ediv+0x170>
   1342e:	01245783          	lhu	a5,18(s0)
   13432:	6721                	lui	a4,0x8
   13434:	177d                	add	a4,a4,-1 # 7fff <exit-0x80e9>
   13436:	8fd9                	or	a5,a5,a4
   13438:	00f41923          	sh	a5,18(s0)
   1343c:	bf81                	j	1338c <ediv+0xd8>
   1343e:	02080263          	beqz	a6,13462 <ediv+0x1ae>
   13442:	01440793          	add	a5,s0,20
   13446:	0409                	add	s0,s0,2
   13448:	fe041f23          	sh	zero,-2(s0)
   1344c:	fef41de3          	bne	s0,a5,13446 <ediv+0x192>
   13450:	bf35                	j	1338c <ediv+0xd8>
   13452:	628a0593          	add	a1,s4,1576
   13456:	854e                	mv	a0,s3
   13458:	ff0ff0ef          	jal	12c48 <ecmp>
   1345c:	ec0516e3          	bnez	a0,13328 <ediv+0x74>
   13460:	b731                	j	1336c <ediv+0xb8>
   13462:	100c                	add	a1,sp,32
   13464:	8526                	mv	a0,s1
   13466:	f4eff0ef          	jal	12bb4 <emovi>
   1346a:	008c                	add	a1,sp,64
   1346c:	854e                	mv	a0,s3
   1346e:	f46ff0ef          	jal	12bb4 <emovi>
   13472:	04215b03          	lhu	s6,66(sp)
   13476:	02215c03          	lhu	s8,34(sp)
   1347a:	020b1f63          	bnez	s6,134b8 <ediv+0x204>
   1347e:	04210793          	add	a5,sp,66
   13482:	05810c93          	add	s9,sp,88
   13486:	0007d703          	lhu	a4,0(a5)
   1348a:	0789                	add	a5,a5,2
   1348c:	22071463          	bnez	a4,136b4 <ediv+0x400>
   13490:	fefc9be3          	bne	s9,a5,13486 <ediv+0x1d2>
   13494:	01440793          	add	a5,s0,20
   13498:	0409                	add	s0,s0,2
   1349a:	fe041f23          	sh	zero,-2(s0)
   1349e:	fef41de3          	bne	s0,a5,13498 <ediv+0x1e4>
   134a2:	b5ed                	j	1338c <ediv+0xd8>
   134a4:	01248593          	add	a1,s1,18
   134a8:	0004d783          	lhu	a5,0(s1)
   134ac:	0489                	add	s1,s1,2
   134ae:	22079363          	bnez	a5,136d4 <ediv+0x420>
   134b2:	feb49be3          	bne	s1,a1,134a8 <ediv+0x1f4>
   134b6:	b7a9                	j	13400 <ediv+0x14c>
   134b8:	e45a                	sd	s6,8(sp)
   134ba:	040c1063          	bnez	s8,134fa <ediv+0x246>
   134be:	02210793          	add	a5,sp,34
   134c2:	1834                	add	a3,sp,56
   134c4:	0007d703          	lhu	a4,0(a5)
   134c8:	0789                	add	a5,a5,2
   134ca:	1e071c63          	bnez	a4,136c2 <ediv+0x40e>
   134ce:	fed79be3          	bne	a5,a3,134c4 <ediv+0x210>
   134d2:	02015683          	lhu	a3,32(sp)
   134d6:	04015603          	lhu	a2,64(sp)
   134da:	01240713          	add	a4,s0,18
   134de:	87a2                	mv	a5,s0
   134e0:	8e91                	sub	a3,a3,a2
   134e2:	00d036b3          	snez	a3,a3
   134e6:	00f6969b          	sllw	a3,a3,0xf
   134ea:	00d41923          	sh	a3,18(s0)
   134ee:	0789                	add	a5,a5,2
   134f0:	fe079f23          	sh	zero,-2(a5)
   134f4:	fee79de3          	bne	a5,a4,134ee <ediv+0x23a>
   134f8:	bf1d                	j	1342e <ediv+0x17a>
   134fa:	e862                	sd	s8,16(sp)
   134fc:	4786                	lw	a5,64(sp)
   134fe:	03890493          	add	s1,s2,56
   13502:	03490713          	add	a4,s2,52
   13506:	02f92a23          	sw	a5,52(s2)
   1350a:	ec3a                	sd	a4,24(sp)
   1350c:	04e90993          	add	s3,s2,78
   13510:	87a6                	mv	a5,s1
   13512:	0789                	add	a5,a5,2
   13514:	fe079f23          	sh	zero,-2(a5)
   13518:	ff379de3          	bne	a5,s3,13512 <ediv+0x25e>
   1351c:	0088                	add	a0,sp,64
   1351e:	ad4ff0ef          	jal	127f2 <eshdn1>
   13522:	02615b83          	lhu	s7,38(sp)
   13526:	6a41                	lui	s4,0x10
   13528:	04210d13          	add	s10,sp,66
   1352c:	010b9a93          	sll	s5,s7,0x10
   13530:	417a8ab3          	sub	s5,s5,s7
   13534:	05810c93          	add	s9,sp,88
   13538:	1a7d                	add	s4,s4,-1 # ffff <exit-0xe9>
   1353a:	07a10d93          	add	s11,sp,122
   1353e:	06210c13          	add	s8,sp,98
   13542:	04415783          	lhu	a5,68(sp)
   13546:	04615703          	lhu	a4,70(sp)
   1354a:	8b52                	mv	s6,s4
   1354c:	07c2                	sll	a5,a5,0x10
   1354e:	97ba                	add	a5,a5,a4
   13550:	00fae863          	bltu	s5,a5,13560 <ediv+0x2ac>
   13554:	0377d7b3          	divu	a5,a5,s7
   13558:	03079b13          	sll	s6,a5,0x30
   1355c:	030b5b13          	srl	s6,s6,0x30
   13560:	1090                	add	a2,sp,96
   13562:	100c                	add	a1,sp,32
   13564:	855a                	mv	a0,s6
   13566:	b06ff0ef          	jal	1286c <m16m>
   1356a:	00d8                	add	a4,sp,68
   1356c:	10dc                	add	a5,sp,100
   1356e:	0007d603          	lhu	a2,0(a5)
   13572:	00075683          	lhu	a3,0(a4)
   13576:	0789                	add	a5,a5,2
   13578:	0709                	add	a4,a4,2
   1357a:	0ad61a63          	bne	a2,a3,1362e <ediv+0x37a>
   1357e:	ffb798e3          	bne	a5,s11,1356e <ediv+0x2ba>
   13582:	4681                	li	a3,0
   13584:	18b0                	add	a2,sp,120
   13586:	87e6                	mv	a5,s9
   13588:	0007d703          	lhu	a4,0(a5)
   1358c:	00065583          	lhu	a1,0(a2)
   13590:	17f9                	add	a5,a5,-2
   13592:	1679                	add	a2,a2,-2
   13594:	8f0d                	sub	a4,a4,a1
   13596:	8f15                	sub	a4,a4,a3
   13598:	01075693          	srl	a3,a4,0x10
   1359c:	00e79123          	sh	a4,2(a5)
   135a0:	8a85                	and	a3,a3,1
   135a2:	ffa793e3          	bne	a5,s10,13588 <ediv+0x2d4>
   135a6:	01649023          	sh	s6,0(s1)
   135aa:	00dc                	add	a5,sp,68
   135ac:	0027d703          	lhu	a4,2(a5)
   135b0:	0789                	add	a5,a5,2
   135b2:	fee79f23          	sh	a4,-2(a5)
   135b6:	ff979be3          	bne	a5,s9,135ac <ediv+0x2f8>
   135ba:	04011c23          	sh	zero,88(sp)
   135be:	0489                	add	s1,s1,2
   135c0:	f89991e3          	bne	s3,s1,13542 <ediv+0x28e>
   135c4:	4701                	li	a4,0
   135c6:	00dc                	add	a5,sp,68
   135c8:	05a10693          	add	a3,sp,90
   135cc:	0007d603          	lhu	a2,0(a5)
   135d0:	0789                	add	a5,a5,2
   135d2:	8f51                	or	a4,a4,a2
   135d4:	fed79ce3          	bne	a5,a3,135cc <ediv+0x318>
   135d8:	64e2                	ld	s1,24(sp)
   135da:	2701                	sext.w	a4,a4
   135dc:	00e035b3          	snez	a1,a4
   135e0:	009c                	add	a5,sp,64
   135e2:	0004d703          	lhu	a4,0(s1)
   135e6:	0789                	add	a5,a5,2
   135e8:	0489                	add	s1,s1,2
   135ea:	fee79f23          	sh	a4,-2(a5)
   135ee:	fed79ae3          	bne	a5,a3,135e2 <ediv+0x32e>
   135f2:	67a2                	ld	a5,8(sp)
   135f4:	6742                	ld	a4,16(sp)
   135f6:	6691                	lui	a3,0x4
   135f8:	16fd                	add	a3,a3,-1 # 3fff <exit-0xc0e9>
   135fa:	40e78b33          	sub	s6,a5,a4
   135fe:	0088                	add	a0,sp,64
   13600:	87ca                	mv	a5,s2
   13602:	04000713          	li	a4,64
   13606:	96da                	add	a3,a3,s6
   13608:	4601                	li	a2,0
   1360a:	f26ff0ef          	jal	12d30 <emdnorm>
   1360e:	04015703          	lhu	a4,64(sp)
   13612:	02015783          	lhu	a5,32(sp)
   13616:	85a2                	mv	a1,s0
   13618:	0088                	add	a0,sp,64
   1361a:	8f99                	sub	a5,a5,a4
   1361c:	00f037b3          	snez	a5,a5
   13620:	40f007bb          	negw	a5,a5
   13624:	04f11023          	sh	a5,64(sp)
   13628:	aacff0ef          	jal	128d4 <emovo.constprop.0>
   1362c:	b385                	j	1338c <ediv+0xd8>
   1362e:	f4c6fae3          	bgeu	a3,a2,13582 <ediv+0x2ce>
   13632:	fffb079b          	addw	a5,s6,-1
   13636:	03079313          	sll	t1,a5,0x30
   1363a:	03035313          	srl	t1,t1,0x30
   1363e:	4681                	li	a3,0
   13640:	1830                	add	a2,sp,56
   13642:	18b8                	add	a4,sp,120
   13644:	00075783          	lhu	a5,0(a4)
   13648:	00065583          	lhu	a1,0(a2)
   1364c:	1779                	add	a4,a4,-2
   1364e:	1679                	add	a2,a2,-2
   13650:	8f8d                	sub	a5,a5,a1
   13652:	8f95                	sub	a5,a5,a3
   13654:	0107d693          	srl	a3,a5,0x10
   13658:	00f71123          	sh	a5,2(a4)
   1365c:	8a85                	and	a3,a3,1
   1365e:	ff8713e3          	bne	a4,s8,13644 <ediv+0x390>
   13662:	00d8                	add	a4,sp,68
   13664:	10dc                	add	a5,sp,100
   13666:	0007d603          	lhu	a2,0(a5)
   1366a:	00075683          	lhu	a3,0(a4)
   1366e:	0789                	add	a5,a5,2
   13670:	0709                	add	a4,a4,2
   13672:	00d61663          	bne	a2,a3,1367e <ediv+0x3ca>
   13676:	ffb798e3          	bne	a5,s11,13666 <ediv+0x3b2>
   1367a:	8b1a                	mv	s6,t1
   1367c:	b719                	j	13582 <ediv+0x2ce>
   1367e:	fec6fee3          	bgeu	a3,a2,1367a <ediv+0x3c6>
   13682:	ffeb051b          	addw	a0,s6,-2
   13686:	03051b13          	sll	s6,a0,0x30
   1368a:	030b5b13          	srl	s6,s6,0x30
   1368e:	4681                	li	a3,0
   13690:	1830                	add	a2,sp,56
   13692:	18b8                	add	a4,sp,120
   13694:	00075783          	lhu	a5,0(a4)
   13698:	00065583          	lhu	a1,0(a2)
   1369c:	1779                	add	a4,a4,-2
   1369e:	1679                	add	a2,a2,-2
   136a0:	8f8d                	sub	a5,a5,a1
   136a2:	8f95                	sub	a5,a5,a3
   136a4:	0107d693          	srl	a3,a5,0x10
   136a8:	00f71123          	sh	a5,2(a4)
   136ac:	8a85                	and	a3,a3,1
   136ae:	ff8713e3          	bne	a4,s8,13694 <ediv+0x3e0>
   136b2:	bdc1                	j	13582 <ediv+0x2ce>
   136b4:	0088                	add	a0,sp,64
   136b6:	aaaff0ef          	jal	12960 <enormlz>
   136ba:	40a007b3          	neg	a5,a0
   136be:	e43e                	sd	a5,8(sp)
   136c0:	bbed                	j	134ba <ediv+0x206>
   136c2:	1008                	add	a0,sp,32
   136c4:	a9cff0ef          	jal	12960 <enormlz>
   136c8:	40a007b3          	neg	a5,a0
   136cc:	e83e                	sd	a5,16(sp)
   136ce:	b53d                	j	134fc <ediv+0x248>
   136d0:	4781                	li	a5,0
   136d2:	b389                	j	13414 <ediv+0x160>
   136d4:	4601                	li	a2,0
   136d6:	b335                	j	13402 <ediv+0x14e>
   136d8:	4805                	li	a6,1
   136da:	bb01                	j	133ea <ediv+0x136>

00000000000136dc <emul>:
   136dc:	01255803          	lhu	a6,18(a0)
   136e0:	6721                	lui	a4,0x8
   136e2:	7131                	add	sp,sp,-192
   136e4:	177d                	add	a4,a4,-1 # 7fff <exit-0x80e9>
   136e6:	f922                	sd	s0,176(sp)
   136e8:	f526                	sd	s1,168(sp)
   136ea:	f14a                	sd	s2,160(sp)
   136ec:	e556                	sd	s5,136(sp)
   136ee:	84aa                	mv	s1,a0
   136f0:	fd06                	sd	ra,184(sp)
   136f2:	ed4e                	sd	s3,152(sp)
   136f4:	e952                	sd	s4,144(sp)
   136f6:	e15a                	sd	s6,128(sp)
   136f8:	fcde                	sd	s7,120(sp)
   136fa:	f8e2                	sd	s8,112(sp)
   136fc:	f4e6                	sd	s9,104(sp)
   136fe:	f0ea                	sd	s10,96(sp)
   13700:	00e87533          	and	a0,a6,a4
   13704:	892e                	mv	s2,a1
   13706:	8432                	mv	s0,a2
   13708:	8ab6                	mv	s5,a3
   1370a:	12e51663          	bne	a0,a4,13836 <emul+0x15a>
   1370e:	01248993          	add	s3,s1,18
   13712:	8726                	mv	a4,s1
   13714:	00075603          	lhu	a2,0(a4)
   13718:	0709                	add	a4,a4,2
   1371a:	18061863          	bnez	a2,138aa <emul+0x1ce>
   1371e:	ff371be3          	bne	a4,s3,13714 <emul+0x38>
   13722:	01295603          	lhu	a2,18(s2)
   13726:	fff64793          	not	a5,a2
   1372a:	03179713          	sll	a4,a5,0x31
   1372e:	10070a63          	beqz	a4,13842 <emul+0x166>
   13732:	87a6                	mv	a5,s1
   13734:	0007d703          	lhu	a4,0(a5)
   13738:	0789                	add	a5,a5,2
   1373a:	1e071563          	bnez	a4,13924 <emul+0x248>
   1373e:	ff379be3          	bne	a5,s3,13734 <emul+0x58>
   13742:	65ed                	lui	a1,0x1b
   13744:	62858593          	add	a1,a1,1576 # 1b628 <ezero>
   13748:	854a                	mv	a0,s2
   1374a:	cfeff0ef          	jal	12c48 <ecmp>
   1374e:	1e050e63          	beqz	a0,1394a <emul+0x26e>
   13752:	01295603          	lhu	a2,18(s2)
   13756:	65a1                	lui	a1,0x8
   13758:	15fd                	add	a1,a1,-1 # 7fff <exit-0x80e9>
   1375a:	00b67733          	and	a4,a2,a1
   1375e:	86ba                	mv	a3,a4
   13760:	01290793          	add	a5,s2,18
   13764:	30b71c63          	bne	a4,a1,13a7c <emul+0x3a0>
   13768:	874a                	mv	a4,s2
   1376a:	00075683          	lhu	a3,0(a4)
   1376e:	0709                	add	a4,a4,2
   13770:	18069563          	bnez	a3,138fa <emul+0x21e>
   13774:	fee79be3          	bne	a5,a4,1376a <emul+0x8e>
   13778:	65ed                	lui	a1,0x1b
   1377a:	62858593          	add	a1,a1,1576 # 1b628 <ezero>
   1377e:	8526                	mv	a0,s1
   13780:	cc8ff0ef          	jal	12c48 <ecmp>
   13784:	1c050363          	beqz	a0,1394a <emul+0x26e>
   13788:	0124d803          	lhu	a6,18(s1)
   1378c:	01295603          	lhu	a2,18(s2)
   13790:	67a1                	lui	a5,0x8
   13792:	17fd                	add	a5,a5,-1 # 7fff <exit-0x80e9>
   13794:	00f87733          	and	a4,a6,a5
   13798:	00f676b3          	and	a3,a2,a5
   1379c:	85ba                	mv	a1,a4
   1379e:	16f70763          	beq	a4,a5,1390c <emul+0x230>
   137a2:	8736                	mv	a4,a3
   137a4:	86ae                	mv	a3,a1
   137a6:	67a1                	lui	a5,0x8
   137a8:	2701                	sext.w	a4,a4
   137aa:	17fd                	add	a5,a5,-1 # 7fff <exit-0x80e9>
   137ac:	0af71e63          	bne	a4,a5,13868 <emul+0x18c>
   137b0:	01290793          	add	a5,s2,18
   137b4:	874a                	mv	a4,s2
   137b6:	00075583          	lhu	a1,0(a4)
   137ba:	0709                	add	a4,a4,2
   137bc:	e5d5                	bnez	a1,13868 <emul+0x18c>
   137be:	fee79ce3          	bne	a5,a4,137b6 <emul+0xda>
   137c2:	65a1                	lui	a1,0x8
   137c4:	15fd                	add	a1,a1,-1 # 7fff <exit-0x80e9>
   137c6:	0006871b          	sext.w	a4,a3
   137ca:	01248993          	add	s3,s1,18
   137ce:	18b69f63          	bne	a3,a1,1396c <emul+0x290>
   137d2:	0004d783          	lhu	a5,0(s1)
   137d6:	0489                	add	s1,s1,2
   137d8:	18079d63          	bnez	a5,13972 <emul+0x296>
   137dc:	fe999be3          	bne	s3,s1,137d2 <emul+0xf6>
   137e0:	00f85813          	srl	a6,a6,0xf
   137e4:	67a1                	lui	a5,0x8
   137e6:	17fd                	add	a5,a5,-1 # 7fff <exit-0x80e9>
   137e8:	14f70863          	beq	a4,a5,13938 <emul+0x25c>
   137ec:	00f65793          	srl	a5,a2,0xf
   137f0:	0107c7b3          	xor	a5,a5,a6
   137f4:	00f7979b          	sllw	a5,a5,0xf
   137f8:	00f41923          	sh	a5,18(s0)
   137fc:	01240713          	add	a4,s0,18
   13800:	87a2                	mv	a5,s0
   13802:	0789                	add	a5,a5,2
   13804:	fe079f23          	sh	zero,-2(a5)
   13808:	fee79de3          	bne	a5,a4,13802 <emul+0x126>
   1380c:	01245783          	lhu	a5,18(s0)
   13810:	6721                	lui	a4,0x8
   13812:	177d                	add	a4,a4,-1 # 7fff <exit-0x80e9>
   13814:	8fd9                	or	a5,a5,a4
   13816:	00f41923          	sh	a5,18(s0)
   1381a:	70ea                	ld	ra,184(sp)
   1381c:	744a                	ld	s0,176(sp)
   1381e:	74aa                	ld	s1,168(sp)
   13820:	790a                	ld	s2,160(sp)
   13822:	69ea                	ld	s3,152(sp)
   13824:	6a4a                	ld	s4,144(sp)
   13826:	6aaa                	ld	s5,136(sp)
   13828:	6b0a                	ld	s6,128(sp)
   1382a:	7be6                	ld	s7,120(sp)
   1382c:	7c46                	ld	s8,112(sp)
   1382e:	7ca6                	ld	s9,104(sp)
   13830:	7d06                	ld	s10,96(sp)
   13832:	6129                	add	sp,sp,192
   13834:	8082                	ret
   13836:	0125d603          	lhu	a2,18(a1)
   1383a:	00e677b3          	and	a5,a2,a4
   1383e:	02e79563          	bne	a5,a4,13868 <emul+0x18c>
   13842:	01290793          	add	a5,s2,18
   13846:	874a                	mv	a4,s2
   13848:	00075683          	lhu	a3,0(a4)
   1384c:	0709                	add	a4,a4,2
   1384e:	eaad                	bnez	a3,138c0 <emul+0x1e4>
   13850:	fef71ce3          	bne	a4,a5,13848 <emul+0x16c>
   13854:	6721                	lui	a4,0x8
   13856:	177d                	add	a4,a4,-1 # 7fff <exit-0x80e9>
   13858:	01248993          	add	s3,s1,18
   1385c:	ece50be3          	beq	a0,a4,13732 <emul+0x56>
   13860:	00e676b3          	and	a3,a2,a4
   13864:	f0e682e3          	beq	a3,a4,13768 <emul+0x8c>
   13868:	8526                	mv	a0,s1
   1386a:	858a                	mv	a1,sp
   1386c:	b48ff0ef          	jal	12bb4 <emovi>
   13870:	854a                	mv	a0,s2
   13872:	100c                	add	a1,sp,32
   13874:	b40ff0ef          	jal	12bb4 <emovi>
   13878:	00215903          	lhu	s2,2(sp)
   1387c:	02215483          	lhu	s1,34(sp)
   13880:	04090b63          	beqz	s2,138d6 <emul+0x1fa>
   13884:	ecfd                	bnez	s1,13982 <emul+0x2a6>
   13886:	02210793          	add	a5,sp,34
   1388a:	1834                	add	a3,sp,56
   1388c:	0007d703          	lhu	a4,0(a5)
   13890:	0789                	add	a5,a5,2
   13892:	1c071d63          	bnez	a4,13a6c <emul+0x390>
   13896:	fed79be3          	bne	a5,a3,1388c <emul+0x1b0>
   1389a:	01440793          	add	a5,s0,20
   1389e:	0409                	add	s0,s0,2
   138a0:	fe041f23          	sh	zero,-2(s0)
   138a4:	fe879de3          	bne	a5,s0,1389e <emul+0x1c2>
   138a8:	bf8d                	j	1381a <emul+0x13e>
   138aa:	01440713          	add	a4,s0,20
   138ae:	0004d783          	lhu	a5,0(s1)
   138b2:	0409                	add	s0,s0,2
   138b4:	0489                	add	s1,s1,2
   138b6:	fef41f23          	sh	a5,-2(s0)
   138ba:	fee41ae3          	bne	s0,a4,138ae <emul+0x1d2>
   138be:	bfb1                	j	1381a <emul+0x13e>
   138c0:	01490713          	add	a4,s2,20
   138c4:	00095783          	lhu	a5,0(s2)
   138c8:	0909                	add	s2,s2,2
   138ca:	0409                	add	s0,s0,2
   138cc:	fef41f23          	sh	a5,-2(s0)
   138d0:	ff271ae3          	bne	a4,s2,138c4 <emul+0x1e8>
   138d4:	b799                	j	1381a <emul+0x13e>
   138d6:	00210793          	add	a5,sp,2
   138da:	0834                	add	a3,sp,24
   138dc:	0007d703          	lhu	a4,0(a5)
   138e0:	0789                	add	a5,a5,2
   138e2:	16071f63          	bnez	a4,13a60 <emul+0x384>
   138e6:	fef69be3          	bne	a3,a5,138dc <emul+0x200>
   138ea:	01440793          	add	a5,s0,20
   138ee:	0409                	add	s0,s0,2
   138f0:	fe041f23          	sh	zero,-2(s0)
   138f4:	fef41de3          	bne	s0,a5,138ee <emul+0x212>
   138f8:	b70d                	j	1381a <emul+0x13e>
   138fa:	0124d803          	lhu	a6,18(s1)
   138fe:	65a1                	lui	a1,0x8
   13900:	15fd                	add	a1,a1,-1 # 7fff <exit-0x80e9>
   13902:	00b87733          	and	a4,a6,a1
   13906:	86ba                	mv	a3,a4
   13908:	eab716e3          	bne	a4,a1,137b4 <emul+0xd8>
   1390c:	01248993          	add	s3,s1,18
   13910:	87a6                	mv	a5,s1
   13912:	0007d703          	lhu	a4,0(a5)
   13916:	0789                	add	a5,a5,2
   13918:	e32d                	bnez	a4,1397a <emul+0x29e>
   1391a:	fef99ce3          	bne	s3,a5,13912 <emul+0x236>
   1391e:	0006871b          	sext.w	a4,a3
   13922:	bd45                	j	137d2 <emul+0xf6>
   13924:	65a1                	lui	a1,0x8
   13926:	15fd                	add	a1,a1,-1 # 7fff <exit-0x80e9>
   13928:	00b67733          	and	a4,a2,a1
   1392c:	86ba                	mv	a3,a4
   1392e:	01290793          	add	a5,s2,18
   13932:	e2b70be3          	beq	a4,a1,13768 <emul+0x8c>
   13936:	bfe9                	j	13910 <emul+0x234>
   13938:	01290793          	add	a5,s2,18
   1393c:	00095703          	lhu	a4,0(s2)
   13940:	0909                	add	s2,s2,2
   13942:	eb15                	bnez	a4,13976 <emul+0x29a>
   13944:	fef91ce3          	bne	s2,a5,1393c <emul+0x260>
   13948:	b555                	j	137ec <emul+0x110>
   1394a:	01040713          	add	a4,s0,16
   1394e:	87a2                	mv	a5,s0
   13950:	0789                	add	a5,a5,2
   13952:	fe079f23          	sh	zero,-2(a5)
   13956:	fef71de3          	bne	a4,a5,13950 <emul+0x274>
   1395a:	77f1                	lui	a5,0xffffc
   1395c:	00f41823          	sh	a5,16(s0)
   13960:	77e1                	lui	a5,0xffff8
   13962:	fff7c793          	not	a5,a5
   13966:	00f41923          	sh	a5,18(s0)
   1396a:	bd45                	j	1381a <emul+0x13e>
   1396c:	00f85813          	srl	a6,a6,0xf
   13970:	b7f1                	j	1393c <emul+0x260>
   13972:	4801                	li	a6,0
   13974:	bd85                	j	137e4 <emul+0x108>
   13976:	4781                	li	a5,0
   13978:	bda5                	j	137f0 <emul+0x114>
   1397a:	8736                	mv	a4,a3
   1397c:	66a1                	lui	a3,0x8
   1397e:	16fd                	add	a3,a3,-1 # 7fff <exit-0x80e9>
   13980:	b51d                	j	137a6 <emul+0xca>
   13982:	89a6                	mv	s3,s1
   13984:	02015783          	lhu	a5,32(sp)
   13988:	0104949b          	sllw	s1,s1,0x10
   1398c:	038a8a13          	add	s4,s5,56
   13990:	8fc5                	or	a5,a5,s1
   13992:	02faaa23          	sw	a5,52(s5)
   13996:	034a8493          	add	s1,s5,52
   1399a:	87d2                	mv	a5,s4
   1399c:	04ea8713          	add	a4,s5,78
   139a0:	00079023          	sh	zero,0(a5) # ffffffffffff8000 <__BSS_END__+0xfffffffffffdad18>
   139a4:	0789                	add	a5,a5,2
   139a6:	fee79de3          	bne	a5,a4,139a0 <emul+0x2c4>
   139aa:	04ca8c93          	add	s9,s5,76
   139ae:	4c01                	li	s8,0
   139b0:	01810b13          	add	s6,sp,24
   139b4:	00410d13          	add	s10,sp,4
   139b8:	04210b93          	add	s7,sp,66
   139bc:	000b5503          	lhu	a0,0(s6)
   139c0:	1b79                	add	s6,s6,-2
   139c2:	e925                	bnez	a0,13a32 <emul+0x356>
   139c4:	04cad783          	lhu	a5,76(s5)
   139c8:	8766                	mv	a4,s9
   139ca:	00fc6c33          	or	s8,s8,a5
   139ce:	ffe75603          	lhu	a2,-2(a4)
   139d2:	1779                	add	a4,a4,-2
   139d4:	00c71123          	sh	a2,2(a4)
   139d8:	feea1be3          	bne	s4,a4,139ce <emul+0x2f2>
   139dc:	020a9c23          	sh	zero,56(s5)
   139e0:	fdab1ee3          	bne	s6,s10,139bc <emul+0x2e0>
   139e4:	101c                	add	a5,sp,32
   139e6:	03a10693          	add	a3,sp,58
   139ea:	0004d703          	lhu	a4,0(s1)
   139ee:	0789                	add	a5,a5,2
   139f0:	0489                	add	s1,s1,2
   139f2:	fee79f23          	sh	a4,-2(a5)
   139f6:	fef69ae3          	bne	a3,a5,139ea <emul+0x30e>
   139fa:	76f1                	lui	a3,0xffffc
   139fc:	994e                	add	s2,s2,s3
   139fe:	0689                	add	a3,a3,2 # ffffffffffffc002 <__BSS_END__+0xfffffffffffded1a>
   13a00:	85e2                	mv	a1,s8
   13a02:	1008                	add	a0,sp,32
   13a04:	87d6                	mv	a5,s5
   13a06:	04000713          	li	a4,64
   13a0a:	96ca                	add	a3,a3,s2
   13a0c:	4601                	li	a2,0
   13a0e:	b22ff0ef          	jal	12d30 <emdnorm>
   13a12:	02015703          	lhu	a4,32(sp)
   13a16:	00015783          	lhu	a5,0(sp)
   13a1a:	85a2                	mv	a1,s0
   13a1c:	1008                	add	a0,sp,32
   13a1e:	8f99                	sub	a5,a5,a4
   13a20:	00f037b3          	snez	a5,a5
   13a24:	40f007bb          	negw	a5,a5
   13a28:	02f11023          	sh	a5,32(sp)
   13a2c:	ea9fe0ef          	jal	128d4 <emovo.constprop.0>
   13a30:	b3ed                	j	1381a <emul+0x13e>
   13a32:	0090                	add	a2,sp,64
   13a34:	100c                	add	a1,sp,32
   13a36:	e37fe0ef          	jal	1286c <m16m>
   13a3a:	8566                	mv	a0,s9
   13a3c:	4581                	li	a1,0
   13a3e:	08b0                	add	a2,sp,88
   13a40:	00055783          	lhu	a5,0(a0)
   13a44:	00065703          	lhu	a4,0(a2)
   13a48:	1579                	add	a0,a0,-2
   13a4a:	1679                	add	a2,a2,-2
   13a4c:	973e                	add	a4,a4,a5
   13a4e:	972e                	add	a4,a4,a1
   13a50:	01075593          	srl	a1,a4,0x10
   13a54:	00e51123          	sh	a4,2(a0)
   13a58:	8985                	and	a1,a1,1
   13a5a:	ff7613e3          	bne	a2,s7,13a40 <emul+0x364>
   13a5e:	b79d                	j	139c4 <emul+0x2e8>
   13a60:	850a                	mv	a0,sp
   13a62:	efffe0ef          	jal	12960 <enormlz>
   13a66:	40a00933          	neg	s2,a0
   13a6a:	bd29                	j	13884 <emul+0x1a8>
   13a6c:	1008                	add	a0,sp,32
   13a6e:	ef3fe0ef          	jal	12960 <enormlz>
   13a72:	40a009b3          	neg	s3,a0
   13a76:	02215483          	lhu	s1,34(sp)
   13a7a:	b729                	j	13984 <emul+0x2a8>
   13a7c:	0124d803          	lhu	a6,18(s1)
   13a80:	00b877b3          	and	a5,a6,a1
   13a84:	e8b786e3          	beq	a5,a1,13910 <emul+0x234>
   13a88:	b3c5                	j	13868 <emul+0x18c>

0000000000013a8a <_ldtoa_r>:
   13a8a:	d8010113          	add	sp,sp,-640
   13a8e:	09100313          	li	t1,145
   13a92:	fcb2                	sd	a2,120(sp)
   13a94:	06053e03          	ld	t3,96(a0)
   13a98:	02031613          	sll	a2,t1,0x20
   13a9c:	167d                	add	a2,a2,-1
   13a9e:	26813823          	sd	s0,624(sp)
   13aa2:	27213023          	sd	s2,608(sp)
   13aa6:	26113c23          	sd	ra,632(sp)
   13aaa:	26913423          	sd	s1,616(sp)
   13aae:	25313c23          	sd	s3,600(sp)
   13ab2:	25413823          	sd	s4,592(sp)
   13ab6:	25513423          	sd	s5,584(sp)
   13aba:	25613023          	sd	s6,576(sp)
   13abe:	23713c23          	sd	s7,568(sp)
   13ac2:	23813823          	sd	s8,560(sp)
   13ac6:	23913423          	sd	s9,552(sp)
   13aca:	23a13023          	sd	s10,544(sp)
   13ace:	21b13c23          	sd	s11,536(sp)
   13ad2:	f8ae                	sd	a1,112(sp)
   13ad4:	e3b2                	sd	a2,448(sp)
   13ad6:	e436                	sd	a3,8(sp)
   13ad8:	ec3a                	sd	a4,24(sp)
   13ada:	f03e                	sd	a5,32(sp)
   13adc:	f446                	sd	a7,40(sp)
   13ade:	892a                	mv	s2,a0
   13ae0:	8442                	mv	s0,a6
   13ae2:	020e0163          	beqz	t3,13b04 <_ldtoa_r+0x7a>
   13ae6:	553c                	lw	a5,104(a0)
   13ae8:	4705                	li	a4,1
   13aea:	85f2                	mv	a1,t3
   13aec:	00f7173b          	sllw	a4,a4,a5
   13af0:	1782                	sll	a5,a5,0x20
   13af2:	1702                	sll	a4,a4,0x20
   13af4:	9381                	srl	a5,a5,0x20
   13af6:	8fd9                	or	a5,a5,a4
   13af8:	00fe3423          	sd	a5,8(t3)
   13afc:	5d2010ef          	jal	150ce <_Bfree>
   13b00:	06093023          	sd	zero,96(s2)
   13b04:	110c                	add	a1,sp,160
   13b06:	1888                	add	a0,sp,112
   13b08:	eb0ff0ef          	jal	131b8 <e113toe.isra.0>
   13b0c:	0b215683          	lhu	a3,178(sp)
   13b10:	67a1                	lui	a5,0x8
   13b12:	17fd                	add	a5,a5,-1 # 7fff <exit-0x80e9>
   13b14:	00f6f733          	and	a4,a3,a5
   13b18:	f83a                	sd	a4,48(sp)
   13b1a:	34f70b63          	beq	a4,a5,13e70 <_ldtoa_r+0x3e6>
   13b1e:	0106979b          	sllw	a5,a3,0x10
   13b22:	4107d79b          	sraw	a5,a5,0x10
   13b26:	6722                	ld	a4,8(sp)
   13b28:	01f7d79b          	srlw	a5,a5,0x1f
   13b2c:	c01c                	sw	a5,0(s0)
   13b2e:	478d                	li	a5,3
   13b30:	70f70563          	beq	a4,a5,1423a <_ldtoa_r+0x7b0>
   13b34:	47d1                	li	a5,20
   13b36:	e83e                	sd	a5,16(sp)
   13b38:	67a2                	ld	a5,8(sp)
   13b3a:	70079c63          	bnez	a5,14252 <_ldtoa_r+0x7c8>
   13b3e:	019c                	add	a5,sp,192
   13b40:	1118                	add	a4,sp,160
   13b42:	09c0                	add	s0,sp,212
   13b44:	00075683          	lhu	a3,0(a4)
   13b48:	0789                	add	a5,a5,2
   13b4a:	0709                	add	a4,a4,2
   13b4c:	fed79f23          	sh	a3,-2(a5)
   13b50:	fe879ae3          	bne	a5,s0,13b44 <_ldtoa_r+0xba>
   13b54:	0d215a83          	lhu	s5,210(sp)
   13b58:	4981                	li	s3,0
   13b5a:	00fad793          	srl	a5,s5,0xf
   13b5e:	cb91                	beqz	a5,13b72 <_ldtoa_r+0xe8>
   13b60:	031a9f13          	sll	t5,s5,0x31
   13b64:	031f5a93          	srl	s5,t5,0x31
   13b68:	67c1                	lui	a5,0x10
   13b6a:	0d511923          	sh	s5,210(sp)
   13b6e:	fff78993          	add	s3,a5,-1 # ffff <exit-0xe9>
   13b72:	6bed                	lui	s7,0x1b
   13b74:	64ed                	lui	s1,0x1b
   13b76:	1198                	add	a4,sp,224
   13b78:	610b8793          	add	a5,s7,1552 # 1b610 <eone>
   13b7c:	62448493          	add	s1,s1,1572 # 1b624 <eone+0x14>
   13b80:	0007d683          	lhu	a3,0(a5)
   13b84:	0789                	add	a5,a5,2
   13b86:	0709                	add	a4,a4,2
   13b88:	fed71f23          	sh	a3,-2(a4)
   13b8c:	fe979ae3          	bne	a5,s1,13b80 <_ldtoa_r+0xf6>
   13b90:	520a9763          	bnez	s5,140be <_ldtoa_r+0x634>
   13b94:	019c                	add	a5,sp,192
   13b96:	0d210693          	add	a3,sp,210
   13b9a:	0007d703          	lhu	a4,0(a5)
   13b9e:	52071863          	bnez	a4,140ce <_ldtoa_r+0x644>
   13ba2:	0789                	add	a5,a5,2
   13ba4:	fef69be3          	bne	a3,a5,13b9a <_ldtoa_r+0x110>
   13ba8:	4401                	li	s0,0
   13baa:	18010c13          	add	s8,sp,384
   13bae:	1c010b13          	add	s6,sp,448
   13bb2:	12010a13          	add	s4,sp,288
   13bb6:	13810d93          	add	s11,sp,312
   13bba:	85d2                	mv	a1,s4
   13bbc:	1188                	add	a0,sp,224
   13bbe:	ff7fe0ef          	jal	12bb4 <emovi>
   13bc2:	84d2                	mv	s1,s4
   13bc4:	1194                	add	a3,sp,224
   13bc6:	87d2                	mv	a5,s4
   13bc8:	6398                	ld	a4,0(a5)
   13bca:	07a1                	add	a5,a5,8
   13bcc:	06a1                	add	a3,a3,8
   13bce:	fee6bc23          	sd	a4,-8(a3)
   13bd2:	fefd9be3          	bne	s11,a5,13bc8 <_ldtoa_r+0x13e>
   13bd6:	85d2                	mv	a1,s4
   13bd8:	0188                	add	a0,sp,192
   13bda:	0e011c23          	sh	zero,248(sp)
   13bde:	fd7fe0ef          	jal	12bb4 <emovi>
   13be2:	0d810b93          	add	s7,sp,216
   13be6:	019c                	add	a5,sp,192
   13be8:	6098                	ld	a4,0(s1)
   13bea:	07a1                	add	a5,a5,8
   13bec:	04a1                	add	s1,s1,8
   13bee:	fee7bc23          	sd	a4,-8(a5)
   13bf2:	fefb9be3          	bne	s7,a5,13be8 <_ldtoa_r+0x15e>
   13bf6:	865a                	mv	a2,s6
   13bf8:	018c                	add	a1,sp,192
   13bfa:	1188                	add	a0,sp,224
   13bfc:	0c011c23          	sh	zero,216(sp)
   13c00:	cc6ff0ef          	jal	130c6 <eiremain>
   13c04:	20c15d83          	lhu	s11,524(sp)
   13c08:	64ed                	lui	s1,0x1b
   13c0a:	0c210d13          	add	s10,sp,194
   13c0e:	10210c93          	add	s9,sp,258
   13c12:	100d9063          	bnez	s11,13d12 <_ldtoa_r+0x288>
   13c16:	62848593          	add	a1,s1,1576 # 1b628 <ezero>
   13c1a:	0188                	add	a0,sp,192
   13c1c:	82cff0ef          	jal	12c48 <ecmp>
   13c20:	c96d                	beqz	a0,13d12 <_ldtoa_r+0x288>
   13c22:	4701                	li	a4,0
   13c24:	86de                	mv	a3,s7
   13c26:	0006d783          	lhu	a5,0(a3)
   13c2a:	00f7d613          	srl	a2,a5,0xf
   13c2e:	c219                	beqz	a2,13c34 <_ldtoa_r+0x1aa>
   13c30:	00176713          	or	a4,a4,1
   13c34:	0017979b          	sllw	a5,a5,0x1
   13c38:	17c2                	sll	a5,a5,0x30
   13c3a:	00277613          	and	a2,a4,2
   13c3e:	93c1                	srl	a5,a5,0x30
   13c40:	c219                	beqz	a2,13c46 <_ldtoa_r+0x1bc>
   13c42:	0017e793          	or	a5,a5,1
   13c46:	0017171b          	sllw	a4,a4,0x1
   13c4a:	00f69023          	sh	a5,0(a3)
   13c4e:	1742                	sll	a4,a4,0x30
   13c50:	16f9                	add	a3,a3,-2
   13c52:	9341                	srl	a4,a4,0x30
   13c54:	fda699e3          	bne	a3,s10,13c26 <_ldtoa_r+0x19c>
   13c58:	0218                	add	a4,sp,256
   13c5a:	019c                	add	a5,sp,192
   13c5c:	6394                	ld	a3,0(a5)
   13c5e:	07a1                	add	a5,a5,8
   13c60:	0721                	add	a4,a4,8
   13c62:	fed73c23          	sd	a3,-8(a4)
   13c66:	fefb9be3          	bne	s7,a5,13c5c <_ldtoa_r+0x1d2>
   13c6a:	10011c23          	sh	zero,280(sp)
   13c6e:	4701                	li	a4,0
   13c70:	0a34                	add	a3,sp,280
   13c72:	0006d783          	lhu	a5,0(a3)
   13c76:	00f7d613          	srl	a2,a5,0xf
   13c7a:	c219                	beqz	a2,13c80 <_ldtoa_r+0x1f6>
   13c7c:	00176713          	or	a4,a4,1
   13c80:	0017979b          	sllw	a5,a5,0x1
   13c84:	17c2                	sll	a5,a5,0x30
   13c86:	00277613          	and	a2,a4,2
   13c8a:	93c1                	srl	a5,a5,0x30
   13c8c:	c219                	beqz	a2,13c92 <_ldtoa_r+0x208>
   13c8e:	0017e793          	or	a5,a5,1
   13c92:	0017171b          	sllw	a4,a4,0x1
   13c96:	00f69023          	sh	a5,0(a3)
   13c9a:	1742                	sll	a4,a4,0x30
   13c9c:	16f9                	add	a3,a3,-2
   13c9e:	9341                	srl	a4,a4,0x30
   13ca0:	fd9699e3          	bne	a3,s9,13c72 <_ldtoa_r+0x1e8>
   13ca4:	4701                	li	a4,0
   13ca6:	0a34                	add	a3,sp,280
   13ca8:	0006d783          	lhu	a5,0(a3)
   13cac:	00f7d613          	srl	a2,a5,0xf
   13cb0:	c219                	beqz	a2,13cb6 <_ldtoa_r+0x22c>
   13cb2:	00176713          	or	a4,a4,1
   13cb6:	0017979b          	sllw	a5,a5,0x1
   13cba:	17c2                	sll	a5,a5,0x30
   13cbc:	00277613          	and	a2,a4,2
   13cc0:	93c1                	srl	a5,a5,0x30
   13cc2:	c219                	beqz	a2,13cc8 <_ldtoa_r+0x23e>
   13cc4:	0017e793          	or	a5,a5,1
   13cc8:	0017171b          	sllw	a4,a4,0x1
   13ccc:	00f69023          	sh	a5,0(a3)
   13cd0:	1742                	sll	a4,a4,0x30
   13cd2:	16f9                	add	a3,a3,-2
   13cd4:	9341                	srl	a4,a4,0x30
   13cd6:	fd9699e3          	bne	a3,s9,13ca8 <_ldtoa_r+0x21e>
   13cda:	4601                	li	a2,0
   13cdc:	86de                	mv	a3,s7
   13cde:	0a38                	add	a4,sp,280
   13ce0:	0006d583          	lhu	a1,0(a3)
   13ce4:	00075783          	lhu	a5,0(a4)
   13ce8:	16f9                	add	a3,a3,-2
   13cea:	1779                	add	a4,a4,-2
   13cec:	97ae                	add	a5,a5,a1
   13cee:	97b2                	add	a5,a5,a2
   13cf0:	0107d613          	srl	a2,a5,0x10
   13cf4:	00f69123          	sh	a5,2(a3)
   13cf8:	8a05                	and	a2,a2,1
   13cfa:	ff9713e3          	bne	a4,s9,13ce0 <_ldtoa_r+0x256>
   13cfe:	865a                	mv	a2,s6
   13d00:	018c                	add	a1,sp,192
   13d02:	1188                	add	a0,sp,224
   13d04:	bc2ff0ef          	jal	130c6 <eiremain>
   13d08:	20c15783          	lhu	a5,524(sp)
   13d0c:	347d                	addw	s0,s0,-1
   13d0e:	d781                	beqz	a5,13c16 <_ldtoa_r+0x18c>
   13d10:	8dbe                	mv	s11,a5
   13d12:	02000793          	li	a5,32
   13d16:	00098463          	beqz	s3,13d1e <_ldtoa_r+0x294>
   13d1a:	02d00793          	li	a5,45
   13d1e:	6722                	ld	a4,8(sp)
   13d20:	18f10023          	sb	a5,384(sp)
   13d24:	468d                	li	a3,3
   13d26:	67c2                	ld	a5,16(sp)
   13d28:	00d71363          	bne	a4,a3,13d2e <_ldtoa_r+0x2a4>
   13d2c:	9fa1                	addw	a5,a5,s0
   13d2e:	02a00693          	li	a3,42
   13d32:	863e                	mv	a2,a5
   13d34:	00f6d463          	bge	a3,a5,13d3c <_ldtoa_r+0x2b2>
   13d38:	02a00613          	li	a2,42
   13d3c:	46a9                	li	a3,10
   13d3e:	00060a1b          	sext.w	s4,a2
   13d42:	4cdd8963          	beq	s11,a3,14214 <_ldtoa_r+0x78a>
   13d46:	030d8d9b          	addw	s11,s11,48
   13d4a:	02e00693          	li	a3,46
   13d4e:	19b100a3          	sb	s11,385(sp)
   13d52:	18d10123          	sb	a3,386(sp)
   13d56:	1a07c863          	bltz	a5,13f06 <_ldtoa_r+0x47c>
   13d5a:	18310a93          	add	s5,sp,387
   13d5e:	4981                	li	s3,0
   13d60:	10010c93          	add	s9,sp,256
   13d64:	11810d93          	add	s11,sp,280
   13d68:	0c210d13          	add	s10,sp,194
   13d6c:	10210493          	add	s1,sp,258
   13d70:	4701                	li	a4,0
   13d72:	86de                	mv	a3,s7
   13d74:	0006d783          	lhu	a5,0(a3)
   13d78:	00f7d613          	srl	a2,a5,0xf
   13d7c:	c219                	beqz	a2,13d82 <_ldtoa_r+0x2f8>
   13d7e:	00176713          	or	a4,a4,1
   13d82:	0017979b          	sllw	a5,a5,0x1
   13d86:	17c2                	sll	a5,a5,0x30
   13d88:	00277613          	and	a2,a4,2
   13d8c:	93c1                	srl	a5,a5,0x30
   13d8e:	c219                	beqz	a2,13d94 <_ldtoa_r+0x30a>
   13d90:	0017e793          	or	a5,a5,1
   13d94:	0017171b          	sllw	a4,a4,0x1
   13d98:	00f69023          	sh	a5,0(a3)
   13d9c:	1742                	sll	a4,a4,0x30
   13d9e:	16f9                	add	a3,a3,-2
   13da0:	9341                	srl	a4,a4,0x30
   13da2:	fda699e3          	bne	a3,s10,13d74 <_ldtoa_r+0x2ea>
   13da6:	87e6                	mv	a5,s9
   13da8:	0198                	add	a4,sp,192
   13daa:	6314                	ld	a3,0(a4)
   13dac:	07a1                	add	a5,a5,8
   13dae:	0721                	add	a4,a4,8
   13db0:	fed7bc23          	sd	a3,-8(a5)
   13db4:	fefd9be3          	bne	s11,a5,13daa <_ldtoa_r+0x320>
   13db8:	10011c23          	sh	zero,280(sp)
   13dbc:	4701                	li	a4,0
   13dbe:	86ee                	mv	a3,s11
   13dc0:	0006d783          	lhu	a5,0(a3)
   13dc4:	00f7d613          	srl	a2,a5,0xf
   13dc8:	c219                	beqz	a2,13dce <_ldtoa_r+0x344>
   13dca:	00176713          	or	a4,a4,1
   13dce:	0017979b          	sllw	a5,a5,0x1
   13dd2:	17c2                	sll	a5,a5,0x30
   13dd4:	00277613          	and	a2,a4,2
   13dd8:	93c1                	srl	a5,a5,0x30
   13dda:	c219                	beqz	a2,13de0 <_ldtoa_r+0x356>
   13ddc:	0017e793          	or	a5,a5,1
   13de0:	0017171b          	sllw	a4,a4,0x1
   13de4:	00f69023          	sh	a5,0(a3)
   13de8:	1742                	sll	a4,a4,0x30
   13dea:	16f9                	add	a3,a3,-2
   13dec:	9341                	srl	a4,a4,0x30
   13dee:	fc9699e3          	bne	a3,s1,13dc0 <_ldtoa_r+0x336>
   13df2:	4701                	li	a4,0
   13df4:	86ee                	mv	a3,s11
   13df6:	0006d783          	lhu	a5,0(a3)
   13dfa:	00f7d613          	srl	a2,a5,0xf
   13dfe:	c219                	beqz	a2,13e04 <_ldtoa_r+0x37a>
   13e00:	00176713          	or	a4,a4,1
   13e04:	0017979b          	sllw	a5,a5,0x1
   13e08:	17c2                	sll	a5,a5,0x30
