
/home/shemin00/riscv_vhdl/examples/helloworld/Helloworld_hexfiles_32bitcompiler/helloworld:     file format elf32-littleriscv


Disassembly of section .text:

00010094 <register_fini>:
   10094:	00000793          	li	a5,0
   10098:	c799                	beqz	a5,100a6 <register_fini+0x12>
   1009a:	00007517          	auipc	a0,0x7
   1009e:	18050513          	add	a0,a0,384 # 1721a <__libc_fini_array>
   100a2:	4d50506f          	j	15d76 <atexit>
   100a6:	8082                	ret

000100a8 <_start>:
   100a8:	0000e197          	auipc	gp,0xe
   100ac:	76818193          	add	gp,gp,1896 # 1e810 <errno>
   100b0:	fe818513          	add	a0,gp,-24 # 1e7f8 <__stdio_exit_handler>
   100b4:	31418613          	add	a2,gp,788 # 1eb24 <__BSS_END__>
   100b8:	8e09                	sub	a2,a2,a0
   100ba:	4581                	li	a1,0
   100bc:	7da000ef          	jal	10896 <memset>
   100c0:	00006517          	auipc	a0,0x6
   100c4:	cb650513          	add	a0,a0,-842 # 15d76 <atexit>
   100c8:	c519                	beqz	a0,100d6 <_start+0x2e>
   100ca:	00007517          	auipc	a0,0x7
   100ce:	15050513          	add	a0,a0,336 # 1721a <__libc_fini_array>
   100d2:	4a5050ef          	jal	15d76 <atexit>
   100d6:	069000ef          	jal	1093e <__libc_init_array>
   100da:	4502                	lw	a0,0(sp)
   100dc:	004c                	add	a1,sp,4
   100de:	4601                	li	a2,0
   100e0:	2f31                	jal	107fc <main>
   100e2:	0c70006f          	j	109a8 <exit>

000100e6 <deregister_tm_clones>:
   100e6:	ea018793          	add	a5,gp,-352 # 1e6b0 <__TMC_END__>
   100ea:	ea018713          	add	a4,gp,-352 # 1e6b0 <__TMC_END__>
   100ee:	00f70863          	beq	a4,a5,100fe <deregister_tm_clones+0x18>
   100f2:	00000793          	li	a5,0
   100f6:	c781                	beqz	a5,100fe <deregister_tm_clones+0x18>
   100f8:	ea018513          	add	a0,gp,-352 # 1e6b0 <__TMC_END__>
   100fc:	8782                	jr	a5
   100fe:	8082                	ret

00010100 <register_tm_clones>:
   10100:	ea018793          	add	a5,gp,-352 # 1e6b0 <__TMC_END__>
   10104:	ea018593          	add	a1,gp,-352 # 1e6b0 <__TMC_END__>
   10108:	8d9d                	sub	a1,a1,a5
   1010a:	4025d793          	sra	a5,a1,0x2
   1010e:	81fd                	srl	a1,a1,0x1f
   10110:	95be                	add	a1,a1,a5
   10112:	8585                	sra	a1,a1,0x1
   10114:	c599                	beqz	a1,10122 <register_tm_clones+0x22>
   10116:	00000793          	li	a5,0
   1011a:	c781                	beqz	a5,10122 <register_tm_clones+0x22>
   1011c:	ea018513          	add	a0,gp,-352 # 1e6b0 <__TMC_END__>
   10120:	8782                	jr	a5
   10122:	8082                	ret

00010124 <__do_global_dtors_aux>:
   10124:	1141                	add	sp,sp,-16
   10126:	c422                	sw	s0,8(sp)
   10128:	0081c783          	lbu	a5,8(gp) # 1e818 <completed.1>
   1012c:	c606                	sw	ra,12(sp)
   1012e:	ef99                	bnez	a5,1014c <__do_global_dtors_aux+0x28>
   10130:	3f5d                	jal	100e6 <deregister_tm_clones>
   10132:	00000793          	li	a5,0
   10136:	cb81                	beqz	a5,10146 <__do_global_dtors_aux+0x22>
   10138:	6579                	lui	a0,0x1e
   1013a:	00050513          	mv	a0,a0
   1013e:	00000097          	auipc	ra,0x0
   10142:	000000e7          	jalr	zero # 0 <register_fini-0x10094>
   10146:	4785                	li	a5,1
   10148:	00f18423          	sb	a5,8(gp) # 1e818 <completed.1>
   1014c:	40b2                	lw	ra,12(sp)
   1014e:	4422                	lw	s0,8(sp)
   10150:	0141                	add	sp,sp,16
   10152:	8082                	ret

00010154 <frame_dummy>:
   10154:	00000793          	li	a5,0
   10158:	cf99                	beqz	a5,10176 <frame_dummy+0x22>
   1015a:	6579                	lui	a0,0x1e
   1015c:	1141                	add	sp,sp,-16
   1015e:	00c18593          	add	a1,gp,12 # 1e81c <object.0>
   10162:	00050513          	mv	a0,a0
   10166:	c606                	sw	ra,12(sp)
   10168:	00000097          	auipc	ra,0x0
   1016c:	000000e7          	jalr	zero # 0 <register_fini-0x10094>
   10170:	40b2                	lw	ra,12(sp)
   10172:	0141                	add	sp,sp,16
   10174:	b771                	j	10100 <register_tm_clones>
   10176:	b769                	j	10100 <register_tm_clones>

00010178 <get_dev_bar>:
   10178:	715d                	add	sp,sp,-80
   1017a:	c6a2                	sw	s0,76(sp)
   1017c:	0880                	add	s0,sp,80
   1017e:	faa42e23          	sw	a0,-68(s0)
   10182:	87ae                	mv	a5,a1
   10184:	8732                	mv	a4,a2
   10186:	faf41d23          	sh	a5,-70(s0)
   1018a:	87ba                	mv	a5,a4
   1018c:	faf41c23          	sh	a5,-72(s0)
   10190:	fbc42783          	lw	a5,-68(s0)
   10194:	479c                	lw	a5,8(a5)
   10196:	83a1                	srl	a5,a5,0x8
   10198:	0ff7f793          	zext.b	a5,a5
   1019c:	fef42223          	sw	a5,-28(s0)
   101a0:	fe042623          	sw	zero,-20(s0)
   101a4:	fe042423          	sw	zero,-24(s0)
   101a8:	a079                	j	10236 <get_dev_bar+0xbe>
   101aa:	fec42783          	lw	a5,-20(s0)
   101ae:	04078793          	add	a5,a5,64
   101b2:	fbc42703          	lw	a4,-68(s0)
   101b6:	97ba                	add	a5,a5,a4
   101b8:	0007a883          	lw	a7,0(a5)
   101bc:	0047a803          	lw	a6,4(a5)
   101c0:	4788                	lw	a0,8(a5)
   101c2:	47cc                	lw	a1,12(a5)
   101c4:	4b90                	lw	a2,16(a5)
   101c6:	4bd4                	lw	a3,20(a5)
   101c8:	4f98                	lw	a4,24(a5)
   101ca:	4fdc                	lw	a5,28(a5)
   101cc:	fd142023          	sw	a7,-64(s0)
   101d0:	fd042223          	sw	a6,-60(s0)
   101d4:	fca42423          	sw	a0,-56(s0)
   101d8:	fcb42623          	sw	a1,-52(s0)
   101dc:	fcc42823          	sw	a2,-48(s0)
   101e0:	fcd42a23          	sw	a3,-44(s0)
   101e4:	fce42c23          	sw	a4,-40(s0)
   101e8:	fcf42e23          	sw	a5,-36(s0)
   101ec:	fec42783          	lw	a5,-20(s0)
   101f0:	02078793          	add	a5,a5,32
   101f4:	fef42623          	sw	a5,-20(s0)
   101f8:	fc042783          	lw	a5,-64(s0)
   101fc:	3007f713          	and	a4,a5,768
   10200:	20000793          	li	a5,512
   10204:	02f71363          	bne	a4,a5,1022a <get_dev_bar+0xb2>
   10208:	fc645783          	lhu	a5,-58(s0)
   1020c:	fba45703          	lhu	a4,-70(s0)
   10210:	00f71e63          	bne	a4,a5,1022c <get_dev_bar+0xb4>
   10214:	fc445783          	lhu	a5,-60(s0)
   10218:	fb845703          	lhu	a4,-72(s0)
   1021c:	00f71863          	bne	a4,a5,1022c <get_dev_bar+0xb4>
   10220:	fd042703          	lw	a4,-48(s0)
   10224:	fd442783          	lw	a5,-44(s0)
   10228:	a839                	j	10246 <get_dev_bar+0xce>
   1022a:	0001                	nop
   1022c:	fe842783          	lw	a5,-24(s0)
   10230:	0785                	add	a5,a5,1
   10232:	fef42423          	sw	a5,-24(s0)
   10236:	fe842703          	lw	a4,-24(s0)
   1023a:	fe442783          	lw	a5,-28(s0)
   1023e:	f6f746e3          	blt	a4,a5,101aa <get_dev_bar+0x32>
   10242:	577d                	li	a4,-1
   10244:	57fd                	li	a5,-1
   10246:	853a                	mv	a0,a4
   10248:	85be                	mv	a1,a5
   1024a:	4436                	lw	s0,76(sp)
   1024c:	6161                	add	sp,sp,80
   1024e:	8082                	ret

00010250 <mpu_region_total>:
   10250:	1101                	add	sp,sp,-32
   10252:	ce22                	sw	s0,28(sp)
   10254:	1000                	add	s0,sp,32
   10256:	4601                	li	a2,0
   10258:	4681                	li	a3,0
   1025a:	fec42423          	sw	a2,-24(s0)
   1025e:	fed42623          	sw	a3,-20(s0)
   10262:	bc402673          	csrr	a2,0xbc4
   10266:	fec42423          	sw	a2,-24(s0)
   1026a:	fed42623          	sw	a3,-20(s0)
   1026e:	fec42683          	lw	a3,-20(s0)
   10272:	06e2                	sll	a3,a3,0x18
   10274:	fe842603          	lw	a2,-24(s0)
   10278:	00865713          	srl	a4,a2,0x8
   1027c:	8f55                	or	a4,a4,a3
   1027e:	fec42683          	lw	a3,-20(s0)
   10282:	0086d793          	srl	a5,a3,0x8
   10286:	87ba                	mv	a5,a4
   10288:	853e                	mv	a0,a5
   1028a:	4472                	lw	s0,28(sp)
   1028c:	6105                	add	sp,sp,32
   1028e:	8082                	ret

00010290 <mpu_disable_region>:
   10290:	7179                	add	sp,sp,-48
   10292:	d622                	sw	s0,44(sp)
   10294:	1800                	add	s0,sp,48
   10296:	fca42e23          	sw	a0,-36(s0)
   1029a:	4781                	li	a5,0
   1029c:	4801                	li	a6,0
   1029e:	fef42423          	sw	a5,-24(s0)
   102a2:	ff042623          	sw	a6,-20(s0)
   102a6:	fdc42783          	lw	a5,-36(s0)
   102aa:	0ff7f793          	zext.b	a5,a5
   102ae:	fef404a3          	sb	a5,-23(s0)
   102b2:	fe842783          	lw	a5,-24(s0)
   102b6:	0807e793          	or	a5,a5,128
   102ba:	fef42423          	sw	a5,-24(s0)
   102be:	fe842703          	lw	a4,-24(s0)
   102c2:	fec42783          	lw	a5,-20(s0)
   102c6:	bc471073          	csrw	0xbc4,a4
   102ca:	0001                	nop
   102cc:	5432                	lw	s0,44(sp)
   102ce:	6145                	add	sp,sp,48
   102d0:	8082                	ret

000102d2 <mpu_enable_region>:
   102d2:	715d                	add	sp,sp,-80
   102d4:	c6a2                	sw	s0,76(sp)
   102d6:	0880                	add	s0,sp,80
   102d8:	fca42623          	sw	a0,-52(s0)
   102dc:	fcb42023          	sw	a1,-64(s0)
   102e0:	fcc42223          	sw	a2,-60(s0)
   102e4:	fad42c23          	sw	a3,-72(s0)
   102e8:	fae42e23          	sw	a4,-68(s0)
   102ec:	fcf42423          	sw	a5,-56(s0)
   102f0:	fb042a23          	sw	a6,-76(s0)
   102f4:	c0000713          	li	a4,-1024
   102f8:	57fd                	li	a5,-1
   102fa:	fee42423          	sw	a4,-24(s0)
   102fe:	fef42623          	sw	a5,-20(s0)
   10302:	fb442783          	lw	a5,-76(s0)
   10306:	fef42223          	sw	a5,-28(s0)
   1030a:	fc042703          	lw	a4,-64(s0)
   1030e:	fc442783          	lw	a5,-60(s0)
   10312:	bc271073          	csrw	0xbc2,a4
   10316:	fbc42783          	lw	a5,-68(s0)
   1031a:	07fe                	sll	a5,a5,0x1f
   1031c:	fb842703          	lw	a4,-72(s0)
   10320:	00175f13          	srl	t5,a4,0x1
   10324:	01e7ef33          	or	t5,a5,t5
   10328:	fbc42783          	lw	a5,-68(s0)
   1032c:	0017df93          	srl	t6,a5,0x1
   10330:	fbe42c23          	sw	t5,-72(s0)
   10334:	fbf42e23          	sw	t6,-68(s0)
   10338:	a099                	j	1037e <mpu_enable_region+0xac>
   1033a:	fe842783          	lw	a5,-24(s0)
   1033e:	83fd                	srl	a5,a5,0x1f
   10340:	fec42703          	lw	a4,-20(s0)
   10344:	00171393          	sll	t2,a4,0x1
   10348:	0077e3b3          	or	t2,a5,t2
   1034c:	fe842783          	lw	a5,-24(s0)
   10350:	00179313          	sll	t1,a5,0x1
   10354:	fe642423          	sw	t1,-24(s0)
   10358:	fe742623          	sw	t2,-20(s0)
   1035c:	fbc42783          	lw	a5,-68(s0)
   10360:	07fe                	sll	a5,a5,0x1f
   10362:	fb842703          	lw	a4,-72(s0)
   10366:	00175e13          	srl	t3,a4,0x1
   1036a:	01c7ee33          	or	t3,a5,t3
   1036e:	fbc42783          	lw	a5,-68(s0)
   10372:	0017de93          	srl	t4,a5,0x1
   10376:	fbc42c23          	sw	t3,-72(s0)
   1037a:	fbd42e23          	sw	t4,-68(s0)
   1037e:	fb842783          	lw	a5,-72(s0)
   10382:	fbc42703          	lw	a4,-68(s0)
   10386:	8fd9                	or	a5,a5,a4
   10388:	fbcd                	bnez	a5,1033a <mpu_enable_region+0x68>
   1038a:	fe842703          	lw	a4,-24(s0)
   1038e:	fec42783          	lw	a5,-20(s0)
   10392:	bc371073          	csrw	0xbc3,a4
   10396:	4781                	li	a5,0
   10398:	4801                	li	a6,0
   1039a:	fcf42c23          	sw	a5,-40(s0)
   1039e:	fd042e23          	sw	a6,-36(s0)
   103a2:	fcc42783          	lw	a5,-52(s0)
   103a6:	0ff7f793          	zext.b	a5,a5
   103aa:	fcf40ca3          	sb	a5,-39(s0)
   103ae:	fd842783          	lw	a5,-40(s0)
   103b2:	0107e793          	or	a5,a5,16
   103b6:	fcf42c23          	sw	a5,-40(s0)
   103ba:	fc842783          	lw	a5,-56(s0)
   103be:	8b85                	and	a5,a5,1
   103c0:	0ff7f793          	zext.b	a5,a5
   103c4:	8b85                	and	a5,a5,1
   103c6:	078e                	sll	a5,a5,0x3
   103c8:	fd842703          	lw	a4,-40(s0)
   103cc:	9b5d                	and	a4,a4,-9
   103ce:	8fd9                	or	a5,a5,a4
   103d0:	fcf42c23          	sw	a5,-40(s0)
   103d4:	fd842783          	lw	a5,-40(s0)
   103d8:	0807e793          	or	a5,a5,128
   103dc:	fcf42c23          	sw	a5,-40(s0)
   103e0:	a085                	j	10440 <mpu_enable_region+0x16e>
   103e2:	fe442783          	lw	a5,-28(s0)
   103e6:	0007c703          	lbu	a4,0(a5)
   103ea:	07200793          	li	a5,114
   103ee:	00f71863          	bne	a4,a5,103fe <mpu_enable_region+0x12c>
   103f2:	fd842783          	lw	a5,-40(s0)
   103f6:	0027e793          	or	a5,a5,2
   103fa:	fcf42c23          	sw	a5,-40(s0)
   103fe:	fe442783          	lw	a5,-28(s0)
   10402:	0007c703          	lbu	a4,0(a5)
   10406:	07700793          	li	a5,119
   1040a:	00f71863          	bne	a4,a5,1041a <mpu_enable_region+0x148>
   1040e:	fd842783          	lw	a5,-40(s0)
   10412:	0017e793          	or	a5,a5,1
   10416:	fcf42c23          	sw	a5,-40(s0)
   1041a:	fe442783          	lw	a5,-28(s0)
   1041e:	0007c703          	lbu	a4,0(a5)
   10422:	07800793          	li	a5,120
   10426:	00f71863          	bne	a4,a5,10436 <mpu_enable_region+0x164>
   1042a:	fd842783          	lw	a5,-40(s0)
   1042e:	0047e793          	or	a5,a5,4
   10432:	fcf42c23          	sw	a5,-40(s0)
   10436:	fe442783          	lw	a5,-28(s0)
   1043a:	0785                	add	a5,a5,1
   1043c:	fef42223          	sw	a5,-28(s0)
   10440:	fe442783          	lw	a5,-28(s0)
   10444:	0007c783          	lbu	a5,0(a5)
   10448:	ffc9                	bnez	a5,103e2 <mpu_enable_region+0x110>
   1044a:	fd842703          	lw	a4,-40(s0)
   1044e:	fdc42783          	lw	a5,-36(s0)
   10452:	bc471073          	csrw	0xbc4,a4
   10456:	0001                	nop
   10458:	4436                	lw	s0,76(sp)
   1045a:	6161                	add	sp,sp,80
   1045c:	8082                	ret

0001045e <sbrk>:
   1045e:	1101                	add	sp,sp,-32
   10460:	ce22                	sw	s0,28(sp)
   10462:	1000                	add	s0,sp,32
   10464:	fea42623          	sw	a0,-20(s0)
   10468:	31418793          	add	a5,gp,788 # 1eb24 <__BSS_END__>
   1046c:	853e                	mv	a0,a5
   1046e:	4472                	lw	s0,28(sp)
   10470:	6105                	add	sp,sp,32
   10472:	8082                	ret

00010474 <print_uart>:
   10474:	7179                	add	sp,sp,-48
   10476:	d622                	sw	s0,44(sp)
   10478:	1800                	add	s0,sp,48
   1047a:	fca42e23          	sw	a0,-36(s0)
   1047e:	fcb42c23          	sw	a1,-40(s0)
   10482:	100107b7          	lui	a5,0x10010
   10486:	fef42423          	sw	a5,-24(s0)
   1048a:	fe042623          	sw	zero,-20(s0)
   1048e:	a825                	j	104c6 <print_uart+0x52>
   10490:	fe842783          	lw	a5,-24(s0)
   10494:	439c                	lw	a5,0(a5)
   10496:	fef42223          	sw	a5,-28(s0)
   1049a:	fe442703          	lw	a4,-28(s0)
   1049e:	800007b7          	lui	a5,0x80000
   104a2:	8ff9                	and	a5,a5,a4
   104a4:	f7f5                	bnez	a5,10490 <print_uart+0x1c>
   104a6:	fec42783          	lw	a5,-20(s0)
   104aa:	fdc42703          	lw	a4,-36(s0)
   104ae:	97ba                	add	a5,a5,a4
   104b0:	0007c783          	lbu	a5,0(a5) # 80000000 <__BSS_END__+0x7ffe14dc>
   104b4:	873e                	mv	a4,a5
   104b6:	fe842783          	lw	a5,-24(s0)
   104ba:	c398                	sw	a4,0(a5)
   104bc:	fec42783          	lw	a5,-20(s0)
   104c0:	0785                	add	a5,a5,1
   104c2:	fef42623          	sw	a5,-20(s0)
   104c6:	fec42703          	lw	a4,-20(s0)
   104ca:	fd842783          	lw	a5,-40(s0)
   104ce:	fcf741e3          	blt	a4,a5,10490 <print_uart+0x1c>
   104d2:	0001                	nop
   104d4:	0001                	nop
   104d6:	5432                	lw	s0,44(sp)
   104d8:	6145                	add	sp,sp,48
   104da:	8082                	ret

000104dc <helloWorld>:
   104dc:	712d                	add	sp,sp,-288
   104de:	10112e23          	sw	ra,284(sp)
   104e2:	10812c23          	sw	s0,280(sp)
   104e6:	1200                	add	s0,sp,288
   104e8:	eec40713          	add	a4,s0,-276
   104ec:	4605                	li	a2,1
   104ee:	67f5                	lui	a5,0x1d
   104f0:	4b078593          	add	a1,a5,1200 # 1d4b0 <__clzsi2+0x74>
   104f4:	853a                	mv	a0,a4
   104f6:	2ea9                	jal	10850 <sprintf>
   104f8:	fea42623          	sw	a0,-20(s0)
   104fc:	eec40793          	add	a5,s0,-276
   10500:	fec42583          	lw	a1,-20(s0)
   10504:	853e                	mv	a0,a5
   10506:	37bd                	jal	10474 <print_uart>
   10508:	0001                	nop
   1050a:	11c12083          	lw	ra,284(sp)
   1050e:	11812403          	lw	s0,280(sp)
   10512:	6115                	add	sp,sp,288
   10514:	8082                	ret

00010516 <get_dev_bar>:
   10516:	715d                	add	sp,sp,-80
   10518:	c6a2                	sw	s0,76(sp)
   1051a:	0880                	add	s0,sp,80
   1051c:	faa42e23          	sw	a0,-68(s0)
   10520:	87ae                	mv	a5,a1
   10522:	8732                	mv	a4,a2
   10524:	faf41d23          	sh	a5,-70(s0)
   10528:	87ba                	mv	a5,a4
   1052a:	faf41c23          	sh	a5,-72(s0)
   1052e:	fbc42783          	lw	a5,-68(s0)
   10532:	479c                	lw	a5,8(a5)
   10534:	83a1                	srl	a5,a5,0x8
   10536:	0ff7f793          	zext.b	a5,a5
   1053a:	fef42223          	sw	a5,-28(s0)
   1053e:	fe042623          	sw	zero,-20(s0)
   10542:	fe042423          	sw	zero,-24(s0)
   10546:	a079                	j	105d4 <get_dev_bar+0xbe>
   10548:	fec42783          	lw	a5,-20(s0)
   1054c:	04078793          	add	a5,a5,64
   10550:	fbc42703          	lw	a4,-68(s0)
   10554:	97ba                	add	a5,a5,a4
   10556:	0007a883          	lw	a7,0(a5)
   1055a:	0047a803          	lw	a6,4(a5)
   1055e:	4788                	lw	a0,8(a5)
   10560:	47cc                	lw	a1,12(a5)
   10562:	4b90                	lw	a2,16(a5)
   10564:	4bd4                	lw	a3,20(a5)
   10566:	4f98                	lw	a4,24(a5)
   10568:	4fdc                	lw	a5,28(a5)
   1056a:	fd142023          	sw	a7,-64(s0)
   1056e:	fd042223          	sw	a6,-60(s0)
   10572:	fca42423          	sw	a0,-56(s0)
   10576:	fcb42623          	sw	a1,-52(s0)
   1057a:	fcc42823          	sw	a2,-48(s0)
   1057e:	fcd42a23          	sw	a3,-44(s0)
   10582:	fce42c23          	sw	a4,-40(s0)
   10586:	fcf42e23          	sw	a5,-36(s0)
   1058a:	fec42783          	lw	a5,-20(s0)
   1058e:	02078793          	add	a5,a5,32
   10592:	fef42623          	sw	a5,-20(s0)
   10596:	fc042783          	lw	a5,-64(s0)
   1059a:	3007f713          	and	a4,a5,768
   1059e:	20000793          	li	a5,512
   105a2:	02f71363          	bne	a4,a5,105c8 <get_dev_bar+0xb2>
   105a6:	fc645783          	lhu	a5,-58(s0)
   105aa:	fba45703          	lhu	a4,-70(s0)
   105ae:	00f71e63          	bne	a4,a5,105ca <get_dev_bar+0xb4>
   105b2:	fc445783          	lhu	a5,-60(s0)
   105b6:	fb845703          	lhu	a4,-72(s0)
   105ba:	00f71863          	bne	a4,a5,105ca <get_dev_bar+0xb4>
   105be:	fd042703          	lw	a4,-48(s0)
   105c2:	fd442783          	lw	a5,-44(s0)
   105c6:	a839                	j	105e4 <get_dev_bar+0xce>
   105c8:	0001                	nop
   105ca:	fe842783          	lw	a5,-24(s0)
   105ce:	0785                	add	a5,a5,1
   105d0:	fef42423          	sw	a5,-24(s0)
   105d4:	fe842703          	lw	a4,-24(s0)
   105d8:	fe442783          	lw	a5,-28(s0)
   105dc:	f6f746e3          	blt	a4,a5,10548 <get_dev_bar+0x32>
   105e0:	577d                	li	a4,-1
   105e2:	57fd                	li	a5,-1
   105e4:	853a                	mv	a0,a4
   105e6:	85be                	mv	a1,a5
   105e8:	4436                	lw	s0,76(sp)
   105ea:	6161                	add	sp,sp,80
   105ec:	8082                	ret

000105ee <mpu_region_total>:
   105ee:	1101                	add	sp,sp,-32
   105f0:	ce22                	sw	s0,28(sp)
   105f2:	1000                	add	s0,sp,32
   105f4:	4601                	li	a2,0
   105f6:	4681                	li	a3,0
   105f8:	fec42423          	sw	a2,-24(s0)
   105fc:	fed42623          	sw	a3,-20(s0)
   10600:	bc402673          	csrr	a2,0xbc4
   10604:	fec42423          	sw	a2,-24(s0)
   10608:	fed42623          	sw	a3,-20(s0)
   1060c:	fec42683          	lw	a3,-20(s0)
   10610:	06e2                	sll	a3,a3,0x18
   10612:	fe842603          	lw	a2,-24(s0)
   10616:	00865713          	srl	a4,a2,0x8
   1061a:	8f55                	or	a4,a4,a3
   1061c:	fec42683          	lw	a3,-20(s0)
   10620:	0086d793          	srl	a5,a3,0x8
   10624:	87ba                	mv	a5,a4
   10626:	853e                	mv	a0,a5
   10628:	4472                	lw	s0,28(sp)
   1062a:	6105                	add	sp,sp,32
   1062c:	8082                	ret

0001062e <mpu_disable_region>:
   1062e:	7179                	add	sp,sp,-48
   10630:	d622                	sw	s0,44(sp)
   10632:	1800                	add	s0,sp,48
   10634:	fca42e23          	sw	a0,-36(s0)
   10638:	4781                	li	a5,0
   1063a:	4801                	li	a6,0
   1063c:	fef42423          	sw	a5,-24(s0)
   10640:	ff042623          	sw	a6,-20(s0)
   10644:	fdc42783          	lw	a5,-36(s0)
   10648:	0ff7f793          	zext.b	a5,a5
   1064c:	fef404a3          	sb	a5,-23(s0)
   10650:	fe842783          	lw	a5,-24(s0)
   10654:	0807e793          	or	a5,a5,128
   10658:	fef42423          	sw	a5,-24(s0)
   1065c:	fe842703          	lw	a4,-24(s0)
   10660:	fec42783          	lw	a5,-20(s0)
   10664:	bc471073          	csrw	0xbc4,a4
   10668:	0001                	nop
   1066a:	5432                	lw	s0,44(sp)
   1066c:	6145                	add	sp,sp,48
   1066e:	8082                	ret

00010670 <mpu_enable_region>:
   10670:	715d                	add	sp,sp,-80
   10672:	c6a2                	sw	s0,76(sp)
   10674:	0880                	add	s0,sp,80
   10676:	fca42623          	sw	a0,-52(s0)
   1067a:	fcb42023          	sw	a1,-64(s0)
   1067e:	fcc42223          	sw	a2,-60(s0)
   10682:	fad42c23          	sw	a3,-72(s0)
   10686:	fae42e23          	sw	a4,-68(s0)
   1068a:	fcf42423          	sw	a5,-56(s0)
   1068e:	fb042a23          	sw	a6,-76(s0)
   10692:	c0000713          	li	a4,-1024
   10696:	57fd                	li	a5,-1
   10698:	fee42423          	sw	a4,-24(s0)
   1069c:	fef42623          	sw	a5,-20(s0)
   106a0:	fb442783          	lw	a5,-76(s0)
   106a4:	fef42223          	sw	a5,-28(s0)
   106a8:	fc042703          	lw	a4,-64(s0)
   106ac:	fc442783          	lw	a5,-60(s0)
   106b0:	bc271073          	csrw	0xbc2,a4
   106b4:	fbc42783          	lw	a5,-68(s0)
   106b8:	07fe                	sll	a5,a5,0x1f
   106ba:	fb842703          	lw	a4,-72(s0)
   106be:	00175f13          	srl	t5,a4,0x1
   106c2:	01e7ef33          	or	t5,a5,t5
   106c6:	fbc42783          	lw	a5,-68(s0)
   106ca:	0017df93          	srl	t6,a5,0x1
   106ce:	fbe42c23          	sw	t5,-72(s0)
   106d2:	fbf42e23          	sw	t6,-68(s0)
   106d6:	a099                	j	1071c <mpu_enable_region+0xac>
   106d8:	fe842783          	lw	a5,-24(s0)
   106dc:	83fd                	srl	a5,a5,0x1f
   106de:	fec42703          	lw	a4,-20(s0)
   106e2:	00171393          	sll	t2,a4,0x1
   106e6:	0077e3b3          	or	t2,a5,t2
   106ea:	fe842783          	lw	a5,-24(s0)
   106ee:	00179313          	sll	t1,a5,0x1
   106f2:	fe642423          	sw	t1,-24(s0)
   106f6:	fe742623          	sw	t2,-20(s0)
   106fa:	fbc42783          	lw	a5,-68(s0)
   106fe:	07fe                	sll	a5,a5,0x1f
   10700:	fb842703          	lw	a4,-72(s0)
   10704:	00175e13          	srl	t3,a4,0x1
   10708:	01c7ee33          	or	t3,a5,t3
   1070c:	fbc42783          	lw	a5,-68(s0)
   10710:	0017de93          	srl	t4,a5,0x1
   10714:	fbc42c23          	sw	t3,-72(s0)
   10718:	fbd42e23          	sw	t4,-68(s0)
   1071c:	fb842783          	lw	a5,-72(s0)
   10720:	fbc42703          	lw	a4,-68(s0)
   10724:	8fd9                	or	a5,a5,a4
   10726:	fbcd                	bnez	a5,106d8 <mpu_enable_region+0x68>
   10728:	fe842703          	lw	a4,-24(s0)
   1072c:	fec42783          	lw	a5,-20(s0)
   10730:	bc371073          	csrw	0xbc3,a4
   10734:	4781                	li	a5,0
   10736:	4801                	li	a6,0
   10738:	fcf42c23          	sw	a5,-40(s0)
   1073c:	fd042e23          	sw	a6,-36(s0)
   10740:	fcc42783          	lw	a5,-52(s0)
   10744:	0ff7f793          	zext.b	a5,a5
   10748:	fcf40ca3          	sb	a5,-39(s0)
   1074c:	fd842783          	lw	a5,-40(s0)
   10750:	0107e793          	or	a5,a5,16
   10754:	fcf42c23          	sw	a5,-40(s0)
   10758:	fc842783          	lw	a5,-56(s0)
   1075c:	8b85                	and	a5,a5,1
   1075e:	0ff7f793          	zext.b	a5,a5
   10762:	8b85                	and	a5,a5,1
   10764:	078e                	sll	a5,a5,0x3
   10766:	fd842703          	lw	a4,-40(s0)
   1076a:	9b5d                	and	a4,a4,-9
   1076c:	8fd9                	or	a5,a5,a4
   1076e:	fcf42c23          	sw	a5,-40(s0)
   10772:	fd842783          	lw	a5,-40(s0)
   10776:	0807e793          	or	a5,a5,128
   1077a:	fcf42c23          	sw	a5,-40(s0)
   1077e:	a085                	j	107de <mpu_enable_region+0x16e>
   10780:	fe442783          	lw	a5,-28(s0)
   10784:	0007c703          	lbu	a4,0(a5)
   10788:	07200793          	li	a5,114
   1078c:	00f71863          	bne	a4,a5,1079c <mpu_enable_region+0x12c>
   10790:	fd842783          	lw	a5,-40(s0)
   10794:	0027e793          	or	a5,a5,2
   10798:	fcf42c23          	sw	a5,-40(s0)
   1079c:	fe442783          	lw	a5,-28(s0)
   107a0:	0007c703          	lbu	a4,0(a5)
   107a4:	07700793          	li	a5,119
   107a8:	00f71863          	bne	a4,a5,107b8 <mpu_enable_region+0x148>
   107ac:	fd842783          	lw	a5,-40(s0)
   107b0:	0017e793          	or	a5,a5,1
   107b4:	fcf42c23          	sw	a5,-40(s0)
   107b8:	fe442783          	lw	a5,-28(s0)
   107bc:	0007c703          	lbu	a4,0(a5)
   107c0:	07800793          	li	a5,120
   107c4:	00f71863          	bne	a4,a5,107d4 <mpu_enable_region+0x164>
   107c8:	fd842783          	lw	a5,-40(s0)
   107cc:	0047e793          	or	a5,a5,4
   107d0:	fcf42c23          	sw	a5,-40(s0)
   107d4:	fe442783          	lw	a5,-28(s0)
   107d8:	0785                	add	a5,a5,1
   107da:	fef42223          	sw	a5,-28(s0)
   107de:	fe442783          	lw	a5,-28(s0)
   107e2:	0007c783          	lbu	a5,0(a5)
   107e6:	ffc9                	bnez	a5,10780 <mpu_enable_region+0x110>
   107e8:	fd842703          	lw	a4,-40(s0)
   107ec:	fdc42783          	lw	a5,-36(s0)
   107f0:	bc471073          	csrw	0xbc4,a4
   107f4:	0001                	nop
   107f6:	4436                	lw	s0,76(sp)
   107f8:	6161                	add	sp,sp,80
   107fa:	8082                	ret

000107fc <main>:
   107fc:	1141                	add	sp,sp,-16
   107fe:	c606                	sw	ra,12(sp)
   10800:	c422                	sw	s0,8(sp)
   10802:	0800                	add	s0,sp,16
   10804:	39e1                	jal	104dc <helloWorld>
   10806:	4781                	li	a5,0
   10808:	853e                	mv	a0,a5
   1080a:	40b2                	lw	ra,12(sp)
   1080c:	4422                	lw	s0,8(sp)
   1080e:	0141                	add	sp,sp,16
   10810:	8082                	ret

00010812 <_sprintf_r>:
   10812:	7135                	add	sp,sp,-160
   10814:	08c10f13          	add	t5,sp,140
   10818:	7ec1                	lui	t4,0xffff0
   1081a:	80000337          	lui	t1,0x80000
   1081e:	8e2e                	mv	t3,a1
   10820:	137d                	add	t1,t1,-1 # 7fffffff <__BSS_END__+0x7ffe14db>
   10822:	c736                	sw	a3,140(sp)
   10824:	208e8e93          	add	t4,t4,520 # ffff0208 <__BSS_END__+0xfffd16e4>
   10828:	002c                	add	a1,sp,8
   1082a:	86fa                	mv	a3,t5
   1082c:	de86                	sw	ra,124(sp)
   1082e:	cb3e                	sw	a5,148(sp)
   10830:	c93a                	sw	a4,144(sp)
   10832:	cd42                	sw	a6,152(sp)
   10834:	cf46                	sw	a7,156(sp)
   10836:	c472                	sw	t3,8(sp)
   10838:	cc72                	sw	t3,24(sp)
   1083a:	c81a                	sw	t1,16(sp)
   1083c:	ce1a                	sw	t1,28(sp)
   1083e:	ca76                	sw	t4,20(sp)
   10840:	c27a                	sw	t5,4(sp)
   10842:	2249                	jal	109c4 <_svfprintf_r>
   10844:	47a2                	lw	a5,8(sp)
   10846:	00078023          	sb	zero,0(a5)
   1084a:	50f6                	lw	ra,124(sp)
   1084c:	610d                	add	sp,sp,160
   1084e:	8082                	ret

00010850 <sprintf>:
   10850:	7135                	add	sp,sp,-160
   10852:	08810f13          	add	t5,sp,136
   10856:	7ec1                	lui	t4,0xffff0
   10858:	80000337          	lui	t1,0x80000
   1085c:	8e2a                	mv	t3,a0
   1085e:	137d                	add	t1,t1,-1 # 7fffffff <__BSS_END__+0x7ffe14db>
   10860:	c532                	sw	a2,136(sp)
   10862:	c736                	sw	a3,140(sp)
   10864:	208e8e93          	add	t4,t4,520 # ffff0208 <__BSS_END__+0xfffd16e4>
   10868:	862e                	mv	a2,a1
   1086a:	86fa                	mv	a3,t5
   1086c:	002c                	add	a1,sp,8
   1086e:	fdc1a503          	lw	a0,-36(gp) # 1e7ec <_impure_ptr>
   10872:	de86                	sw	ra,124(sp)
   10874:	cb3e                	sw	a5,148(sp)
   10876:	c93a                	sw	a4,144(sp)
   10878:	cd42                	sw	a6,152(sp)
   1087a:	cf46                	sw	a7,156(sp)
   1087c:	c472                	sw	t3,8(sp)
   1087e:	cc72                	sw	t3,24(sp)
   10880:	c81a                	sw	t1,16(sp)
   10882:	ce1a                	sw	t1,28(sp)
   10884:	ca76                	sw	t4,20(sp)
   10886:	c27a                	sw	t5,4(sp)
   10888:	2a35                	jal	109c4 <_svfprintf_r>
   1088a:	47a2                	lw	a5,8(sp)
   1088c:	00078023          	sb	zero,0(a5)
   10890:	50f6                	lw	ra,124(sp)
   10892:	610d                	add	sp,sp,160
   10894:	8082                	ret

00010896 <memset>:
   10896:	433d                	li	t1,15
   10898:	872a                	mv	a4,a0
   1089a:	02c37363          	bgeu	t1,a2,108c0 <memset+0x2a>
   1089e:	00f77793          	and	a5,a4,15
   108a2:	efbd                	bnez	a5,10920 <memset+0x8a>
   108a4:	e5ad                	bnez	a1,1090e <memset+0x78>
   108a6:	ff067693          	and	a3,a2,-16
   108aa:	8a3d                	and	a2,a2,15
   108ac:	96ba                	add	a3,a3,a4
   108ae:	c30c                	sw	a1,0(a4)
   108b0:	c34c                	sw	a1,4(a4)
   108b2:	c70c                	sw	a1,8(a4)
   108b4:	c74c                	sw	a1,12(a4)
   108b6:	0741                	add	a4,a4,16
   108b8:	fed76be3          	bltu	a4,a3,108ae <memset+0x18>
   108bc:	e211                	bnez	a2,108c0 <memset+0x2a>
   108be:	8082                	ret
   108c0:	40c306b3          	sub	a3,t1,a2
   108c4:	068a                	sll	a3,a3,0x2
   108c6:	00000297          	auipc	t0,0x0
   108ca:	9696                	add	a3,a3,t0
   108cc:	00a68067          	jr	10(a3)
   108d0:	00b70723          	sb	a1,14(a4)
   108d4:	00b706a3          	sb	a1,13(a4)
   108d8:	00b70623          	sb	a1,12(a4)
   108dc:	00b705a3          	sb	a1,11(a4)
   108e0:	00b70523          	sb	a1,10(a4)
   108e4:	00b704a3          	sb	a1,9(a4)
   108e8:	00b70423          	sb	a1,8(a4)
   108ec:	00b703a3          	sb	a1,7(a4)
   108f0:	00b70323          	sb	a1,6(a4)
   108f4:	00b702a3          	sb	a1,5(a4)
   108f8:	00b70223          	sb	a1,4(a4)
   108fc:	00b701a3          	sb	a1,3(a4)
   10900:	00b70123          	sb	a1,2(a4)
   10904:	00b700a3          	sb	a1,1(a4)
   10908:	00b70023          	sb	a1,0(a4)
   1090c:	8082                	ret
   1090e:	0ff5f593          	zext.b	a1,a1
   10912:	00859693          	sll	a3,a1,0x8
   10916:	8dd5                	or	a1,a1,a3
   10918:	01059693          	sll	a3,a1,0x10
   1091c:	8dd5                	or	a1,a1,a3
   1091e:	b761                	j	108a6 <memset+0x10>
   10920:	00279693          	sll	a3,a5,0x2
   10924:	00000297          	auipc	t0,0x0
   10928:	9696                	add	a3,a3,t0
   1092a:	8286                	mv	t0,ra
   1092c:	fa8680e7          	jalr	-88(a3)
   10930:	8096                	mv	ra,t0
   10932:	17c1                	add	a5,a5,-16
   10934:	8f1d                	sub	a4,a4,a5
   10936:	963e                	add	a2,a2,a5
   10938:	f8c374e3          	bgeu	t1,a2,108c0 <memset+0x2a>
   1093c:	b7a5                	j	108a4 <memset+0xe>

0001093e <__libc_init_array>:
   1093e:	1141                	add	sp,sp,-16
   10940:	c422                	sw	s0,8(sp)
   10942:	c04a                	sw	s2,0(sp)
   10944:	0000d797          	auipc	a5,0xd
   10948:	6c078793          	add	a5,a5,1728 # 1e004 <__init_array_start>
   1094c:	0000d417          	auipc	s0,0xd
   10950:	6b840413          	add	s0,s0,1720 # 1e004 <__init_array_start>
   10954:	c606                	sw	ra,12(sp)
   10956:	c226                	sw	s1,4(sp)
   10958:	40878933          	sub	s2,a5,s0
   1095c:	00878b63          	beq	a5,s0,10972 <__libc_init_array+0x34>
   10960:	40295913          	sra	s2,s2,0x2
   10964:	4481                	li	s1,0
   10966:	401c                	lw	a5,0(s0)
   10968:	0485                	add	s1,s1,1
   1096a:	0411                	add	s0,s0,4
   1096c:	9782                	jalr	a5
   1096e:	ff24ece3          	bltu	s1,s2,10966 <__libc_init_array+0x28>
   10972:	0000d797          	auipc	a5,0xd
   10976:	69a78793          	add	a5,a5,1690 # 1e00c <__do_global_dtors_aux_fini_array_entry>
   1097a:	0000d417          	auipc	s0,0xd
   1097e:	68a40413          	add	s0,s0,1674 # 1e004 <__init_array_start>
   10982:	40878933          	sub	s2,a5,s0
   10986:	40295913          	sra	s2,s2,0x2
   1098a:	00878963          	beq	a5,s0,1099c <__libc_init_array+0x5e>
   1098e:	4481                	li	s1,0
   10990:	401c                	lw	a5,0(s0)
   10992:	0485                	add	s1,s1,1
   10994:	0411                	add	s0,s0,4
   10996:	9782                	jalr	a5
   10998:	ff24ece3          	bltu	s1,s2,10990 <__libc_init_array+0x52>
   1099c:	40b2                	lw	ra,12(sp)
   1099e:	4422                	lw	s0,8(sp)
   109a0:	4492                	lw	s1,4(sp)
   109a2:	4902                	lw	s2,0(sp)
   109a4:	0141                	add	sp,sp,16
   109a6:	8082                	ret

000109a8 <exit>:
   109a8:	1141                	add	sp,sp,-16
   109aa:	4581                	li	a1,0
   109ac:	c422                	sw	s0,8(sp)
   109ae:	c606                	sw	ra,12(sp)
   109b0:	842a                	mv	s0,a0
   109b2:	545030ef          	jal	146f6 <__call_exitprocs>
   109b6:	fe81a783          	lw	a5,-24(gp) # 1e7f8 <__stdio_exit_handler>
   109ba:	c391                	beqz	a5,109be <exit+0x16>
   109bc:	9782                	jalr	a5
   109be:	8522                	mv	a0,s0
   109c0:	7f6080ef          	jal	191b6 <_exit>

000109c4 <_svfprintf_r>:
   109c4:	7145                	add	sp,sp,-464
   109c6:	1c112623          	sw	ra,460(sp)
   109ca:	1c812423          	sw	s0,456(sp)
   109ce:	c22e                	sw	a1,4(sp)
   109d0:	842e                	mv	s0,a1
   109d2:	c432                	sw	a2,8(sp)
   109d4:	c836                	sw	a3,16(sp)
   109d6:	d22a                	sw	a0,36(sp)
   109d8:	6ae050ef          	jal	16086 <_localeconv_r>
   109dc:	4118                	lw	a4,0(a0)
   109de:	853a                	mv	a0,a4
   109e0:	d63a                	sw	a4,44(sp)
   109e2:	5e7030ef          	jal	147c8 <strlen>
   109e6:	00c45703          	lhu	a4,12(s0)
   109ea:	c982                	sw	zero,208(sp)
   109ec:	cb82                	sw	zero,212(sp)
   109ee:	cd82                	sw	zero,216(sp)
   109f0:	cf82                	sw	zero,220(sp)
   109f2:	08077713          	and	a4,a4,128
   109f6:	d42a                	sw	a0,40(sp)
   109f8:	4322                	lw	t1,8(sp)
   109fa:	c701                	beqz	a4,10a02 <_svfprintf_r+0x3e>
   109fc:	4818                	lw	a4,16(s0)
   109fe:	60070fe3          	beqz	a4,1181c <_svfprintf_r+0xe58>
   10a02:	1c912223          	sw	s1,452(sp)
   10a06:	1d212023          	sw	s2,448(sp)
   10a0a:	1b312e23          	sw	s3,444(sp)
   10a0e:	1b412c23          	sw	s4,440(sp)
   10a12:	1b512a23          	sw	s5,436(sp)
   10a16:	1b612823          	sw	s6,432(sp)
   10a1a:	1b712623          	sw	s7,428(sp)
   10a1e:	1b812423          	sw	s8,424(sp)
   10a22:	1b912223          	sw	s9,420(sp)
   10a26:	1ba12023          	sw	s10,416(sp)
   10a2a:	19b12e23          	sw	s11,412(sp)
   10a2e:	8c9a                	mv	s9,t1
   10a30:	000cc783          	lbu	a5,0(s9)
   10a34:	0ec10913          	add	s2,sp,236
   10a38:	c3ca                	sw	s2,196(sp)
   10a3a:	c782                	sw	zero,204(sp)
   10a3c:	c582                	sw	zero,200(sp)
   10a3e:	cc02                	sw	zero,24(sp)
   10a40:	d802                	sw	zero,48(sp)
   10a42:	de02                	sw	zero,60(sp)
   10a44:	dc02                	sw	zero,56(sp)
   10a46:	c282                	sw	zero,68(sp)
   10a48:	c082                	sw	zero,64(sp)
   10a4a:	c402                	sw	zero,8(sp)
   10a4c:	5a92                	lw	s5,36(sp)
   10a4e:	4441                	li	s0,16
   10a50:	84ca                	mv	s1,s2
   10a52:	18078463          	beqz	a5,10bda <_svfprintf_r+0x216>
   10a56:	89e6                	mv	s3,s9
   10a58:	02500713          	li	a4,37
   10a5c:	2ce78c63          	beq	a5,a4,10d34 <_svfprintf_r+0x370>
   10a60:	0019c783          	lbu	a5,1(s3)
   10a64:	0985                	add	s3,s3,1
   10a66:	fbfd                	bnez	a5,10a5c <_svfprintf_r+0x98>
   10a68:	41998a33          	sub	s4,s3,s9
   10a6c:	17998763          	beq	s3,s9,10bda <_svfprintf_r+0x216>
   10a70:	473e                	lw	a4,204(sp)
   10a72:	47ae                	lw	a5,200(sp)
   10a74:	0194a023          	sw	s9,0(s1)
   10a78:	9752                	add	a4,a4,s4
   10a7a:	0785                	add	a5,a5,1
   10a7c:	0144a223          	sw	s4,4(s1)
   10a80:	c7ba                	sw	a4,204(sp)
   10a82:	c5be                	sw	a5,200(sp)
   10a84:	471d                	li	a4,7
   10a86:	04a1                	add	s1,s1,8
   10a88:	2af74d63          	blt	a4,a5,10d42 <_svfprintf_r+0x37e>
   10a8c:	4722                	lw	a4,8(sp)
   10a8e:	0009c783          	lbu	a5,0(s3)
   10a92:	9752                	add	a4,a4,s4
   10a94:	c43a                	sw	a4,8(sp)
   10a96:	14078263          	beqz	a5,10bda <_svfprintf_r+0x216>
   10a9a:	0019c883          	lbu	a7,1(s3)
   10a9e:	0a0103a3          	sb	zero,167(sp)
   10aa2:	0985                	add	s3,s3,1
   10aa4:	5a7d                	li	s4,-1
   10aa6:	4c01                	li	s8,0
   10aa8:	4b01                	li	s6,0
   10aaa:	05a00d13          	li	s10,90
   10aae:	0985                	add	s3,s3,1
   10ab0:	fe088793          	add	a5,a7,-32
   10ab4:	02fd6f63          	bltu	s10,a5,10af2 <_svfprintf_r+0x12e>
   10ab8:	0000d717          	auipc	a4,0xd
   10abc:	a5470713          	add	a4,a4,-1452 # 1d50c <__clzsi2+0xd0>
   10ac0:	078a                	sll	a5,a5,0x2
   10ac2:	97ba                	add	a5,a5,a4
   10ac4:	439c                	lw	a5,0(a5)
   10ac6:	97ba                	add	a5,a5,a4
   10ac8:	8782                	jr	a5
   10aca:	4c01                	li	s8,0
   10acc:	fd088793          	add	a5,a7,-48
   10ad0:	46a5                	li	a3,9
   10ad2:	0009c883          	lbu	a7,0(s3)
   10ad6:	002c1713          	sll	a4,s8,0x2
   10ada:	9c3a                	add	s8,s8,a4
   10adc:	0c06                	sll	s8,s8,0x1
   10ade:	9c3e                	add	s8,s8,a5
   10ae0:	fd088793          	add	a5,a7,-48
   10ae4:	0985                	add	s3,s3,1
   10ae6:	fef6f6e3          	bgeu	a3,a5,10ad2 <_svfprintf_r+0x10e>
   10aea:	fe088793          	add	a5,a7,-32
   10aee:	fcfd75e3          	bgeu	s10,a5,10ab8 <_svfprintf_r+0xf4>
   10af2:	0e088463          	beqz	a7,10bda <_svfprintf_r+0x216>
   10af6:	13110623          	sb	a7,300(sp)
   10afa:	0a0103a3          	sb	zero,167(sp)
   10afe:	4d05                	li	s10,1
   10b00:	4d85                	li	s11,1
   10b02:	12c10c93          	add	s9,sp,300
   10b06:	c602                	sw	zero,12(sp)
   10b08:	4a01                	li	s4,0
   10b0a:	d002                	sw	zero,32(sp)
   10b0c:	ce02                	sw	zero,28(sp)
   10b0e:	ca02                	sw	zero,20(sp)
   10b10:	002b7293          	and	t0,s6,2
   10b14:	00028363          	beqz	t0,10b1a <_svfprintf_r+0x156>
   10b18:	0d09                	add	s10,s10,2
   10b1a:	084b7f93          	and	t6,s6,132
   10b1e:	463e                	lw	a2,204(sp)
   10b20:	000f9663          	bnez	t6,10b2c <_svfprintf_r+0x168>
   10b24:	41ac07b3          	sub	a5,s8,s10
   10b28:	0af044e3          	bgtz	a5,113d0 <_svfprintf_r+0xa0c>
   10b2c:	0a714783          	lbu	a5,167(sp)
   10b30:	cf99                	beqz	a5,10b4e <_svfprintf_r+0x18a>
   10b32:	47ae                	lw	a5,200(sp)
   10b34:	0a710693          	add	a3,sp,167
   10b38:	c094                	sw	a3,0(s1)
   10b3a:	0605                	add	a2,a2,1
   10b3c:	4685                	li	a3,1
   10b3e:	0785                	add	a5,a5,1
   10b40:	c0d4                	sw	a3,4(s1)
   10b42:	c7b2                	sw	a2,204(sp)
   10b44:	c5be                	sw	a5,200(sp)
   10b46:	469d                	li	a3,7
   10b48:	04a1                	add	s1,s1,8
   10b4a:	2cf6cc63          	blt	a3,a5,10e22 <_svfprintf_r+0x45e>
   10b4e:	00028f63          	beqz	t0,10b6c <_svfprintf_r+0x1a8>
   10b52:	47ae                	lw	a5,200(sp)
   10b54:	4689                	li	a3,2
   10b56:	0609                	add	a2,a2,2
   10b58:	0785                	add	a5,a5,1
   10b5a:	1138                	add	a4,sp,168
   10b5c:	c0d4                	sw	a3,4(s1)
   10b5e:	c098                	sw	a4,0(s1)
   10b60:	c7b2                	sw	a2,204(sp)
   10b62:	c5be                	sw	a5,200(sp)
   10b64:	469d                	li	a3,7
   10b66:	04a1                	add	s1,s1,8
   10b68:	10f6c5e3          	blt	a3,a5,11472 <_svfprintf_r+0xaae>
   10b6c:	08000793          	li	a5,128
   10b70:	70ff8863          	beq	t6,a5,11280 <_svfprintf_r+0x8bc>
   10b74:	41ba0a33          	sub	s4,s4,s11
   10b78:	7b404663          	bgtz	s4,11324 <_svfprintf_r+0x960>
   10b7c:	100b7793          	and	a5,s6,256
   10b80:	5e079763          	bnez	a5,1116e <_svfprintf_r+0x7aa>
   10b84:	47ae                	lw	a5,200(sp)
   10b86:	966e                	add	a2,a2,s11
   10b88:	0194a023          	sw	s9,0(s1)
   10b8c:	0785                	add	a5,a5,1
   10b8e:	01b4a223          	sw	s11,4(s1)
   10b92:	c7b2                	sw	a2,204(sp)
   10b94:	c5be                	sw	a5,200(sp)
   10b96:	469d                	li	a3,7
   10b98:	34f6cb63          	blt	a3,a5,10eee <_svfprintf_r+0x52a>
   10b9c:	04a1                	add	s1,s1,8
   10b9e:	004b7e93          	and	t4,s6,4
   10ba2:	000e8663          	beqz	t4,10bae <_svfprintf_r+0x1ea>
   10ba6:	41ac0a33          	sub	s4,s8,s10
   10baa:	0f4042e3          	bgtz	s4,1148e <_svfprintf_r+0xaca>
   10bae:	8e62                	mv	t3,s8
   10bb0:	01ac5363          	bge	s8,s10,10bb6 <_svfprintf_r+0x1f2>
   10bb4:	8e6a                	mv	t3,s10
   10bb6:	47a2                	lw	a5,8(sp)
   10bb8:	97f2                	add	a5,a5,t3
   10bba:	c43e                	sw	a5,8(sp)
   10bbc:	7e061863          	bnez	a2,113ac <_svfprintf_r+0x9e8>
   10bc0:	47b2                	lw	a5,12(sp)
   10bc2:	c582                	sw	zero,200(sp)
   10bc4:	c789                	beqz	a5,10bce <_svfprintf_r+0x20a>
   10bc6:	45b2                	lw	a1,12(sp)
   10bc8:	8556                	mv	a0,s5
   10bca:	654020ef          	jal	1321e <_free_r>
   10bce:	84ca                	mv	s1,s2
   10bd0:	8cce                	mv	s9,s3
   10bd2:	000cc783          	lbu	a5,0(s9)
   10bd6:	e80790e3          	bnez	a5,10a56 <_svfprintf_r+0x92>
   10bda:	47be                	lw	a5,204(sp)
   10bdc:	c399                	beqz	a5,10be2 <_svfprintf_r+0x21e>
   10bde:	3700106f          	j	11f4e <_svfprintf_r+0x158a>
   10be2:	4792                	lw	a5,4(sp)
   10be4:	1c412483          	lw	s1,452(sp)
   10be8:	1c012903          	lw	s2,448(sp)
   10bec:	00c7d783          	lhu	a5,12(a5)
   10bf0:	1bc12983          	lw	s3,444(sp)
   10bf4:	1b812a03          	lw	s4,440(sp)
   10bf8:	0407f793          	and	a5,a5,64
   10bfc:	1b412a83          	lw	s5,436(sp)
   10c00:	1b012b03          	lw	s6,432(sp)
   10c04:	1ac12b83          	lw	s7,428(sp)
   10c08:	1a812c03          	lw	s8,424(sp)
   10c0c:	1a412c83          	lw	s9,420(sp)
   10c10:	1a012d03          	lw	s10,416(sp)
   10c14:	19c12d83          	lw	s11,412(sp)
   10c18:	c399                	beqz	a5,10c1e <_svfprintf_r+0x25a>
   10c1a:	0730106f          	j	1248c <_svfprintf_r+0x1ac8>
   10c1e:	1cc12083          	lw	ra,460(sp)
   10c22:	1c812403          	lw	s0,456(sp)
   10c26:	4522                	lw	a0,8(sp)
   10c28:	6179                	add	sp,sp,464
   10c2a:	8082                	ret
   10c2c:	8556                	mv	a0,s5
   10c2e:	458050ef          	jal	16086 <_localeconv_r>
   10c32:	415c                	lw	a5,4(a0)
   10c34:	853e                	mv	a0,a5
   10c36:	c0be                	sw	a5,64(sp)
   10c38:	391030ef          	jal	147c8 <strlen>
   10c3c:	87aa                	mv	a5,a0
   10c3e:	8556                	mv	a0,s5
   10c40:	8bbe                	mv	s7,a5
   10c42:	c2be                	sw	a5,68(sp)
   10c44:	442050ef          	jal	16086 <_localeconv_r>
   10c48:	4518                	lw	a4,8(a0)
   10c4a:	dc3a                	sw	a4,56(sp)
   10c4c:	2c0b97e3          	bnez	s7,1171a <_svfprintf_r+0xd56>
   10c50:	0009c883          	lbu	a7,0(s3)
   10c54:	bda9                	j	10aae <_svfprintf_r+0xea>
   10c56:	0009c883          	lbu	a7,0(s3)
   10c5a:	020b6b13          	or	s6,s6,32
   10c5e:	bd81                	j	10aae <_svfprintf_r+0xea>
   10c60:	010b6b13          	or	s6,s6,16
   10c64:	020b7793          	and	a5,s6,32
   10c68:	2a078f63          	beqz	a5,10f26 <_svfprintf_r+0x562>
   10c6c:	47c2                	lw	a5,16(sp)
   10c6e:	00778b93          	add	s7,a5,7
   10c72:	ff8bfb93          	and	s7,s7,-8
   10c76:	004ba783          	lw	a5,4(s7)
   10c7a:	000bad03          	lw	s10,0(s7)
   10c7e:	008b8713          	add	a4,s7,8
   10c82:	c83a                	sw	a4,16(sp)
   10c84:	8dbe                	mv	s11,a5
   10c86:	2c07c563          	bltz	a5,10f50 <_svfprintf_r+0x58c>
   10c8a:	8fda                	mv	t6,s6
   10c8c:	000a4863          	bltz	s4,10c9c <_svfprintf_r+0x2d8>
   10c90:	01bd67b3          	or	a5,s10,s11
   10c94:	f7fb7f93          	and	t6,s6,-129
   10c98:	2e0782e3          	beqz	a5,1177c <_svfprintf_r+0xdb8>
   10c9c:	5c0d9ee3          	bnez	s11,11a78 <_svfprintf_r+0x10b4>
   10ca0:	47a5                	li	a5,9
   10ca2:	5da7ebe3          	bltu	a5,s10,11a78 <_svfprintf_r+0x10b4>
   10ca6:	030d0d13          	add	s10,s10,48
   10caa:	19a107a3          	sb	s10,399(sp)
   10cae:	8b7e                	mv	s6,t6
   10cb0:	4d85                	li	s11,1
   10cb2:	18f10c93          	add	s9,sp,399
   10cb6:	0a714783          	lbu	a5,167(sp)
   10cba:	8d52                	mv	s10,s4
   10cbc:	01ba5363          	bge	s4,s11,10cc2 <_svfprintf_r+0x2fe>
   10cc0:	8d6e                	mv	s10,s11
   10cc2:	c602                	sw	zero,12(sp)
   10cc4:	d002                	sw	zero,32(sp)
   10cc6:	ce02                	sw	zero,28(sp)
   10cc8:	ca02                	sw	zero,20(sp)
   10cca:	e40783e3          	beqz	a5,10b10 <_svfprintf_r+0x14c>
   10cce:	0d05                	add	s10,s10,1
   10cd0:	b581                	j	10b10 <_svfprintf_r+0x14c>
   10cd2:	010b6b13          	or	s6,s6,16
   10cd6:	020b7793          	and	a5,s6,32
   10cda:	22078463          	beqz	a5,10f02 <_svfprintf_r+0x53e>
   10cde:	47c2                	lw	a5,16(sp)
   10ce0:	00778b93          	add	s7,a5,7
   10ce4:	ff8bfb93          	and	s7,s7,-8
   10ce8:	000bad03          	lw	s10,0(s7)
   10cec:	004bad83          	lw	s11,4(s7)
   10cf0:	008b8793          	add	a5,s7,8
   10cf4:	c83e                	sw	a5,16(sp)
   10cf6:	bffb7f93          	and	t6,s6,-1025
   10cfa:	4781                	li	a5,0
   10cfc:	4701                	li	a4,0
   10cfe:	0ae103a3          	sb	a4,167(sp)
   10d02:	260a4763          	bltz	s4,10f70 <_svfprintf_r+0x5ac>
   10d06:	01bd6733          	or	a4,s10,s11
   10d0a:	f7fffb13          	and	s6,t6,-129
   10d0e:	6a071f63          	bnez	a4,113cc <_svfprintf_r+0xa08>
   10d12:	520a1363          	bnez	s4,11238 <_svfprintf_r+0x874>
   10d16:	18079be3          	bnez	a5,116ac <_svfprintf_r+0xce8>
   10d1a:	001ffd93          	and	s11,t6,1
   10d1e:	19010c93          	add	s9,sp,400
   10d22:	f80d8ae3          	beqz	s11,10cb6 <_svfprintf_r+0x2f2>
   10d26:	03000793          	li	a5,48
   10d2a:	18f107a3          	sb	a5,399(sp)
   10d2e:	18f10c93          	add	s9,sp,399
   10d32:	b751                	j	10cb6 <_svfprintf_r+0x2f2>
   10d34:	41998a33          	sub	s4,s3,s9
   10d38:	d3999ce3          	bne	s3,s9,10a70 <_svfprintf_r+0xac>
   10d3c:	0009c783          	lbu	a5,0(s3)
   10d40:	bb99                	j	10a96 <_svfprintf_r+0xd2>
   10d42:	4592                	lw	a1,4(sp)
   10d44:	01d0                	add	a2,sp,196
   10d46:	8556                	mv	a0,s5
   10d48:	2e5030ef          	jal	1482c <__ssprint_r>
   10d4c:	e8051be3          	bnez	a0,10be2 <_svfprintf_r+0x21e>
   10d50:	84ca                	mv	s1,s2
   10d52:	bb2d                	j	10a8c <_svfprintf_r+0xc8>
   10d54:	008b7793          	and	a5,s6,8
   10d58:	200790e3          	bnez	a5,11758 <_svfprintf_r+0xd94>
   10d5c:	47c2                	lw	a5,16(sp)
   10d5e:	0908                	add	a0,sp,144
   10d60:	c646                	sw	a7,12(sp)
   10d62:	00778b93          	add	s7,a5,7
   10d66:	ff8bfb93          	and	s7,s7,-8
   10d6a:	004ba603          	lw	a2,4(s7)
   10d6e:	000ba583          	lw	a1,0(s7)
   10d72:	008b8793          	add	a5,s7,8
   10d76:	c83e                	sw	a5,16(sp)
   10d78:	5300c0ef          	jal	1d2a8 <__extenddftf2>
   10d7c:	464a                	lw	a2,144(sp)
   10d7e:	46da                	lw	a3,148(sp)
   10d80:	476a                	lw	a4,152(sp)
   10d82:	47fa                	lw	a5,156(sp)
   10d84:	48b2                	lw	a7,12(sp)
   10d86:	0988                	add	a0,sp,208
   10d88:	c646                	sw	a7,12(sp)
   10d8a:	cfbe                	sw	a5,220(sp)
   10d8c:	c9b2                	sw	a2,208(sp)
   10d8e:	cbb6                	sw	a3,212(sp)
   10d90:	cdba                	sw	a4,216(sp)
   10d92:	237010ef          	jal	127c8 <_ldcheck>
   10d96:	d72a                	sw	a0,172(sp)
   10d98:	4789                	li	a5,2
   10d9a:	48b2                	lw	a7,12(sp)
   10d9c:	68f500e3          	beq	a0,a5,11c1c <_svfprintf_r+0x1258>
   10da0:	4785                	li	a5,1
   10da2:	00f51463          	bne	a0,a5,10daa <_svfprintf_r+0x3e6>
   10da6:	7750006f          	j	11d1a <_svfprintf_r+0x1356>
   10daa:	06100793          	li	a5,97
   10dae:	00f89463          	bne	a7,a5,10db6 <_svfprintf_r+0x3f2>
   10db2:	5560106f          	j	12308 <_svfprintf_r+0x1944>
   10db6:	04100793          	li	a5,65
   10dba:	00f89463          	bne	a7,a5,10dc2 <_svfprintf_r+0x3fe>
   10dbe:	5d80106f          	j	12396 <_svfprintf_r+0x19d2>
   10dc2:	57fd                	li	a5,-1
   10dc4:	00fa1463          	bne	s4,a5,10dcc <_svfprintf_r+0x408>
   10dc8:	1b60106f          	j	11f7e <_svfprintf_r+0x15ba>
   10dcc:	fdf8f793          	and	a5,a7,-33
   10dd0:	04700713          	li	a4,71
   10dd4:	c602                	sw	zero,12(sp)
   10dd6:	00e79463          	bne	a5,a4,10dde <_svfprintf_r+0x41a>
   10dda:	6ec0106f          	j	124c6 <_svfprintf_r+0x1b02>
   10dde:	4bfe                	lw	s7,220(sp)
   10de0:	100b6793          	or	a5,s6,256
   10de4:	c4be                	sw	a5,72(sp)
   10de6:	da02                	sw	zero,52(sp)
   10de8:	42ce                	lw	t0,208(sp)
   10dea:	4fde                	lw	t6,212(sp)
   10dec:	4f6e                	lw	t5,216(sp)
   10dee:	000bd963          	bgez	s7,10e00 <_svfprintf_r+0x43c>
   10df2:	800007b7          	lui	a5,0x80000
   10df6:	0177cbb3          	xor	s7,a5,s7
   10dfa:	02d00793          	li	a5,45
   10dfe:	da3e                	sw	a5,52(sp)
   10e00:	fbf88793          	add	a5,a7,-65
   10e04:	02500713          	li	a4,37
   10e08:	00f77463          	bgeu	a4,a5,10e10 <_svfprintf_r+0x44c>
   10e0c:	7fd0006f          	j	11e08 <_svfprintf_r+0x1444>
   10e10:	0000d717          	auipc	a4,0xd
   10e14:	86870713          	add	a4,a4,-1944 # 1d678 <__clzsi2+0x23c>
   10e18:	078a                	sll	a5,a5,0x2
   10e1a:	97ba                	add	a5,a5,a4
   10e1c:	439c                	lw	a5,0(a5)
   10e1e:	97ba                	add	a5,a5,a4
   10e20:	8782                	jr	a5
   10e22:	4592                	lw	a1,4(sp)
   10e24:	01d0                	add	a2,sp,196
   10e26:	8556                	mv	a0,s5
   10e28:	c6c6                	sw	a7,76(sp)
   10e2a:	c4fe                	sw	t6,72(sp)
   10e2c:	da16                	sw	t0,52(sp)
   10e2e:	1ff030ef          	jal	1482c <__ssprint_r>
   10e32:	58051463          	bnez	a0,113ba <_svfprintf_r+0x9f6>
   10e36:	463e                	lw	a2,204(sp)
   10e38:	48b6                	lw	a7,76(sp)
   10e3a:	4fa6                	lw	t6,72(sp)
   10e3c:	52d2                	lw	t0,52(sp)
   10e3e:	84ca                	mv	s1,s2
   10e40:	b339                	j	10b4e <_svfprintf_r+0x18a>
   10e42:	47ae                	lw	a5,200(sp)
   10e44:	4685                	li	a3,1
   10e46:	0194a023          	sw	s9,0(s1)
   10e4a:	00178a13          	add	s4,a5,1 # 80000001 <__BSS_END__+0x7ffe14dd>
   10e4e:	47e2                	lw	a5,24(sp)
   10e50:	00160b93          	add	s7,a2,1
   10e54:	00848d93          	add	s11,s1,8
   10e58:	7af6d063          	bge	a3,a5,115f8 <_svfprintf_r+0xc34>
   10e5c:	4785                	li	a5,1
   10e5e:	c0dc                	sw	a5,4(s1)
   10e60:	c7de                	sw	s7,204(sp)
   10e62:	c5d2                	sw	s4,200(sp)
   10e64:	479d                	li	a5,7
   10e66:	0547c8e3          	blt	a5,s4,116b6 <_svfprintf_r+0xcf2>
   10e6a:	57a2                	lw	a5,40(sp)
   10e6c:	5732                	lw	a4,44(sp)
   10e6e:	0a05                	add	s4,s4,1
   10e70:	9bbe                	add	s7,s7,a5
   10e72:	00fda223          	sw	a5,4(s11)
   10e76:	00eda023          	sw	a4,0(s11)
   10e7a:	c7de                	sw	s7,204(sp)
   10e7c:	c5d2                	sw	s4,200(sp)
   10e7e:	479d                	li	a5,7
   10e80:	0da1                	add	s11,s11,8
   10e82:	0547c6e3          	blt	a5,s4,116ce <_svfprintf_r+0xd0a>
   10e86:	47ce                	lw	a5,208(sp)
   10e88:	010c                	add	a1,sp,128
   10e8a:	0908                	add	a0,sp,144
   10e8c:	c93e                	sw	a5,144(sp)
   10e8e:	47de                	lw	a5,212(sp)
   10e90:	c102                	sw	zero,128(sp)
   10e92:	c302                	sw	zero,132(sp)
   10e94:	cb3e                	sw	a5,148(sp)
   10e96:	47ee                	lw	a5,216(sp)
   10e98:	c502                	sw	zero,136(sp)
   10e9a:	c702                	sw	zero,140(sp)
   10e9c:	cd3e                	sw	a5,152(sp)
   10e9e:	47fe                	lw	a5,220(sp)
   10ea0:	cf3e                	sw	a5,156(sp)
   10ea2:	47e2                	lw	a5,24(sp)
   10ea4:	fff78493          	add	s1,a5,-1
   10ea8:	1020a0ef          	jal	1afaa <__eqtf2>
   10eac:	76050b63          	beqz	a0,11622 <_svfprintf_r+0xc5e>
   10eb0:	001c8313          	add	t1,s9,1
   10eb4:	0a05                	add	s4,s4,1
   10eb6:	9ba6                	add	s7,s7,s1
   10eb8:	006da023          	sw	t1,0(s11)
   10ebc:	009da223          	sw	s1,4(s11)
   10ec0:	c7de                	sw	s7,204(sp)
   10ec2:	c5d2                	sw	s4,200(sp)
   10ec4:	479d                	li	a5,7
   10ec6:	0da1                	add	s11,s11,8
   10ec8:	7547c263          	blt	a5,s4,1160c <_svfprintf_r+0xc48>
   10ecc:	5772                	lw	a4,60(sp)
   10ece:	1954                	add	a3,sp,180
   10ed0:	001a0793          	add	a5,s4,1
   10ed4:	01770633          	add	a2,a4,s7
   10ed8:	00dda023          	sw	a3,0(s11)
   10edc:	00eda223          	sw	a4,4(s11)
   10ee0:	c7b2                	sw	a2,204(sp)
   10ee2:	c5be                	sw	a5,200(sp)
   10ee4:	469d                	li	a3,7
   10ee6:	008d8493          	add	s1,s11,8
   10eea:	caf6dae3          	bge	a3,a5,10b9e <_svfprintf_r+0x1da>
   10eee:	4592                	lw	a1,4(sp)
   10ef0:	01d0                	add	a2,sp,196
   10ef2:	8556                	mv	a0,s5
   10ef4:	139030ef          	jal	1482c <__ssprint_r>
   10ef8:	4c051163          	bnez	a0,113ba <_svfprintf_r+0x9f6>
   10efc:	463e                	lw	a2,204(sp)
   10efe:	84ca                	mv	s1,s2
   10f00:	b979                	j	10b9e <_svfprintf_r+0x1da>
   10f02:	4742                	lw	a4,16(sp)
   10f04:	010b7793          	and	a5,s6,16
   10f08:	00072d03          	lw	s10,0(a4)
   10f0c:	0711                	add	a4,a4,4
   10f0e:	c83a                	sw	a4,16(sp)
   10f10:	7e079963          	bnez	a5,11702 <_svfprintf_r+0xd3e>
   10f14:	040b7793          	and	a5,s6,64
   10f18:	7e078163          	beqz	a5,116fa <_svfprintf_r+0xd36>
   10f1c:	0d42                	sll	s10,s10,0x10
   10f1e:	010d5d13          	srl	s10,s10,0x10
   10f22:	4d81                	li	s11,0
   10f24:	bbc9                	j	10cf6 <_svfprintf_r+0x332>
   10f26:	4742                	lw	a4,16(sp)
   10f28:	010b7793          	and	a5,s6,16
   10f2c:	00072d03          	lw	s10,0(a4)
   10f30:	0711                	add	a4,a4,4
   10f32:	c83a                	sw	a4,16(sp)
   10f34:	7c079e63          	bnez	a5,11710 <_svfprintf_r+0xd4c>
   10f38:	040b7793          	and	a5,s6,64
   10f3c:	7c078663          	beqz	a5,11708 <_svfprintf_r+0xd44>
   10f40:	0d42                	sll	s10,s10,0x10
   10f42:	410d5d13          	sra	s10,s10,0x10
   10f46:	41fd5d93          	sra	s11,s10,0x1f
   10f4a:	87ee                	mv	a5,s11
   10f4c:	d207dfe3          	bgez	a5,10c8a <_svfprintf_r+0x2c6>
   10f50:	02d00713          	li	a4,45
   10f54:	01a037b3          	snez	a5,s10
   10f58:	41b00db3          	neg	s11,s11
   10f5c:	0ae103a3          	sb	a4,167(sp)
   10f60:	40fd8db3          	sub	s11,s11,a5
   10f64:	41a00d33          	neg	s10,s10
   10f68:	8fda                	mv	t6,s6
   10f6a:	4785                	li	a5,1
   10f6c:	d80a5de3          	bgez	s4,10d06 <_svfprintf_r+0x342>
   10f70:	4705                	li	a4,1
   10f72:	d2e785e3          	beq	a5,a4,10c9c <_svfprintf_r+0x2d8>
   10f76:	4709                	li	a4,2
   10f78:	2ce78963          	beq	a5,a4,1124a <_svfprintf_r+0x886>
   10f7c:	19010c93          	add	s9,sp,400
   10f80:	01dd9713          	sll	a4,s11,0x1d
   10f84:	007d7793          	and	a5,s10,7
   10f88:	003d5d13          	srl	s10,s10,0x3
   10f8c:	03078793          	add	a5,a5,48
   10f90:	01a76d33          	or	s10,a4,s10
   10f94:	003ddd93          	srl	s11,s11,0x3
   10f98:	fefc8fa3          	sb	a5,-1(s9)
   10f9c:	01bd6733          	or	a4,s10,s11
   10fa0:	86e6                	mv	a3,s9
   10fa2:	1cfd                	add	s9,s9,-1
   10fa4:	ff71                	bnez	a4,10f80 <_svfprintf_r+0x5bc>
   10fa6:	001ff713          	and	a4,t6,1
   10faa:	2c070663          	beqz	a4,11276 <_svfprintf_r+0x8b2>
   10fae:	03000713          	li	a4,48
   10fb2:	2ce78263          	beq	a5,a4,11276 <_svfprintf_r+0x8b2>
   10fb6:	16f9                	add	a3,a3,-2
   10fb8:	0b1c                	add	a5,sp,400
   10fba:	feec8fa3          	sb	a4,-1(s9)
   10fbe:	40d78db3          	sub	s11,a5,a3
   10fc2:	8b7e                	mv	s6,t6
   10fc4:	8cb6                	mv	s9,a3
   10fc6:	b9c5                	j	10cb6 <_svfprintf_r+0x2f2>
   10fc8:	47c2                	lw	a5,16(sp)
   10fca:	0a0103a3          	sb	zero,167(sp)
   10fce:	0007ac83          	lw	s9,0(a5)
   10fd2:	00478b93          	add	s7,a5,4
   10fd6:	4a0c88e3          	beqz	s9,11c86 <_svfprintf_r+0x12c2>
   10fda:	080a48e3          	bltz	s4,1186a <_svfprintf_r+0xea6>
   10fde:	8652                	mv	a2,s4
   10fe0:	4581                	li	a1,0
   10fe2:	8566                	mv	a0,s9
   10fe4:	c846                	sw	a7,16(sp)
   10fe6:	626040ef          	jal	1560c <memchr>
   10fea:	c62a                	sw	a0,12(sp)
   10fec:	48c2                	lw	a7,16(sp)
   10fee:	e119                	bnez	a0,10ff4 <_svfprintf_r+0x630>
   10ff0:	3620106f          	j	12352 <_svfprintf_r+0x198e>
   10ff4:	47b2                	lw	a5,12(sp)
   10ff6:	c85e                	sw	s7,16(sp)
   10ff8:	c602                	sw	zero,12(sp)
   10ffa:	41978db3          	sub	s11,a5,s9
   10ffe:	0a714783          	lbu	a5,167(sp)
   11002:	fffdc713          	not	a4,s11
   11006:	877d                	sra	a4,a4,0x1f
   11008:	d002                	sw	zero,32(sp)
   1100a:	ce02                	sw	zero,28(sp)
   1100c:	ca02                	sw	zero,20(sp)
   1100e:	00edfd33          	and	s10,s11,a4
   11012:	4a01                	li	s4,0
   11014:	ca079de3          	bnez	a5,10cce <_svfprintf_r+0x30a>
   11018:	bce5                	j	10b10 <_svfprintf_r+0x14c>
   1101a:	4742                	lw	a4,16(sp)
   1101c:	0a0103a3          	sb	zero,167(sp)
   11020:	4d05                	li	s10,1
   11022:	431c                	lw	a5,0(a4)
   11024:	0711                	add	a4,a4,4
   11026:	c83a                	sw	a4,16(sp)
   11028:	12f10623          	sb	a5,300(sp)
   1102c:	4d85                	li	s11,1
   1102e:	12c10c93          	add	s9,sp,300
   11032:	bcd1                	j	10b06 <_svfprintf_r+0x142>
   11034:	47c2                	lw	a5,16(sp)
   11036:	0007ac03          	lw	s8,0(a5)
   1103a:	0791                	add	a5,a5,4
   1103c:	6a0c5a63          	bgez	s8,116f0 <_svfprintf_r+0xd2c>
   11040:	41800c33          	neg	s8,s8
   11044:	c83e                	sw	a5,16(sp)
   11046:	0009c883          	lbu	a7,0(s3)
   1104a:	004b6b13          	or	s6,s6,4
   1104e:	b485                	j	10aae <_svfprintf_r+0xea>
   11050:	02b00793          	li	a5,43
   11054:	0009c883          	lbu	a7,0(s3)
   11058:	0af103a3          	sb	a5,167(sp)
   1105c:	bc89                	j	10aae <_svfprintf_r+0xea>
   1105e:	0009c883          	lbu	a7,0(s3)
   11062:	080b6b13          	or	s6,s6,128
   11066:	b4a1                	j	10aae <_svfprintf_r+0xea>
   11068:	0009c883          	lbu	a7,0(s3)
   1106c:	02a00793          	li	a5,42
   11070:	00198693          	add	a3,s3,1
   11074:	00f89463          	bne	a7,a5,1107c <_svfprintf_r+0x6b8>
   11078:	5140106f          	j	1258c <_svfprintf_r+0x1bc8>
   1107c:	fd088793          	add	a5,a7,-48
   11080:	4725                	li	a4,9
   11082:	4a01                	li	s4,0
   11084:	4625                	li	a2,9
   11086:	02f76063          	bltu	a4,a5,110a6 <_svfprintf_r+0x6e2>
   1108a:	0006c883          	lbu	a7,0(a3)
   1108e:	002a1713          	sll	a4,s4,0x2
   11092:	9a3a                	add	s4,s4,a4
   11094:	0a06                	sll	s4,s4,0x1
   11096:	9a3e                	add	s4,s4,a5
   11098:	fd088793          	add	a5,a7,-48
   1109c:	0685                	add	a3,a3,1
   1109e:	fef676e3          	bgeu	a2,a5,1108a <_svfprintf_r+0x6c6>
   110a2:	6c0a4963          	bltz	s4,11774 <_svfprintf_r+0xdb0>
   110a6:	89b6                	mv	s3,a3
   110a8:	b421                	j	10ab0 <_svfprintf_r+0xec>
   110aa:	0009c883          	lbu	a7,0(s3)
   110ae:	001b6b13          	or	s6,s6,1
   110b2:	baf5                	j	10aae <_svfprintf_r+0xea>
   110b4:	0a714783          	lbu	a5,167(sp)
   110b8:	0009c883          	lbu	a7,0(s3)
   110bc:	9e0799e3          	bnez	a5,10aae <_svfprintf_r+0xea>
   110c0:	02000793          	li	a5,32
   110c4:	0af103a3          	sb	a5,167(sp)
   110c8:	b2dd                	j	10aae <_svfprintf_r+0xea>
   110ca:	010b6f93          	or	t6,s6,16
   110ce:	020ff793          	and	a5,t6,32
   110d2:	5a078263          	beqz	a5,11676 <_svfprintf_r+0xcb2>
   110d6:	47c2                	lw	a5,16(sp)
   110d8:	00778b93          	add	s7,a5,7
   110dc:	ff8bfb93          	and	s7,s7,-8
   110e0:	008b8793          	add	a5,s7,8
   110e4:	c83e                	sw	a5,16(sp)
   110e6:	000bad03          	lw	s10,0(s7)
   110ea:	004bad83          	lw	s11,4(s7)
   110ee:	4785                	li	a5,1
   110f0:	b131                	j	10cfc <_svfprintf_r+0x338>
   110f2:	0009c883          	lbu	a7,0(s3)
   110f6:	008b6b13          	or	s6,s6,8
   110fa:	ba55                	j	10aae <_svfprintf_r+0xea>
   110fc:	4742                	lw	a4,16(sp)
   110fe:	67a1                	lui	a5,0x8
   11100:	83078793          	add	a5,a5,-2000 # 7830 <register_fini-0x8864>
   11104:	0af11423          	sh	a5,168(sp)
   11108:	00470793          	add	a5,a4,4
   1110c:	c83e                	sw	a5,16(sp)
   1110e:	0000c797          	auipc	a5,0xc
   11112:	3ca78793          	add	a5,a5,970 # 1d4d8 <__clzsi2+0x9c>
   11116:	d83e                	sw	a5,48(sp)
   11118:	00072d03          	lw	s10,0(a4)
   1111c:	4d81                	li	s11,0
   1111e:	002b6f93          	or	t6,s6,2
   11122:	4789                	li	a5,2
   11124:	07800893          	li	a7,120
   11128:	bed1                	j	10cfc <_svfprintf_r+0x338>
   1112a:	020b7793          	and	a5,s6,32
   1112e:	60078363          	beqz	a5,11734 <_svfprintf_r+0xd70>
   11132:	47c2                	lw	a5,16(sp)
   11134:	46a2                	lw	a3,8(sp)
   11136:	439c                	lw	a5,0(a5)
   11138:	41f6d713          	sra	a4,a3,0x1f
   1113c:	c394                	sw	a3,0(a5)
   1113e:	c3d8                	sw	a4,4(a5)
   11140:	47c2                	lw	a5,16(sp)
   11142:	8cce                	mv	s9,s3
   11144:	0791                	add	a5,a5,4
   11146:	c83e                	sw	a5,16(sp)
   11148:	b469                	j	10bd2 <_svfprintf_r+0x20e>
   1114a:	0009c883          	lbu	a7,0(s3)
   1114e:	06c00793          	li	a5,108
   11152:	6af88e63          	beq	a7,a5,1180e <_svfprintf_r+0xe4a>
   11156:	010b6b13          	or	s6,s6,16
   1115a:	ba91                	j	10aae <_svfprintf_r+0xea>
   1115c:	0009c883          	lbu	a7,0(s3)
   11160:	06800793          	li	a5,104
   11164:	68f88863          	beq	a7,a5,117f4 <_svfprintf_r+0xe30>
   11168:	040b6b13          	or	s6,s6,64
   1116c:	b289                	j	10aae <_svfprintf_r+0xea>
   1116e:	06500793          	li	a5,101
   11172:	cd17d8e3          	bge	a5,a7,10e42 <_svfprintf_r+0x47e>
   11176:	47ce                	lw	a5,208(sp)
   11178:	010c                	add	a1,sp,128
   1117a:	0908                	add	a0,sp,144
   1117c:	c93e                	sw	a5,144(sp)
   1117e:	47de                	lw	a5,212(sp)
   11180:	da32                	sw	a2,52(sp)
   11182:	c102                	sw	zero,128(sp)
   11184:	cb3e                	sw	a5,148(sp)
   11186:	47ee                	lw	a5,216(sp)
   11188:	c302                	sw	zero,132(sp)
   1118a:	c502                	sw	zero,136(sp)
   1118c:	cd3e                	sw	a5,152(sp)
   1118e:	47fe                	lw	a5,220(sp)
   11190:	c702                	sw	zero,140(sp)
   11192:	cf3e                	sw	a5,156(sp)
   11194:	617090ef          	jal	1afaa <__eqtf2>
   11198:	5652                	lw	a2,52(sp)
   1119a:	36051663          	bnez	a0,11506 <_svfprintf_r+0xb42>
   1119e:	47ae                	lw	a5,200(sp)
   111a0:	0000c697          	auipc	a3,0xc
   111a4:	36868693          	add	a3,a3,872 # 1d508 <__clzsi2+0xcc>
   111a8:	c094                	sw	a3,0(s1)
   111aa:	0605                	add	a2,a2,1
   111ac:	4685                	li	a3,1
   111ae:	0785                	add	a5,a5,1
   111b0:	c0d4                	sw	a3,4(s1)
   111b2:	c7b2                	sw	a2,204(sp)
   111b4:	c5be                	sw	a5,200(sp)
   111b6:	469d                	li	a3,7
   111b8:	04a1                	add	s1,s1,8
   111ba:	20f6c9e3          	blt	a3,a5,11bcc <_svfprintf_r+0x1208>
   111be:	57ba                	lw	a5,172(sp)
   111c0:	4762                	lw	a4,24(sp)
   111c2:	52e7d263          	bge	a5,a4,116e6 <_svfprintf_r+0xd22>
   111c6:	57b2                	lw	a5,44(sp)
   111c8:	5722                	lw	a4,40(sp)
   111ca:	469d                	li	a3,7
   111cc:	c09c                	sw	a5,0(s1)
   111ce:	47ae                	lw	a5,200(sp)
   111d0:	963a                	add	a2,a2,a4
   111d2:	c0d8                	sw	a4,4(s1)
   111d4:	0785                	add	a5,a5,1
   111d6:	c7b2                	sw	a2,204(sp)
   111d8:	c5be                	sw	a5,200(sp)
   111da:	04a1                	add	s1,s1,8
   111dc:	60f6c263          	blt	a3,a5,117e0 <_svfprintf_r+0xe1c>
   111e0:	47e2                	lw	a5,24(sp)
   111e2:	fff78a13          	add	s4,a5,-1
   111e6:	9b405ce3          	blez	s4,10b9e <_svfprintf_r+0x1da>
   111ea:	46c1                	li	a3,16
   111ec:	47ae                	lw	a5,200(sp)
   111ee:	0146c463          	blt	a3,s4,111f6 <_svfprintf_r+0x832>
   111f2:	3720106f          	j	12564 <_svfprintf_r+0x1ba0>
   111f6:	0000c697          	auipc	a3,0xc
   111fa:	52a68693          	add	a3,a3,1322 # 1d720 <zeroes.0>
   111fe:	4dc1                	li	s11,16
   11200:	4b9d                	li	s7,7
   11202:	8cb6                	mv	s9,a3
   11204:	a021                	j	1120c <_svfprintf_r+0x848>
   11206:	1a41                	add	s4,s4,-16
   11208:	1d4ddde3          	bge	s11,s4,11be2 <_svfprintf_r+0x121e>
   1120c:	0641                	add	a2,a2,16
   1120e:	0785                	add	a5,a5,1
   11210:	0194a023          	sw	s9,0(s1)
   11214:	01b4a223          	sw	s11,4(s1)
   11218:	c7b2                	sw	a2,204(sp)
   1121a:	c5be                	sw	a5,200(sp)
   1121c:	04a1                	add	s1,s1,8
   1121e:	fefbd4e3          	bge	s7,a5,11206 <_svfprintf_r+0x842>
   11222:	4592                	lw	a1,4(sp)
   11224:	01d0                	add	a2,sp,196
   11226:	8556                	mv	a0,s5
   11228:	604030ef          	jal	1482c <__ssprint_r>
   1122c:	18051763          	bnez	a0,113ba <_svfprintf_r+0x9f6>
   11230:	463e                	lw	a2,204(sp)
   11232:	47ae                	lw	a5,200(sp)
   11234:	84ca                	mv	s1,s2
   11236:	bfc1                	j	11206 <_svfprintf_r+0x842>
   11238:	4705                	li	a4,1
   1123a:	00e79463          	bne	a5,a4,11242 <_svfprintf_r+0x87e>
   1123e:	1f80106f          	j	12436 <_svfprintf_r+0x1a72>
   11242:	4709                	li	a4,2
   11244:	8fda                	mv	t6,s6
   11246:	d2e79be3          	bne	a5,a4,10f7c <_svfprintf_r+0x5b8>
   1124a:	56c2                	lw	a3,48(sp)
   1124c:	19010c93          	add	s9,sp,400
   11250:	00fd7793          	and	a5,s10,15
   11254:	97b6                	add	a5,a5,a3
   11256:	0007c703          	lbu	a4,0(a5)
   1125a:	004d5d13          	srl	s10,s10,0x4
   1125e:	01cd9793          	sll	a5,s11,0x1c
   11262:	01a7ed33          	or	s10,a5,s10
   11266:	004ddd93          	srl	s11,s11,0x4
   1126a:	feec8fa3          	sb	a4,-1(s9)
   1126e:	01bd67b3          	or	a5,s10,s11
   11272:	1cfd                	add	s9,s9,-1
   11274:	fff1                	bnez	a5,11250 <_svfprintf_r+0x88c>
   11276:	0b1c                	add	a5,sp,400
   11278:	41978db3          	sub	s11,a5,s9
   1127c:	8b7e                	mv	s6,t6
   1127e:	bc25                	j	10cb6 <_svfprintf_r+0x2f2>
   11280:	41ac0bb3          	sub	s7,s8,s10
   11284:	8f7058e3          	blez	s7,10b74 <_svfprintf_r+0x1b0>
   11288:	46c1                	li	a3,16
   1128a:	45ae                	lw	a1,200(sp)
   1128c:	0176c463          	blt	a3,s7,11294 <_svfprintf_r+0x8d0>
   11290:	1b80106f          	j	12448 <_svfprintf_r+0x1a84>
   11294:	0000c697          	auipc	a3,0xc
   11298:	48c68693          	add	a3,a3,1164 # 1d720 <zeroes.0>
   1129c:	da4e                	sw	s3,52(sp)
   1129e:	87a6                	mv	a5,s1
   112a0:	4841                	li	a6,16
   112a2:	84de                	mv	s1,s7
   112a4:	4f9d                	li	t6,7
   112a6:	8bd2                	mv	s7,s4
   112a8:	89b6                	mv	s3,a3
   112aa:	8a46                	mv	s4,a7
   112ac:	a021                	j	112b4 <_svfprintf_r+0x8f0>
   112ae:	14c1                	add	s1,s1,-16
   112b0:	02985b63          	bge	a6,s1,112e6 <_svfprintf_r+0x922>
   112b4:	0641                	add	a2,a2,16
   112b6:	0585                	add	a1,a1,1
   112b8:	0137a023          	sw	s3,0(a5)
   112bc:	0107a223          	sw	a6,4(a5)
   112c0:	c7b2                	sw	a2,204(sp)
   112c2:	c5ae                	sw	a1,200(sp)
   112c4:	07a1                	add	a5,a5,8
   112c6:	febfd4e3          	bge	t6,a1,112ae <_svfprintf_r+0x8ea>
   112ca:	4592                	lw	a1,4(sp)
   112cc:	01d0                	add	a2,sp,196
   112ce:	8556                	mv	a0,s5
   112d0:	55c030ef          	jal	1482c <__ssprint_r>
   112d4:	e17d                	bnez	a0,113ba <_svfprintf_r+0x9f6>
   112d6:	4841                	li	a6,16
   112d8:	14c1                	add	s1,s1,-16
   112da:	463e                	lw	a2,204(sp)
   112dc:	45ae                	lw	a1,200(sp)
   112de:	87ca                	mv	a5,s2
   112e0:	4f9d                	li	t6,7
   112e2:	fc9849e3          	blt	a6,s1,112b4 <_svfprintf_r+0x8f0>
   112e6:	86ce                	mv	a3,s3
   112e8:	59d2                	lw	s3,52(sp)
   112ea:	88d2                	mv	a7,s4
   112ec:	8a5e                	mv	s4,s7
   112ee:	8ba6                	mv	s7,s1
   112f0:	84be                	mv	s1,a5
   112f2:	965e                	add	a2,a2,s7
   112f4:	0585                	add	a1,a1,1
   112f6:	c094                	sw	a3,0(s1)
   112f8:	0174a223          	sw	s7,4(s1)
   112fc:	c7b2                	sw	a2,204(sp)
   112fe:	c5ae                	sw	a1,200(sp)
   11300:	479d                	li	a5,7
   11302:	04a1                	add	s1,s1,8
   11304:	86b7d8e3          	bge	a5,a1,10b74 <_svfprintf_r+0x1b0>
   11308:	4592                	lw	a1,4(sp)
   1130a:	01d0                	add	a2,sp,196
   1130c:	8556                	mv	a0,s5
   1130e:	da46                	sw	a7,52(sp)
   11310:	51c030ef          	jal	1482c <__ssprint_r>
   11314:	e15d                	bnez	a0,113ba <_svfprintf_r+0x9f6>
   11316:	41ba0a33          	sub	s4,s4,s11
   1131a:	463e                	lw	a2,204(sp)
   1131c:	58d2                	lw	a7,52(sp)
   1131e:	84ca                	mv	s1,s2
   11320:	85405ee3          	blez	s4,10b7c <_svfprintf_r+0x1b8>
   11324:	45ae                	lw	a1,200(sp)
   11326:	0000c697          	auipc	a3,0xc
   1132a:	3fa68693          	add	a3,a3,1018 # 1d720 <zeroes.0>
   1132e:	05445863          	bge	s0,s4,1137e <_svfprintf_r+0x9ba>
   11332:	87a6                	mv	a5,s1
   11334:	4b9d                	li	s7,7
   11336:	84d2                	mv	s1,s4
   11338:	da46                	sw	a7,52(sp)
   1133a:	8a36                	mv	s4,a3
   1133c:	a021                	j	11344 <_svfprintf_r+0x980>
   1133e:	14c1                	add	s1,s1,-16
   11340:	02945b63          	bge	s0,s1,11376 <_svfprintf_r+0x9b2>
   11344:	0641                	add	a2,a2,16
   11346:	0585                	add	a1,a1,1
   11348:	0000c717          	auipc	a4,0xc
   1134c:	3d870713          	add	a4,a4,984 # 1d720 <zeroes.0>
   11350:	c398                	sw	a4,0(a5)
   11352:	c3c0                	sw	s0,4(a5)
   11354:	c7b2                	sw	a2,204(sp)
   11356:	c5ae                	sw	a1,200(sp)
   11358:	07a1                	add	a5,a5,8
   1135a:	febbd2e3          	bge	s7,a1,1133e <_svfprintf_r+0x97a>
   1135e:	4592                	lw	a1,4(sp)
   11360:	01d0                	add	a2,sp,196
   11362:	8556                	mv	a0,s5
   11364:	4c8030ef          	jal	1482c <__ssprint_r>
   11368:	e929                	bnez	a0,113ba <_svfprintf_r+0x9f6>
   1136a:	14c1                	add	s1,s1,-16
   1136c:	463e                	lw	a2,204(sp)
   1136e:	45ae                	lw	a1,200(sp)
   11370:	87ca                	mv	a5,s2
   11372:	fc9449e3          	blt	s0,s1,11344 <_svfprintf_r+0x980>
   11376:	58d2                	lw	a7,52(sp)
   11378:	86d2                	mv	a3,s4
   1137a:	8a26                	mv	s4,s1
   1137c:	84be                	mv	s1,a5
   1137e:	9652                	add	a2,a2,s4
   11380:	0585                	add	a1,a1,1
   11382:	c094                	sw	a3,0(s1)
   11384:	0144a223          	sw	s4,4(s1)
   11388:	c7b2                	sw	a2,204(sp)
   1138a:	c5ae                	sw	a1,200(sp)
   1138c:	479d                	li	a5,7
   1138e:	04a1                	add	s1,s1,8
   11390:	feb7d663          	bge	a5,a1,10b7c <_svfprintf_r+0x1b8>
   11394:	4592                	lw	a1,4(sp)
   11396:	01d0                	add	a2,sp,196
   11398:	8556                	mv	a0,s5
   1139a:	da46                	sw	a7,52(sp)
   1139c:	490030ef          	jal	1482c <__ssprint_r>
   113a0:	ed09                	bnez	a0,113ba <_svfprintf_r+0x9f6>
   113a2:	463e                	lw	a2,204(sp)
   113a4:	58d2                	lw	a7,52(sp)
   113a6:	84ca                	mv	s1,s2
   113a8:	fd4ff06f          	j	10b7c <_svfprintf_r+0x1b8>
   113ac:	4592                	lw	a1,4(sp)
   113ae:	01d0                	add	a2,sp,196
   113b0:	8556                	mv	a0,s5
   113b2:	47a030ef          	jal	1482c <__ssprint_r>
   113b6:	800505e3          	beqz	a0,10bc0 <_svfprintf_r+0x1fc>
   113ba:	43b2                	lw	t2,12(sp)
   113bc:	820383e3          	beqz	t2,10be2 <_svfprintf_r+0x21e>
   113c0:	5512                	lw	a0,36(sp)
   113c2:	859e                	mv	a1,t2
   113c4:	65b010ef          	jal	1321e <_free_r>
   113c8:	81bff06f          	j	10be2 <_svfprintf_r+0x21e>
   113cc:	8fda                	mv	t6,s6
   113ce:	b64d                	j	10f70 <_svfprintf_r+0x5ac>
   113d0:	46c1                	li	a3,16
   113d2:	45ae                	lw	a1,200(sp)
   113d4:	0000cb97          	auipc	s7,0xc
   113d8:	33cb8b93          	add	s7,s7,828 # 1d710 <blanks.1>
   113dc:	06f6d063          	bge	a3,a5,1143c <_svfprintf_r+0xa78>
   113e0:	da4e                	sw	s3,52(sp)
   113e2:	8726                	mv	a4,s1
   113e4:	89de                	mv	s3,s7
   113e6:	46c1                	li	a3,16
   113e8:	8bd2                	mv	s7,s4
   113ea:	439d                	li	t2,7
   113ec:	c496                	sw	t0,72(sp)
   113ee:	c6fe                	sw	t6,76(sp)
   113f0:	84be                	mv	s1,a5
   113f2:	8a46                	mv	s4,a7
   113f4:	a021                	j	113fc <_svfprintf_r+0xa38>
   113f6:	14c1                	add	s1,s1,-16
   113f8:	0296da63          	bge	a3,s1,1142c <_svfprintf_r+0xa68>
   113fc:	0641                	add	a2,a2,16
   113fe:	0585                	add	a1,a1,1
   11400:	01372023          	sw	s3,0(a4)
   11404:	c354                	sw	a3,4(a4)
   11406:	c7b2                	sw	a2,204(sp)
   11408:	c5ae                	sw	a1,200(sp)
   1140a:	0721                	add	a4,a4,8
   1140c:	feb3d5e3          	bge	t2,a1,113f6 <_svfprintf_r+0xa32>
   11410:	4592                	lw	a1,4(sp)
   11412:	01d0                	add	a2,sp,196
   11414:	8556                	mv	a0,s5
   11416:	416030ef          	jal	1482c <__ssprint_r>
   1141a:	f145                	bnez	a0,113ba <_svfprintf_r+0x9f6>
   1141c:	46c1                	li	a3,16
   1141e:	14c1                	add	s1,s1,-16
   11420:	463e                	lw	a2,204(sp)
   11422:	45ae                	lw	a1,200(sp)
   11424:	874a                	mv	a4,s2
   11426:	439d                	li	t2,7
   11428:	fc96cae3          	blt	a3,s1,113fc <_svfprintf_r+0xa38>
   1142c:	88d2                	mv	a7,s4
   1142e:	42a6                	lw	t0,72(sp)
   11430:	8a5e                	mv	s4,s7
   11432:	4fb6                	lw	t6,76(sp)
   11434:	8bce                	mv	s7,s3
   11436:	59d2                	lw	s3,52(sp)
   11438:	87a6                	mv	a5,s1
   1143a:	84ba                	mv	s1,a4
   1143c:	963e                	add	a2,a2,a5
   1143e:	0585                	add	a1,a1,1
   11440:	c0dc                	sw	a5,4(s1)
   11442:	0174a023          	sw	s7,0(s1)
   11446:	c7b2                	sw	a2,204(sp)
   11448:	c5ae                	sw	a1,200(sp)
   1144a:	479d                	li	a5,7
   1144c:	04a1                	add	s1,s1,8
   1144e:	ecb7df63          	bge	a5,a1,10b2c <_svfprintf_r+0x168>
   11452:	4592                	lw	a1,4(sp)
   11454:	01d0                	add	a2,sp,196
   11456:	8556                	mv	a0,s5
   11458:	c6c6                	sw	a7,76(sp)
   1145a:	c4fe                	sw	t6,72(sp)
   1145c:	da16                	sw	t0,52(sp)
   1145e:	3ce030ef          	jal	1482c <__ssprint_r>
   11462:	fd21                	bnez	a0,113ba <_svfprintf_r+0x9f6>
   11464:	463e                	lw	a2,204(sp)
   11466:	48b6                	lw	a7,76(sp)
   11468:	4fa6                	lw	t6,72(sp)
   1146a:	52d2                	lw	t0,52(sp)
   1146c:	84ca                	mv	s1,s2
   1146e:	ebeff06f          	j	10b2c <_svfprintf_r+0x168>
   11472:	4592                	lw	a1,4(sp)
   11474:	01d0                	add	a2,sp,196
   11476:	8556                	mv	a0,s5
   11478:	c4c6                	sw	a7,72(sp)
   1147a:	da7e                	sw	t6,52(sp)
   1147c:	3b0030ef          	jal	1482c <__ssprint_r>
   11480:	fd0d                	bnez	a0,113ba <_svfprintf_r+0x9f6>
   11482:	463e                	lw	a2,204(sp)
   11484:	48a6                	lw	a7,72(sp)
   11486:	5fd2                	lw	t6,52(sp)
   11488:	84ca                	mv	s1,s2
   1148a:	ee2ff06f          	j	10b6c <_svfprintf_r+0x1a8>
   1148e:	46c1                	li	a3,16
   11490:	47ae                	lw	a5,200(sp)
   11492:	0000cb97          	auipc	s7,0xc
   11496:	27eb8b93          	add	s7,s7,638 # 1d710 <blanks.1>
   1149a:	0546d163          	bge	a3,s4,114dc <_svfprintf_r+0xb18>
   1149e:	4c92                	lw	s9,4(sp)
   114a0:	4dc1                	li	s11,16
   114a2:	4b1d                	li	s6,7
   114a4:	a021                	j	114ac <_svfprintf_r+0xae8>
   114a6:	1a41                	add	s4,s4,-16
   114a8:	034dda63          	bge	s11,s4,114dc <_svfprintf_r+0xb18>
   114ac:	0641                	add	a2,a2,16
   114ae:	0785                	add	a5,a5,1
   114b0:	0174a023          	sw	s7,0(s1)
   114b4:	01b4a223          	sw	s11,4(s1)
   114b8:	c7b2                	sw	a2,204(sp)
   114ba:	c5be                	sw	a5,200(sp)
   114bc:	04a1                	add	s1,s1,8
   114be:	fefb54e3          	bge	s6,a5,114a6 <_svfprintf_r+0xae2>
   114c2:	01d0                	add	a2,sp,196
   114c4:	85e6                	mv	a1,s9
   114c6:	8556                	mv	a0,s5
   114c8:	364030ef          	jal	1482c <__ssprint_r>
   114cc:	ee0517e3          	bnez	a0,113ba <_svfprintf_r+0x9f6>
   114d0:	1a41                	add	s4,s4,-16
   114d2:	463e                	lw	a2,204(sp)
   114d4:	47ae                	lw	a5,200(sp)
   114d6:	84ca                	mv	s1,s2
   114d8:	fd4dcae3          	blt	s11,s4,114ac <_svfprintf_r+0xae8>
   114dc:	9652                	add	a2,a2,s4
   114de:	0785                	add	a5,a5,1
   114e0:	0174a023          	sw	s7,0(s1)
   114e4:	0144a223          	sw	s4,4(s1)
   114e8:	c7b2                	sw	a2,204(sp)
   114ea:	c5be                	sw	a5,200(sp)
   114ec:	469d                	li	a3,7
   114ee:	ecf6d063          	bge	a3,a5,10bae <_svfprintf_r+0x1ea>
   114f2:	4592                	lw	a1,4(sp)
   114f4:	01d0                	add	a2,sp,196
   114f6:	8556                	mv	a0,s5
   114f8:	334030ef          	jal	1482c <__ssprint_r>
   114fc:	ea051fe3          	bnez	a0,113ba <_svfprintf_r+0x9f6>
   11500:	463e                	lw	a2,204(sp)
   11502:	eacff06f          	j	10bae <_svfprintf_r+0x1ea>
   11506:	56ba                	lw	a3,172(sp)
   11508:	64d05263          	blez	a3,11b4c <_svfprintf_r+0x1188>
   1150c:	47d2                	lw	a5,20(sp)
   1150e:	4762                	lw	a4,24(sp)
   11510:	8a3e                	mv	s4,a5
   11512:	24f74d63          	blt	a4,a5,1176c <_svfprintf_r+0xda8>
   11516:	01405f63          	blez	s4,11534 <_svfprintf_r+0xb70>
   1151a:	47ae                	lw	a5,200(sp)
   1151c:	9652                	add	a2,a2,s4
   1151e:	0194a023          	sw	s9,0(s1)
   11522:	0785                	add	a5,a5,1
   11524:	0144a223          	sw	s4,4(s1)
   11528:	c7b2                	sw	a2,204(sp)
   1152a:	c5be                	sw	a5,200(sp)
   1152c:	469d                	li	a3,7
   1152e:	04a1                	add	s1,s1,8
   11530:	0af6cfe3          	blt	a3,a5,11dee <_svfprintf_r+0x142a>
   11534:	fffa4793          	not	a5,s4
   11538:	87fd                	sra	a5,a5,0x1f
   1153a:	00fa7a33          	and	s4,s4,a5
   1153e:	47d2                	lw	a5,20(sp)
   11540:	41478a33          	sub	s4,a5,s4
   11544:	35404a63          	bgtz	s4,11898 <_svfprintf_r+0xed4>
   11548:	4752                	lw	a4,20(sp)
   1154a:	400b7793          	and	a5,s6,1024
   1154e:	00ec8bb3          	add	s7,s9,a4
   11552:	38079863          	bnez	a5,118e2 <_svfprintf_r+0xf1e>
   11556:	56ba                	lw	a3,172(sp)
   11558:	47e2                	lw	a5,24(sp)
   1155a:	4af6c563          	blt	a3,a5,11a04 <_svfprintf_r+0x1040>
   1155e:	001b7793          	and	a5,s6,1
   11562:	4a079163          	bnez	a5,11a04 <_svfprintf_r+0x1040>
   11566:	4762                	lw	a4,24(sp)
   11568:	00ec87b3          	add	a5,s9,a4
   1156c:	40d70a33          	sub	s4,a4,a3
   11570:	41778db3          	sub	s11,a5,s7
   11574:	01ba5363          	bge	s4,s11,1157a <_svfprintf_r+0xbb6>
   11578:	8dd2                	mv	s11,s4
   1157a:	01b05f63          	blez	s11,11598 <_svfprintf_r+0xbd4>
   1157e:	45ae                	lw	a1,200(sp)
   11580:	966e                	add	a2,a2,s11
   11582:	0174a023          	sw	s7,0(s1)
   11586:	0585                	add	a1,a1,1
   11588:	01b4a223          	sw	s11,4(s1)
   1158c:	c7b2                	sw	a2,204(sp)
   1158e:	c5ae                	sw	a1,200(sp)
   11590:	479d                	li	a5,7
   11592:	04a1                	add	s1,s1,8
   11594:	5eb7c1e3          	blt	a5,a1,12376 <_svfprintf_r+0x19b2>
   11598:	fffdc693          	not	a3,s11
   1159c:	86fd                	sra	a3,a3,0x1f
   1159e:	00ddf7b3          	and	a5,s11,a3
   115a2:	40fa0a33          	sub	s4,s4,a5
   115a6:	df405c63          	blez	s4,10b9e <_svfprintf_r+0x1da>
   115aa:	46c1                	li	a3,16
   115ac:	47ae                	lw	a5,200(sp)
   115ae:	0146c463          	blt	a3,s4,115b6 <_svfprintf_r+0xbf2>
   115b2:	7b30006f          	j	12564 <_svfprintf_r+0x1ba0>
   115b6:	0000c697          	auipc	a3,0xc
   115ba:	16a68693          	add	a3,a3,362 # 1d720 <zeroes.0>
   115be:	4dc1                	li	s11,16
   115c0:	4b9d                	li	s7,7
   115c2:	8cb6                	mv	s9,a3
   115c4:	a021                	j	115cc <_svfprintf_r+0xc08>
   115c6:	1a41                	add	s4,s4,-16
   115c8:	614ddd63          	bge	s11,s4,11be2 <_svfprintf_r+0x121e>
   115cc:	0641                	add	a2,a2,16
   115ce:	0785                	add	a5,a5,1
   115d0:	0194a023          	sw	s9,0(s1)
   115d4:	01b4a223          	sw	s11,4(s1)
   115d8:	c7b2                	sw	a2,204(sp)
   115da:	c5be                	sw	a5,200(sp)
   115dc:	04a1                	add	s1,s1,8
   115de:	fefbd4e3          	bge	s7,a5,115c6 <_svfprintf_r+0xc02>
   115e2:	4592                	lw	a1,4(sp)
   115e4:	01d0                	add	a2,sp,196
   115e6:	8556                	mv	a0,s5
   115e8:	244030ef          	jal	1482c <__ssprint_r>
   115ec:	dc0517e3          	bnez	a0,113ba <_svfprintf_r+0x9f6>
   115f0:	463e                	lw	a2,204(sp)
   115f2:	47ae                	lw	a5,200(sp)
   115f4:	84ca                	mv	s1,s2
   115f6:	bfc1                	j	115c6 <_svfprintf_r+0xc02>
   115f8:	001b7793          	and	a5,s6,1
   115fc:	860790e3          	bnez	a5,10e5c <_svfprintf_r+0x498>
   11600:	c0d4                	sw	a3,4(s1)
   11602:	c7de                	sw	s7,204(sp)
   11604:	c5d2                	sw	s4,200(sp)
   11606:	479d                	li	a5,7
   11608:	8d47d2e3          	bge	a5,s4,10ecc <_svfprintf_r+0x508>
   1160c:	4592                	lw	a1,4(sp)
   1160e:	01d0                	add	a2,sp,196
   11610:	8556                	mv	a0,s5
   11612:	21a030ef          	jal	1482c <__ssprint_r>
   11616:	da0512e3          	bnez	a0,113ba <_svfprintf_r+0x9f6>
   1161a:	4bbe                	lw	s7,204(sp)
   1161c:	4a2e                	lw	s4,200(sp)
   1161e:	8dca                	mv	s11,s2
   11620:	b075                	j	10ecc <_svfprintf_r+0x508>
   11622:	4762                	lw	a4,24(sp)
   11624:	4785                	li	a5,1
   11626:	8ae7d3e3          	bge	a5,a4,10ecc <_svfprintf_r+0x508>
   1162a:	47c5                	li	a5,17
   1162c:	0000c697          	auipc	a3,0xc
   11630:	0f468693          	add	a3,a3,244 # 1d720 <zeroes.0>
   11634:	6ce7dd63          	bge	a5,a4,11d0e <_svfprintf_r+0x134a>
   11638:	ca4e                	sw	s3,20(sp)
   1163a:	47c1                	li	a5,16
   1163c:	4c9d                	li	s9,7
   1163e:	89b6                	mv	s3,a3
   11640:	a021                	j	11648 <_svfprintf_r+0xc84>
   11642:	14c1                	add	s1,s1,-16
   11644:	6c97d363          	bge	a5,s1,11d0a <_svfprintf_r+0x1346>
   11648:	0bc1                	add	s7,s7,16
   1164a:	0a05                	add	s4,s4,1
   1164c:	013da023          	sw	s3,0(s11)
   11650:	00fda223          	sw	a5,4(s11)
   11654:	c7de                	sw	s7,204(sp)
   11656:	c5d2                	sw	s4,200(sp)
   11658:	0da1                	add	s11,s11,8
   1165a:	ff4cd4e3          	bge	s9,s4,11642 <_svfprintf_r+0xc7e>
   1165e:	4592                	lw	a1,4(sp)
   11660:	01d0                	add	a2,sp,196
   11662:	8556                	mv	a0,s5
   11664:	1c8030ef          	jal	1482c <__ssprint_r>
   11668:	d40519e3          	bnez	a0,113ba <_svfprintf_r+0x9f6>
   1166c:	4bbe                	lw	s7,204(sp)
   1166e:	4a2e                	lw	s4,200(sp)
   11670:	8dca                	mv	s11,s2
   11672:	47c1                	li	a5,16
   11674:	b7f9                	j	11642 <_svfprintf_r+0xc7e>
   11676:	4742                	lw	a4,16(sp)
   11678:	010ff793          	and	a5,t6,16
   1167c:	00072d03          	lw	s10,0(a4)
   11680:	0711                	add	a4,a4,4
   11682:	c83a                	sw	a4,16(sp)
   11684:	e385                	bnez	a5,116a4 <_svfprintf_r+0xce0>
   11686:	040ff793          	and	a5,t6,64
   1168a:	cb81                	beqz	a5,1169a <_svfprintf_r+0xcd6>
   1168c:	0d42                	sll	s10,s10,0x10
   1168e:	010d5d13          	srl	s10,s10,0x10
   11692:	4d81                	li	s11,0
   11694:	4785                	li	a5,1
   11696:	e66ff06f          	j	10cfc <_svfprintf_r+0x338>
   1169a:	200ff793          	and	a5,t6,512
   1169e:	c399                	beqz	a5,116a4 <_svfprintf_r+0xce0>
   116a0:	0ffd7d13          	zext.b	s10,s10
   116a4:	4d81                	li	s11,0
   116a6:	4785                	li	a5,1
   116a8:	e54ff06f          	j	10cfc <_svfprintf_r+0x338>
   116ac:	4d81                	li	s11,0
   116ae:	19010c93          	add	s9,sp,400
   116b2:	e04ff06f          	j	10cb6 <_svfprintf_r+0x2f2>
   116b6:	4592                	lw	a1,4(sp)
   116b8:	01d0                	add	a2,sp,196
   116ba:	8556                	mv	a0,s5
   116bc:	170030ef          	jal	1482c <__ssprint_r>
   116c0:	ce051de3          	bnez	a0,113ba <_svfprintf_r+0x9f6>
   116c4:	4bbe                	lw	s7,204(sp)
   116c6:	4a2e                	lw	s4,200(sp)
   116c8:	8dca                	mv	s11,s2
   116ca:	fa0ff06f          	j	10e6a <_svfprintf_r+0x4a6>
   116ce:	4592                	lw	a1,4(sp)
   116d0:	01d0                	add	a2,sp,196
   116d2:	8556                	mv	a0,s5
   116d4:	158030ef          	jal	1482c <__ssprint_r>
   116d8:	ce0511e3          	bnez	a0,113ba <_svfprintf_r+0x9f6>
   116dc:	4bbe                	lw	s7,204(sp)
   116de:	4a2e                	lw	s4,200(sp)
   116e0:	8dca                	mv	s11,s2
   116e2:	fa4ff06f          	j	10e86 <_svfprintf_r+0x4c2>
   116e6:	001b7793          	and	a5,s6,1
   116ea:	ca078a63          	beqz	a5,10b9e <_svfprintf_r+0x1da>
   116ee:	bce1                	j	111c6 <_svfprintf_r+0x802>
   116f0:	0009c883          	lbu	a7,0(s3)
   116f4:	c83e                	sw	a5,16(sp)
   116f6:	bb8ff06f          	j	10aae <_svfprintf_r+0xea>
   116fa:	200b7793          	and	a5,s6,512
   116fe:	040793e3          	bnez	a5,11f44 <_svfprintf_r+0x1580>
   11702:	4d81                	li	s11,0
   11704:	df2ff06f          	j	10cf6 <_svfprintf_r+0x332>
   11708:	200b7793          	and	a5,s6,512
   1170c:	000799e3          	bnez	a5,11f1e <_svfprintf_r+0x155a>
   11710:	41fd5d93          	sra	s11,s10,0x1f
   11714:	87ee                	mv	a5,s11
   11716:	d70ff06f          	j	10c86 <_svfprintf_r+0x2c2>
   1171a:	57e2                	lw	a5,56(sp)
   1171c:	0009c883          	lbu	a7,0(s3)
   11720:	b8078763          	beqz	a5,10aae <_svfprintf_r+0xea>
   11724:	0007c783          	lbu	a5,0(a5)
   11728:	b8078363          	beqz	a5,10aae <_svfprintf_r+0xea>
   1172c:	400b6b13          	or	s6,s6,1024
   11730:	b7eff06f          	j	10aae <_svfprintf_r+0xea>
   11734:	010b7793          	and	a5,s6,16
   11738:	54079163          	bnez	a5,11c7a <_svfprintf_r+0x12b6>
   1173c:	040b7793          	and	a5,s6,64
   11740:	7e079763          	bnez	a5,11f2e <_svfprintf_r+0x156a>
   11744:	200b7e93          	and	t4,s6,512
   11748:	520e8963          	beqz	t4,11c7a <_svfprintf_r+0x12b6>
   1174c:	47c2                	lw	a5,16(sp)
   1174e:	4722                	lw	a4,8(sp)
   11750:	439c                	lw	a5,0(a5)
   11752:	00e78023          	sb	a4,0(a5)
   11756:	b2ed                	j	11140 <_svfprintf_r+0x77c>
   11758:	4742                	lw	a4,16(sp)
   1175a:	431c                	lw	a5,0(a4)
   1175c:	0711                	add	a4,a4,4
   1175e:	c83a                	sw	a4,16(sp)
   11760:	4390                	lw	a2,0(a5)
   11762:	43d4                	lw	a3,4(a5)
   11764:	4798                	lw	a4,8(a5)
   11766:	47dc                	lw	a5,12(a5)
   11768:	e1eff06f          	j	10d86 <_svfprintf_r+0x3c2>
   1176c:	8a3a                	mv	s4,a4
   1176e:	db4046e3          	bgtz	s4,1151a <_svfprintf_r+0xb56>
   11772:	b3c9                	j	11534 <_svfprintf_r+0xb70>
   11774:	5a7d                	li	s4,-1
   11776:	89b6                	mv	s3,a3
   11778:	b38ff06f          	j	10ab0 <_svfprintf_r+0xec>
   1177c:	d20a1563          	bnez	s4,10ca6 <_svfprintf_r+0x2e2>
   11780:	4d81                	li	s11,0
   11782:	8b7e                	mv	s6,t6
   11784:	19010c93          	add	s9,sp,400
   11788:	d2eff06f          	j	10cb6 <_svfprintf_r+0x2f2>
   1178c:	8fda                	mv	t6,s6
   1178e:	b281                	j	110ce <_svfprintf_r+0x70a>
   11790:	0000c797          	auipc	a5,0xc
   11794:	d5c78793          	add	a5,a5,-676 # 1d4ec <__clzsi2+0xb0>
   11798:	d83e                	sw	a5,48(sp)
   1179a:	020b7793          	and	a5,s6,32
   1179e:	28078b63          	beqz	a5,11a34 <_svfprintf_r+0x1070>
   117a2:	47c2                	lw	a5,16(sp)
   117a4:	00778b93          	add	s7,a5,7
   117a8:	ff8bfb93          	and	s7,s7,-8
   117ac:	000bad03          	lw	s10,0(s7)
   117b0:	004bad83          	lw	s11,4(s7)
   117b4:	008b8793          	add	a5,s7,8
   117b8:	c83e                	sw	a5,16(sp)
   117ba:	001b7793          	and	a5,s6,1
   117be:	cf81                	beqz	a5,117d6 <_svfprintf_r+0xe12>
   117c0:	01bd67b3          	or	a5,s10,s11
   117c4:	cb89                	beqz	a5,117d6 <_svfprintf_r+0xe12>
   117c6:	03000793          	li	a5,48
   117ca:	0af10423          	sb	a5,168(sp)
   117ce:	0b1104a3          	sb	a7,169(sp)
   117d2:	002b6b13          	or	s6,s6,2
   117d6:	bffb7f93          	and	t6,s6,-1025
   117da:	4789                	li	a5,2
   117dc:	d20ff06f          	j	10cfc <_svfprintf_r+0x338>
   117e0:	4592                	lw	a1,4(sp)
   117e2:	01d0                	add	a2,sp,196
   117e4:	8556                	mv	a0,s5
   117e6:	046030ef          	jal	1482c <__ssprint_r>
   117ea:	bc0518e3          	bnez	a0,113ba <_svfprintf_r+0x9f6>
   117ee:	463e                	lw	a2,204(sp)
   117f0:	84ca                	mv	s1,s2
   117f2:	b2fd                	j	111e0 <_svfprintf_r+0x81c>
   117f4:	0019c883          	lbu	a7,1(s3)
   117f8:	200b6b13          	or	s6,s6,512
   117fc:	0985                	add	s3,s3,1
   117fe:	ab0ff06f          	j	10aae <_svfprintf_r+0xea>
   11802:	0000c797          	auipc	a5,0xc
   11806:	cd678793          	add	a5,a5,-810 # 1d4d8 <__clzsi2+0x9c>
   1180a:	d83e                	sw	a5,48(sp)
   1180c:	b779                	j	1179a <_svfprintf_r+0xdd6>
   1180e:	0019c883          	lbu	a7,1(s3)
   11812:	020b6b13          	or	s6,s6,32
   11816:	0985                	add	s3,s3,1
   11818:	a96ff06f          	j	10aae <_svfprintf_r+0xea>
   1181c:	5512                	lw	a0,36(sp)
   1181e:	04000593          	li	a1,64
   11822:	37c010ef          	jal	12b9e <_malloc_r>
   11826:	4792                	lw	a5,4(sp)
   11828:	4322                	lw	t1,8(sp)
   1182a:	c388                	sw	a0,0(a5)
   1182c:	cb88                	sw	a0,16(a5)
   1182e:	44050ce3          	beqz	a0,12486 <_svfprintf_r+0x1ac2>
   11832:	4792                	lw	a5,4(sp)
   11834:	1c912223          	sw	s1,452(sp)
   11838:	1d212023          	sw	s2,448(sp)
   1183c:	1b312e23          	sw	s3,444(sp)
   11840:	1b412c23          	sw	s4,440(sp)
   11844:	1b512a23          	sw	s5,436(sp)
   11848:	1b612823          	sw	s6,432(sp)
   1184c:	1b712623          	sw	s7,428(sp)
   11850:	1b812423          	sw	s8,424(sp)
   11854:	1b912223          	sw	s9,420(sp)
   11858:	1ba12023          	sw	s10,416(sp)
   1185c:	19b12e23          	sw	s11,412(sp)
   11860:	04000713          	li	a4,64
   11864:	cbd8                	sw	a4,20(a5)
   11866:	9c8ff06f          	j	10a2e <_svfprintf_r+0x6a>
   1186a:	8566                	mv	a0,s9
   1186c:	da46                	sw	a7,52(sp)
   1186e:	75b020ef          	jal	147c8 <strlen>
   11872:	0a714783          	lbu	a5,167(sp)
   11876:	fff54713          	not	a4,a0
   1187a:	877d                	sra	a4,a4,0x1f
   1187c:	c85e                	sw	s7,16(sp)
   1187e:	c602                	sw	zero,12(sp)
   11880:	d002                	sw	zero,32(sp)
   11882:	ce02                	sw	zero,28(sp)
   11884:	ca02                	sw	zero,20(sp)
   11886:	58d2                	lw	a7,52(sp)
   11888:	8daa                	mv	s11,a0
   1188a:	00e57d33          	and	s10,a0,a4
   1188e:	4a01                	li	s4,0
   11890:	c2079f63          	bnez	a5,10cce <_svfprintf_r+0x30a>
   11894:	a7cff06f          	j	10b10 <_svfprintf_r+0x14c>
   11898:	46c1                	li	a3,16
   1189a:	47ae                	lw	a5,200(sp)
   1189c:	4d46dfe3          	bge	a3,s4,1257a <_svfprintf_r+0x1bb6>
   118a0:	0000c697          	auipc	a3,0xc
   118a4:	e8068693          	add	a3,a3,-384 # 1d720 <zeroes.0>
   118a8:	8726                	mv	a4,s1
   118aa:	4dc1                	li	s11,16
   118ac:	4b9d                	li	s7,7
   118ae:	84b6                	mv	s1,a3
   118b0:	a021                	j	118b8 <_svfprintf_r+0xef4>
   118b2:	1a41                	add	s4,s4,-16
   118b4:	494dd763          	bge	s11,s4,11d42 <_svfprintf_r+0x137e>
   118b8:	0641                	add	a2,a2,16
   118ba:	0785                	add	a5,a5,1
   118bc:	c304                	sw	s1,0(a4)
   118be:	01b72223          	sw	s11,4(a4)
   118c2:	c7b2                	sw	a2,204(sp)
   118c4:	c5be                	sw	a5,200(sp)
   118c6:	0721                	add	a4,a4,8
   118c8:	fefbd5e3          	bge	s7,a5,118b2 <_svfprintf_r+0xeee>
   118cc:	4592                	lw	a1,4(sp)
   118ce:	01d0                	add	a2,sp,196
   118d0:	8556                	mv	a0,s5
   118d2:	75b020ef          	jal	1482c <__ssprint_r>
   118d6:	ae0512e3          	bnez	a0,113ba <_svfprintf_r+0x9f6>
   118da:	463e                	lw	a2,204(sp)
   118dc:	47ae                	lw	a5,200(sp)
   118de:	874a                	mv	a4,s2
   118e0:	bfc9                	j	118b2 <_svfprintf_r+0xeee>
   118e2:	47e2                	lw	a5,24(sp)
   118e4:	4df2                	lw	s11,28(sp)
   118e6:	da4e                	sw	s3,52(sp)
   118e8:	00fc8733          	add	a4,s9,a5
   118ec:	c4da                	sw	s6,72(sp)
   118ee:	c6e2                	sw	s8,76(sp)
   118f0:	ce6a                	sw	s10,28(sp)
   118f2:	5d02                	lw	s10,32(sp)
   118f4:	d066                	sw	s9,32(sp)
   118f6:	4c16                	lw	s8,68(sp)
   118f8:	8cde                	mv	s9,s7
   118fa:	4992                	lw	s3,4(sp)
   118fc:	5be2                	lw	s7,56(sp)
   118fe:	469d                	li	a3,7
   11900:	47c1                	li	a5,16
   11902:	0000ca17          	auipc	s4,0xc
   11906:	e1ea0a13          	add	s4,s4,-482 # 1d720 <zeroes.0>
   1190a:	8526                	mv	a0,s1
   1190c:	8b3a                	mv	s6,a4
   1190e:	07b05463          	blez	s11,11976 <_svfprintf_r+0xfb2>
   11912:	0fa05663          	blez	s10,119fe <_svfprintf_r+0x103a>
   11916:	1d7d                	add	s10,s10,-1
   11918:	4706                	lw	a4,64(sp)
   1191a:	9662                	add	a2,a2,s8
   1191c:	01852223          	sw	s8,4(a0) # 1e004 <__init_array_start>
   11920:	c118                	sw	a4,0(a0)
   11922:	472e                	lw	a4,200(sp)
   11924:	c7b2                	sw	a2,204(sp)
   11926:	0521                	add	a0,a0,8
   11928:	0705                	add	a4,a4,1
   1192a:	c5ba                	sw	a4,200(sp)
   1192c:	12e6c463          	blt	a3,a4,11a54 <_svfprintf_r+0x1090>
   11930:	000bc583          	lbu	a1,0(s7)
   11934:	419b04b3          	sub	s1,s6,s9
   11938:	0095d363          	bge	a1,s1,1193e <_svfprintf_r+0xf7a>
   1193c:	84ae                	mv	s1,a1
   1193e:	00905f63          	blez	s1,1195c <_svfprintf_r+0xf98>
   11942:	45ae                	lw	a1,200(sp)
   11944:	9626                	add	a2,a2,s1
   11946:	01952023          	sw	s9,0(a0)
   1194a:	0585                	add	a1,a1,1
   1194c:	c144                	sw	s1,4(a0)
   1194e:	c7b2                	sw	a2,204(sp)
   11950:	c5ae                	sw	a1,200(sp)
   11952:	2ab6c763          	blt	a3,a1,11c00 <_svfprintf_r+0x123c>
   11956:	000bc583          	lbu	a1,0(s7)
   1195a:	0521                	add	a0,a0,8
   1195c:	fff4ce93          	not	t4,s1
   11960:	41fede93          	sra	t4,t4,0x1f
   11964:	01d4f733          	and	a4,s1,t4
   11968:	40e584b3          	sub	s1,a1,a4
   1196c:	02904563          	bgtz	s1,11996 <_svfprintf_r+0xfd2>
   11970:	9cae                	add	s9,s9,a1
   11972:	fbb040e3          	bgtz	s11,11912 <_svfprintf_r+0xf4e>
   11976:	fba040e3          	bgtz	s10,11916 <_svfprintf_r+0xf52>
   1197a:	47e2                	lw	a5,24(sp)
   1197c:	dc5e                	sw	s7,56(sp)
   1197e:	8be6                	mv	s7,s9
   11980:	5c82                	lw	s9,32(sp)
   11982:	59d2                	lw	s3,52(sp)
   11984:	4b26                	lw	s6,72(sp)
   11986:	97e6                	add	a5,a5,s9
   11988:	4c36                	lw	s8,76(sp)
   1198a:	4d72                	lw	s10,28(sp)
   1198c:	84aa                	mv	s1,a0
   1198e:	bd77f4e3          	bgeu	a5,s7,11556 <_svfprintf_r+0xb92>
   11992:	8bbe                	mv	s7,a5
   11994:	b6c9                	j	11556 <_svfprintf_r+0xb92>
   11996:	45ae                	lw	a1,200(sp)
   11998:	0000ce97          	auipc	t4,0xc
   1199c:	d88e8e93          	add	t4,t4,-632 # 1d720 <zeroes.0>
   119a0:	0497d163          	bge	a5,s1,119e2 <_svfprintf_r+0x101e>
   119a4:	ca52                	sw	s4,20(sp)
   119a6:	a021                	j	119ae <_svfprintf_r+0xfea>
   119a8:	14c1                	add	s1,s1,-16
   119aa:	0297db63          	bge	a5,s1,119e0 <_svfprintf_r+0x101c>
   119ae:	0641                	add	a2,a2,16
   119b0:	0585                	add	a1,a1,1
   119b2:	01452023          	sw	s4,0(a0)
   119b6:	c15c                	sw	a5,4(a0)
   119b8:	c7b2                	sw	a2,204(sp)
   119ba:	c5ae                	sw	a1,200(sp)
   119bc:	0521                	add	a0,a0,8
   119be:	feb6d5e3          	bge	a3,a1,119a8 <_svfprintf_r+0xfe4>
   119c2:	01d0                	add	a2,sp,196
   119c4:	85ce                	mv	a1,s3
   119c6:	8556                	mv	a0,s5
   119c8:	665020ef          	jal	1482c <__ssprint_r>
   119cc:	9e0517e3          	bnez	a0,113ba <_svfprintf_r+0x9f6>
   119d0:	47c1                	li	a5,16
   119d2:	14c1                	add	s1,s1,-16
   119d4:	463e                	lw	a2,204(sp)
   119d6:	45ae                	lw	a1,200(sp)
   119d8:	854a                	mv	a0,s2
   119da:	469d                	li	a3,7
   119dc:	fc97c9e3          	blt	a5,s1,119ae <_svfprintf_r+0xfea>
   119e0:	4ed2                	lw	t4,20(sp)
   119e2:	9626                	add	a2,a2,s1
   119e4:	0585                	add	a1,a1,1
   119e6:	01d52023          	sw	t4,0(a0)
   119ea:	c144                	sw	s1,4(a0)
   119ec:	c7b2                	sw	a2,204(sp)
   119ee:	c5ae                	sw	a1,200(sp)
   119f0:	0eb6cce3          	blt	a3,a1,122e8 <_svfprintf_r+0x1924>
   119f4:	000bc583          	lbu	a1,0(s7)
   119f8:	0521                	add	a0,a0,8
   119fa:	9cae                	add	s9,s9,a1
   119fc:	bf9d                	j	11972 <_svfprintf_r+0xfae>
   119fe:	1bfd                	add	s7,s7,-1
   11a00:	1dfd                	add	s11,s11,-1
   11a02:	bf19                	j	11918 <_svfprintf_r+0xf54>
   11a04:	57b2                	lw	a5,44(sp)
   11a06:	5722                	lw	a4,40(sp)
   11a08:	459d                	li	a1,7
   11a0a:	c09c                	sw	a5,0(s1)
   11a0c:	47ae                	lw	a5,200(sp)
   11a0e:	963a                	add	a2,a2,a4
   11a10:	c0d8                	sw	a4,4(s1)
   11a12:	0785                	add	a5,a5,1
   11a14:	c7b2                	sw	a2,204(sp)
   11a16:	c5be                	sw	a5,200(sp)
   11a18:	04a1                	add	s1,s1,8
   11a1a:	b4f5d6e3          	bge	a1,a5,11566 <_svfprintf_r+0xba2>
   11a1e:	4592                	lw	a1,4(sp)
   11a20:	01d0                	add	a2,sp,196
   11a22:	8556                	mv	a0,s5
   11a24:	609020ef          	jal	1482c <__ssprint_r>
   11a28:	980519e3          	bnez	a0,113ba <_svfprintf_r+0x9f6>
   11a2c:	56ba                	lw	a3,172(sp)
   11a2e:	463e                	lw	a2,204(sp)
   11a30:	84ca                	mv	s1,s2
   11a32:	be15                	j	11566 <_svfprintf_r+0xba2>
   11a34:	4742                	lw	a4,16(sp)
   11a36:	010b7793          	and	a5,s6,16
   11a3a:	00072d03          	lw	s10,0(a4)
   11a3e:	0711                	add	a4,a4,4
   11a40:	c83a                	sw	a4,16(sp)
   11a42:	eb8d                	bnez	a5,11a74 <_svfprintf_r+0x10b0>
   11a44:	040b7793          	and	a5,s6,64
   11a48:	c395                	beqz	a5,11a6c <_svfprintf_r+0x10a8>
   11a4a:	0d42                	sll	s10,s10,0x10
   11a4c:	010d5d13          	srl	s10,s10,0x10
   11a50:	4d81                	li	s11,0
   11a52:	b3a5                	j	117ba <_svfprintf_r+0xdf6>
   11a54:	01d0                	add	a2,sp,196
   11a56:	85ce                	mv	a1,s3
   11a58:	8556                	mv	a0,s5
   11a5a:	5d3020ef          	jal	1482c <__ssprint_r>
   11a5e:	94051ee3          	bnez	a0,113ba <_svfprintf_r+0x9f6>
   11a62:	463e                	lw	a2,204(sp)
   11a64:	854a                	mv	a0,s2
   11a66:	47c1                	li	a5,16
   11a68:	469d                	li	a3,7
   11a6a:	b5d9                	j	11930 <_svfprintf_r+0xf6c>
   11a6c:	200b7793          	and	a5,s6,512
   11a70:	4c079663          	bnez	a5,11f3c <_svfprintf_r+0x1578>
   11a74:	4d81                	li	s11,0
   11a76:	b391                	j	117ba <_svfprintf_r+0xdf6>
   11a78:	ccccd837          	lui	a6,0xccccd
   11a7c:	ccccdbb7          	lui	s7,0xccccd
   11a80:	5762                	lw	a4,56(sp)
   11a82:	400fff13          	and	t5,t6,1024
   11a86:	4581                	li	a1,0
   11a88:	0b10                	add	a2,sp,400
   11a8a:	4e95                	li	t4,5
   11a8c:	ccd80813          	add	a6,a6,-819 # cccccccd <__BSS_END__+0xcccae1a9>
   11a90:	cccb8b93          	add	s7,s7,-820 # cccccccc <__BSS_END__+0xcccae1a8>
   11a94:	0ff00b13          	li	s6,255
   11a98:	a081                	j	11ad8 <_svfprintf_r+0x1114>
   11a9a:	01acb7b3          	sltu	a5,s9,s10
   11a9e:	97e6                	add	a5,a5,s9
   11aa0:	03d7f7b3          	remu	a5,a5,t4
   11aa4:	40fd07b3          	sub	a5,s10,a5
   11aa8:	00fd3633          	sltu	a2,s10,a5
   11aac:	40cd8633          	sub	a2,s11,a2
   11ab0:	03778333          	mul	t1,a5,s7
   11ab4:	03060633          	mul	a2,a2,a6
   11ab8:	0307b533          	mulhu	a0,a5,a6
   11abc:	961a                	add	a2,a2,t1
   11abe:	030787b3          	mul	a5,a5,a6
   11ac2:	962a                	add	a2,a2,a0
   11ac4:	01f61513          	sll	a0,a2,0x1f
   11ac8:	8205                	srl	a2,a2,0x1
   11aca:	8385                	srl	a5,a5,0x1
   11acc:	8fc9                	or	a5,a5,a0
   11ace:	000d88e3          	beqz	s11,122de <_svfprintf_r+0x191a>
   11ad2:	8db2                	mv	s11,a2
   11ad4:	8d3e                	mv	s10,a5
   11ad6:	8636                	mv	a2,a3
   11ad8:	01bd0cb3          	add	s9,s10,s11
   11adc:	01acb7b3          	sltu	a5,s9,s10
   11ae0:	97e6                	add	a5,a5,s9
   11ae2:	03d7f7b3          	remu	a5,a5,t4
   11ae6:	fff60693          	add	a3,a2,-1
   11aea:	0585                	add	a1,a1,1
   11aec:	40fd07b3          	sub	a5,s10,a5
   11af0:	00fd3533          	sltu	a0,s10,a5
   11af4:	40ad8533          	sub	a0,s11,a0
   11af8:	0307b333          	mulhu	t1,a5,a6
   11afc:	03050533          	mul	a0,a0,a6
   11b00:	030787b3          	mul	a5,a5,a6
   11b04:	951a                	add	a0,a0,t1
   11b06:	057e                	sll	a0,a0,0x1f
   11b08:	8385                	srl	a5,a5,0x1
   11b0a:	8fc9                	or	a5,a5,a0
   11b0c:	00279513          	sll	a0,a5,0x2
   11b10:	97aa                	add	a5,a5,a0
   11b12:	0786                	sll	a5,a5,0x1
   11b14:	40fd07b3          	sub	a5,s10,a5
   11b18:	03078793          	add	a5,a5,48
   11b1c:	fef60fa3          	sb	a5,-1(a2)
   11b20:	f60f0de3          	beqz	t5,11a9a <_svfprintf_r+0x10d6>
   11b24:	00074783          	lbu	a5,0(a4)
   11b28:	f6f599e3          	bne	a1,a5,11a9a <_svfprintf_r+0x10d6>
   11b2c:	f76587e3          	beq	a1,s6,11a9a <_svfprintf_r+0x10d6>
   11b30:	240d9163          	bnez	s11,11d72 <_svfprintf_r+0x13ae>
   11b34:	47a5                	li	a5,9
   11b36:	23a7ee63          	bltu	a5,s10,11d72 <_svfprintf_r+0x13ae>
   11b3a:	8cb6                	mv	s9,a3
   11b3c:	0b1c                	add	a5,sp,400
   11b3e:	dc3a                	sw	a4,56(sp)
   11b40:	cc2e                	sw	a1,24(sp)
   11b42:	41978db3          	sub	s11,a5,s9
   11b46:	8b7e                	mv	s6,t6
   11b48:	96eff06f          	j	10cb6 <_svfprintf_r+0x2f2>
   11b4c:	47ae                	lw	a5,200(sp)
   11b4e:	0000c597          	auipc	a1,0xc
   11b52:	9ba58593          	add	a1,a1,-1606 # 1d508 <__clzsi2+0xcc>
   11b56:	c08c                	sw	a1,0(s1)
   11b58:	0605                	add	a2,a2,1
   11b5a:	4585                	li	a1,1
   11b5c:	0785                	add	a5,a5,1
   11b5e:	c0cc                	sw	a1,4(s1)
   11b60:	c7b2                	sw	a2,204(sp)
   11b62:	c5be                	sw	a5,200(sp)
   11b64:	459d                	li	a1,7
   11b66:	04a1                	add	s1,s1,8
   11b68:	04f5c763          	blt	a1,a5,11bb6 <_svfprintf_r+0x11f2>
   11b6c:	12069963          	bnez	a3,11c9e <_svfprintf_r+0x12da>
   11b70:	4762                	lw	a4,24(sp)
   11b72:	001b7793          	and	a5,s6,1
   11b76:	8fd9                	or	a5,a5,a4
   11b78:	e399                	bnez	a5,11b7e <_svfprintf_r+0x11ba>
   11b7a:	824ff06f          	j	10b9e <_svfprintf_r+0x1da>
   11b7e:	57b2                	lw	a5,44(sp)
   11b80:	5722                	lw	a4,40(sp)
   11b82:	469d                	li	a3,7
   11b84:	c09c                	sw	a5,0(s1)
   11b86:	47ae                	lw	a5,200(sp)
   11b88:	963a                	add	a2,a2,a4
   11b8a:	c0d8                	sw	a4,4(s1)
   11b8c:	0785                	add	a5,a5,1
   11b8e:	c7b2                	sw	a2,204(sp)
   11b90:	c5be                	sw	a5,200(sp)
   11b92:	3cf6c863          	blt	a3,a5,11f62 <_svfprintf_r+0x159e>
   11b96:	04a1                	add	s1,s1,8
   11b98:	4762                	lw	a4,24(sp)
   11b9a:	0785                	add	a5,a5,1
   11b9c:	0194a023          	sw	s9,0(s1)
   11ba0:	963a                	add	a2,a2,a4
   11ba2:	c0d8                	sw	a4,4(s1)
   11ba4:	c7b2                	sw	a2,204(sp)
   11ba6:	c5be                	sw	a5,200(sp)
   11ba8:	469d                	li	a3,7
   11baa:	00f6c463          	blt	a3,a5,11bb2 <_svfprintf_r+0x11ee>
   11bae:	feffe06f          	j	10b9c <_svfprintf_r+0x1d8>
   11bb2:	b3cff06f          	j	10eee <_svfprintf_r+0x52a>
   11bb6:	4592                	lw	a1,4(sp)
   11bb8:	01d0                	add	a2,sp,196
   11bba:	8556                	mv	a0,s5
   11bbc:	471020ef          	jal	1482c <__ssprint_r>
   11bc0:	fe051d63          	bnez	a0,113ba <_svfprintf_r+0x9f6>
   11bc4:	56ba                	lw	a3,172(sp)
   11bc6:	463e                	lw	a2,204(sp)
   11bc8:	84ca                	mv	s1,s2
   11bca:	b74d                	j	11b6c <_svfprintf_r+0x11a8>
   11bcc:	4592                	lw	a1,4(sp)
   11bce:	01d0                	add	a2,sp,196
   11bd0:	8556                	mv	a0,s5
   11bd2:	45b020ef          	jal	1482c <__ssprint_r>
   11bd6:	fe051263          	bnez	a0,113ba <_svfprintf_r+0x9f6>
   11bda:	463e                	lw	a2,204(sp)
   11bdc:	84ca                	mv	s1,s2
   11bde:	de0ff06f          	j	111be <_svfprintf_r+0x7fa>
   11be2:	86e6                	mv	a3,s9
   11be4:	c094                	sw	a3,0(s1)
   11be6:	0144a223          	sw	s4,4(s1)
   11bea:	9652                	add	a2,a2,s4
   11bec:	0785                	add	a5,a5,1
   11bee:	c7b2                	sw	a2,204(sp)
   11bf0:	c5be                	sw	a5,200(sp)
   11bf2:	469d                	li	a3,7
   11bf4:	00f6c463          	blt	a3,a5,11bfc <_svfprintf_r+0x1238>
   11bf8:	fa5fe06f          	j	10b9c <_svfprintf_r+0x1d8>
   11bfc:	af2ff06f          	j	10eee <_svfprintf_r+0x52a>
   11c00:	01d0                	add	a2,sp,196
   11c02:	85ce                	mv	a1,s3
   11c04:	8556                	mv	a0,s5
   11c06:	427020ef          	jal	1482c <__ssprint_r>
   11c0a:	fa051863          	bnez	a0,113ba <_svfprintf_r+0x9f6>
   11c0e:	000bc583          	lbu	a1,0(s7)
   11c12:	463e                	lw	a2,204(sp)
   11c14:	854a                	mv	a0,s2
   11c16:	47c1                	li	a5,16
   11c18:	469d                	li	a3,7
   11c1a:	b389                	j	1195c <_svfprintf_r+0xf98>
   11c1c:	47ce                	lw	a5,208(sp)
   11c1e:	010c                	add	a1,sp,128
   11c20:	0908                	add	a0,sp,144
   11c22:	c93e                	sw	a5,144(sp)
   11c24:	47de                	lw	a5,212(sp)
   11c26:	c102                	sw	zero,128(sp)
   11c28:	c302                	sw	zero,132(sp)
   11c2a:	cb3e                	sw	a5,148(sp)
   11c2c:	47ee                	lw	a5,216(sp)
   11c2e:	c502                	sw	zero,136(sp)
   11c30:	c702                	sw	zero,140(sp)
   11c32:	cd3e                	sw	a5,152(sp)
   11c34:	47fe                	lw	a5,220(sp)
   11c36:	cf3e                	sw	a5,156(sp)
   11c38:	53a090ef          	jal	1b172 <__letf2>
   11c3c:	48b2                	lw	a7,12(sp)
   11c3e:	70054563          	bltz	a0,12348 <_svfprintf_r+0x1984>
   11c42:	0a714783          	lbu	a5,167(sp)
   11c46:	04700713          	li	a4,71
   11c4a:	0000cc97          	auipc	s9,0xc
   11c4e:	882c8c93          	add	s9,s9,-1918 # 1d4cc <__clzsi2+0x90>
   11c52:	01174663          	blt	a4,a7,11c5e <_svfprintf_r+0x129a>
   11c56:	0000cc97          	auipc	s9,0xc
   11c5a:	872c8c93          	add	s9,s9,-1934 # 1d4c8 <__clzsi2+0x8c>
   11c5e:	c602                	sw	zero,12(sp)
   11c60:	d002                	sw	zero,32(sp)
   11c62:	ce02                	sw	zero,28(sp)
   11c64:	ca02                	sw	zero,20(sp)
   11c66:	f7fb7b13          	and	s6,s6,-129
   11c6a:	4d0d                	li	s10,3
   11c6c:	4d8d                	li	s11,3
   11c6e:	4a01                	li	s4,0
   11c70:	c399                	beqz	a5,11c76 <_svfprintf_r+0x12b2>
   11c72:	85cff06f          	j	10cce <_svfprintf_r+0x30a>
   11c76:	e9bfe06f          	j	10b10 <_svfprintf_r+0x14c>
   11c7a:	47c2                	lw	a5,16(sp)
   11c7c:	4722                	lw	a4,8(sp)
   11c7e:	439c                	lw	a5,0(a5)
   11c80:	c398                	sw	a4,0(a5)
   11c82:	cbeff06f          	j	11140 <_svfprintf_r+0x77c>
   11c86:	4799                	li	a5,6
   11c88:	8dd2                	mv	s11,s4
   11c8a:	1747ed63          	bltu	a5,s4,11e04 <_svfprintf_r+0x1440>
   11c8e:	8d6e                	mv	s10,s11
   11c90:	c85e                	sw	s7,16(sp)
   11c92:	0000cc97          	auipc	s9,0xc
   11c96:	86ec8c93          	add	s9,s9,-1938 # 1d500 <__clzsi2+0xc4>
   11c9a:	e6dfe06f          	j	10b06 <_svfprintf_r+0x142>
   11c9e:	57b2                	lw	a5,44(sp)
   11ca0:	5722                	lw	a4,40(sp)
   11ca2:	459d                	li	a1,7
   11ca4:	c09c                	sw	a5,0(s1)
   11ca6:	47ae                	lw	a5,200(sp)
   11ca8:	963a                	add	a2,a2,a4
   11caa:	c0d8                	sw	a4,4(s1)
   11cac:	0785                	add	a5,a5,1
   11cae:	c7b2                	sw	a2,204(sp)
   11cb0:	c5be                	sw	a5,200(sp)
   11cb2:	04a1                	add	s1,s1,8
   11cb4:	2af5c763          	blt	a1,a5,11f62 <_svfprintf_r+0x159e>
   11cb8:	ee06d0e3          	bgez	a3,11b98 <_svfprintf_r+0x11d4>
   11cbc:	55c1                	li	a1,-16
   11cbe:	40d00a33          	neg	s4,a3
   11cc2:	12b6d5e3          	bge	a3,a1,125ec <_svfprintf_r+0x1c28>
   11cc6:	0000c697          	auipc	a3,0xc
   11cca:	a5a68693          	add	a3,a3,-1446 # 1d720 <zeroes.0>
   11cce:	ca4e                	sw	s3,20(sp)
   11cd0:	4dc1                	li	s11,16
   11cd2:	4b9d                	li	s7,7
   11cd4:	89b6                	mv	s3,a3
   11cd6:	a021                	j	11cde <_svfprintf_r+0x131a>
   11cd8:	1a41                	add	s4,s4,-16
   11cda:	7b4ddd63          	bge	s11,s4,12494 <_svfprintf_r+0x1ad0>
   11cde:	0641                	add	a2,a2,16
   11ce0:	0785                	add	a5,a5,1
   11ce2:	0134a023          	sw	s3,0(s1)
   11ce6:	01b4a223          	sw	s11,4(s1)
   11cea:	c7b2                	sw	a2,204(sp)
   11cec:	c5be                	sw	a5,200(sp)
   11cee:	04a1                	add	s1,s1,8
   11cf0:	fefbd4e3          	bge	s7,a5,11cd8 <_svfprintf_r+0x1314>
   11cf4:	4592                	lw	a1,4(sp)
   11cf6:	01d0                	add	a2,sp,196
   11cf8:	8556                	mv	a0,s5
   11cfa:	333020ef          	jal	1482c <__ssprint_r>
   11cfe:	ea051e63          	bnez	a0,113ba <_svfprintf_r+0x9f6>
   11d02:	463e                	lw	a2,204(sp)
   11d04:	47ae                	lw	a5,200(sp)
   11d06:	84ca                	mv	s1,s2
   11d08:	bfc1                	j	11cd8 <_svfprintf_r+0x1314>
   11d0a:	86ce                	mv	a3,s3
   11d0c:	49d2                	lw	s3,20(sp)
   11d0e:	9ba6                	add	s7,s7,s1
   11d10:	0a05                	add	s4,s4,1
   11d12:	00dda023          	sw	a3,0(s11)
   11d16:	9a6ff06f          	j	10ebc <_svfprintf_r+0x4f8>
   11d1a:	47fe                	lw	a5,220(sp)
   11d1c:	2407d063          	bgez	a5,11f5c <_svfprintf_r+0x1598>
   11d20:	02d00793          	li	a5,45
   11d24:	0af103a3          	sb	a5,167(sp)
   11d28:	04700713          	li	a4,71
   11d2c:	0000bc97          	auipc	s9,0xb
   11d30:	7a8c8c93          	add	s9,s9,1960 # 1d4d4 <__clzsi2+0x98>
   11d34:	f31745e3          	blt	a4,a7,11c5e <_svfprintf_r+0x129a>
   11d38:	0000bc97          	auipc	s9,0xb
   11d3c:	798c8c93          	add	s9,s9,1944 # 1d4d0 <__clzsi2+0x94>
   11d40:	bf39                	j	11c5e <_svfprintf_r+0x129a>
   11d42:	86a6                	mv	a3,s1
   11d44:	84ba                	mv	s1,a4
   11d46:	9652                	add	a2,a2,s4
   11d48:	0785                	add	a5,a5,1
   11d4a:	c094                	sw	a3,0(s1)
   11d4c:	0144a223          	sw	s4,4(s1)
   11d50:	c7b2                	sw	a2,204(sp)
   11d52:	c5be                	sw	a5,200(sp)
   11d54:	469d                	li	a3,7
   11d56:	04a1                	add	s1,s1,8
   11d58:	fef6d863          	bge	a3,a5,11548 <_svfprintf_r+0xb84>
   11d5c:	4592                	lw	a1,4(sp)
   11d5e:	01d0                	add	a2,sp,196
   11d60:	8556                	mv	a0,s5
   11d62:	2cb020ef          	jal	1482c <__ssprint_r>
   11d66:	e4051a63          	bnez	a0,113ba <_svfprintf_r+0x9f6>
   11d6a:	463e                	lw	a2,204(sp)
   11d6c:	84ca                	mv	s1,s2
   11d6e:	fdaff06f          	j	11548 <_svfprintf_r+0xb84>
   11d72:	4796                	lw	a5,68(sp)
   11d74:	4586                	lw	a1,64(sp)
   11d76:	da42                	sw	a6,52(sp)
   11d78:	8e9d                	sub	a3,a3,a5
   11d7a:	863e                	mv	a2,a5
   11d7c:	8536                	mv	a0,a3
   11d7e:	d07a                	sw	t5,32(sp)
   11d80:	ce7e                	sw	t6,28(sp)
   11d82:	cc46                	sw	a7,24(sp)
   11d84:	ca3a                	sw	a4,20(sp)
   11d86:	c636                	sw	a3,12(sp)
   11d88:	771030ef          	jal	15cf8 <strncpy>
   11d8c:	01acb7b3          	sltu	a5,s9,s10
   11d90:	4615                	li	a2,5
   11d92:	97e6                	add	a5,a5,s9
   11d94:	02c7f7b3          	remu	a5,a5,a2
   11d98:	4752                	lw	a4,20(sp)
   11d9a:	ccccd337          	lui	t1,0xccccd
   11d9e:	ccccd537          	lui	a0,0xccccd
   11da2:	00174603          	lbu	a2,1(a4)
   11da6:	ccd30313          	add	t1,t1,-819 # cccccccd <__BSS_END__+0xcccae1a9>
   11daa:	ccc50513          	add	a0,a0,-820 # cccccccc <__BSS_END__+0xcccae1a8>
   11dae:	00c03633          	snez	a2,a2
   11db2:	9732                	add	a4,a4,a2
   11db4:	46b2                	lw	a3,12(sp)
   11db6:	48e2                	lw	a7,24(sp)
   11db8:	4ff2                	lw	t6,28(sp)
   11dba:	5f02                	lw	t5,32(sp)
   11dbc:	5852                	lw	a6,52(sp)
   11dbe:	4581                	li	a1,0
   11dc0:	4e95                	li	t4,5
   11dc2:	40fd07b3          	sub	a5,s10,a5
   11dc6:	00fd3633          	sltu	a2,s10,a5
   11dca:	40cd8633          	sub	a2,s11,a2
   11dce:	02a78533          	mul	a0,a5,a0
   11dd2:	02660633          	mul	a2,a2,t1
   11dd6:	0267be33          	mulhu	t3,a5,t1
   11dda:	962a                	add	a2,a2,a0
   11ddc:	02678533          	mul	a0,a5,t1
   11de0:	9672                	add	a2,a2,t3
   11de2:	01f61793          	sll	a5,a2,0x1f
   11de6:	8205                	srl	a2,a2,0x1
   11de8:	8105                	srl	a0,a0,0x1
   11dea:	8fc9                	or	a5,a5,a0
   11dec:	b1dd                	j	11ad2 <_svfprintf_r+0x110e>
   11dee:	4592                	lw	a1,4(sp)
   11df0:	01d0                	add	a2,sp,196
   11df2:	8556                	mv	a0,s5
   11df4:	239020ef          	jal	1482c <__ssprint_r>
   11df8:	dc051163          	bnez	a0,113ba <_svfprintf_r+0x9f6>
   11dfc:	463e                	lw	a2,204(sp)
   11dfe:	84ca                	mv	s1,s2
   11e00:	f34ff06f          	j	11534 <_svfprintf_r+0xb70>
   11e04:	4d99                	li	s11,6
   11e06:	b561                	j	11c8e <_svfprintf_r+0x12ca>
   11e08:	09010d93          	add	s11,sp,144
   11e0c:	191c                	add	a5,sp,176
   11e0e:	0bc10813          	add	a6,sp,188
   11e12:	1178                	add	a4,sp,172
   11e14:	86d2                	mv	a3,s4
   11e16:	4609                	li	a2,2
   11e18:	85ee                	mv	a1,s11
   11e1a:	8556                	mv	a0,s5
   11e1c:	d046                	sw	a7,32(sp)
   11e1e:	c916                	sw	t0,144(sp)
   11e20:	ce16                	sw	t0,28(sp)
   11e22:	cb7e                	sw	t6,148(sp)
   11e24:	cc7e                	sw	t6,24(sp)
   11e26:	cd7a                	sw	t5,152(sp)
   11e28:	ca7a                	sw	t5,20(sp)
   11e2a:	cf5e                	sw	s7,156(sp)
   11e2c:	7ca000ef          	jal	125f6 <_ldtoa_r>
   11e30:	001b7793          	and	a5,s6,1
   11e34:	4f52                	lw	t5,20(sp)
   11e36:	4fe2                	lw	t6,24(sp)
   11e38:	42f2                	lw	t0,28(sp)
   11e3a:	5882                	lw	a7,32(sp)
   11e3c:	8caa                	mv	s9,a0
   11e3e:	5e079f63          	bnez	a5,1243c <_svfprintf_r+0x1a78>
   11e42:	57ba                	lw	a5,172(sp)
   11e44:	ca3e                	sw	a5,20(sp)
   11e46:	57fa                	lw	a5,188(sp)
   11e48:	8f89                	sub	a5,a5,a0
   11e4a:	cc3e                	sw	a5,24(sp)
   11e4c:	4752                	lw	a4,20(sp)
   11e4e:	57f5                	li	a5,-3
   11e50:	00f74463          	blt	a4,a5,11e58 <_svfprintf_r+0x1494>
   11e54:	44ea5963          	bge	s4,a4,122a6 <_svfprintf_r+0x18e2>
   11e58:	47d2                	lw	a5,20(sp)
   11e5a:	18f9                	add	a7,a7,-2
   11e5c:	17fd                	add	a5,a5,-1
   11e5e:	d73e                	sw	a5,172(sp)
   11e60:	0ff8f713          	zext.b	a4,a7
   11e64:	4681                	li	a3,0
   11e66:	0ae10a23          	sb	a4,180(sp)
   11e6a:	02b00713          	li	a4,43
   11e6e:	0007d763          	bgez	a5,11e7c <_svfprintf_r+0x14b8>
   11e72:	4752                	lw	a4,20(sp)
   11e74:	4785                	li	a5,1
   11e76:	8f99                	sub	a5,a5,a4
   11e78:	02d00713          	li	a4,45
   11e7c:	0ae10aa3          	sb	a4,181(sp)
   11e80:	4725                	li	a4,9
   11e82:	5cf75963          	bge	a4,a5,12454 <_svfprintf_r+0x1a90>
   11e86:	0c310513          	add	a0,sp,195
   11e8a:	882a                	mv	a6,a0
   11e8c:	46a9                	li	a3,10
   11e8e:	06300f13          	li	t5,99
   11e92:	02d7e733          	rem	a4,a5,a3
   11e96:	85c2                	mv	a1,a6
   11e98:	863e                	mv	a2,a5
   11e9a:	187d                	add	a6,a6,-1
   11e9c:	03070713          	add	a4,a4,48
   11ea0:	fee58fa3          	sb	a4,-1(a1)
   11ea4:	02d7c7b3          	div	a5,a5,a3
   11ea8:	fecf45e3          	blt	t5,a2,11e92 <_svfprintf_r+0x14ce>
   11eac:	03078793          	add	a5,a5,48
   11eb0:	ffe58713          	add	a4,a1,-2
   11eb4:	fef80fa3          	sb	a5,-1(a6)
   11eb8:	6ca77763          	bgeu	a4,a0,12586 <_svfprintf_r+0x1bc2>
   11ebc:	0b610693          	add	a3,sp,182
   11ec0:	00074783          	lbu	a5,0(a4)
   11ec4:	0705                	add	a4,a4,1
   11ec6:	0685                	add	a3,a3,1
   11ec8:	fef68fa3          	sb	a5,-1(a3)
   11ecc:	fea71ae3          	bne	a4,a0,11ec0 <_svfprintf_r+0x14fc>
   11ed0:	0b1c                	add	a5,sp,400
   11ed2:	8f8d                	sub	a5,a5,a1
   11ed4:	f3778793          	add	a5,a5,-201
   11ed8:	de3e                	sw	a5,60(sp)
   11eda:	4762                	lw	a4,24(sp)
   11edc:	56f2                	lw	a3,60(sp)
   11ede:	4785                	li	a5,1
   11ee0:	00d70db3          	add	s11,a4,a3
   11ee4:	58e7dc63          	bge	a5,a4,1247c <_svfprintf_r+0x1ab8>
   11ee8:	57a2                	lw	a5,40(sp)
   11eea:	9dbe                	add	s11,s11,a5
   11eec:	fffdc713          	not	a4,s11
   11ef0:	bffb7e93          	and	t4,s6,-1025
   11ef4:	877d                	sra	a4,a4,0x1f
   11ef6:	100ee793          	or	a5,t4,256
   11efa:	c4be                	sw	a5,72(sp)
   11efc:	00edfd33          	and	s10,s11,a4
   11f00:	d002                	sw	zero,32(sp)
   11f02:	ce02                	sw	zero,28(sp)
   11f04:	ca02                	sw	zero,20(sp)
   11f06:	57d2                	lw	a5,52(sp)
   11f08:	38078663          	beqz	a5,12294 <_svfprintf_r+0x18d0>
   11f0c:	02d00793          	li	a5,45
   11f10:	4b26                	lw	s6,72(sp)
   11f12:	0af103a3          	sb	a5,167(sp)
   11f16:	4a01                	li	s4,0
   11f18:	0d05                	add	s10,s10,1
   11f1a:	bf7fe06f          	j	10b10 <_svfprintf_r+0x14c>
   11f1e:	0d62                	sll	s10,s10,0x18
   11f20:	418d5d13          	sra	s10,s10,0x18
   11f24:	41fd5d93          	sra	s11,s10,0x1f
   11f28:	87ee                	mv	a5,s11
   11f2a:	d5dfe06f          	j	10c86 <_svfprintf_r+0x2c2>
   11f2e:	47c2                	lw	a5,16(sp)
   11f30:	4722                	lw	a4,8(sp)
   11f32:	439c                	lw	a5,0(a5)
   11f34:	00e79023          	sh	a4,0(a5)
   11f38:	a08ff06f          	j	11140 <_svfprintf_r+0x77c>
   11f3c:	0ffd7d13          	zext.b	s10,s10
   11f40:	4d81                	li	s11,0
   11f42:	b8a5                	j	117ba <_svfprintf_r+0xdf6>
   11f44:	0ffd7d13          	zext.b	s10,s10
   11f48:	4d81                	li	s11,0
   11f4a:	dadfe06f          	j	10cf6 <_svfprintf_r+0x332>
   11f4e:	4592                	lw	a1,4(sp)
   11f50:	5512                	lw	a0,36(sp)
   11f52:	01d0                	add	a2,sp,196
   11f54:	0d9020ef          	jal	1482c <__ssprint_r>
   11f58:	c8bfe06f          	j	10be2 <_svfprintf_r+0x21e>
   11f5c:	0a714783          	lbu	a5,167(sp)
   11f60:	b3e1                	j	11d28 <_svfprintf_r+0x1364>
   11f62:	4592                	lw	a1,4(sp)
   11f64:	01d0                	add	a2,sp,196
   11f66:	8556                	mv	a0,s5
   11f68:	0c5020ef          	jal	1482c <__ssprint_r>
   11f6c:	c4051763          	bnez	a0,113ba <_svfprintf_r+0x9f6>
   11f70:	56ba                	lw	a3,172(sp)
   11f72:	463e                	lw	a2,204(sp)
   11f74:	47ae                	lw	a5,200(sp)
   11f76:	84ca                	mv	s1,s2
   11f78:	c206d0e3          	bgez	a3,11b98 <_svfprintf_r+0x11d4>
   11f7c:	b381                	j	11cbc <_svfprintf_r+0x12f8>
   11f7e:	c602                	sw	zero,12(sp)
   11f80:	4a19                	li	s4,6
   11f82:	e5dfe06f          	j	10dde <_svfprintf_r+0x41a>
   11f86:	001a0693          	add	a3,s4,1
   11f8a:	4609                	li	a2,2
   11f8c:	09010d93          	add	s11,sp,144
   11f90:	191c                	add	a5,sp,176
   11f92:	1178                	add	a4,sp,172
   11f94:	0bc10813          	add	a6,sp,188
   11f98:	85ee                	mv	a1,s11
   11f9a:	8556                	mv	a0,s5
   11f9c:	c6c6                	sw	a7,76(sp)
   11f9e:	d036                	sw	a3,32(sp)
   11fa0:	c916                	sw	t0,144(sp)
   11fa2:	ce16                	sw	t0,28(sp)
   11fa4:	cb7e                	sw	t6,148(sp)
   11fa6:	cc7e                	sw	t6,24(sp)
   11fa8:	cd7a                	sw	t5,152(sp)
   11faa:	ca7a                	sw	t5,20(sp)
   11fac:	cf5e                	sw	s7,156(sp)
   11fae:	25a1                	jal	125f6 <_ldtoa_r>
   11fb0:	48b6                	lw	a7,76(sp)
   11fb2:	5682                	lw	a3,32(sp)
   11fb4:	04600613          	li	a2,70
   11fb8:	fdf8f713          	and	a4,a7,-33
   11fbc:	4f52                	lw	t5,20(sp)
   11fbe:	4fe2                	lw	t6,24(sp)
   11fc0:	42f2                	lw	t0,28(sp)
   11fc2:	8caa                	mv	s9,a0
   11fc4:	00d507b3          	add	a5,a0,a3
   11fc8:	60c71563          	bne	a4,a2,125d2 <_svfprintf_r+0x1c0e>
   11fcc:	000cc583          	lbu	a1,0(s9)
   11fd0:	03000613          	li	a2,48
   11fd4:	3cc58463          	beq	a1,a2,1239c <_svfprintf_r+0x19d8>
   11fd8:	56ba                	lw	a3,172(sp)
   11fda:	010c                	add	a1,sp,128
   11fdc:	97b6                	add	a5,a5,a3
   11fde:	856e                	mv	a0,s11
   11fe0:	ce3e                	sw	a5,28(sp)
   11fe2:	cc3a                	sw	a4,24(sp)
   11fe4:	ca46                	sw	a7,20(sp)
   11fe6:	c916                	sw	t0,144(sp)
   11fe8:	cb7e                	sw	t6,148(sp)
   11fea:	cd7a                	sw	t5,152(sp)
   11fec:	cf5e                	sw	s7,156(sp)
   11fee:	c102                	sw	zero,128(sp)
   11ff0:	c302                	sw	zero,132(sp)
   11ff2:	c502                	sw	zero,136(sp)
   11ff4:	c702                	sw	zero,140(sp)
   11ff6:	7b5080ef          	jal	1afaa <__eqtf2>
   11ffa:	48d2                	lw	a7,20(sp)
   11ffc:	4762                	lw	a4,24(sp)
   11ffe:	47f2                	lw	a5,28(sp)
   12000:	36050763          	beqz	a0,1236e <_svfprintf_r+0x19aa>
   12004:	55fa                	lw	a1,188(sp)
   12006:	00f5fc63          	bgeu	a1,a5,1201e <_svfprintf_r+0x165a>
   1200a:	03000613          	li	a2,48
   1200e:	00158693          	add	a3,a1,1
   12012:	df36                	sw	a3,188(sp)
   12014:	00c58023          	sb	a2,0(a1)
   12018:	55fa                	lw	a1,188(sp)
   1201a:	fef5eae3          	bltu	a1,a5,1200e <_svfprintf_r+0x164a>
   1201e:	57ba                	lw	a5,172(sp)
   12020:	ca3e                	sw	a5,20(sp)
   12022:	419586b3          	sub	a3,a1,s9
   12026:	04700793          	li	a5,71
   1202a:	cc36                	sw	a3,24(sp)
   1202c:	e2f700e3          	beq	a4,a5,11e4c <_svfprintf_r+0x1488>
   12030:	04600793          	li	a5,70
   12034:	3af70863          	beq	a4,a5,123e4 <_svfprintf_r+0x1a20>
   12038:	47d2                	lw	a5,20(sp)
   1203a:	17fd                	add	a5,a5,-1
   1203c:	b50d                	j	11e5e <_svfprintf_r+0x149a>
   1203e:	09010d93          	add	s11,sp,144
   12042:	010c                	add	a1,sp,128
   12044:	1170                	add	a2,sp,172
   12046:	856e                	mv	a0,s11
   12048:	de46                	sw	a7,60(sp)
   1204a:	c116                	sw	t0,128(sp)
   1204c:	c37e                	sw	t6,132(sp)
   1204e:	c57a                	sw	t5,136(sp)
   12050:	ca2e                	sw	a1,20(sp)
   12052:	c75e                	sw	s7,140(sp)
   12054:	731030ef          	jal	15f84 <frexpl>
   12058:	454a                	lw	a0,144(sp)
   1205a:	0000b797          	auipc	a5,0xb
   1205e:	6d678793          	add	a5,a5,1750 # 1d730 <zeroes.0+0x10>
   12062:	4390                	lw	a2,0(a5)
   12064:	c12a                	sw	a0,128(sp)
   12066:	455a                	lw	a0,148(sp)
   12068:	43d4                	lw	a3,4(a5)
   1206a:	4798                	lw	a4,8(a5)
   1206c:	c32a                	sw	a0,132(sp)
   1206e:	456a                	lw	a0,152(sp)
   12070:	47dc                	lw	a5,12(a5)
   12072:	45d2                	lw	a1,20(sp)
   12074:	c52a                	sw	a0,136(sp)
   12076:	457a                	lw	a0,156(sp)
   12078:	d8b2                	sw	a2,112(sp)
   1207a:	1890                	add	a2,sp,112
   1207c:	c72a                	sw	a0,140(sp)
   1207e:	856e                	mv	a0,s11
   12080:	dab6                	sw	a3,116(sp)
   12082:	dcba                	sw	a4,120(sp)
   12084:	debe                	sw	a5,124(sp)
   12086:	204090ef          	jal	1b28a <__multf3>
   1208a:	45d2                	lw	a1,20(sp)
   1208c:	4f4a                	lw	t5,144(sp)
   1208e:	485a                	lw	a6,148(sp)
   12090:	466a                	lw	a2,152(sp)
   12092:	856e                	mv	a0,s11
   12094:	d02e                	sw	a1,32(sp)
   12096:	ce7a                	sw	t5,28(sp)
   12098:	cc42                	sw	a6,24(sp)
   1209a:	ca32                	sw	a2,20(sp)
   1209c:	c102                	sw	zero,128(sp)
   1209e:	c302                	sw	zero,132(sp)
   120a0:	c502                	sw	zero,136(sp)
   120a2:	c702                	sw	zero,140(sp)
   120a4:	707080ef          	jal	1afaa <__eqtf2>
   120a8:	4d7a                	lw	s10,156(sp)
   120aa:	4652                	lw	a2,20(sp)
   120ac:	4862                	lw	a6,24(sp)
   120ae:	4f72                	lw	t5,28(sp)
   120b0:	5582                	lw	a1,32(sp)
   120b2:	58f2                	lw	a7,60(sp)
   120b4:	e119                	bnez	a0,120ba <_svfprintf_r+0x16f6>
   120b6:	4785                	li	a5,1
   120b8:	d73e                	sw	a5,172(sp)
   120ba:	0000b717          	auipc	a4,0xb
   120be:	43270713          	add	a4,a4,1074 # 1d4ec <__clzsi2+0xb0>
   120c2:	06100793          	li	a5,97
   120c6:	ca3a                	sw	a4,20(sp)
   120c8:	00f89763          	bne	a7,a5,120d6 <_svfprintf_r+0x1712>
   120cc:	0000b797          	auipc	a5,0xb
   120d0:	40c78793          	add	a5,a5,1036 # 1d4d8 <__clzsi2+0x9c>
   120d4:	ca3e                	sw	a5,20(sp)
   120d6:	0000b797          	auipc	a5,0xb
   120da:	66a78793          	add	a5,a5,1642 # 1d740 <zeroes.0+0x20>
   120de:	4398                	lw	a4,0(a5)
   120e0:	de4e                	sw	s3,60(sp)
   120e2:	c6da                	sw	s6,76(sp)
   120e4:	cc3a                	sw	a4,24(sp)
   120e6:	43d8                	lw	a4,4(a5)
   120e8:	caa6                	sw	s1,84(sp)
   120ea:	ccd6                	sw	s5,88(sp)
   120ec:	ce3a                	sw	a4,28(sp)
   120ee:	4798                	lw	a4,8(a5)
   120f0:	47dc                	lw	a5,12(a5)
   120f2:	8ae6                	mv	s5,s9
   120f4:	cee6                	sw	s9,92(sp)
   120f6:	8bea                	mv	s7,s10
   120f8:	d03a                	sw	a4,32(sp)
   120fa:	1a7d                	add	s4,s4,-1
   120fc:	c4c6                	sw	a7,72(sp)
   120fe:	c8e2                	sw	s8,80(sp)
   12100:	8cbe                	mv	s9,a5
   12102:	89c2                	mv	s3,a6
   12104:	8b32                	mv	s6,a2
   12106:	8d7a                	mv	s10,t5
   12108:	84ae                	mv	s1,a1
   1210a:	a015                	j	1212e <_svfprintf_r+0x176a>
   1210c:	85a6                	mv	a1,s1
   1210e:	856e                	mv	a0,s11
   12110:	c96a                	sw	s10,144(sp)
   12112:	cb4e                	sw	s3,148(sp)
   12114:	cd5a                	sw	s6,152(sp)
   12116:	cf5e                	sw	s7,156(sp)
   12118:	c102                	sw	zero,128(sp)
   1211a:	c302                	sw	zero,132(sp)
   1211c:	c502                	sw	zero,136(sp)
   1211e:	c702                	sw	zero,140(sp)
   12120:	fffa0c13          	add	s8,s4,-1
   12124:	687080ef          	jal	1afaa <__eqtf2>
   12128:	40050163          	beqz	a0,1252a <_svfprintf_r+0x1b66>
   1212c:	8a62                	mv	s4,s8
   1212e:	47e2                	lw	a5,24(sp)
   12130:	1890                	add	a2,sp,112
   12132:	85a6                	mv	a1,s1
   12134:	d8be                	sw	a5,112(sp)
   12136:	47f2                	lw	a5,28(sp)
   12138:	856e                	mv	a0,s11
   1213a:	c16a                	sw	s10,128(sp)
   1213c:	dabe                	sw	a5,116(sp)
   1213e:	5782                	lw	a5,32(sp)
   12140:	c34e                	sw	s3,132(sp)
   12142:	c55a                	sw	s6,136(sp)
   12144:	dcbe                	sw	a5,120(sp)
   12146:	c75e                	sw	s7,140(sp)
   12148:	dee6                	sw	s9,124(sp)
   1214a:	140090ef          	jal	1b28a <__multf3>
   1214e:	856e                	mv	a0,s11
   12150:	7b90a0ef          	jal	1d108 <__fixtfsi>
   12154:	85aa                	mv	a1,a0
   12156:	8c2a                	mv	s8,a0
   12158:	856e                	mv	a0,s11
   1215a:	4d4a                	lw	s10,144(sp)
   1215c:	4bda                	lw	s7,148(sp)
   1215e:	4b6a                	lw	s6,152(sp)
   12160:	49fa                	lw	s3,156(sp)
   12162:	04a0b0ef          	jal	1d1ac <__floatsitf>
   12166:	46ca                	lw	a3,144(sp)
   12168:	188c                	add	a1,sp,112
   1216a:	1090                	add	a2,sp,96
   1216c:	d0b6                	sw	a3,96(sp)
   1216e:	46da                	lw	a3,148(sp)
   12170:	8526                	mv	a0,s1
   12172:	d8ea                	sw	s10,112(sp)
   12174:	d2b6                	sw	a3,100(sp)
   12176:	46ea                	lw	a3,152(sp)
   12178:	dade                	sw	s7,116(sp)
   1217a:	dcda                	sw	s6,120(sp)
   1217c:	d4b6                	sw	a3,104(sp)
   1217e:	46fa                	lw	a3,156(sp)
   12180:	dece                	sw	s3,124(sp)
   12182:	d6b6                	sw	a3,108(sp)
   12184:	5dd090ef          	jal	1bf60 <__subtf3>
   12188:	47d2                	lw	a5,20(sp)
   1218a:	8fd6                	mv	t6,s5
   1218c:	0a85                	add	s5,s5,1
   1218e:	018786b3          	add	a3,a5,s8
   12192:	0006c583          	lbu	a1,0(a3)
   12196:	4d0a                	lw	s10,128(sp)
   12198:	499a                	lw	s3,132(sp)
   1219a:	4b2a                	lw	s6,136(sp)
   1219c:	4bba                	lw	s7,140(sp)
   1219e:	57fd                	li	a5,-1
   121a0:	feba8fa3          	sb	a1,-1(s5)
   121a4:	f6fa14e3          	bne	s4,a5,1210c <_svfprintf_r+0x1748>
   121a8:	0000b517          	auipc	a0,0xb
   121ac:	5a850513          	add	a0,a0,1448 # 1d750 <zeroes.0+0x30>
   121b0:	48a6                	lw	a7,72(sp)
   121b2:	00452283          	lw	t0,4(a0)
   121b6:	00852383          	lw	t2,8(a0)
   121ba:	455c                	lw	a5,12(a0)
   121bc:	00052a03          	lw	s4,0(a0)
   121c0:	8f6a                	mv	t5,s10
   121c2:	884e                	mv	a6,s3
   121c4:	865a                	mv	a2,s6
   121c6:	85a6                	mv	a1,s1
   121c8:	8d5e                	mv	s10,s7
   121ca:	4cf6                	lw	s9,92(sp)
   121cc:	59f2                	lw	s3,60(sp)
   121ce:	4b36                	lw	s6,76(sp)
   121d0:	44d6                	lw	s1,84(sp)
   121d2:	ce7e                	sw	t6,28(sp)
   121d4:	cc46                	sw	a7,24(sp)
   121d6:	cee2                	sw	s8,92(sp)
   121d8:	8bd6                	mv	s7,s5
   121da:	4c46                	lw	s8,80(sp)
   121dc:	4ae6                	lw	s5,88(sp)
   121de:	c97a                	sw	t5,144(sp)
   121e0:	ccfa                	sw	t5,88(sp)
   121e2:	cb42                	sw	a6,148(sp)
   121e4:	cac2                	sw	a6,84(sp)
   121e6:	cd32                	sw	a2,152(sp)
   121e8:	c8b2                	sw	a2,80(sp)
   121ea:	cf6a                	sw	s10,156(sp)
   121ec:	c152                	sw	s4,128(sp)
   121ee:	c316                	sw	t0,132(sp)
   121f0:	c696                	sw	t0,76(sp)
   121f2:	c51e                	sw	t2,136(sp)
   121f4:	c49e                	sw	t2,72(sp)
   121f6:	c73e                	sw	a5,140(sp)
   121f8:	de3e                	sw	a5,60(sp)
   121fa:	d02e                	sw	a1,32(sp)
   121fc:	856e                	mv	a0,s11
   121fe:	659080ef          	jal	1b056 <__getf2>
   12202:	48e2                	lw	a7,24(sp)
   12204:	4ff2                	lw	t6,28(sp)
   12206:	00a04e63          	bgtz	a0,12222 <_svfprintf_r+0x185e>
   1220a:	5582                	lw	a1,32(sp)
   1220c:	856e                	mv	a0,s11
   1220e:	ce46                	sw	a7,28(sp)
   12210:	cc7e                	sw	t6,24(sp)
   12212:	599080ef          	jal	1afaa <__eqtf2>
   12216:	48f2                	lw	a7,28(sp)
   12218:	e521                	bnez	a0,12260 <_svfprintf_r+0x189c>
   1221a:	4776                	lw	a4,92(sp)
   1221c:	4fe2                	lw	t6,24(sp)
   1221e:	8b05                	and	a4,a4,1
   12220:	c321                	beqz	a4,12260 <_svfprintf_r+0x189c>
   12222:	47d2                	lw	a5,20(sp)
   12224:	df7e                	sw	t6,188(sp)
   12226:	fffbc683          	lbu	a3,-1(s7)
   1222a:	00f7c603          	lbu	a2,15(a5)
   1222e:	875e                	mv	a4,s7
   12230:	00c69e63          	bne	a3,a2,1224c <_svfprintf_r+0x1888>
   12234:	03000593          	li	a1,48
   12238:	feb70fa3          	sb	a1,-1(a4)
   1223c:	577a                	lw	a4,188(sp)
   1223e:	fff70793          	add	a5,a4,-1
   12242:	df3e                	sw	a5,188(sp)
   12244:	fff74683          	lbu	a3,-1(a4)
   12248:	fed608e3          	beq	a2,a3,12238 <_svfprintf_r+0x1874>
   1224c:	00168613          	add	a2,a3,1
   12250:	03900593          	li	a1,57
   12254:	0ff67613          	zext.b	a2,a2
   12258:	02b68a63          	beq	a3,a1,1228c <_svfprintf_r+0x18c8>
   1225c:	fec70fa3          	sb	a2,-1(a4)
   12260:	57ba                	lw	a5,172(sp)
   12262:	419b8733          	sub	a4,s7,s9
   12266:	cc3a                	sw	a4,24(sp)
   12268:	ca3e                	sw	a5,20(sp)
   1226a:	17fd                	add	a5,a5,-1
   1226c:	06100693          	li	a3,97
   12270:	d73e                	sw	a5,172(sp)
   12272:	07000713          	li	a4,112
   12276:	00d88663          	beq	a7,a3,12282 <_svfprintf_r+0x18be>
   1227a:	05000713          	li	a4,80
   1227e:	04100893          	li	a7,65
   12282:	4685                	li	a3,1
   12284:	b6cd                	j	11e66 <_svfprintf_r+0x14a2>
   12286:	86d2                	mv	a3,s4
   12288:	460d                	li	a2,3
   1228a:	b309                	j	11f8c <_svfprintf_r+0x15c8>
   1228c:	47d2                	lw	a5,20(sp)
   1228e:	00a7c603          	lbu	a2,10(a5)
   12292:	b7e9                	j	1225c <_svfprintf_r+0x1898>
   12294:	0a714783          	lbu	a5,167(sp)
   12298:	4b26                	lw	s6,72(sp)
   1229a:	4a01                	li	s4,0
   1229c:	c399                	beqz	a5,122a2 <_svfprintf_r+0x18de>
   1229e:	a31fe06f          	j	10cce <_svfprintf_r+0x30a>
   122a2:	86ffe06f          	j	10b10 <_svfprintf_r+0x14c>
   122a6:	47e2                	lw	a5,24(sp)
   122a8:	4752                	lw	a4,20(sp)
   122aa:	16f74363          	blt	a4,a5,12410 <_svfprintf_r+0x1a4c>
   122ae:	4752                	lw	a4,20(sp)
   122b0:	001b7793          	and	a5,s6,1
   122b4:	8dba                	mv	s11,a4
   122b6:	c399                	beqz	a5,122bc <_svfprintf_r+0x18f8>
   122b8:	5722                	lw	a4,40(sp)
   122ba:	9dba                	add	s11,s11,a4
   122bc:	400b7e93          	and	t4,s6,1024
   122c0:	000e8563          	beqz	t4,122ca <_svfprintf_r+0x1906>
   122c4:	47d2                	lw	a5,20(sp)
   122c6:	20f04763          	bgtz	a5,124d4 <_svfprintf_r+0x1b10>
   122ca:	fffdc713          	not	a4,s11
   122ce:	877d                	sra	a4,a4,0x1f
   122d0:	00edfd33          	and	s10,s11,a4
   122d4:	06700893          	li	a7,103
   122d8:	d002                	sw	zero,32(sp)
   122da:	ce02                	sw	zero,28(sp)
   122dc:	b12d                	j	11f06 <_svfprintf_r+0x1542>
   122de:	4525                	li	a0,9
   122e0:	ffa56963          	bltu	a0,s10,11ad2 <_svfprintf_r+0x110e>
   122e4:	857ff06f          	j	11b3a <_svfprintf_r+0x1176>
   122e8:	01d0                	add	a2,sp,196
   122ea:	85ce                	mv	a1,s3
   122ec:	8556                	mv	a0,s5
   122ee:	53e020ef          	jal	1482c <__ssprint_r>
   122f2:	8c051463          	bnez	a0,113ba <_svfprintf_r+0x9f6>
   122f6:	000bc583          	lbu	a1,0(s7)
   122fa:	463e                	lw	a2,204(sp)
   122fc:	854a                	mv	a0,s2
   122fe:	47c1                	li	a5,16
   12300:	469d                	li	a3,7
   12302:	9cae                	add	s9,s9,a1
   12304:	e6eff06f          	j	11972 <_svfprintf_r+0xfae>
   12308:	07800793          	li	a5,120
   1230c:	03000713          	li	a4,48
   12310:	0af104a3          	sb	a5,169(sp)
   12314:	0ae10423          	sb	a4,168(sp)
   12318:	06300793          	li	a5,99
   1231c:	c602                	sw	zero,12(sp)
   1231e:	002b6b13          	or	s6,s6,2
   12322:	12c10c93          	add	s9,sp,300
   12326:	0147c463          	blt	a5,s4,1232e <_svfprintf_r+0x196a>
   1232a:	ab5fe06f          	j	10dde <_svfprintf_r+0x41a>
   1232e:	001a0593          	add	a1,s4,1
   12332:	8556                	mv	a0,s5
   12334:	c646                	sw	a7,12(sp)
   12336:	069000ef          	jal	12b9e <_malloc_r>
   1233a:	48b2                	lw	a7,12(sp)
   1233c:	8caa                	mv	s9,a0
   1233e:	28050e63          	beqz	a0,125da <_svfprintf_r+0x1c16>
   12342:	c62a                	sw	a0,12(sp)
   12344:	a9bfe06f          	j	10dde <_svfprintf_r+0x41a>
   12348:	02d00793          	li	a5,45
   1234c:	0af103a3          	sb	a5,167(sp)
   12350:	b8dd                	j	11c46 <_svfprintf_r+0x1282>
   12352:	0a714783          	lbu	a5,167(sp)
   12356:	c85e                	sw	s7,16(sp)
   12358:	d002                	sw	zero,32(sp)
   1235a:	ce02                	sw	zero,28(sp)
   1235c:	ca02                	sw	zero,20(sp)
   1235e:	8d52                	mv	s10,s4
   12360:	8dd2                	mv	s11,s4
   12362:	4a01                	li	s4,0
   12364:	c399                	beqz	a5,1236a <_svfprintf_r+0x19a6>
   12366:	969fe06f          	j	10cce <_svfprintf_r+0x30a>
   1236a:	fa6fe06f          	j	10b10 <_svfprintf_r+0x14c>
   1236e:	56ba                	lw	a3,172(sp)
   12370:	85be                	mv	a1,a5
   12372:	ca36                	sw	a3,20(sp)
   12374:	b17d                	j	12022 <_svfprintf_r+0x165e>
   12376:	4592                	lw	a1,4(sp)
   12378:	01d0                	add	a2,sp,196
   1237a:	8556                	mv	a0,s5
   1237c:	4b0020ef          	jal	1482c <__ssprint_r>
   12380:	c119                	beqz	a0,12386 <_svfprintf_r+0x19c2>
   12382:	838ff06f          	j	113ba <_svfprintf_r+0x9f6>
   12386:	5a3a                	lw	s4,172(sp)
   12388:	47e2                	lw	a5,24(sp)
   1238a:	463e                	lw	a2,204(sp)
   1238c:	84ca                	mv	s1,s2
   1238e:	41478a33          	sub	s4,a5,s4
   12392:	a06ff06f          	j	11598 <_svfprintf_r+0xbd4>
   12396:	05800793          	li	a5,88
   1239a:	bf8d                	j	1230c <_svfprintf_r+0x1948>
   1239c:	010c                	add	a1,sp,128
   1239e:	856e                	mv	a0,s11
   123a0:	ccbe                	sw	a5,88(sp)
   123a2:	caba                	sw	a4,84(sp)
   123a4:	c8c6                	sw	a7,80(sp)
   123a6:	c6b6                	sw	a3,76(sp)
   123a8:	c916                	sw	t0,144(sp)
   123aa:	d016                	sw	t0,32(sp)
   123ac:	cb7e                	sw	t6,148(sp)
   123ae:	ce7e                	sw	t6,28(sp)
   123b0:	cd7a                	sw	t5,152(sp)
   123b2:	cc7a                	sw	t5,24(sp)
   123b4:	ca2e                	sw	a1,20(sp)
   123b6:	cf5e                	sw	s7,156(sp)
   123b8:	c102                	sw	zero,128(sp)
   123ba:	c302                	sw	zero,132(sp)
   123bc:	c502                	sw	zero,136(sp)
   123be:	c702                	sw	zero,140(sp)
   123c0:	3eb080ef          	jal	1afaa <__eqtf2>
   123c4:	45d2                	lw	a1,20(sp)
   123c6:	4f62                	lw	t5,24(sp)
   123c8:	4ff2                	lw	t6,28(sp)
   123ca:	5282                	lw	t0,32(sp)
   123cc:	46b6                	lw	a3,76(sp)
   123ce:	48c6                	lw	a7,80(sp)
   123d0:	4756                	lw	a4,84(sp)
   123d2:	47e6                	lw	a5,88(sp)
   123d4:	18051e63          	bnez	a0,12570 <_svfprintf_r+0x1bac>
   123d8:	573a                	lw	a4,172(sp)
   123da:	97ba                	add	a5,a5,a4
   123dc:	419787b3          	sub	a5,a5,s9
   123e0:	ca3a                	sw	a4,20(sp)
   123e2:	cc3e                	sw	a5,24(sp)
   123e4:	4752                	lw	a4,20(sp)
   123e6:	001b7793          	and	a5,s6,1
   123ea:	0147e7b3          	or	a5,a5,s4
   123ee:	1ae05c63          	blez	a4,125a6 <_svfprintf_r+0x1be2>
   123f2:	16079163          	bnez	a5,12554 <_svfprintf_r+0x1b90>
   123f6:	4dd2                	lw	s11,20(sp)
   123f8:	06600893          	li	a7,102
   123fc:	400b7e93          	and	t4,s6,1024
   12400:	0c0e9c63          	bnez	t4,124d8 <_svfprintf_r+0x1b14>
   12404:	fffdc713          	not	a4,s11
   12408:	877d                	sra	a4,a4,0x1f
   1240a:	00edfd33          	and	s10,s11,a4
   1240e:	b5e9                	j	122d8 <_svfprintf_r+0x1914>
   12410:	47e2                	lw	a5,24(sp)
   12412:	5722                	lw	a4,40(sp)
   12414:	06700893          	li	a7,103
   12418:	00e78db3          	add	s11,a5,a4
   1241c:	47d2                	lw	a5,20(sp)
   1241e:	fcf04fe3          	bgtz	a5,123fc <_svfprintf_r+0x1a38>
   12422:	40fd8f33          	sub	t5,s11,a5
   12426:	001f0d93          	add	s11,t5,1
   1242a:	fffdc713          	not	a4,s11
   1242e:	877d                	sra	a4,a4,0x1f
   12430:	00edfd33          	and	s10,s11,a4
   12434:	b555                	j	122d8 <_svfprintf_r+0x1914>
   12436:	8fda                	mv	t6,s6
   12438:	86ffe06f          	j	10ca6 <_svfprintf_r+0x2e2>
   1243c:	014507b3          	add	a5,a0,s4
   12440:	04700713          	li	a4,71
   12444:	010c                	add	a1,sp,128
   12446:	be61                	j	11fde <_svfprintf_r+0x161a>
   12448:	0000b697          	auipc	a3,0xb
   1244c:	2d868693          	add	a3,a3,728 # 1d720 <zeroes.0>
   12450:	ea3fe06f          	j	112f2 <_svfprintf_r+0x92e>
   12454:	0b610713          	add	a4,sp,182
   12458:	e699                	bnez	a3,12466 <_svfprintf_r+0x1aa2>
   1245a:	03000713          	li	a4,48
   1245e:	0ae10b23          	sb	a4,182(sp)
   12462:	0b710713          	add	a4,sp,183
   12466:	0b14                	add	a3,sp,400
   12468:	03078793          	add	a5,a5,48
   1246c:	40d706b3          	sub	a3,a4,a3
   12470:	00f70023          	sb	a5,0(a4)
   12474:	0dd68793          	add	a5,a3,221
   12478:	de3e                	sw	a5,60(sp)
   1247a:	b485                	j	11eda <_svfprintf_r+0x1516>
   1247c:	001b7793          	and	a5,s6,1
   12480:	a60786e3          	beqz	a5,11eec <_svfprintf_r+0x1528>
   12484:	b495                	j	11ee8 <_svfprintf_r+0x1524>
   12486:	5712                	lw	a4,36(sp)
   12488:	47b1                	li	a5,12
   1248a:	c31c                	sw	a5,0(a4)
   1248c:	57fd                	li	a5,-1
   1248e:	c43e                	sw	a5,8(sp)
   12490:	f8efe06f          	j	10c1e <_svfprintf_r+0x25a>
   12494:	86ce                	mv	a3,s3
   12496:	49d2                	lw	s3,20(sp)
   12498:	9652                	add	a2,a2,s4
   1249a:	0785                	add	a5,a5,1
   1249c:	c094                	sw	a3,0(s1)
   1249e:	0144a223          	sw	s4,4(s1)
   124a2:	c7b2                	sw	a2,204(sp)
   124a4:	c5be                	sw	a5,200(sp)
   124a6:	469d                	li	a3,7
   124a8:	eef6d763          	bge	a3,a5,11b96 <_svfprintf_r+0x11d2>
   124ac:	4592                	lw	a1,4(sp)
   124ae:	01d0                	add	a2,sp,196
   124b0:	8556                	mv	a0,s5
   124b2:	37a020ef          	jal	1482c <__ssprint_r>
   124b6:	c119                	beqz	a0,124bc <_svfprintf_r+0x1af8>
   124b8:	f03fe06f          	j	113ba <_svfprintf_r+0x9f6>
   124bc:	463e                	lw	a2,204(sp)
   124be:	47ae                	lw	a5,200(sp)
   124c0:	84ca                	mv	s1,s2
   124c2:	ed6ff06f          	j	11b98 <_svfprintf_r+0x11d4>
   124c6:	000a0463          	beqz	s4,124ce <_svfprintf_r+0x1b0a>
   124ca:	915fe06f          	j	10dde <_svfprintf_r+0x41a>
   124ce:	4a05                	li	s4,1
   124d0:	90ffe06f          	j	10dde <_svfprintf_r+0x41a>
   124d4:	06700893          	li	a7,103
   124d8:	5662                	lw	a2,56(sp)
   124da:	0ff00713          	li	a4,255
   124de:	00064783          	lbu	a5,0(a2)
   124e2:	0ee78563          	beq	a5,a4,125cc <_svfprintf_r+0x1c08>
   124e6:	46d2                	lw	a3,20(sp)
   124e8:	4501                	li	a0,0
   124ea:	4581                	li	a1,0
   124ec:	00d7da63          	bge	a5,a3,12500 <_svfprintf_r+0x1b3c>
   124f0:	8e9d                	sub	a3,a3,a5
   124f2:	00164783          	lbu	a5,1(a2)
   124f6:	c795                	beqz	a5,12522 <_svfprintf_r+0x1b5e>
   124f8:	0585                	add	a1,a1,1
   124fa:	0605                	add	a2,a2,1
   124fc:	fee798e3          	bne	a5,a4,124ec <_svfprintf_r+0x1b28>
   12500:	dc32                	sw	a2,56(sp)
   12502:	ce2e                	sw	a1,28(sp)
   12504:	d02a                	sw	a0,32(sp)
   12506:	ca36                	sw	a3,20(sp)
   12508:	4772                	lw	a4,28(sp)
   1250a:	5782                	lw	a5,32(sp)
   1250c:	97ba                	add	a5,a5,a4
   1250e:	4716                	lw	a4,68(sp)
   12510:	02e787b3          	mul	a5,a5,a4
   12514:	9dbe                	add	s11,s11,a5
   12516:	fffdc713          	not	a4,s11
   1251a:	877d                	sra	a4,a4,0x1f
   1251c:	00edfd33          	and	s10,s11,a4
   12520:	b2dd                	j	11f06 <_svfprintf_r+0x1542>
   12522:	00064783          	lbu	a5,0(a2)
   12526:	0505                	add	a0,a0,1
   12528:	bfd1                	j	124fc <_svfprintf_r+0x1b38>
   1252a:	8bd6                	mv	s7,s5
   1252c:	001a0713          	add	a4,s4,1
   12530:	59f2                	lw	s3,60(sp)
   12532:	48a6                	lw	a7,72(sp)
   12534:	4b36                	lw	s6,76(sp)
   12536:	4c46                	lw	s8,80(sp)
   12538:	44d6                	lw	s1,84(sp)
   1253a:	4ae6                	lw	s5,88(sp)
   1253c:	4cf6                	lw	s9,92(sp)
   1253e:	975e                	add	a4,a4,s7
   12540:	03000693          	li	a3,48
   12544:	d00a4ee3          	bltz	s4,12260 <_svfprintf_r+0x189c>
   12548:	0b85                	add	s7,s7,1
   1254a:	fedb8fa3          	sb	a3,-1(s7)
   1254e:	feeb9de3          	bne	s7,a4,12548 <_svfprintf_r+0x1b84>
   12552:	b339                	j	12260 <_svfprintf_r+0x189c>
   12554:	57a2                	lw	a5,40(sp)
   12556:	06600893          	li	a7,102
   1255a:	00fa0f33          	add	t5,s4,a5
   1255e:	00ef0db3          	add	s11,t5,a4
   12562:	bd69                	j	123fc <_svfprintf_r+0x1a38>
   12564:	0000b697          	auipc	a3,0xb
   12568:	1bc68693          	add	a3,a3,444 # 1d720 <zeroes.0>
   1256c:	e78ff06f          	j	11be4 <_svfprintf_r+0x1220>
   12570:	4605                	li	a2,1
   12572:	40d606b3          	sub	a3,a2,a3
   12576:	d736                	sw	a3,172(sp)
   12578:	b495                	j	11fdc <_svfprintf_r+0x1618>
   1257a:	0000b697          	auipc	a3,0xb
   1257e:	1a668693          	add	a3,a3,422 # 1d720 <zeroes.0>
   12582:	fc4ff06f          	j	11d46 <_svfprintf_r+0x1382>
   12586:	4789                	li	a5,2
   12588:	de3e                	sw	a5,60(sp)
   1258a:	ba81                	j	11eda <_svfprintf_r+0x1516>
   1258c:	47c2                	lw	a5,16(sp)
   1258e:	0007aa03          	lw	s4,0(a5)
   12592:	0791                	add	a5,a5,4
   12594:	000a5363          	bgez	s4,1259a <_svfprintf_r+0x1bd6>
   12598:	5a7d                	li	s4,-1
   1259a:	0019c883          	lbu	a7,1(s3)
   1259e:	c83e                	sw	a5,16(sp)
   125a0:	89b6                	mv	s3,a3
   125a2:	d0cfe06f          	j	10aae <_svfprintf_r+0xea>
   125a6:	e791                	bnez	a5,125b2 <_svfprintf_r+0x1bee>
   125a8:	4d05                	li	s10,1
   125aa:	06600893          	li	a7,102
   125ae:	4d85                	li	s11,1
   125b0:	b325                	j	122d8 <_svfprintf_r+0x1914>
   125b2:	57a2                	lw	a5,40(sp)
   125b4:	06600893          	li	a7,102
   125b8:	00178f13          	add	t5,a5,1
   125bc:	014f0db3          	add	s11,t5,s4
   125c0:	fffdc713          	not	a4,s11
   125c4:	877d                	sra	a4,a4,0x1f
   125c6:	00edfd33          	and	s10,s11,a4
   125ca:	b339                	j	122d8 <_svfprintf_r+0x1914>
   125cc:	d002                	sw	zero,32(sp)
   125ce:	ce02                	sw	zero,28(sp)
   125d0:	bf25                	j	12508 <_svfprintf_r+0x1b44>
   125d2:	04500713          	li	a4,69
   125d6:	010c                	add	a1,sp,128
   125d8:	b419                	j	11fde <_svfprintf_r+0x161a>
   125da:	4712                	lw	a4,4(sp)
   125dc:	00c75783          	lhu	a5,12(a4)
   125e0:	0407e793          	or	a5,a5,64
   125e4:	00f71623          	sh	a5,12(a4)
   125e8:	dfafe06f          	j	10be2 <_svfprintf_r+0x21e>
   125ec:	0000b697          	auipc	a3,0xb
   125f0:	13468693          	add	a3,a3,308 # 1d720 <zeroes.0>
   125f4:	b555                	j	12498 <_svfprintf_r+0x1ad4>

000125f6 <_ldtoa_r>:
   125f6:	0000b897          	auipc	a7,0xb
   125fa:	18a88893          	add	a7,a7,394 # 1d780 <zeroes.0+0x60>
   125fe:	0008af83          	lw	t6,0(a7)
   12602:	0048af03          	lw	t5,4(a7)
   12606:	0088ae83          	lw	t4,8(a7)
   1260a:	00c8ae03          	lw	t3,12(a7)
   1260e:	0108a303          	lw	t1,16(a7)
   12612:	03852883          	lw	a7,56(a0)
   12616:	7131                	add	sp,sp,-192
   12618:	d94a                	sw	s2,176(sp)
   1261a:	d74e                	sw	s3,172(sp)
   1261c:	d552                	sw	s4,168(sp)
   1261e:	d15a                	sw	s6,160(sp)
   12620:	cf5e                	sw	s7,156(sp)
   12622:	cd62                	sw	s8,152(sp)
   12624:	cb66                	sw	s9,148(sp)
   12626:	c96a                	sw	s10,144(sp)
   12628:	df06                	sw	ra,188(sp)
   1262a:	dd22                	sw	s0,184(sp)
   1262c:	db26                	sw	s1,180(sp)
   1262e:	d356                	sw	s5,164(sp)
   12630:	c76e                	sw	s11,140(sp)
   12632:	d6fe                	sw	t6,108(sp)
   12634:	d8fa                	sw	t5,112(sp)
   12636:	daf6                	sw	t4,116(sp)
   12638:	dcf2                	sw	t3,120(sp)
   1263a:	de9a                	sw	t1,124(sp)
   1263c:	d032                	sw	a2,32(sp)
   1263e:	d236                	sw	a3,36(sp)
   12640:	0005aa03          	lw	s4,0(a1)
   12644:	0045a983          	lw	s3,4(a1)
   12648:	0085a903          	lw	s2,8(a1)
   1264c:	00c5ac03          	lw	s8,12(a1)
   12650:	8b2a                	mv	s6,a0
   12652:	8bba                	mv	s7,a4
   12654:	8cbe                	mv	s9,a5
   12656:	8d42                	mv	s10,a6
   12658:	00088f63          	beqz	a7,12676 <_ldtoa_r+0x80>
   1265c:	5d54                	lw	a3,60(a0)
   1265e:	4705                	li	a4,1
   12660:	85c6                	mv	a1,a7
   12662:	00d71733          	sll	a4,a4,a3
   12666:	00d8a223          	sw	a3,4(a7)
   1266a:	00e8a423          	sw	a4,8(a7)
   1266e:	291030ef          	jal	160fe <_Bfree>
   12672:	020b2c23          	sw	zero,56(s6)
   12676:	5666                	lw	a2,120(sp)
   12678:	01fc5693          	srl	a3,s8,0x1f
   1267c:	001c1a93          	sll	s5,s8,0x1
   12680:	40165713          	sra	a4,a2,0x1
   12684:	74f1                	lui	s1,0xffffc
   12686:	001c1413          	sll	s0,s8,0x1
   1268a:	8f75                	and	a4,a4,a3
   1268c:	011ada93          	srl	s5,s5,0x11
   12690:	f9148493          	add	s1,s1,-111 # ffffbf91 <__BSS_END__+0xfffdd46d>
   12694:	010c1d93          	sll	s11,s8,0x10
   12698:	00dca023          	sw	a3,0(s9)
   1269c:	8005                	srl	s0,s0,0x1
   1269e:	8f31                	xor	a4,a4,a2
   126a0:	010ddd93          	srl	s11,s11,0x10
   126a4:	009a87b3          	add	a5,s5,s1
   126a8:	180c                	add	a1,sp,48
   126aa:	0088                	add	a0,sp,64
   126ac:	c0d2                	sw	s4,64(sp)
   126ae:	c2ce                	sw	s3,68(sp)
   126b0:	c4ca                	sw	s2,72(sp)
   126b2:	c6a2                	sw	s0,76(sp)
   126b4:	d852                	sw	s4,48(sp)
   126b6:	da4e                	sw	s3,52(sp)
   126b8:	dc4a                	sw	s2,56(sp)
   126ba:	de22                	sw	s0,60(sp)
   126bc:	dcba                	sw	a4,120(sp)
   126be:	ce3e                	sw	a5,28(sp)
   126c0:	ced2                	sw	s4,92(sp)
   126c2:	d0ce                	sw	s3,96(sp)
   126c4:	d2ca                	sw	s2,100(sp)
   126c6:	d4ee                	sw	s11,104(sp)
   126c8:	1d70a0ef          	jal	1d09e <__unordtf2>
   126cc:	0e051b63          	bnez	a0,127c2 <_ldtoa_r+0x1cc>
   126d0:	0000b797          	auipc	a5,0xb
   126d4:	09078793          	add	a5,a5,144 # 1d760 <zeroes.0+0x40>
   126d8:	4390                	lw	a2,0(a5)
   126da:	43d4                	lw	a3,4(a5)
   126dc:	4784                	lw	s1,8(a5)
   126de:	00c7ac83          	lw	s9,12(a5)
   126e2:	180c                	add	a1,sp,48
   126e4:	0088                	add	a0,sp,64
   126e6:	c0d2                	sw	s4,64(sp)
   126e8:	c2ce                	sw	s3,68(sp)
   126ea:	c4ca                	sw	s2,72(sp)
   126ec:	c6a2                	sw	s0,76(sp)
   126ee:	d832                	sw	a2,48(sp)
   126f0:	d632                	sw	a2,44(sp)
   126f2:	da36                	sw	a3,52(sp)
   126f4:	d436                	sw	a3,40(sp)
   126f6:	dc26                	sw	s1,56(sp)
   126f8:	de66                	sw	s9,60(sp)
   126fa:	1a50a0ef          	jal	1d09e <__unordtf2>
   126fe:	ed29                	bnez	a0,12758 <_ldtoa_r+0x162>
   12700:	180c                	add	a1,sp,48
   12702:	0088                	add	a0,sp,64
   12704:	26f080ef          	jal	1b172 <__letf2>
   12708:	04a05863          	blez	a0,12758 <_ldtoa_r+0x162>
   1270c:	478d                	li	a5,3
   1270e:	ccbe                	sw	a5,88(sp)
   12710:	5782                	lw	a5,32(sp)
   12712:	5812                	lw	a6,36(sp)
   12714:	4672                	lw	a2,28(sp)
   12716:	08b8                	add	a4,sp,88
   12718:	c06a                	sw	s10,0(sp)
   1271a:	88de                	mv	a7,s7
   1271c:	08f4                	add	a3,sp,92
   1271e:	10ec                	add	a1,sp,108
   12720:	855a                	mv	a0,s6
   12722:	529000ef          	jal	1344a <__gdtoa>
   12726:	000ba703          	lw	a4,0(s7)
   1272a:	77e1                	lui	a5,0xffff8
   1272c:	00f71763          	bne	a4,a5,1273a <_ldtoa_r+0x144>
   12730:	800007b7          	lui	a5,0x80000
   12734:	17fd                	add	a5,a5,-1 # 7fffffff <__BSS_END__+0x7ffe14db>
   12736:	00fba023          	sw	a5,0(s7)
   1273a:	50fa                	lw	ra,188(sp)
   1273c:	546a                	lw	s0,184(sp)
   1273e:	54da                	lw	s1,180(sp)
   12740:	594a                	lw	s2,176(sp)
   12742:	59ba                	lw	s3,172(sp)
   12744:	5a2a                	lw	s4,168(sp)
   12746:	5a9a                	lw	s5,164(sp)
   12748:	5b0a                	lw	s6,160(sp)
   1274a:	4bfa                	lw	s7,156(sp)
   1274c:	4c6a                	lw	s8,152(sp)
   1274e:	4cda                	lw	s9,148(sp)
   12750:	4d4a                	lw	s10,144(sp)
   12752:	4dba                	lw	s11,140(sp)
   12754:	6129                	add	sp,sp,192
   12756:	8082                	ret
   12758:	0000b797          	auipc	a5,0xb
   1275c:	01878793          	add	a5,a5,24 # 1d770 <zeroes.0+0x50>
   12760:	4390                	lw	a2,0(a5)
   12762:	43d4                	lw	a3,4(a5)
   12764:	4798                	lw	a4,8(a5)
   12766:	47dc                	lw	a5,12(a5)
   12768:	180c                	add	a1,sp,48
   1276a:	0088                	add	a0,sp,64
   1276c:	c0d2                	sw	s4,64(sp)
   1276e:	c2ce                	sw	s3,68(sp)
   12770:	c4ca                	sw	s2,72(sp)
   12772:	c6a2                	sw	s0,76(sp)
   12774:	d832                	sw	a2,48(sp)
   12776:	da36                	sw	a3,52(sp)
   12778:	dc3a                	sw	a4,56(sp)
   1277a:	de3e                	sw	a5,60(sp)
   1277c:	0db080ef          	jal	1b056 <__getf2>
   12780:	00054963          	bltz	a0,12792 <_ldtoa_r+0x19c>
   12784:	67c1                	lui	a5,0x10
   12786:	00fdedb3          	or	s11,s11,a5
   1278a:	4785                	li	a5,1
   1278c:	ccbe                	sw	a5,88(sp)
   1278e:	d4ee                	sw	s11,104(sp)
   12790:	b741                	j	12710 <_ldtoa_r+0x11a>
   12792:	180c                	add	a1,sp,48
   12794:	0088                	add	a0,sp,64
   12796:	c0d2                	sw	s4,64(sp)
   12798:	c2ce                	sw	s3,68(sp)
   1279a:	c4ca                	sw	s2,72(sp)
   1279c:	c6e2                	sw	s8,76(sp)
   1279e:	d802                	sw	zero,48(sp)
   127a0:	da02                	sw	zero,52(sp)
   127a2:	dc02                	sw	zero,56(sp)
   127a4:	de02                	sw	zero,60(sp)
   127a6:	005080ef          	jal	1afaa <__eqtf2>
   127aa:	e119                	bnez	a0,127b0 <_ldtoa_r+0x1ba>
   127ac:	cc82                	sw	zero,88(sp)
   127ae:	b78d                	j	12710 <_ldtoa_r+0x11a>
   127b0:	74f1                	lui	s1,0xffffc
   127b2:	4789                	li	a5,2
   127b4:	f9248493          	add	s1,s1,-110 # ffffbf92 <__BSS_END__+0xfffdd46e>
   127b8:	ccbe                	sw	a5,88(sp)
   127ba:	009a87b3          	add	a5,s5,s1
   127be:	ce3e                	sw	a5,28(sp)
   127c0:	bf81                	j	12710 <_ldtoa_r+0x11a>
   127c2:	4791                	li	a5,4
   127c4:	ccbe                	sw	a5,88(sp)
   127c6:	b7a9                	j	12710 <_ldtoa_r+0x11a>

000127c8 <_ldcheck>:
   127c8:	715d                	add	sp,sp,-80
   127ca:	c2a6                	sw	s1,68(sp)
   127cc:	4544                	lw	s1,12(a0)
   127ce:	c0ca                	sw	s2,64(sp)
   127d0:	de4e                	sw	s3,60(sp)
   127d2:	00852903          	lw	s2,8(a0)
   127d6:	00452983          	lw	s3,4(a0)
   127da:	dc52                	sw	s4,56(sp)
   127dc:	00052a03          	lw	s4,0(a0)
   127e0:	0486                	sll	s1,s1,0x1
   127e2:	8085                	srl	s1,s1,0x1
   127e4:	858a                	mv	a1,sp
   127e6:	0808                	add	a0,sp,16
   127e8:	c686                	sw	ra,76(sp)
   127ea:	c852                	sw	s4,16(sp)
   127ec:	ca4e                	sw	s3,20(sp)
   127ee:	cc4a                	sw	s2,24(sp)
   127f0:	ce26                	sw	s1,28(sp)
   127f2:	c052                	sw	s4,0(sp)
   127f4:	c24e                	sw	s3,4(sp)
   127f6:	c44a                	sw	s2,8(sp)
   127f8:	c626                	sw	s1,12(sp)
   127fa:	0a50a0ef          	jal	1d09e <__unordtf2>
   127fe:	e525                	bnez	a0,12866 <_ldcheck+0x9e>
   12800:	0000b797          	auipc	a5,0xb
   12804:	f6078793          	add	a5,a5,-160 # 1d760 <zeroes.0+0x40>
   12808:	da56                	sw	s5,52(sp)
   1280a:	d85a                	sw	s6,48(sp)
   1280c:	d65e                	sw	s7,44(sp)
   1280e:	d462                	sw	s8,40(sp)
   12810:	0047ab83          	lw	s7,4(a5)
   12814:	0007ac03          	lw	s8,0(a5)
   12818:	0087ab03          	lw	s6,8(a5)
   1281c:	00c7aa83          	lw	s5,12(a5)
   12820:	858a                	mv	a1,sp
   12822:	0808                	add	a0,sp,16
   12824:	c4a2                	sw	s0,72(sp)
   12826:	c062                	sw	s8,0(sp)
   12828:	c25e                	sw	s7,4(sp)
   1282a:	c45a                	sw	s6,8(sp)
   1282c:	c656                	sw	s5,12(sp)
   1282e:	4405                	li	s0,1
   12830:	06f0a0ef          	jal	1d09e <__unordtf2>
   12834:	c115                	beqz	a0,12858 <_ldcheck+0x90>
   12836:	40b6                	lw	ra,76(sp)
   12838:	00144513          	xor	a0,s0,1
   1283c:	4426                	lw	s0,72(sp)
   1283e:	0ff57513          	zext.b	a0,a0
   12842:	5ad2                	lw	s5,52(sp)
   12844:	5b42                	lw	s6,48(sp)
   12846:	5bb2                	lw	s7,44(sp)
   12848:	5c22                	lw	s8,40(sp)
   1284a:	4496                	lw	s1,68(sp)
   1284c:	4906                	lw	s2,64(sp)
   1284e:	59f2                	lw	s3,60(sp)
   12850:	5a62                	lw	s4,56(sp)
   12852:	0506                	sll	a0,a0,0x1
   12854:	6161                	add	sp,sp,80
   12856:	8082                	ret
   12858:	858a                	mv	a1,sp
   1285a:	0808                	add	a0,sp,16
   1285c:	117080ef          	jal	1b172 <__letf2>
   12860:	00152413          	slti	s0,a0,1
   12864:	bfc9                	j	12836 <_ldcheck+0x6e>
   12866:	40b6                	lw	ra,76(sp)
   12868:	4496                	lw	s1,68(sp)
   1286a:	4906                	lw	s2,64(sp)
   1286c:	59f2                	lw	s3,60(sp)
   1286e:	5a62                	lw	s4,56(sp)
   12870:	4505                	li	a0,1
   12872:	6161                	add	sp,sp,80
   12874:	8082                	ret

00012876 <__fp_lock>:
   12876:	4501                	li	a0,0
   12878:	8082                	ret

0001287a <stdio_exit_handler>:
   1287a:	92018613          	add	a2,gp,-1760 # 1e130 <__sglue>
   1287e:	00000597          	auipc	a1,0x0
   12882:	27c58593          	add	a1,a1,636 # 12afa <_fclose_r>
   12886:	0000b517          	auipc	a0,0xb
   1288a:	78a50513          	add	a0,a0,1930 # 1e010 <_impure_data>
   1288e:	60d0206f          	j	1569a <_fwalk_sglue>

00012892 <cleanup_stdio>:
   12892:	414c                	lw	a1,4(a0)
   12894:	1141                	add	sp,sp,-16
   12896:	c422                	sw	s0,8(sp)
   12898:	c606                	sw	ra,12(sp)
   1289a:	02418793          	add	a5,gp,36 # 1e834 <__sf>
   1289e:	842a                	mv	s0,a0
   128a0:	00f58363          	beq	a1,a5,128a6 <cleanup_stdio+0x14>
   128a4:	2c99                	jal	12afa <_fclose_r>
   128a6:	440c                	lw	a1,8(s0)
   128a8:	08c18793          	add	a5,gp,140 # 1e89c <__sf+0x68>
   128ac:	00f58463          	beq	a1,a5,128b4 <cleanup_stdio+0x22>
   128b0:	8522                	mv	a0,s0
   128b2:	24a1                	jal	12afa <_fclose_r>
   128b4:	444c                	lw	a1,12(s0)
   128b6:	0f418793          	add	a5,gp,244 # 1e904 <__sf+0xd0>
   128ba:	00f58763          	beq	a1,a5,128c8 <cleanup_stdio+0x36>
   128be:	8522                	mv	a0,s0
   128c0:	4422                	lw	s0,8(sp)
   128c2:	40b2                	lw	ra,12(sp)
   128c4:	0141                	add	sp,sp,16
   128c6:	ac15                	j	12afa <_fclose_r>
   128c8:	40b2                	lw	ra,12(sp)
   128ca:	4422                	lw	s0,8(sp)
   128cc:	0141                	add	sp,sp,16
   128ce:	8082                	ret

000128d0 <__fp_unlock>:
   128d0:	4501                	li	a0,0
   128d2:	8082                	ret

000128d4 <global_stdio_init.part.0>:
   128d4:	1101                	add	sp,sp,-32
   128d6:	00000797          	auipc	a5,0x0
   128da:	fa478793          	add	a5,a5,-92 # 1287a <stdio_exit_handler>
   128de:	ce06                	sw	ra,28(sp)
   128e0:	cc22                	sw	s0,24(sp)
   128e2:	ca26                	sw	s1,20(sp)
   128e4:	02418413          	add	s0,gp,36 # 1e834 <__sf>
   128e8:	c84a                	sw	s2,16(sp)
   128ea:	c64e                	sw	s3,12(sp)
   128ec:	c452                	sw	s4,8(sp)
   128ee:	fef1a423          	sw	a5,-24(gp) # 1e7f8 <__stdio_exit_handler>
   128f2:	4621                	li	a2,8
   128f4:	4791                	li	a5,4
   128f6:	4581                	li	a1,0
   128f8:	08018513          	add	a0,gp,128 # 1e890 <__sf+0x5c>
   128fc:	c45c                	sw	a5,12(s0)
   128fe:	00042023          	sw	zero,0(s0)
   12902:	00042223          	sw	zero,4(s0)
   12906:	00042423          	sw	zero,8(s0)
   1290a:	06042223          	sw	zero,100(s0)
   1290e:	00042823          	sw	zero,16(s0)
   12912:	00042a23          	sw	zero,20(s0)
   12916:	00042c23          	sw	zero,24(s0)
   1291a:	f7dfd0ef          	jal	10896 <memset>
   1291e:	67c1                	lui	a5,0x10
   12920:	00004a17          	auipc	s4,0x4
   12924:	3a8a0a13          	add	s4,s4,936 # 16cc8 <__sread>
   12928:	00004997          	auipc	s3,0x4
   1292c:	3dc98993          	add	s3,s3,988 # 16d04 <__swrite>
   12930:	00004917          	auipc	s2,0x4
   12934:	42490913          	add	s2,s2,1060 # 16d54 <__sseek>
   12938:	00004497          	auipc	s1,0x4
   1293c:	46448493          	add	s1,s1,1124 # 16d9c <__sclose>
   12940:	07a5                	add	a5,a5,9 # 10009 <register_fini-0x8b>
   12942:	4621                	li	a2,8
   12944:	4581                	li	a1,0
   12946:	0e818513          	add	a0,gp,232 # 1e8f8 <__sf+0xc4>
   1294a:	03442023          	sw	s4,32(s0)
   1294e:	03342223          	sw	s3,36(s0)
   12952:	03242423          	sw	s2,40(s0)
   12956:	d444                	sw	s1,44(s0)
   12958:	d87c                	sw	a5,116(s0)
   1295a:	cc40                	sw	s0,28(s0)
   1295c:	06042423          	sw	zero,104(s0)
   12960:	06042623          	sw	zero,108(s0)
   12964:	06042823          	sw	zero,112(s0)
   12968:	0c042623          	sw	zero,204(s0)
   1296c:	06042c23          	sw	zero,120(s0)
   12970:	06042e23          	sw	zero,124(s0)
   12974:	08042023          	sw	zero,128(s0)
   12978:	f1ffd0ef          	jal	10896 <memset>
   1297c:	000207b7          	lui	a5,0x20
   12980:	07c9                	add	a5,a5,18 # 20012 <__BSS_END__+0x14ee>
   12982:	08c18713          	add	a4,gp,140 # 1e89c <__sf+0x68>
   12986:	4621                	li	a2,8
   12988:	4581                	li	a1,0
   1298a:	15018513          	add	a0,gp,336 # 1e960 <__sf+0x12c>
   1298e:	09442423          	sw	s4,136(s0)
   12992:	09342623          	sw	s3,140(s0)
   12996:	09242823          	sw	s2,144(s0)
   1299a:	08942a23          	sw	s1,148(s0)
   1299e:	0cf42e23          	sw	a5,220(s0)
   129a2:	08e42223          	sw	a4,132(s0)
   129a6:	0c042823          	sw	zero,208(s0)
   129aa:	0c042a23          	sw	zero,212(s0)
   129ae:	0c042c23          	sw	zero,216(s0)
   129b2:	12042a23          	sw	zero,308(s0)
   129b6:	0e042023          	sw	zero,224(s0)
   129ba:	0e042223          	sw	zero,228(s0)
   129be:	0e042423          	sw	zero,232(s0)
   129c2:	ed5fd0ef          	jal	10896 <memset>
   129c6:	0f418793          	add	a5,gp,244 # 1e904 <__sf+0xd0>
   129ca:	0f442823          	sw	s4,240(s0)
   129ce:	0f342a23          	sw	s3,244(s0)
   129d2:	0f242c23          	sw	s2,248(s0)
   129d6:	0e942e23          	sw	s1,252(s0)
   129da:	40f2                	lw	ra,28(sp)
   129dc:	0ef42623          	sw	a5,236(s0)
   129e0:	4462                	lw	s0,24(sp)
   129e2:	44d2                	lw	s1,20(sp)
   129e4:	4942                	lw	s2,16(sp)
   129e6:	49b2                	lw	s3,12(sp)
   129e8:	4a22                	lw	s4,8(sp)
   129ea:	6105                	add	sp,sp,32
   129ec:	8082                	ret

000129ee <__sfp>:
   129ee:	1101                	add	sp,sp,-32
   129f0:	c64e                	sw	s3,12(sp)
   129f2:	ce06                	sw	ra,28(sp)
   129f4:	cc22                	sw	s0,24(sp)
   129f6:	ca26                	sw	s1,20(sp)
   129f8:	c84a                	sw	s2,16(sp)
   129fa:	fe81a783          	lw	a5,-24(gp) # 1e7f8 <__stdio_exit_handler>
   129fe:	89aa                	mv	s3,a0
   12a00:	c7cd                	beqz	a5,12aaa <__sfp+0xbc>
   12a02:	92018913          	add	s2,gp,-1760 # 1e130 <__sglue>
   12a06:	54fd                	li	s1,-1
   12a08:	00492783          	lw	a5,4(s2)
   12a0c:	00892403          	lw	s0,8(s2)
   12a10:	17fd                	add	a5,a5,-1
   12a12:	0007d763          	bgez	a5,12a20 <__sfp+0x32>
   12a16:	a085                	j	12a76 <__sfp+0x88>
   12a18:	06840413          	add	s0,s0,104
   12a1c:	04978d63          	beq	a5,s1,12a76 <__sfp+0x88>
   12a20:	00c41703          	lh	a4,12(s0)
   12a24:	17fd                	add	a5,a5,-1
   12a26:	fb6d                	bnez	a4,12a18 <__sfp+0x2a>
   12a28:	77c1                	lui	a5,0xffff0
   12a2a:	0785                	add	a5,a5,1 # ffff0001 <__BSS_END__+0xfffd14dd>
   12a2c:	c45c                	sw	a5,12(s0)
   12a2e:	06042223          	sw	zero,100(s0)
   12a32:	00042023          	sw	zero,0(s0)
   12a36:	00042423          	sw	zero,8(s0)
   12a3a:	00042223          	sw	zero,4(s0)
   12a3e:	00042823          	sw	zero,16(s0)
   12a42:	00042a23          	sw	zero,20(s0)
   12a46:	00042c23          	sw	zero,24(s0)
   12a4a:	4621                	li	a2,8
   12a4c:	4581                	li	a1,0
   12a4e:	05c40513          	add	a0,s0,92
   12a52:	e45fd0ef          	jal	10896 <memset>
   12a56:	02042823          	sw	zero,48(s0)
   12a5a:	02042a23          	sw	zero,52(s0)
   12a5e:	04042223          	sw	zero,68(s0)
   12a62:	04042423          	sw	zero,72(s0)
   12a66:	40f2                	lw	ra,28(sp)
   12a68:	8522                	mv	a0,s0
   12a6a:	4462                	lw	s0,24(sp)
   12a6c:	44d2                	lw	s1,20(sp)
   12a6e:	4942                	lw	s2,16(sp)
   12a70:	49b2                	lw	s3,12(sp)
   12a72:	6105                	add	sp,sp,32
   12a74:	8082                	ret
   12a76:	00092403          	lw	s0,0(s2)
   12a7a:	c019                	beqz	s0,12a80 <__sfp+0x92>
   12a7c:	8922                	mv	s2,s0
   12a7e:	b769                	j	12a08 <__sfp+0x1a>
   12a80:	1ac00593          	li	a1,428
   12a84:	854e                	mv	a0,s3
   12a86:	2a21                	jal	12b9e <_malloc_r>
   12a88:	842a                	mv	s0,a0
   12a8a:	c115                	beqz	a0,12aae <__sfp+0xc0>
   12a8c:	0531                	add	a0,a0,12
   12a8e:	4791                	li	a5,4
   12a90:	00042023          	sw	zero,0(s0)
   12a94:	c05c                	sw	a5,4(s0)
   12a96:	c408                	sw	a0,8(s0)
   12a98:	1a000613          	li	a2,416
   12a9c:	4581                	li	a1,0
   12a9e:	df9fd0ef          	jal	10896 <memset>
   12aa2:	00892023          	sw	s0,0(s2)
   12aa6:	8922                	mv	s2,s0
   12aa8:	b785                	j	12a08 <__sfp+0x1a>
   12aaa:	352d                	jal	128d4 <global_stdio_init.part.0>
   12aac:	bf99                	j	12a02 <__sfp+0x14>
   12aae:	00092023          	sw	zero,0(s2)
   12ab2:	47b1                	li	a5,12
   12ab4:	00f9a023          	sw	a5,0(s3)
   12ab8:	b77d                	j	12a66 <__sfp+0x78>

00012aba <__sinit>:
   12aba:	595c                	lw	a5,52(a0)
   12abc:	c391                	beqz	a5,12ac0 <__sinit+0x6>
   12abe:	8082                	ret
   12ac0:	00000797          	auipc	a5,0x0
   12ac4:	dd278793          	add	a5,a5,-558 # 12892 <cleanup_stdio>
   12ac8:	d95c                	sw	a5,52(a0)
   12aca:	fe81a783          	lw	a5,-24(gp) # 1e7f8 <__stdio_exit_handler>
   12ace:	fbe5                	bnez	a5,12abe <__sinit+0x4>
   12ad0:	b511                	j	128d4 <global_stdio_init.part.0>

00012ad2 <__sfp_lock_acquire>:
   12ad2:	8082                	ret

00012ad4 <__sfp_lock_release>:
   12ad4:	8082                	ret

00012ad6 <__fp_lock_all>:
   12ad6:	92018613          	add	a2,gp,-1760 # 1e130 <__sglue>
   12ada:	00000597          	auipc	a1,0x0
   12ade:	d9c58593          	add	a1,a1,-612 # 12876 <__fp_lock>
   12ae2:	4501                	li	a0,0
   12ae4:	3b70206f          	j	1569a <_fwalk_sglue>

00012ae8 <__fp_unlock_all>:
   12ae8:	92018613          	add	a2,gp,-1760 # 1e130 <__sglue>
   12aec:	00000597          	auipc	a1,0x0
   12af0:	de458593          	add	a1,a1,-540 # 128d0 <__fp_unlock>
   12af4:	4501                	li	a0,0
   12af6:	3a50206f          	j	1569a <_fwalk_sglue>

00012afa <_fclose_r>:
   12afa:	1141                	add	sp,sp,-16
   12afc:	c606                	sw	ra,12(sp)
   12afe:	c04a                	sw	s2,0(sp)
   12b00:	cd89                	beqz	a1,12b1a <_fclose_r+0x20>
   12b02:	c422                	sw	s0,8(sp)
   12b04:	c226                	sw	s1,4(sp)
   12b06:	842e                	mv	s0,a1
   12b08:	84aa                	mv	s1,a0
   12b0a:	c119                	beqz	a0,12b10 <_fclose_r+0x16>
   12b0c:	595c                	lw	a5,52(a0)
   12b0e:	c3d1                	beqz	a5,12b92 <_fclose_r+0x98>
   12b10:	00c41783          	lh	a5,12(s0)
   12b14:	eb89                	bnez	a5,12b26 <_fclose_r+0x2c>
   12b16:	4422                	lw	s0,8(sp)
   12b18:	4492                	lw	s1,4(sp)
   12b1a:	40b2                	lw	ra,12(sp)
   12b1c:	4901                	li	s2,0
   12b1e:	854a                	mv	a0,s2
   12b20:	4902                	lw	s2,0(sp)
   12b22:	0141                	add	sp,sp,16
   12b24:	8082                	ret
   12b26:	85a2                	mv	a1,s0
   12b28:	8526                	mv	a0,s1
   12b2a:	7b3020ef          	jal	15adc <__sflush_r>
   12b2e:	545c                	lw	a5,44(s0)
   12b30:	892a                	mv	s2,a0
   12b32:	c791                	beqz	a5,12b3e <_fclose_r+0x44>
   12b34:	4c4c                	lw	a1,28(s0)
   12b36:	8526                	mv	a0,s1
   12b38:	9782                	jalr	a5
   12b3a:	04054263          	bltz	a0,12b7e <_fclose_r+0x84>
   12b3e:	00c45783          	lhu	a5,12(s0)
   12b42:	0807f793          	and	a5,a5,128
   12b46:	e3b1                	bnez	a5,12b8a <_fclose_r+0x90>
   12b48:	580c                	lw	a1,48(s0)
   12b4a:	c989                	beqz	a1,12b5c <_fclose_r+0x62>
   12b4c:	04040793          	add	a5,s0,64
   12b50:	00f58463          	beq	a1,a5,12b58 <_fclose_r+0x5e>
   12b54:	8526                	mv	a0,s1
   12b56:	25e1                	jal	1321e <_free_r>
   12b58:	02042823          	sw	zero,48(s0)
   12b5c:	406c                	lw	a1,68(s0)
   12b5e:	c589                	beqz	a1,12b68 <_fclose_r+0x6e>
   12b60:	8526                	mv	a0,s1
   12b62:	2d75                	jal	1321e <_free_r>
   12b64:	04042223          	sw	zero,68(s0)
   12b68:	37ad                	jal	12ad2 <__sfp_lock_acquire>
   12b6a:	00041623          	sh	zero,12(s0)
   12b6e:	379d                	jal	12ad4 <__sfp_lock_release>
   12b70:	40b2                	lw	ra,12(sp)
   12b72:	4422                	lw	s0,8(sp)
   12b74:	4492                	lw	s1,4(sp)
   12b76:	854a                	mv	a0,s2
   12b78:	4902                	lw	s2,0(sp)
   12b7a:	0141                	add	sp,sp,16
   12b7c:	8082                	ret
   12b7e:	00c45783          	lhu	a5,12(s0)
   12b82:	597d                	li	s2,-1
   12b84:	0807f793          	and	a5,a5,128
   12b88:	d3e1                	beqz	a5,12b48 <_fclose_r+0x4e>
   12b8a:	480c                	lw	a1,16(s0)
   12b8c:	8526                	mv	a0,s1
   12b8e:	2d41                	jal	1321e <_free_r>
   12b90:	bf65                	j	12b48 <_fclose_r+0x4e>
   12b92:	3725                	jal	12aba <__sinit>
   12b94:	bfb5                	j	12b10 <_fclose_r+0x16>

00012b96 <fclose>:
   12b96:	85aa                	mv	a1,a0
   12b98:	fdc1a503          	lw	a0,-36(gp) # 1e7ec <_impure_ptr>
   12b9c:	bfb9                	j	12afa <_fclose_r>

00012b9e <_malloc_r>:
   12b9e:	7179                	add	sp,sp,-48
   12ba0:	d04a                	sw	s2,32(sp)
   12ba2:	d606                	sw	ra,44(sp)
   12ba4:	d422                	sw	s0,40(sp)
   12ba6:	d226                	sw	s1,36(sp)
   12ba8:	ce4e                	sw	s3,28(sp)
   12baa:	00b58793          	add	a5,a1,11
   12bae:	4759                	li	a4,22
   12bb0:	892a                	mv	s2,a0
   12bb2:	04f76963          	bltu	a4,a5,12c04 <_malloc_r+0x66>
   12bb6:	47c1                	li	a5,16
   12bb8:	16b7e963          	bltu	a5,a1,12d2a <_malloc_r+0x18c>
   12bbc:	1b6030ef          	jal	15d72 <__malloc_lock>
   12bc0:	47e1                	li	a5,24
   12bc2:	4589                	li	a1,2
   12bc4:	44c1                	li	s1,16
   12bc6:	92c18993          	add	s3,gp,-1748 # 1e13c <__malloc_av_>
   12bca:	97ce                	add	a5,a5,s3
   12bcc:	43c0                	lw	s0,4(a5)
   12bce:	ff878713          	add	a4,a5,-8
   12bd2:	26e40163          	beq	s0,a4,12e34 <_malloc_r+0x296>
   12bd6:	405c                	lw	a5,4(s0)
   12bd8:	4454                	lw	a3,12(s0)
   12bda:	4410                	lw	a2,8(s0)
   12bdc:	9bf1                	and	a5,a5,-4
   12bde:	97a2                	add	a5,a5,s0
   12be0:	43d8                	lw	a4,4(a5)
   12be2:	c654                	sw	a3,12(a2)
   12be4:	c690                	sw	a2,8(a3)
   12be6:	00176713          	or	a4,a4,1
   12bea:	854a                	mv	a0,s2
   12bec:	c3d8                	sw	a4,4(a5)
   12bee:	186030ef          	jal	15d74 <__malloc_unlock>
   12bf2:	00840513          	add	a0,s0,8
   12bf6:	50b2                	lw	ra,44(sp)
   12bf8:	5422                	lw	s0,40(sp)
   12bfa:	5492                	lw	s1,36(sp)
   12bfc:	5902                	lw	s2,32(sp)
   12bfe:	49f2                	lw	s3,28(sp)
   12c00:	6145                	add	sp,sp,48
   12c02:	8082                	ret
   12c04:	ff87f493          	and	s1,a5,-8
   12c08:	1207c163          	bltz	a5,12d2a <_malloc_r+0x18c>
   12c0c:	10b4ef63          	bltu	s1,a1,12d2a <_malloc_r+0x18c>
   12c10:	162030ef          	jal	15d72 <__malloc_lock>
   12c14:	1f700793          	li	a5,503
   12c18:	2c97ff63          	bgeu	a5,s1,12ef6 <_malloc_r+0x358>
   12c1c:	0094d793          	srl	a5,s1,0x9
   12c20:	10078a63          	beqz	a5,12d34 <_malloc_r+0x196>
   12c24:	4711                	li	a4,4
   12c26:	24f76c63          	bltu	a4,a5,12e7e <_malloc_r+0x2e0>
   12c2a:	0064d793          	srl	a5,s1,0x6
   12c2e:	03978593          	add	a1,a5,57
   12c32:	03878813          	add	a6,a5,56
   12c36:	00359613          	sll	a2,a1,0x3
   12c3a:	92c18993          	add	s3,gp,-1748 # 1e13c <__malloc_av_>
   12c3e:	964e                	add	a2,a2,s3
   12c40:	4240                	lw	s0,4(a2)
   12c42:	1661                	add	a2,a2,-8
   12c44:	02860163          	beq	a2,s0,12c66 <_malloc_r+0xc8>
   12c48:	453d                	li	a0,15
   12c4a:	a039                	j	12c58 <_malloc_r+0xba>
   12c4c:	4454                	lw	a3,12(s0)
   12c4e:	1e075163          	bgez	a4,12e30 <_malloc_r+0x292>
   12c52:	00d60a63          	beq	a2,a3,12c66 <_malloc_r+0xc8>
   12c56:	8436                	mv	s0,a3
   12c58:	405c                	lw	a5,4(s0)
   12c5a:	9bf1                	and	a5,a5,-4
   12c5c:	40978733          	sub	a4,a5,s1
   12c60:	fee556e3          	bge	a0,a4,12c4c <_malloc_r+0xae>
   12c64:	85c2                	mv	a1,a6
   12c66:	0109a403          	lw	s0,16(s3)
   12c6a:	93418893          	add	a7,gp,-1740 # 1e144 <__malloc_av_+0x8>
   12c6e:	1b140e63          	beq	s0,a7,12e2a <_malloc_r+0x28c>
   12c72:	405c                	lw	a5,4(s0)
   12c74:	46bd                	li	a3,15
   12c76:	9bf1                	and	a5,a5,-4
   12c78:	40978733          	sub	a4,a5,s1
   12c7c:	28e6c263          	blt	a3,a4,12f00 <_malloc_r+0x362>
   12c80:	0119aa23          	sw	a7,20(s3)
   12c84:	0119a823          	sw	a7,16(s3)
   12c88:	24075c63          	bgez	a4,12ee0 <_malloc_r+0x342>
   12c8c:	1ff00713          	li	a4,511
   12c90:	0049a503          	lw	a0,4(s3)
   12c94:	1af76563          	bltu	a4,a5,12e3e <_malloc_r+0x2a0>
   12c98:	ff87f713          	and	a4,a5,-8
   12c9c:	0721                	add	a4,a4,8
   12c9e:	974e                	add	a4,a4,s3
   12ca0:	4314                	lw	a3,0(a4)
   12ca2:	0057d613          	srl	a2,a5,0x5
   12ca6:	4785                	li	a5,1
   12ca8:	00c797b3          	sll	a5,a5,a2
   12cac:	8d5d                	or	a0,a0,a5
   12cae:	ff870793          	add	a5,a4,-8
   12cb2:	c45c                	sw	a5,12(s0)
   12cb4:	c414                	sw	a3,8(s0)
   12cb6:	00a9a223          	sw	a0,4(s3)
   12cba:	c300                	sw	s0,0(a4)
   12cbc:	c6c0                	sw	s0,12(a3)
   12cbe:	4025d793          	sra	a5,a1,0x2
   12cc2:	4605                	li	a2,1
   12cc4:	00f61633          	sll	a2,a2,a5
   12cc8:	06c56d63          	bltu	a0,a2,12d42 <_malloc_r+0x1a4>
   12ccc:	00a677b3          	and	a5,a2,a0
   12cd0:	ef81                	bnez	a5,12ce8 <_malloc_r+0x14a>
   12cd2:	0606                	sll	a2,a2,0x1
   12cd4:	99f1                	and	a1,a1,-4
   12cd6:	00a677b3          	and	a5,a2,a0
   12cda:	0591                	add	a1,a1,4
   12cdc:	e791                	bnez	a5,12ce8 <_malloc_r+0x14a>
   12cde:	0606                	sll	a2,a2,0x1
   12ce0:	00a677b3          	and	a5,a2,a0
   12ce4:	0591                	add	a1,a1,4
   12ce6:	dfe5                	beqz	a5,12cde <_malloc_r+0x140>
   12ce8:	483d                	li	a6,15
   12cea:	00359313          	sll	t1,a1,0x3
   12cee:	934e                	add	t1,t1,s3
   12cf0:	851a                	mv	a0,t1
   12cf2:	455c                	lw	a5,12(a0)
   12cf4:	8e2e                	mv	t3,a1
   12cf6:	1af50463          	beq	a0,a5,12e9e <_malloc_r+0x300>
   12cfa:	43d8                	lw	a4,4(a5)
   12cfc:	843e                	mv	s0,a5
   12cfe:	47dc                	lw	a5,12(a5)
   12d00:	9b71                	and	a4,a4,-4
   12d02:	409706b3          	sub	a3,a4,s1
   12d06:	1ad84363          	blt	a6,a3,12eac <_malloc_r+0x30e>
   12d0a:	fe06c6e3          	bltz	a3,12cf6 <_malloc_r+0x158>
   12d0e:	9722                	add	a4,a4,s0
   12d10:	4354                	lw	a3,4(a4)
   12d12:	4410                	lw	a2,8(s0)
   12d14:	854a                	mv	a0,s2
   12d16:	0016e693          	or	a3,a3,1
   12d1a:	c354                	sw	a3,4(a4)
   12d1c:	c65c                	sw	a5,12(a2)
   12d1e:	c790                	sw	a2,8(a5)
   12d20:	054030ef          	jal	15d74 <__malloc_unlock>
   12d24:	00840513          	add	a0,s0,8
   12d28:	b5f9                	j	12bf6 <_malloc_r+0x58>
   12d2a:	47b1                	li	a5,12
   12d2c:	00f92023          	sw	a5,0(s2)
   12d30:	4501                	li	a0,0
   12d32:	b5d1                	j	12bf6 <_malloc_r+0x58>
   12d34:	20000613          	li	a2,512
   12d38:	04000593          	li	a1,64
   12d3c:	03f00813          	li	a6,63
   12d40:	bded                	j	12c3a <_malloc_r+0x9c>
   12d42:	0089a403          	lw	s0,8(s3)
   12d46:	c85a                	sw	s6,16(sp)
   12d48:	405c                	lw	a5,4(s0)
   12d4a:	ffc7fb13          	and	s6,a5,-4
   12d4e:	009b6763          	bltu	s6,s1,12d5c <_malloc_r+0x1be>
   12d52:	409b0733          	sub	a4,s6,s1
   12d56:	47bd                	li	a5,15
   12d58:	0ae7c363          	blt	a5,a4,12dfe <_malloc_r+0x260>
   12d5c:	c266                	sw	s9,4(sp)
   12d5e:	fe018c93          	add	s9,gp,-32 # 1e7f0 <__malloc_sbrk_base>
   12d62:	000ca703          	lw	a4,0(s9)
   12d66:	cc52                	sw	s4,24(sp)
   12d68:	ca56                	sw	s5,20(sp)
   12d6a:	c65e                	sw	s7,12(sp)
   12d6c:	ff41aa83          	lw	s5,-12(gp) # 1e804 <__malloc_top_pad>
   12d70:	57fd                	li	a5,-1
   12d72:	01640a33          	add	s4,s0,s6
   12d76:	9aa6                	add	s5,s5,s1
   12d78:	2cf70a63          	beq	a4,a5,1304c <_malloc_r+0x4ae>
   12d7c:	6785                	lui	a5,0x1
   12d7e:	07bd                	add	a5,a5,15 # 100f <register_fini-0xf085>
   12d80:	9abe                	add	s5,s5,a5
   12d82:	77fd                	lui	a5,0xfffff
   12d84:	00fafab3          	and	s5,s5,a5
   12d88:	85d6                	mv	a1,s5
   12d8a:	854a                	mv	a0,s2
   12d8c:	45e040ef          	jal	171ea <_sbrk_r>
   12d90:	57fd                	li	a5,-1
   12d92:	8baa                	mv	s7,a0
   12d94:	32f50d63          	beq	a0,a5,130ce <_malloc_r+0x530>
   12d98:	c462                	sw	s8,8(sp)
   12d9a:	1b456263          	bltu	a0,s4,12f3e <_malloc_r+0x3a0>
   12d9e:	15c18c13          	add	s8,gp,348 # 1e96c <__malloc_current_mallinfo>
   12da2:	000c2583          	lw	a1,0(s8)
   12da6:	95d6                	add	a1,a1,s5
   12da8:	00bc2023          	sw	a1,0(s8)
   12dac:	872e                	mv	a4,a1
   12dae:	1eaa1c63          	bne	s4,a0,12fa6 <_malloc_r+0x408>
   12db2:	01451793          	sll	a5,a0,0x14
   12db6:	1e079863          	bnez	a5,12fa6 <_malloc_r+0x408>
   12dba:	0089ab83          	lw	s7,8(s3)
   12dbe:	015b07b3          	add	a5,s6,s5
   12dc2:	0017e793          	or	a5,a5,1
   12dc6:	00fba223          	sw	a5,4(s7)
   12dca:	ff018713          	add	a4,gp,-16 # 1e800 <__malloc_max_sbrked_mem>
   12dce:	4314                	lw	a3,0(a4)
   12dd0:	00b6f363          	bgeu	a3,a1,12dd6 <_malloc_r+0x238>
   12dd4:	c30c                	sw	a1,0(a4)
   12dd6:	fec18713          	add	a4,gp,-20 # 1e7fc <__malloc_max_total_mem>
   12dda:	4314                	lw	a3,0(a4)
   12ddc:	00b6f363          	bgeu	a3,a1,12de2 <_malloc_r+0x244>
   12de0:	c30c                	sw	a1,0(a4)
   12de2:	4c22                	lw	s8,8(sp)
   12de4:	845e                	mv	s0,s7
   12de6:	9bf1                	and	a5,a5,-4
   12de8:	40978733          	sub	a4,a5,s1
   12dec:	2897ee63          	bltu	a5,s1,13088 <_malloc_r+0x4ea>
   12df0:	47bd                	li	a5,15
   12df2:	28e7db63          	bge	a5,a4,13088 <_malloc_r+0x4ea>
   12df6:	4a62                	lw	s4,24(sp)
   12df8:	4ad2                	lw	s5,20(sp)
   12dfa:	4bb2                	lw	s7,12(sp)
   12dfc:	4c92                	lw	s9,4(sp)
   12dfe:	0014e793          	or	a5,s1,1
   12e02:	c05c                	sw	a5,4(s0)
   12e04:	94a2                	add	s1,s1,s0
   12e06:	0099a423          	sw	s1,8(s3)
   12e0a:	00176713          	or	a4,a4,1
   12e0e:	854a                	mv	a0,s2
   12e10:	c0d8                	sw	a4,4(s1)
   12e12:	763020ef          	jal	15d74 <__malloc_unlock>
   12e16:	50b2                	lw	ra,44(sp)
   12e18:	00840513          	add	a0,s0,8
   12e1c:	5422                	lw	s0,40(sp)
   12e1e:	4b42                	lw	s6,16(sp)
   12e20:	5492                	lw	s1,36(sp)
   12e22:	5902                	lw	s2,32(sp)
   12e24:	49f2                	lw	s3,28(sp)
   12e26:	6145                	add	sp,sp,48
   12e28:	8082                	ret
   12e2a:	0049a503          	lw	a0,4(s3)
   12e2e:	bd41                	j	12cbe <_malloc_r+0x120>
   12e30:	4410                	lw	a2,8(s0)
   12e32:	b375                	j	12bde <_malloc_r+0x40>
   12e34:	47c0                	lw	s0,12(a5)
   12e36:	0589                	add	a1,a1,2
   12e38:	e28787e3          	beq	a5,s0,12c66 <_malloc_r+0xc8>
   12e3c:	bb69                	j	12bd6 <_malloc_r+0x38>
   12e3e:	0097d713          	srl	a4,a5,0x9
   12e42:	4691                	li	a3,4
   12e44:	0ee6f563          	bgeu	a3,a4,12f2e <_malloc_r+0x390>
   12e48:	46d1                	li	a3,20
   12e4a:	24e6e963          	bltu	a3,a4,1309c <_malloc_r+0x4fe>
   12e4e:	05c70613          	add	a2,a4,92
   12e52:	05b70693          	add	a3,a4,91
   12e56:	060e                	sll	a2,a2,0x3
   12e58:	964e                	add	a2,a2,s3
   12e5a:	4218                	lw	a4,0(a2)
   12e5c:	1661                	add	a2,a2,-8
   12e5e:	00e61663          	bne	a2,a4,12e6a <_malloc_r+0x2cc>
   12e62:	a2fd                	j	13050 <_malloc_r+0x4b2>
   12e64:	4718                	lw	a4,8(a4)
   12e66:	00e60663          	beq	a2,a4,12e72 <_malloc_r+0x2d4>
   12e6a:	4354                	lw	a3,4(a4)
   12e6c:	9af1                	and	a3,a3,-4
   12e6e:	fed7ebe3          	bltu	a5,a3,12e64 <_malloc_r+0x2c6>
   12e72:	4750                	lw	a2,12(a4)
   12e74:	c450                	sw	a2,12(s0)
   12e76:	c418                	sw	a4,8(s0)
   12e78:	c600                	sw	s0,8(a2)
   12e7a:	c740                	sw	s0,12(a4)
   12e7c:	b589                	j	12cbe <_malloc_r+0x120>
   12e7e:	4751                	li	a4,20
   12e80:	0cf77663          	bgeu	a4,a5,12f4c <_malloc_r+0x3ae>
   12e84:	05400713          	li	a4,84
   12e88:	22f76663          	bltu	a4,a5,130b4 <_malloc_r+0x516>
   12e8c:	00c4d793          	srl	a5,s1,0xc
   12e90:	06f78593          	add	a1,a5,111 # fffff06f <__BSS_END__+0xfffe054b>
   12e94:	06e78813          	add	a6,a5,110
   12e98:	00359613          	sll	a2,a1,0x3
   12e9c:	bb79                	j	12c3a <_malloc_r+0x9c>
   12e9e:	0e05                	add	t3,t3,1
   12ea0:	003e7793          	and	a5,t3,3
   12ea4:	0521                	add	a0,a0,8
   12ea6:	cfdd                	beqz	a5,12f64 <_malloc_r+0x3c6>
   12ea8:	455c                	lw	a5,12(a0)
   12eaa:	b5b1                	j	12cf6 <_malloc_r+0x158>
   12eac:	4410                	lw	a2,8(s0)
   12eae:	0014e593          	or	a1,s1,1
   12eb2:	c04c                	sw	a1,4(s0)
   12eb4:	c65c                	sw	a5,12(a2)
   12eb6:	c790                	sw	a2,8(a5)
   12eb8:	94a2                	add	s1,s1,s0
   12eba:	0099aa23          	sw	s1,20(s3)
   12ebe:	0099a823          	sw	s1,16(s3)
   12ec2:	0016e793          	or	a5,a3,1
   12ec6:	0114a623          	sw	a7,12(s1)
   12eca:	0114a423          	sw	a7,8(s1)
   12ece:	c0dc                	sw	a5,4(s1)
   12ed0:	9722                	add	a4,a4,s0
   12ed2:	854a                	mv	a0,s2
   12ed4:	c314                	sw	a3,0(a4)
   12ed6:	69f020ef          	jal	15d74 <__malloc_unlock>
   12eda:	00840513          	add	a0,s0,8
   12ede:	bb21                	j	12bf6 <_malloc_r+0x58>
   12ee0:	97a2                	add	a5,a5,s0
   12ee2:	43d8                	lw	a4,4(a5)
   12ee4:	854a                	mv	a0,s2
   12ee6:	00176713          	or	a4,a4,1
   12eea:	c3d8                	sw	a4,4(a5)
   12eec:	689020ef          	jal	15d74 <__malloc_unlock>
   12ef0:	00840513          	add	a0,s0,8
   12ef4:	b309                	j	12bf6 <_malloc_r+0x58>
   12ef6:	0034d593          	srl	a1,s1,0x3
   12efa:	00848793          	add	a5,s1,8
   12efe:	b1e1                	j	12bc6 <_malloc_r+0x28>
   12f00:	0014e693          	or	a3,s1,1
   12f04:	c054                	sw	a3,4(s0)
   12f06:	94a2                	add	s1,s1,s0
   12f08:	0099aa23          	sw	s1,20(s3)
   12f0c:	0099a823          	sw	s1,16(s3)
   12f10:	00176693          	or	a3,a4,1
   12f14:	0114a623          	sw	a7,12(s1)
   12f18:	0114a423          	sw	a7,8(s1)
   12f1c:	c0d4                	sw	a3,4(s1)
   12f1e:	97a2                	add	a5,a5,s0
   12f20:	854a                	mv	a0,s2
   12f22:	c398                	sw	a4,0(a5)
   12f24:	651020ef          	jal	15d74 <__malloc_unlock>
   12f28:	00840513          	add	a0,s0,8
   12f2c:	b1e9                	j	12bf6 <_malloc_r+0x58>
   12f2e:	0067d713          	srl	a4,a5,0x6
   12f32:	03970613          	add	a2,a4,57
   12f36:	03870693          	add	a3,a4,56
   12f3a:	060e                	sll	a2,a2,0x3
   12f3c:	bf31                	j	12e58 <_malloc_r+0x2ba>
   12f3e:	05340d63          	beq	s0,s3,12f98 <_malloc_r+0x3fa>
   12f42:	0089a403          	lw	s0,8(s3)
   12f46:	4c22                	lw	s8,8(sp)
   12f48:	405c                	lw	a5,4(s0)
   12f4a:	bd71                	j	12de6 <_malloc_r+0x248>
   12f4c:	05c78593          	add	a1,a5,92
   12f50:	05b78813          	add	a6,a5,91
   12f54:	00359613          	sll	a2,a1,0x3
   12f58:	b1cd                	j	12c3a <_malloc_r+0x9c>
   12f5a:	00832783          	lw	a5,8(t1)
   12f5e:	15fd                	add	a1,a1,-1
   12f60:	1e679563          	bne	a5,t1,1314a <_malloc_r+0x5ac>
   12f64:	0035f793          	and	a5,a1,3
   12f68:	1361                	add	t1,t1,-8
   12f6a:	fbe5                	bnez	a5,12f5a <_malloc_r+0x3bc>
   12f6c:	0049a703          	lw	a4,4(s3)
   12f70:	fff64793          	not	a5,a2
   12f74:	8ff9                	and	a5,a5,a4
   12f76:	00f9a223          	sw	a5,4(s3)
   12f7a:	0606                	sll	a2,a2,0x1
   12f7c:	dcc7e3e3          	bltu	a5,a2,12d42 <_malloc_r+0x1a4>
   12f80:	dc0601e3          	beqz	a2,12d42 <_malloc_r+0x1a4>
   12f84:	00f67733          	and	a4,a2,a5
   12f88:	e711                	bnez	a4,12f94 <_malloc_r+0x3f6>
   12f8a:	0606                	sll	a2,a2,0x1
   12f8c:	00f67733          	and	a4,a2,a5
   12f90:	0e11                	add	t3,t3,4
   12f92:	df65                	beqz	a4,12f8a <_malloc_r+0x3ec>
   12f94:	85f2                	mv	a1,t3
   12f96:	bb91                	j	12cea <_malloc_r+0x14c>
   12f98:	15c18c13          	add	s8,gp,348 # 1e96c <__malloc_current_mallinfo>
   12f9c:	000c2703          	lw	a4,0(s8)
   12fa0:	9756                	add	a4,a4,s5
   12fa2:	00ec2023          	sw	a4,0(s8)
   12fa6:	000ca683          	lw	a3,0(s9)
   12faa:	57fd                	li	a5,-1
   12fac:	12f68563          	beq	a3,a5,130d6 <_malloc_r+0x538>
   12fb0:	414b87b3          	sub	a5,s7,s4
   12fb4:	97ba                	add	a5,a5,a4
   12fb6:	00fc2023          	sw	a5,0(s8)
   12fba:	007bfc93          	and	s9,s7,7
   12fbe:	0a0c8163          	beqz	s9,13060 <_malloc_r+0x4c2>
   12fc2:	419b8bb3          	sub	s7,s7,s9
   12fc6:	6785                	lui	a5,0x1
   12fc8:	07a1                	add	a5,a5,8 # 1008 <register_fini-0xf08c>
   12fca:	0ba1                	add	s7,s7,8
   12fcc:	419785b3          	sub	a1,a5,s9
   12fd0:	9ade                	add	s5,s5,s7
   12fd2:	415585b3          	sub	a1,a1,s5
   12fd6:	05d2                	sll	a1,a1,0x14
   12fd8:	0145da13          	srl	s4,a1,0x14
   12fdc:	85d2                	mv	a1,s4
   12fde:	854a                	mv	a0,s2
   12fe0:	20a040ef          	jal	171ea <_sbrk_r>
   12fe4:	57fd                	li	a5,-1
   12fe6:	12f50463          	beq	a0,a5,1310e <_malloc_r+0x570>
   12fea:	41750533          	sub	a0,a0,s7
   12fee:	01450ab3          	add	s5,a0,s4
   12ff2:	000c2703          	lw	a4,0(s8)
   12ff6:	0179a423          	sw	s7,8(s3)
   12ffa:	001ae793          	or	a5,s5,1
   12ffe:	00ea05b3          	add	a1,s4,a4
   13002:	00bc2023          	sw	a1,0(s8)
   13006:	00fba223          	sw	a5,4(s7)
   1300a:	dd3400e3          	beq	s0,s3,12dca <_malloc_r+0x22c>
   1300e:	46bd                	li	a3,15
   13010:	0766f863          	bgeu	a3,s6,13080 <_malloc_r+0x4e2>
   13014:	4058                	lw	a4,4(s0)
   13016:	ff4b0793          	add	a5,s6,-12
   1301a:	9be1                	and	a5,a5,-8
   1301c:	8b05                	and	a4,a4,1
   1301e:	8f5d                	or	a4,a4,a5
   13020:	c058                	sw	a4,4(s0)
   13022:	4615                	li	a2,5
   13024:	00f40733          	add	a4,s0,a5
   13028:	c350                	sw	a2,4(a4)
   1302a:	c710                	sw	a2,8(a4)
   1302c:	00f6e563          	bltu	a3,a5,13036 <_malloc_r+0x498>
   13030:	004ba783          	lw	a5,4(s7)
   13034:	bb59                	j	12dca <_malloc_r+0x22c>
   13036:	00840593          	add	a1,s0,8
   1303a:	854a                	mv	a0,s2
   1303c:	22cd                	jal	1321e <_free_r>
   1303e:	0089ab83          	lw	s7,8(s3)
   13042:	000c2583          	lw	a1,0(s8)
   13046:	004ba783          	lw	a5,4(s7)
   1304a:	b341                	j	12dca <_malloc_r+0x22c>
   1304c:	0ac1                	add	s5,s5,16
   1304e:	bb2d                	j	12d88 <_malloc_r+0x1ea>
   13050:	8689                	sra	a3,a3,0x2
   13052:	4785                	li	a5,1
   13054:	00d797b3          	sll	a5,a5,a3
   13058:	8d5d                	or	a0,a0,a5
   1305a:	00a9a223          	sw	a0,4(s3)
   1305e:	bd19                	j	12e74 <_malloc_r+0x2d6>
   13060:	015b85b3          	add	a1,s7,s5
   13064:	40b005b3          	neg	a1,a1
   13068:	05d2                	sll	a1,a1,0x14
   1306a:	0145da13          	srl	s4,a1,0x14
   1306e:	85d2                	mv	a1,s4
   13070:	854a                	mv	a0,s2
   13072:	178040ef          	jal	171ea <_sbrk_r>
   13076:	57fd                	li	a5,-1
   13078:	f6f519e3          	bne	a0,a5,12fea <_malloc_r+0x44c>
   1307c:	4a01                	li	s4,0
   1307e:	bf95                	j	12ff2 <_malloc_r+0x454>
   13080:	4c22                	lw	s8,8(sp)
   13082:	4785                	li	a5,1
   13084:	00fba223          	sw	a5,4(s7)
   13088:	854a                	mv	a0,s2
   1308a:	4eb020ef          	jal	15d74 <__malloc_unlock>
   1308e:	4501                	li	a0,0
   13090:	4a62                	lw	s4,24(sp)
   13092:	4ad2                	lw	s5,20(sp)
   13094:	4b42                	lw	s6,16(sp)
   13096:	4bb2                	lw	s7,12(sp)
   13098:	4c92                	lw	s9,4(sp)
   1309a:	beb1                	j	12bf6 <_malloc_r+0x58>
   1309c:	05400693          	li	a3,84
   130a0:	02e6ee63          	bltu	a3,a4,130dc <_malloc_r+0x53e>
   130a4:	00c7d713          	srl	a4,a5,0xc
   130a8:	06f70613          	add	a2,a4,111
   130ac:	06e70693          	add	a3,a4,110
   130b0:	060e                	sll	a2,a2,0x3
   130b2:	b35d                	j	12e58 <_malloc_r+0x2ba>
   130b4:	15400713          	li	a4,340
   130b8:	02f76e63          	bltu	a4,a5,130f4 <_malloc_r+0x556>
   130bc:	00f4d793          	srl	a5,s1,0xf
   130c0:	07878593          	add	a1,a5,120
   130c4:	07778813          	add	a6,a5,119
   130c8:	00359613          	sll	a2,a1,0x3
   130cc:	b6bd                	j	12c3a <_malloc_r+0x9c>
   130ce:	0089a403          	lw	s0,8(s3)
   130d2:	405c                	lw	a5,4(s0)
   130d4:	bb09                	j	12de6 <_malloc_r+0x248>
   130d6:	017ca023          	sw	s7,0(s9)
   130da:	b5c5                	j	12fba <_malloc_r+0x41c>
   130dc:	15400693          	li	a3,340
   130e0:	02e6ed63          	bltu	a3,a4,1311a <_malloc_r+0x57c>
   130e4:	00f7d713          	srl	a4,a5,0xf
   130e8:	07870613          	add	a2,a4,120
   130ec:	07770693          	add	a3,a4,119
   130f0:	060e                	sll	a2,a2,0x3
   130f2:	b39d                	j	12e58 <_malloc_r+0x2ba>
   130f4:	55400713          	li	a4,1364
   130f8:	02f76d63          	bltu	a4,a5,13132 <_malloc_r+0x594>
   130fc:	0124d793          	srl	a5,s1,0x12
   13100:	07d78593          	add	a1,a5,125
   13104:	07c78813          	add	a6,a5,124
   13108:	00359613          	sll	a2,a1,0x3
   1310c:	b63d                	j	12c3a <_malloc_r+0x9c>
   1310e:	1ce1                	add	s9,s9,-8
   13110:	9ae6                	add	s5,s5,s9
   13112:	417a8ab3          	sub	s5,s5,s7
   13116:	4a01                	li	s4,0
   13118:	bde9                	j	12ff2 <_malloc_r+0x454>
   1311a:	55400693          	li	a3,1364
   1311e:	02e6e163          	bltu	a3,a4,13140 <_malloc_r+0x5a2>
   13122:	0127d713          	srl	a4,a5,0x12
   13126:	07d70613          	add	a2,a4,125
   1312a:	07c70693          	add	a3,a4,124
   1312e:	060e                	sll	a2,a2,0x3
   13130:	b325                	j	12e58 <_malloc_r+0x2ba>
   13132:	3f800613          	li	a2,1016
   13136:	07f00593          	li	a1,127
   1313a:	07e00813          	li	a6,126
   1313e:	bcf5                	j	12c3a <_malloc_r+0x9c>
   13140:	3f800613          	li	a2,1016
   13144:	07e00693          	li	a3,126
   13148:	bb01                	j	12e58 <_malloc_r+0x2ba>
   1314a:	0049a783          	lw	a5,4(s3)
   1314e:	b535                	j	12f7a <_malloc_r+0x3dc>

00013150 <_malloc_trim_r>:
   13150:	1101                	add	sp,sp,-32
   13152:	cc22                	sw	s0,24(sp)
   13154:	ca26                	sw	s1,20(sp)
   13156:	c84a                	sw	s2,16(sp)
   13158:	c64e                	sw	s3,12(sp)
   1315a:	c452                	sw	s4,8(sp)
   1315c:	89ae                	mv	s3,a1
   1315e:	ce06                	sw	ra,28(sp)
   13160:	892a                	mv	s2,a0
   13162:	0000ba17          	auipc	s4,0xb
   13166:	fdaa0a13          	add	s4,s4,-38 # 1e13c <__malloc_av_>
   1316a:	409020ef          	jal	15d72 <__malloc_lock>
   1316e:	008a2703          	lw	a4,8(s4)
   13172:	6785                	lui	a5,0x1
   13174:	17bd                	add	a5,a5,-17 # fef <register_fini-0xf0a5>
   13176:	4344                	lw	s1,4(a4)
   13178:	6705                	lui	a4,0x1
   1317a:	98f1                	and	s1,s1,-4
   1317c:	00f48433          	add	s0,s1,a5
   13180:	41340433          	sub	s0,s0,s3
   13184:	8031                	srl	s0,s0,0xc
   13186:	147d                	add	s0,s0,-1
   13188:	0432                	sll	s0,s0,0xc
   1318a:	00e44b63          	blt	s0,a4,131a0 <_malloc_trim_r+0x50>
   1318e:	4581                	li	a1,0
   13190:	854a                	mv	a0,s2
   13192:	058040ef          	jal	171ea <_sbrk_r>
   13196:	008a2783          	lw	a5,8(s4)
   1319a:	97a6                	add	a5,a5,s1
   1319c:	00f50e63          	beq	a0,a5,131b8 <_malloc_trim_r+0x68>
   131a0:	854a                	mv	a0,s2
   131a2:	3d3020ef          	jal	15d74 <__malloc_unlock>
   131a6:	40f2                	lw	ra,28(sp)
   131a8:	4462                	lw	s0,24(sp)
   131aa:	44d2                	lw	s1,20(sp)
   131ac:	4942                	lw	s2,16(sp)
   131ae:	49b2                	lw	s3,12(sp)
   131b0:	4a22                	lw	s4,8(sp)
   131b2:	4501                	li	a0,0
   131b4:	6105                	add	sp,sp,32
   131b6:	8082                	ret
   131b8:	408005b3          	neg	a1,s0
   131bc:	854a                	mv	a0,s2
   131be:	02c040ef          	jal	171ea <_sbrk_r>
   131c2:	57fd                	li	a5,-1
   131c4:	02f50963          	beq	a0,a5,131f6 <_malloc_trim_r+0xa6>
   131c8:	15c18713          	add	a4,gp,348 # 1e96c <__malloc_current_mallinfo>
   131cc:	431c                	lw	a5,0(a4)
   131ce:	008a2683          	lw	a3,8(s4)
   131d2:	8c81                	sub	s1,s1,s0
   131d4:	0014e493          	or	s1,s1,1
   131d8:	8f81                	sub	a5,a5,s0
   131da:	854a                	mv	a0,s2
   131dc:	c2c4                	sw	s1,4(a3)
   131de:	c31c                	sw	a5,0(a4)
   131e0:	395020ef          	jal	15d74 <__malloc_unlock>
   131e4:	40f2                	lw	ra,28(sp)
   131e6:	4462                	lw	s0,24(sp)
   131e8:	44d2                	lw	s1,20(sp)
   131ea:	4942                	lw	s2,16(sp)
   131ec:	49b2                	lw	s3,12(sp)
   131ee:	4a22                	lw	s4,8(sp)
   131f0:	4505                	li	a0,1
   131f2:	6105                	add	sp,sp,32
   131f4:	8082                	ret
   131f6:	4581                	li	a1,0
   131f8:	854a                	mv	a0,s2
   131fa:	7f1030ef          	jal	171ea <_sbrk_r>
   131fe:	008a2703          	lw	a4,8(s4)
   13202:	46bd                	li	a3,15
   13204:	40e507b3          	sub	a5,a0,a4
   13208:	f8f6dce3          	bge	a3,a5,131a0 <_malloc_trim_r+0x50>
   1320c:	fe01a683          	lw	a3,-32(gp) # 1e7f0 <__malloc_sbrk_base>
   13210:	8d15                	sub	a0,a0,a3
   13212:	0017e793          	or	a5,a5,1
   13216:	14a1ae23          	sw	a0,348(gp) # 1e96c <__malloc_current_mallinfo>
   1321a:	c35c                	sw	a5,4(a4)
   1321c:	b751                	j	131a0 <_malloc_trim_r+0x50>

0001321e <_free_r>:
   1321e:	10058d63          	beqz	a1,13338 <_free_r+0x11a>
   13222:	1141                	add	sp,sp,-16
   13224:	c422                	sw	s0,8(sp)
   13226:	c226                	sw	s1,4(sp)
   13228:	842e                	mv	s0,a1
   1322a:	84aa                	mv	s1,a0
   1322c:	c606                	sw	ra,12(sp)
   1322e:	345020ef          	jal	15d72 <__malloc_lock>
   13232:	ffc42583          	lw	a1,-4(s0)
   13236:	ff840713          	add	a4,s0,-8
   1323a:	0000b517          	auipc	a0,0xb
   1323e:	f0250513          	add	a0,a0,-254 # 1e13c <__malloc_av_>
   13242:	ffe5f793          	and	a5,a1,-2
   13246:	00f70633          	add	a2,a4,a5
   1324a:	4254                	lw	a3,4(a2)
   1324c:	00852803          	lw	a6,8(a0)
   13250:	9af1                	and	a3,a3,-4
   13252:	12c80563          	beq	a6,a2,1337c <_free_r+0x15e>
   13256:	c254                	sw	a3,4(a2)
   13258:	8985                	and	a1,a1,1
   1325a:	00d60833          	add	a6,a2,a3
   1325e:	e9bd                	bnez	a1,132d4 <_free_r+0xb6>
   13260:	ff842303          	lw	t1,-8(s0)
   13264:	00482583          	lw	a1,4(a6)
   13268:	0000b897          	auipc	a7,0xb
   1326c:	edc88893          	add	a7,a7,-292 # 1e144 <__malloc_av_+0x8>
   13270:	40670733          	sub	a4,a4,t1
   13274:	00872803          	lw	a6,8(a4) # 1008 <register_fini-0xf08c>
   13278:	979a                	add	a5,a5,t1
   1327a:	8985                	and	a1,a1,1
   1327c:	0f180463          	beq	a6,a7,13364 <_free_r+0x146>
   13280:	00c72303          	lw	t1,12(a4)
   13284:	00682623          	sw	t1,12(a6)
   13288:	01032423          	sw	a6,8(t1)
   1328c:	12058063          	beqz	a1,133ac <_free_r+0x18e>
   13290:	0017e693          	or	a3,a5,1
   13294:	c354                	sw	a3,4(a4)
   13296:	c21c                	sw	a5,0(a2)
   13298:	1ff00693          	li	a3,511
   1329c:	04f6e963          	bltu	a3,a5,132ee <_free_r+0xd0>
   132a0:	ff87f693          	and	a3,a5,-8
   132a4:	06a1                	add	a3,a3,8
   132a6:	414c                	lw	a1,4(a0)
   132a8:	96aa                	add	a3,a3,a0
   132aa:	4290                	lw	a2,0(a3)
   132ac:	0057d813          	srl	a6,a5,0x5
   132b0:	4785                	li	a5,1
   132b2:	010797b3          	sll	a5,a5,a6
   132b6:	8fcd                	or	a5,a5,a1
   132b8:	ff868593          	add	a1,a3,-8
   132bc:	c74c                	sw	a1,12(a4)
   132be:	c710                	sw	a2,8(a4)
   132c0:	c15c                	sw	a5,4(a0)
   132c2:	c298                	sw	a4,0(a3)
   132c4:	c658                	sw	a4,12(a2)
   132c6:	4422                	lw	s0,8(sp)
   132c8:	40b2                	lw	ra,12(sp)
   132ca:	8526                	mv	a0,s1
   132cc:	4492                	lw	s1,4(sp)
   132ce:	0141                	add	sp,sp,16
   132d0:	2a50206f          	j	15d74 <__malloc_unlock>
   132d4:	00482583          	lw	a1,4(a6)
   132d8:	8985                	and	a1,a1,1
   132da:	c1a5                	beqz	a1,1333a <_free_r+0x11c>
   132dc:	0017e693          	or	a3,a5,1
   132e0:	fed42e23          	sw	a3,-4(s0)
   132e4:	c21c                	sw	a5,0(a2)
   132e6:	1ff00693          	li	a3,511
   132ea:	faf6fbe3          	bgeu	a3,a5,132a0 <_free_r+0x82>
   132ee:	0097d693          	srl	a3,a5,0x9
   132f2:	4611                	li	a2,4
   132f4:	0ad66e63          	bltu	a2,a3,133b0 <_free_r+0x192>
   132f8:	0067d693          	srl	a3,a5,0x6
   132fc:	03968593          	add	a1,a3,57
   13300:	03868613          	add	a2,a3,56
   13304:	058e                	sll	a1,a1,0x3
   13306:	95aa                	add	a1,a1,a0
   13308:	4194                	lw	a3,0(a1)
   1330a:	15e1                	add	a1,a1,-8
   1330c:	00d59663          	bne	a1,a3,13318 <_free_r+0xfa>
   13310:	a0cd                	j	133f2 <_free_r+0x1d4>
   13312:	4694                	lw	a3,8(a3)
   13314:	00d58663          	beq	a1,a3,13320 <_free_r+0x102>
   13318:	42d0                	lw	a2,4(a3)
   1331a:	9a71                	and	a2,a2,-4
   1331c:	fec7ebe3          	bltu	a5,a2,13312 <_free_r+0xf4>
   13320:	46cc                	lw	a1,12(a3)
   13322:	c74c                	sw	a1,12(a4)
   13324:	c714                	sw	a3,8(a4)
   13326:	4422                	lw	s0,8(sp)
   13328:	40b2                	lw	ra,12(sp)
   1332a:	c598                	sw	a4,8(a1)
   1332c:	8526                	mv	a0,s1
   1332e:	4492                	lw	s1,4(sp)
   13330:	c6d8                	sw	a4,12(a3)
   13332:	0141                	add	sp,sp,16
   13334:	2410206f          	j	15d74 <__malloc_unlock>
   13338:	8082                	ret
   1333a:	97b6                	add	a5,a5,a3
   1333c:	0000b897          	auipc	a7,0xb
   13340:	e0888893          	add	a7,a7,-504 # 1e144 <__malloc_av_+0x8>
   13344:	4614                	lw	a3,8(a2)
   13346:	09168a63          	beq	a3,a7,133da <_free_r+0x1bc>
   1334a:	00c62803          	lw	a6,12(a2)
   1334e:	0017e593          	or	a1,a5,1
   13352:	00f70633          	add	a2,a4,a5
   13356:	0106a623          	sw	a6,12(a3)
   1335a:	00d82423          	sw	a3,8(a6)
   1335e:	c34c                	sw	a1,4(a4)
   13360:	c21c                	sw	a5,0(a2)
   13362:	bf1d                	j	13298 <_free_r+0x7a>
   13364:	edf1                	bnez	a1,13440 <_free_r+0x222>
   13366:	460c                	lw	a1,8(a2)
   13368:	4650                	lw	a2,12(a2)
   1336a:	96be                	add	a3,a3,a5
   1336c:	0016e793          	or	a5,a3,1
   13370:	c5d0                	sw	a2,12(a1)
   13372:	c60c                	sw	a1,8(a2)
   13374:	c35c                	sw	a5,4(a4)
   13376:	9736                	add	a4,a4,a3
   13378:	c314                	sw	a3,0(a4)
   1337a:	b7b1                	j	132c6 <_free_r+0xa8>
   1337c:	8985                	and	a1,a1,1
   1337e:	96be                	add	a3,a3,a5
   13380:	e989                	bnez	a1,13392 <_free_r+0x174>
   13382:	ff842583          	lw	a1,-8(s0)
   13386:	8f0d                	sub	a4,a4,a1
   13388:	475c                	lw	a5,12(a4)
   1338a:	4710                	lw	a2,8(a4)
   1338c:	96ae                	add	a3,a3,a1
   1338e:	c65c                	sw	a5,12(a2)
   13390:	c790                	sw	a2,8(a5)
   13392:	0016e793          	or	a5,a3,1
   13396:	c35c                	sw	a5,4(a4)
   13398:	c518                	sw	a4,8(a0)
   1339a:	fe41a783          	lw	a5,-28(gp) # 1e7f4 <__malloc_trim_threshold>
   1339e:	f2f6e4e3          	bltu	a3,a5,132c6 <_free_r+0xa8>
   133a2:	ff41a583          	lw	a1,-12(gp) # 1e804 <__malloc_top_pad>
   133a6:	8526                	mv	a0,s1
   133a8:	3365                	jal	13150 <_malloc_trim_r>
   133aa:	bf31                	j	132c6 <_free_r+0xa8>
   133ac:	97b6                	add	a5,a5,a3
   133ae:	bf59                	j	13344 <_free_r+0x126>
   133b0:	4651                	li	a2,20
   133b2:	00d67e63          	bgeu	a2,a3,133ce <_free_r+0x1b0>
   133b6:	05400613          	li	a2,84
   133ba:	04d66663          	bltu	a2,a3,13406 <_free_r+0x1e8>
   133be:	00c7d693          	srl	a3,a5,0xc
   133c2:	06f68593          	add	a1,a3,111
   133c6:	06e68613          	add	a2,a3,110
   133ca:	058e                	sll	a1,a1,0x3
   133cc:	bf2d                	j	13306 <_free_r+0xe8>
   133ce:	05c68593          	add	a1,a3,92
   133d2:	05b68613          	add	a2,a3,91
   133d6:	058e                	sll	a1,a1,0x3
   133d8:	b73d                	j	13306 <_free_r+0xe8>
   133da:	c958                	sw	a4,20(a0)
   133dc:	c918                	sw	a4,16(a0)
   133de:	0017e693          	or	a3,a5,1
   133e2:	01172623          	sw	a7,12(a4)
   133e6:	01172423          	sw	a7,8(a4)
   133ea:	c354                	sw	a3,4(a4)
   133ec:	973e                	add	a4,a4,a5
   133ee:	c31c                	sw	a5,0(a4)
   133f0:	bdd9                	j	132c6 <_free_r+0xa8>
   133f2:	00452803          	lw	a6,4(a0)
   133f6:	8609                	sra	a2,a2,0x2
   133f8:	4785                	li	a5,1
   133fa:	00c797b3          	sll	a5,a5,a2
   133fe:	0107e7b3          	or	a5,a5,a6
   13402:	c15c                	sw	a5,4(a0)
   13404:	bf39                	j	13322 <_free_r+0x104>
   13406:	15400613          	li	a2,340
   1340a:	00d66a63          	bltu	a2,a3,1341e <_free_r+0x200>
   1340e:	00f7d693          	srl	a3,a5,0xf
   13412:	07868593          	add	a1,a3,120
   13416:	07768613          	add	a2,a3,119
   1341a:	058e                	sll	a1,a1,0x3
   1341c:	b5ed                	j	13306 <_free_r+0xe8>
   1341e:	55400613          	li	a2,1364
   13422:	00d66a63          	bltu	a2,a3,13436 <_free_r+0x218>
   13426:	0127d693          	srl	a3,a5,0x12
   1342a:	07d68593          	add	a1,a3,125
   1342e:	07c68613          	add	a2,a3,124
   13432:	058e                	sll	a1,a1,0x3
   13434:	bdc9                	j	13306 <_free_r+0xe8>
   13436:	3f800593          	li	a1,1016
   1343a:	07e00613          	li	a2,126
   1343e:	b5e1                	j	13306 <_free_r+0xe8>
   13440:	0017e693          	or	a3,a5,1
   13444:	c354                	sw	a3,4(a4)
   13446:	c21c                	sw	a5,0(a2)
   13448:	bdbd                	j	132c6 <_free_r+0xa8>

0001344a <__gdtoa>:
   1344a:	7131                	add	sp,sp,-192
   1344c:	d15a                	sw	s6,160(sp)
   1344e:	00072b03          	lw	s6,0(a4)
   13452:	d94a                	sw	s2,176(sp)
   13454:	df06                	sw	ra,188(sp)
   13456:	fcfb7313          	and	t1,s6,-49
   1345a:	00672023          	sw	t1,0(a4)
   1345e:	893a                	mv	s2,a4
   13460:	470e                	lw	a4,192(sp)
   13462:	00fb7313          	and	t1,s6,15
   13466:	4e0d                	li	t3,3
   13468:	c43a                	sw	a4,8(sp)
   1346a:	c02a                	sw	a0,0(sp)
   1346c:	c832                	sw	a2,16(sp)
   1346e:	ca42                	sw	a6,20(sp)
   13470:	c246                	sw	a7,4(sp)
   13472:	55c30163          	beq	t1,t3,139b4 <__gdtoa+0x56a>
   13476:	cd62                	sw	s8,152(sp)
   13478:	00cb7c13          	and	s8,s6,12
   1347c:	4c0c1b63          	bnez	s8,13952 <__gdtoa+0x508>
   13480:	50030663          	beqz	t1,1398c <__gdtoa+0x542>
   13484:	d356                	sw	s5,164(sp)
   13486:	0005aa83          	lw	s5,0(a1)
   1348a:	d74e                	sw	s3,172(sp)
   1348c:	c96a                	sw	s10,144(sp)
   1348e:	c76e                	sw	s11,140(sp)
   13490:	89b6                	mv	s3,a3
   13492:	02000693          	li	a3,32
   13496:	8dae                	mv	s11,a1
   13498:	8d3e                	mv	s10,a5
   1349a:	4581                	li	a1,0
   1349c:	02000793          	li	a5,32
   134a0:	0156d663          	bge	a3,s5,134ac <__gdtoa+0x62>
   134a4:	0786                	sll	a5,a5,0x1
   134a6:	0585                	add	a1,a1,1
   134a8:	ff57cee3          	blt	a5,s5,134a4 <__gdtoa+0x5a>
   134ac:	4502                	lw	a0,0(sp)
   134ae:	3e5020ef          	jal	16092 <_Balloc>
   134b2:	c62a                	sw	a0,12(sp)
   134b4:	7c050163          	beqz	a0,13c76 <__gdtoa+0x82c>
   134b8:	47b2                	lw	a5,12(sp)
   134ba:	fffa8513          	add	a0,s5,-1
   134be:	8515                	sra	a0,a0,0x5
   134c0:	00251593          	sll	a1,a0,0x2
   134c4:	01478693          	add	a3,a5,20
   134c8:	d552                	sw	s4,168(sp)
   134ca:	cb66                	sw	s9,148(sp)
   134cc:	95ce                	add	a1,a1,s3
   134ce:	87ce                	mv	a5,s3
   134d0:	4398                	lw	a4,0(a5)
   134d2:	0791                	add	a5,a5,4
   134d4:	0691                	add	a3,a3,4
   134d6:	fee6ae23          	sw	a4,-4(a3)
   134da:	fef5fbe3          	bgeu	a1,a5,134d0 <__gdtoa+0x86>
   134de:	0585                	add	a1,a1,1
   134e0:	00198793          	add	a5,s3,1
   134e4:	4691                	li	a3,4
   134e6:	00f5e563          	bltu	a1,a5,134f0 <__gdtoa+0xa6>
   134ea:	050a                	sll	a0,a0,0x2
   134ec:	00450693          	add	a3,a0,4
   134f0:	47b2                	lw	a5,12(sp)
   134f2:	4026dc93          	sra	s9,a3,0x2
   134f6:	96be                	add	a3,a3,a5
   134f8:	a021                	j	13500 <__gdtoa+0xb6>
   134fa:	16f1                	add	a3,a3,-4
   134fc:	4e0c8f63          	beqz	s9,139fa <__gdtoa+0x5b0>
   13500:	4a9c                	lw	a5,16(a3)
   13502:	8a66                	mv	s4,s9
   13504:	1cfd                	add	s9,s9,-1
   13506:	dbf5                	beqz	a5,134fa <__gdtoa+0xb0>
   13508:	4732                	lw	a4,12(sp)
   1350a:	004c8793          	add	a5,s9,4
   1350e:	078a                	sll	a5,a5,0x2
   13510:	97ba                	add	a5,a5,a4
   13512:	43c8                	lw	a0,4(a5)
   13514:	01472823          	sw	s4,16(a4)
   13518:	0a16                	sll	s4,s4,0x5
   1351a:	5a3020ef          	jal	162bc <__hi0bits>
   1351e:	40aa0cb3          	sub	s9,s4,a0
   13522:	4532                	lw	a0,12(sp)
   13524:	123030ef          	jal	16e46 <__trailz_D2A>
   13528:	47c2                	lw	a5,16(sp)
   1352a:	deaa                	sw	a0,124(sp)
   1352c:	d03e                	sw	a5,32(sp)
   1352e:	4e051c63          	bnez	a0,13a26 <__gdtoa+0x5dc>
   13532:	47b2                	lw	a5,12(sp)
   13534:	4b94                	lw	a3,16(a5)
   13536:	44068163          	beqz	a3,13978 <__gdtoa+0x52e>
   1353a:	4532                	lw	a0,12(sp)
   1353c:	18ec                	add	a1,sp,124
   1353e:	dd22                	sw	s0,184(sp)
   13540:	db26                	sw	s1,180(sp)
   13542:	cf5e                	sw	s7,156(sp)
   13544:	476030ef          	jal	169ba <__b2d>
   13548:	00c59a13          	sll	s4,a1,0xc
   1354c:	00ca5a13          	srl	s4,s4,0xc
   13550:	3ff006b7          	lui	a3,0x3ff00
   13554:	00da64b3          	or	s1,s4,a3
   13558:	5702                	lw	a4,32(sp)
   1355a:	0000b697          	auipc	a3,0xb
   1355e:	15668693          	add	a3,a3,342 # 1e6b0 <__TMC_END__>
   13562:	4290                	lw	a2,0(a3)
   13564:	42d4                	lw	a3,4(a3)
   13566:	9766                	add	a4,a4,s9
   13568:	87aa                	mv	a5,a0
   1356a:	85a6                	mv	a1,s1
   1356c:	fff70a13          	add	s4,a4,-1
   13570:	c4be                	sw	a5,72(sp)
   13572:	ce3a                	sw	a4,28(sp)
   13574:	dc2a                	sw	a0,56(sp)
   13576:	210070ef          	jal	1a786 <__subdf3>
   1357a:	0000b697          	auipc	a3,0xb
   1357e:	13e68693          	add	a3,a3,318 # 1e6b8 <__TMC_END__+0x8>
   13582:	4290                	lw	a2,0(a3)
   13584:	42d4                	lw	a3,4(a3)
   13586:	4e3060ef          	jal	1a268 <__muldf3>
   1358a:	0000b697          	auipc	a3,0xb
   1358e:	13668693          	add	a3,a3,310 # 1e6c0 <__TMC_END__+0x10>
   13592:	4290                	lw	a2,0(a3)
   13594:	42d4                	lw	a3,4(a3)
   13596:	60f050ef          	jal	193a4 <__adddf3>
   1359a:	8baa                	mv	s7,a0
   1359c:	8552                	mv	a0,s4
   1359e:	842e                	mv	s0,a1
   135a0:	19b070ef          	jal	1af3a <__floatsidf>
   135a4:	0000b697          	auipc	a3,0xb
   135a8:	12468693          	add	a3,a3,292 # 1e6c8 <__TMC_END__+0x18>
   135ac:	4290                	lw	a2,0(a3)
   135ae:	42d4                	lw	a3,4(a3)
   135b0:	4b9060ef          	jal	1a268 <__muldf3>
   135b4:	862a                	mv	a2,a0
   135b6:	86ae                	mv	a3,a1
   135b8:	855e                	mv	a0,s7
   135ba:	85a2                	mv	a1,s0
   135bc:	5e9050ef          	jal	193a4 <__adddf3>
   135c0:	8baa                	mv	s7,a0
   135c2:	842e                	mv	s0,a1
   135c4:	8552                	mv	a0,s4
   135c6:	000a5563          	bgez	s4,135d0 <__gdtoa+0x186>
   135ca:	4772                	lw	a4,28(sp)
   135cc:	4505                	li	a0,1
   135ce:	8d19                	sub	a0,a0,a4
   135d0:	bcb50513          	add	a0,a0,-1077
   135d4:	02a05463          	blez	a0,135fc <__gdtoa+0x1b2>
   135d8:	163070ef          	jal	1af3a <__floatsidf>
   135dc:	0000b697          	auipc	a3,0xb
   135e0:	0f468693          	add	a3,a3,244 # 1e6d0 <__TMC_END__+0x20>
   135e4:	4290                	lw	a2,0(a3)
   135e6:	42d4                	lw	a3,4(a3)
   135e8:	481060ef          	jal	1a268 <__muldf3>
   135ec:	862a                	mv	a2,a0
   135ee:	86ae                	mv	a3,a1
   135f0:	855e                	mv	a0,s7
   135f2:	85a2                	mv	a1,s0
   135f4:	5b1050ef          	jal	193a4 <__adddf3>
   135f8:	8baa                	mv	s7,a0
   135fa:	842e                	mv	s0,a1
   135fc:	85a2                	mv	a1,s0
   135fe:	855e                	mv	a0,s7
   13600:	0d5070ef          	jal	1aed4 <__fixdfsi>
   13604:	882a                	mv	a6,a0
   13606:	85a2                	mv	a1,s0
   13608:	855e                	mv	a0,s7
   1360a:	4601                	li	a2,0
   1360c:	4681                	li	a3,0
   1360e:	cc42                	sw	a6,24(sp)
   13610:	397060ef          	jal	1a1a6 <__ledf2>
   13614:	00055e63          	bgez	a0,13630 <__gdtoa+0x1e6>
   13618:	4562                	lw	a0,24(sp)
   1361a:	121070ef          	jal	1af3a <__floatsidf>
   1361e:	865e                	mv	a2,s7
   13620:	86a2                	mv	a3,s0
   13622:	25b060ef          	jal	1a07c <__eqdf2>
   13626:	47e2                	lw	a5,24(sp)
   13628:	00a03533          	snez	a0,a0
   1362c:	8f89                	sub	a5,a5,a0
   1362e:	cc3e                	sw	a5,24(sp)
   13630:	014a1613          	sll	a2,s4,0x14
   13634:	47e2                	lw	a5,24(sp)
   13636:	00960833          	add	a6,a2,s1
   1363a:	414c8433          	sub	s0,s9,s4
   1363e:	46d9                	li	a3,22
   13640:	c0c2                	sw	a6,64(sp)
   13642:	fff40b93          	add	s7,s0,-1
   13646:	3af6ee63          	bltu	a3,a5,13a02 <__gdtoa+0x5b8>
   1364a:	0000a317          	auipc	t1,0xa
   1364e:	34e30313          	add	t1,t1,846 # 1d998 <__mprec_tens>
   13652:	00379693          	sll	a3,a5,0x3
   13656:	969a                	add	a3,a3,t1
   13658:	58e2                	lw	a7,56(sp)
   1365a:	4288                	lw	a0,0(a3)
   1365c:	42cc                	lw	a1,4(a3)
   1365e:	8646                	mv	a2,a7
   13660:	86c2                	mv	a3,a6
   13662:	287060ef          	jal	1a0e8 <__gedf2>
   13666:	62a04b63          	bgtz	a0,13c9c <__gdtoa+0x852>
   1366a:	de02                	sw	zero,60(sp)
   1366c:	d202                	sw	zero,36(sp)
   1366e:	00804763          	bgtz	s0,1367c <__gdtoa+0x232>
   13672:	4685                	li	a3,1
   13674:	408687b3          	sub	a5,a3,s0
   13678:	d23e                	sw	a5,36(sp)
   1367a:	4b81                	li	s7,0
   1367c:	47e2                	lw	a5,24(sp)
   1367e:	d602                	sw	zero,44(sp)
   13680:	9bbe                	add	s7,s7,a5
   13682:	d83e                	sw	a5,48(sp)
   13684:	46a5                	li	a3,9
   13686:	3ba6eb63          	bltu	a3,s10,13a3c <__gdtoa+0x5f2>
   1368a:	4695                	li	a3,5
   1368c:	61a6cd63          	blt	a3,s10,13ca6 <__gdtoa+0x85c>
   13690:	47f2                	lw	a5,28(sp)
   13692:	4611                	li	a2,4
   13694:	3fd78a13          	add	s4,a5,1021
   13698:	7f8a3a13          	sltiu	s4,s4,2040
   1369c:	2ccd01e3          	beq	s10,a2,1415e <__gdtoa+0xd14>
   136a0:	2add0be3          	beq	s10,a3,14156 <__gdtoa+0xd0c>
   136a4:	4689                	li	a3,2
   136a6:	2add0fe3          	beq	s10,a3,14164 <__gdtoa+0xd1a>
   136aa:	468d                	li	a3,3
   136ac:	da02                	sw	zero,52(sp)
   136ae:	38dd1d63          	bne	s10,a3,13a48 <__gdtoa+0x5fe>
   136b2:	57c2                	lw	a5,48(sp)
   136b4:	4752                	lw	a4,20(sp)
   136b6:	97ba                	add	a5,a5,a4
   136b8:	c6be                	sw	a5,76(sp)
   136ba:	0785                	add	a5,a5,1
   136bc:	ce3e                	sw	a5,28(sp)
   136be:	12f05be3          	blez	a5,13ff4 <__gdtoa+0xbaa>
   136c2:	86be                	mv	a3,a5
   136c4:	85be                	mv	a1,a5
   136c6:	4502                	lw	a0,0(sp)
   136c8:	deb6                	sw	a3,124(sp)
   136ca:	6b8020ef          	jal	15d82 <__rv_alloc_D2A>
   136ce:	8f2a                	mv	t5,a0
   136d0:	30050a63          	beqz	a0,139e4 <__gdtoa+0x59a>
   136d4:	00cda783          	lw	a5,12(s11)
   136d8:	17fd                	add	a5,a5,-1
   136da:	d43e                	sw	a5,40(sp)
   136dc:	3a078263          	beqz	a5,13a80 <__gdtoa+0x636>
   136e0:	5a07cb63          	bltz	a5,13c96 <__gdtoa+0x84c>
   136e4:	100b7e93          	and	t4,s6,256
   136e8:	380e9763          	bnez	t4,13a76 <__gdtoa+0x62c>
   136ec:	5782                	lw	a5,32(sp)
   136ee:	0007c663          	bltz	a5,136fa <__gdtoa+0x2b0>
   136f2:	57c2                	lw	a5,48(sp)
   136f4:	46b9                	li	a3,14
   136f6:	5cf6d563          	bge	a3,a5,13cc0 <__gdtoa+0x876>
   136fa:	57d2                	lw	a5,52(sp)
   136fc:	58078963          	beqz	a5,13c8e <__gdtoa+0x844>
   13700:	5782                	lw	a5,32(sp)
   13702:	419a8e33          	sub	t3,s5,s9
   13706:	004da683          	lw	a3,4(s11)
   1370a:	001e0613          	add	a2,t3,1
   1370e:	deb2                	sw	a2,124(sp)
   13710:	41c78e33          	sub	t3,a5,t3
   13714:	12de50e3          	bge	t3,a3,14034 <__gdtoa+0xbea>
   13718:	ffdd0613          	add	a2,s10,-3
   1371c:	9a75                	and	a2,a2,-3
   1371e:	04060ee3          	beqz	a2,13f7a <__gdtoa+0xb30>
   13722:	40d786b3          	sub	a3,a5,a3
   13726:	0685                	add	a3,a3,1
   13728:	deb6                	sw	a3,124(sp)
   1372a:	4605                	li	a2,1
   1372c:	01a65a63          	bge	a2,s10,13740 <__gdtoa+0x2f6>
   13730:	47f2                	lw	a5,28(sp)
   13732:	00f05763          	blez	a5,13740 <__gdtoa+0x2f6>
   13736:	47f2                	lw	a5,28(sp)
   13738:	00d7d463          	bge	a5,a3,13740 <__gdtoa+0x2f6>
   1373c:	6610006f          	j	1459c <__gdtoa+0x1152>
   13740:	5792                	lw	a5,36(sp)
   13742:	54b2                	lw	s1,44(sp)
   13744:	9bb6                	add	s7,s7,a3
   13746:	8abe                	mv	s5,a5
   13748:	97b6                	add	a5,a5,a3
   1374a:	d23e                	sw	a5,36(sp)
   1374c:	4502                	lw	a0,0(sp)
   1374e:	4585                	li	a1,1
   13750:	d07a                	sw	t5,32(sp)
   13752:	449020ef          	jal	1639a <__i2b>
   13756:	5f02                	lw	t5,32(sp)
   13758:	8a2a                	mv	s4,a0
   1375a:	28050563          	beqz	a0,139e4 <__gdtoa+0x59a>
   1375e:	020a8063          	beqz	s5,1377e <__gdtoa+0x334>
   13762:	01705e63          	blez	s7,1377e <__gdtoa+0x334>
   13766:	86d6                	mv	a3,s5
   13768:	015bd363          	bge	s7,s5,1376e <__gdtoa+0x324>
   1376c:	86de                	mv	a3,s7
   1376e:	5792                	lw	a5,36(sp)
   13770:	deb6                	sw	a3,124(sp)
   13772:	40da8ab3          	sub	s5,s5,a3
   13776:	8f95                	sub	a5,a5,a3
   13778:	d23e                	sw	a5,36(sp)
   1377a:	40db8bb3          	sub	s7,s7,a3
   1377e:	57b2                	lw	a5,44(sp)
   13780:	cf99                	beqz	a5,1379e <__gdtoa+0x354>
   13782:	57d2                	lw	a5,52(sp)
   13784:	c399                	beqz	a5,1378a <__gdtoa+0x340>
   13786:	12049ce3          	bnez	s1,140be <__gdtoa+0xc74>
   1378a:	5632                	lw	a2,44(sp)
   1378c:	45b2                	lw	a1,12(sp)
   1378e:	4502                	lw	a0,0(sp)
   13790:	d07a                	sw	t5,32(sp)
   13792:	60d020ef          	jal	1659e <__pow5mult>
   13796:	c62a                	sw	a0,12(sp)
   13798:	5f02                	lw	t5,32(sp)
   1379a:	24050563          	beqz	a0,139e4 <__gdtoa+0x59a>
   1379e:	4502                	lw	a0,0(sp)
   137a0:	4585                	li	a1,1
   137a2:	d07a                	sw	t5,32(sp)
   137a4:	3f7020ef          	jal	1639a <__i2b>
   137a8:	832a                	mv	t1,a0
   137aa:	22050d63          	beqz	a0,139e4 <__gdtoa+0x59a>
   137ae:	47e2                	lw	a5,24(sp)
   137b0:	5f02                	lw	t5,32(sp)
   137b2:	040795e3          	bnez	a5,13ffc <__gdtoa+0xbb2>
   137b6:	4685                	li	a3,1
   137b8:	65a6d063          	bge	a3,s10,13df8 <__gdtoa+0x9ae>
   137bc:	4b7d                	li	s6,31
   137be:	5792                	lw	a5,36(sp)
   137c0:	417b0b33          	sub	s6,s6,s7
   137c4:	1b71                	add	s6,s6,-4
   137c6:	01fb7b13          	and	s6,s6,31
   137ca:	00fb0633          	add	a2,s6,a5
   137ce:	deda                	sw	s6,124(sp)
   137d0:	87da                	mv	a5,s6
   137d2:	6cc04863          	bgtz	a2,13ea2 <__gdtoa+0xa58>
   137d6:	00fb8633          	add	a2,s7,a5
   137da:	1ec04c63          	bgtz	a2,139d2 <__gdtoa+0x588>
   137de:	57f2                	lw	a5,60(sp)
   137e0:	6c079e63          	bnez	a5,13ebc <__gdtoa+0xa72>
   137e4:	47f2                	lw	a5,28(sp)
   137e6:	7af05b63          	blez	a5,13f9c <__gdtoa+0xb52>
   137ea:	57d2                	lw	a5,52(sp)
   137ec:	70078863          	beqz	a5,13efc <__gdtoa+0xab2>
   137f0:	015b0633          	add	a2,s6,s5
   137f4:	12c04fe3          	bgtz	a2,14132 <__gdtoa+0xce8>
   137f8:	47e2                	lw	a5,24(sp)
   137fa:	8ad2                	mv	s5,s4
   137fc:	180794e3          	bnez	a5,14184 <__gdtoa+0xd3a>
   13800:	ca4a                	sw	s2,20(sp)
   13802:	44b2                	lw	s1,12(sp)
   13804:	4902                	lw	s2,0(sp)
   13806:	8dfa                	mv	s11,t5
   13808:	4785                	li	a5,1
   1380a:	4409                	li	s0,2
   1380c:	8c1a                	mv	s8,t1
   1380e:	c87a                	sw	t5,16(sp)
   13810:	a885                	j	13880 <__gdtoa+0x436>
   13812:	854a                	mv	a0,s2
   13814:	0eb020ef          	jal	160fe <_Bfree>
   13818:	280b4de3          	bltz	s6,142b2 <__gdtoa+0xe68>
   1381c:	016d6b33          	or	s6,s10,s6
   13820:	000b1763          	bnez	s6,1382e <__gdtoa+0x3e4>
   13824:	0009a783          	lw	a5,0(s3)
   13828:	8b85                	and	a5,a5,1
   1382a:	280784e3          	beqz	a5,142b2 <__gdtoa+0xe68>
   1382e:	57a2                	lw	a5,40(sp)
   13830:	4a879de3          	bne	a5,s0,144ea <__gdtoa+0x10a0>
   13834:	019d8023          	sb	s9,0(s11)
   13838:	57f6                	lw	a5,124(sp)
   1383a:	4772                	lw	a4,28(sp)
   1383c:	0d85                	add	s11,s11,1
   1383e:	40f70ee3          	beq	a4,a5,1445a <__gdtoa+0x1010>
   13842:	85a6                	mv	a1,s1
   13844:	4681                	li	a3,0
   13846:	4629                	li	a2,10
   13848:	854a                	mv	a0,s2
   1384a:	0c7020ef          	jal	16110 <__multadd>
   1384e:	84aa                	mv	s1,a0
   13850:	18050a63          	beqz	a0,139e4 <__gdtoa+0x59a>
   13854:	4681                	li	a3,0
   13856:	4629                	li	a2,10
   13858:	85d2                	mv	a1,s4
   1385a:	854a                	mv	a0,s2
   1385c:	5d5a0a63          	beq	s4,s5,13e30 <__gdtoa+0x9e6>
   13860:	0b1020ef          	jal	16110 <__multadd>
   13864:	8a2a                	mv	s4,a0
   13866:	16050f63          	beqz	a0,139e4 <__gdtoa+0x59a>
   1386a:	85d6                	mv	a1,s5
   1386c:	4681                	li	a3,0
   1386e:	4629                	li	a2,10
   13870:	854a                	mv	a0,s2
   13872:	09f020ef          	jal	16110 <__multadd>
   13876:	8aaa                	mv	s5,a0
   13878:	16050663          	beqz	a0,139e4 <__gdtoa+0x59a>
   1387c:	57f6                	lw	a5,124(sp)
   1387e:	0785                	add	a5,a5,1
   13880:	85e2                	mv	a1,s8
   13882:	8526                	mv	a0,s1
   13884:	debe                	sw	a5,124(sp)
   13886:	5a8020ef          	jal	15e2e <__quorem_D2A>
   1388a:	8baa                	mv	s7,a0
   1388c:	85d2                	mv	a1,s4
   1388e:	8526                	mv	a0,s1
   13890:	6f1020ef          	jal	16780 <__mcmp>
   13894:	85e2                	mv	a1,s8
   13896:	8b2a                	mv	s6,a0
   13898:	8656                	mv	a2,s5
   1389a:	854a                	mv	a0,s2
   1389c:	721020ef          	jal	167bc <__mdiff>
   138a0:	030b8c93          	add	s9,s7,48
   138a4:	85aa                	mv	a1,a0
   138a6:	12050f63          	beqz	a0,139e4 <__gdtoa+0x59a>
   138aa:	455c                	lw	a5,12(a0)
   138ac:	f3bd                	bnez	a5,13812 <__gdtoa+0x3c8>
   138ae:	c62a                	sw	a0,12(sp)
   138b0:	8526                	mv	a0,s1
   138b2:	6cf020ef          	jal	16780 <__mcmp>
   138b6:	45b2                	lw	a1,12(sp)
   138b8:	86aa                	mv	a3,a0
   138ba:	854a                	mv	a0,s2
   138bc:	c636                	sw	a3,12(sp)
   138be:	041020ef          	jal	160fe <_Bfree>
   138c2:	46b2                	lw	a3,12(sp)
   138c4:	00dd6733          	or	a4,s10,a3
   138c8:	5e0710e3          	bnez	a4,146a8 <__gdtoa+0x125e>
   138cc:	0009a783          	lw	a5,0(s3)
   138d0:	8b85                	and	a5,a5,1
   138d2:	56079663          	bnez	a5,13e3e <__gdtoa+0x9f4>
   138d6:	57a2                	lw	a5,40(sp)
   138d8:	500781e3          	beqz	a5,145da <__gdtoa+0x1190>
   138dc:	f5604ce3          	bgtz	s6,13834 <__gdtoa+0x3ea>
   138e0:	4890                	lw	a2,16(s1)
   138e2:	c626                	sw	s1,12(sp)
   138e4:	4685                	li	a3,1
   138e6:	8362                	mv	t1,s8
   138e8:	4f42                	lw	t5,16(sp)
   138ea:	4952                	lw	s2,20(sp)
   138ec:	8c3a                	mv	s8,a4
   138ee:	87a6                	mv	a5,s1
   138f0:	58c6d9e3          	bge	a3,a2,14682 <__gdtoa+0x1238>
   138f4:	57a2                	lw	a5,40(sp)
   138f6:	4689                	li	a3,2
   138f8:	56d787e3          	beq	a5,a3,14666 <__gdtoa+0x121c>
   138fc:	44b2                	lw	s1,12(sp)
   138fe:	4b82                	lw	s7,0(sp)
   13900:	8b1a                	mv	s6,t1
   13902:	8c7a                	mv	s8,t5
   13904:	a821                	j	1391c <__gdtoa+0x4d2>
   13906:	00b020ef          	jal	16110 <__multadd>
   1390a:	85da                	mv	a1,s6
   1390c:	84aa                	mv	s1,a0
   1390e:	c979                	beqz	a0,139e4 <__gdtoa+0x59a>
   13910:	51e020ef          	jal	15e2e <__quorem_D2A>
   13914:	03050c93          	add	s9,a0,48
   13918:	8dce                	mv	s11,s3
   1391a:	8aa2                	mv	s5,s0
   1391c:	85d6                	mv	a1,s5
   1391e:	855a                	mv	a0,s6
   13920:	661020ef          	jal	16780 <__mcmp>
   13924:	87aa                	mv	a5,a0
   13926:	4681                	li	a3,0
   13928:	4629                	li	a2,10
   1392a:	85d6                	mv	a1,s5
   1392c:	855e                	mv	a0,s7
   1392e:	001d8993          	add	s3,s11,1
   13932:	50f05ee3          	blez	a5,1464e <__gdtoa+0x1204>
   13936:	ff998fa3          	sb	s9,-1(s3)
   1393a:	7d6020ef          	jal	16110 <__multadd>
   1393e:	842a                	mv	s0,a0
   13940:	4681                	li	a3,0
   13942:	4629                	li	a2,10
   13944:	85a6                	mv	a1,s1
   13946:	855e                	mv	a0,s7
   13948:	cc51                	beqz	s0,139e4 <__gdtoa+0x59a>
   1394a:	fb5a1ee3          	bne	s4,s5,13906 <__gdtoa+0x4bc>
   1394e:	8a22                	mv	s4,s0
   13950:	bf5d                	j	13906 <__gdtoa+0x4bc>
   13952:	4791                	li	a5,4
   13954:	0af31163          	bne	t1,a5,139f6 <__gdtoa+0x5ac>
   13958:	4712                	lw	a4,4(sp)
   1395a:	4622                	lw	a2,8(sp)
   1395c:	4c6a                	lw	s8,152(sp)
   1395e:	50fa                	lw	ra,188(sp)
   13960:	594a                	lw	s2,176(sp)
   13962:	5b0a                	lw	s6,160(sp)
   13964:	77e1                	lui	a5,0xffff8
   13966:	c31c                	sw	a5,0(a4)
   13968:	468d                	li	a3,3
   1396a:	0000a597          	auipc	a1,0xa
   1396e:	e3658593          	add	a1,a1,-458 # 1d7a0 <zeroes.0+0x80>
   13972:	6129                	add	sp,sp,192
   13974:	43c0206f          	j	15db0 <__nrv_alloc_D2A>
   13978:	4502                	lw	a0,0(sp)
   1397a:	85be                	mv	a1,a5
   1397c:	782020ef          	jal	160fe <_Bfree>
   13980:	59ba                	lw	s3,172(sp)
   13982:	5a2a                	lw	s4,168(sp)
   13984:	5a9a                	lw	s5,164(sp)
   13986:	4cda                	lw	s9,148(sp)
   13988:	4d4a                	lw	s10,144(sp)
   1398a:	4dba                	lw	s11,140(sp)
   1398c:	4712                	lw	a4,4(sp)
   1398e:	4622                	lw	a2,8(sp)
   13990:	4502                	lw	a0,0(sp)
   13992:	4785                	li	a5,1
   13994:	c31c                	sw	a5,0(a4)
   13996:	4685                	li	a3,1
   13998:	0000a597          	auipc	a1,0xa
   1399c:	b7058593          	add	a1,a1,-1168 # 1d508 <__clzsi2+0xcc>
   139a0:	410020ef          	jal	15db0 <__nrv_alloc_D2A>
   139a4:	8f2a                	mv	t5,a0
   139a6:	50fa                	lw	ra,188(sp)
   139a8:	4c6a                	lw	s8,152(sp)
   139aa:	594a                	lw	s2,176(sp)
   139ac:	5b0a                	lw	s6,160(sp)
   139ae:	857a                	mv	a0,t5
   139b0:	6129                	add	sp,sp,192
   139b2:	8082                	ret
   139b4:	4712                	lw	a4,4(sp)
   139b6:	4622                	lw	a2,8(sp)
   139b8:	50fa                	lw	ra,188(sp)
   139ba:	594a                	lw	s2,176(sp)
   139bc:	5b0a                	lw	s6,160(sp)
   139be:	77e1                	lui	a5,0xffff8
   139c0:	c31c                	sw	a5,0(a4)
   139c2:	46a1                	li	a3,8
   139c4:	0000a597          	auipc	a1,0xa
   139c8:	dd058593          	add	a1,a1,-560 # 1d794 <zeroes.0+0x74>
   139cc:	6129                	add	sp,sp,192
   139ce:	3e20206f          	j	15db0 <__nrv_alloc_D2A>
   139d2:	4502                	lw	a0,0(sp)
   139d4:	859a                	mv	a1,t1
   139d6:	c87a                	sw	t5,16(sp)
   139d8:	499020ef          	jal	16670 <__lshift>
   139dc:	4f42                	lw	t5,16(sp)
   139de:	832a                	mv	t1,a0
   139e0:	de051fe3          	bnez	a0,137de <__gdtoa+0x394>
   139e4:	546a                	lw	s0,184(sp)
   139e6:	54da                	lw	s1,180(sp)
   139e8:	59ba                	lw	s3,172(sp)
   139ea:	5a2a                	lw	s4,168(sp)
   139ec:	5a9a                	lw	s5,164(sp)
   139ee:	4bfa                	lw	s7,156(sp)
   139f0:	4cda                	lw	s9,148(sp)
   139f2:	4d4a                	lw	s10,144(sp)
   139f4:	4dba                	lw	s11,140(sp)
   139f6:	4f01                	li	t5,0
   139f8:	b77d                	j	139a6 <__gdtoa+0x55c>
   139fa:	47b2                	lw	a5,12(sp)
   139fc:	0007a823          	sw	zero,16(a5) # ffff8010 <__BSS_END__+0xfffd94ec>
   13a00:	b60d                	j	13522 <__gdtoa+0xd8>
   13a02:	4785                	li	a5,1
   13a04:	de3e                	sw	a5,60(sp)
   13a06:	d202                	sw	zero,36(sp)
   13a08:	260bcd63          	bltz	s7,13c82 <__gdtoa+0x838>
   13a0c:	47e2                	lw	a5,24(sp)
   13a0e:	c607d7e3          	bgez	a5,1367c <__gdtoa+0x232>
   13a12:	47e2                	lw	a5,24(sp)
   13a14:	5712                	lw	a4,36(sp)
   13a16:	cc02                	sw	zero,24(sp)
   13a18:	d83e                	sw	a5,48(sp)
   13a1a:	8f1d                	sub	a4,a4,a5
   13a1c:	d23a                	sw	a4,36(sp)
   13a1e:	40f00733          	neg	a4,a5
   13a22:	d63a                	sw	a4,44(sp)
   13a24:	b185                	j	13684 <__gdtoa+0x23a>
   13a26:	85aa                	mv	a1,a0
   13a28:	4532                	lw	a0,12(sp)
   13a2a:	378030ef          	jal	16da2 <__rshift_D2A>
   13a2e:	56f6                	lw	a3,124(sp)
   13a30:	47c2                	lw	a5,16(sp)
   13a32:	40dc8cb3          	sub	s9,s9,a3
   13a36:	97b6                	add	a5,a5,a3
   13a38:	d03e                	sw	a5,32(sp)
   13a3a:	bce5                	j	13532 <__gdtoa+0xe8>
   13a3c:	47f2                	lw	a5,28(sp)
   13a3e:	4d01                	li	s10,0
   13a40:	3fd78793          	add	a5,a5,1021
   13a44:	7f87ba13          	sltiu	s4,a5,2040
   13a48:	8556                	mv	a0,s5
   13a4a:	4f0070ef          	jal	1af3a <__floatsidf>
   13a4e:	0000b697          	auipc	a3,0xb
   13a52:	c8a68693          	add	a3,a3,-886 # 1e6d8 <__TMC_END__+0x28>
   13a56:	4290                	lw	a2,0(a3)
   13a58:	42d4                	lw	a3,4(a3)
   13a5a:	00f060ef          	jal	1a268 <__muldf3>
   13a5e:	476070ef          	jal	1aed4 <__fixdfsi>
   13a62:	4785                	li	a5,1
   13a64:	00350593          	add	a1,a0,3
   13a68:	da3e                	sw	a5,52(sp)
   13a6a:	57fd                	li	a5,-1
   13a6c:	86ae                	mv	a3,a1
   13a6e:	ca02                	sw	zero,20(sp)
   13a70:	c6be                	sw	a5,76(sp)
   13a72:	ce3e                	sw	a5,28(sp)
   13a74:	b989                	j	136c6 <__gdtoa+0x27c>
   13a76:	57a2                	lw	a5,40(sp)
   13a78:	468d                	li	a3,3
   13a7a:	40f687b3          	sub	a5,a3,a5
   13a7e:	d43e                	sw	a5,40(sp)
   13a80:	44f2                	lw	s1,28(sp)
   13a82:	46b9                	li	a3,14
   13a84:	c696e4e3          	bltu	a3,s1,136ec <__gdtoa+0x2a2>
   13a88:	c60a02e3          	beqz	s4,136ec <__gdtoa+0x2a2>
   13a8c:	57c2                	lw	a5,48(sp)
   13a8e:	5722                	lw	a4,40(sp)
   13a90:	00e7e6b3          	or	a3,a5,a4
   13a94:	c4069ce3          	bnez	a3,136ec <__gdtoa+0x2a2>
   13a98:	5462                	lw	s0,56(sp)
   13a9a:	4a06                	lw	s4,64(sp)
   13a9c:	57f2                	lw	a5,60(sp)
   13a9e:	de82                	sw	zero,124(sp)
   13aa0:	d422                	sw	s0,40(sp)
   13aa2:	dc52                	sw	s4,56(sp)
   13aa4:	cf99                	beqz	a5,13ac2 <__gdtoa+0x678>
   13aa6:	0000b697          	auipc	a3,0xb
   13aaa:	c3a68693          	add	a3,a3,-966 # 1e6e0 <__TMC_END__+0x30>
   13aae:	4290                	lw	a2,0(a3)
   13ab0:	42d4                	lw	a3,4(a3)
   13ab2:	8522                	mv	a0,s0
   13ab4:	85d2                	mv	a1,s4
   13ab6:	c8fa                	sw	t5,80(sp)
   13ab8:	6ee060ef          	jal	1a1a6 <__ledf2>
   13abc:	4f46                	lw	t5,80(sp)
   13abe:	1a0549e3          	bltz	a0,14470 <__gdtoa+0x1026>
   13ac2:	57a2                	lw	a5,40(sp)
   13ac4:	c8fa                	sw	t5,80(sp)
   13ac6:	863e                	mv	a2,a5
   13ac8:	853e                	mv	a0,a5
   13aca:	57e2                	lw	a5,56(sp)
   13acc:	86be                	mv	a3,a5
   13ace:	85be                	mv	a1,a5
   13ad0:	0d5050ef          	jal	193a4 <__adddf3>
   13ad4:	0000b697          	auipc	a3,0xb
   13ad8:	c2468693          	add	a3,a3,-988 # 1e6f8 <__TMC_END__+0x48>
   13adc:	4290                	lw	a2,0(a3)
   13ade:	42d4                	lw	a3,4(a3)
   13ae0:	0c5050ef          	jal	193a4 <__adddf3>
   13ae4:	47f2                	lw	a5,28(sp)
   13ae6:	fcc00737          	lui	a4,0xfcc00
   13aea:	4f46                	lw	t5,80(sp)
   13aec:	8b2a                	mv	s6,a0
   13aee:	00b70a33          	add	s4,a4,a1
   13af2:	6e078e63          	beqz	a5,141ee <__gdtoa+0xda4>
   13af6:	47f2                	lw	a5,28(sp)
   13af8:	5ea2                	lw	t4,40(sp)
   13afa:	5862                	lw	a6,56(sp)
   13afc:	ca82                	sw	zero,84(sp)
   13afe:	c8be                	sw	a5,80(sp)
   13b00:	47c6                	lw	a5,80(sp)
   13b02:	5752                	lw	a4,52(sp)
   13b04:	0000a317          	auipc	t1,0xa
   13b08:	e9430313          	add	t1,t1,-364 # 1d998 <__mprec_tens>
   13b0c:	fff78693          	add	a3,a5,-1
   13b10:	068e                	sll	a3,a3,0x3
   13b12:	969a                	add	a3,a3,t1
   13b14:	cec2                	sw	a6,92(sp)
   13b16:	ccf6                	sw	t4,88(sp)
   13b18:	4290                	lw	a2,0(a3)
   13b1a:	84da                	mv	s1,s6
   13b1c:	42d4                	lw	a3,4(a3)
   13b1e:	020709e3          	beqz	a4,14350 <__gdtoa+0xf06>
   13b22:	0000b597          	auipc	a1,0xb
   13b26:	be658593          	add	a1,a1,-1050 # 1e708 <__TMC_END__+0x58>
   13b2a:	4188                	lw	a0,0(a1)
   13b2c:	41cc                	lw	a1,4(a1)
   13b2e:	d49a                	sw	t1,104(sp)
   13b30:	001f0b13          	add	s6,t5,1
   13b34:	d0fa                	sw	t5,96(sp)
   13b36:	78b050ef          	jal	19ac0 <__divdf3>
   13b3a:	8626                	mv	a2,s1
   13b3c:	86d2                	mv	a3,s4
   13b3e:	449060ef          	jal	1a786 <__subdf3>
   13b42:	4ee6                	lw	t4,88(sp)
   13b44:	4876                	lw	a6,92(sp)
   13b46:	862a                	mv	a2,a0
   13b48:	86ae                	mv	a3,a1
   13b4a:	8576                	mv	a0,t4
   13b4c:	85c2                	mv	a1,a6
   13b4e:	c4f6                	sw	t4,72(sp)
   13b50:	c0c2                	sw	a6,64(sp)
   13b52:	ccb2                	sw	a2,88(sp)
   13b54:	ceb6                	sw	a3,92(sp)
   13b56:	37e070ef          	jal	1aed4 <__fixdfsi>
   13b5a:	842a                	mv	s0,a0
