
/home/shemin00/riscv_vhdl/examples/helloworld/Helloworld_hexfiles_32bitcompiler/helloworld:     file format elf32-littleriscv


Disassembly of section .text:

00010094 <register_fini>:
   10094:	00000793          	li	a5,0
   10098:	c799                	beqz	a5,100a6 <register_fini+0x12>
   1009a:	00007517          	auipc	a0,0x7
   1009e:	18050513          	add	a0,a0,384 # 1721a <__libc_fini_array>
   100a2:	4d50506f          	j	15d76 <atexit>
   100a6:	8082                	ret

000100a8 <_start>:
   100a8:	0000e197          	auipc	gp,0xe
   100ac:	76818193          	add	gp,gp,1896 # 1e810 <errno>
   100b0:	fe818513          	add	a0,gp,-24 # 1e7f8 <__stdio_exit_handler>
   100b4:	31418613          	add	a2,gp,788 # 1eb24 <__BSS_END__>
   100b8:	8e09                	sub	a2,a2,a0
   100ba:	4581                	li	a1,0
   100bc:	7da000ef          	jal	10896 <memset>
   100c0:	00006517          	auipc	a0,0x6
   100c4:	cb650513          	add	a0,a0,-842 # 15d76 <atexit>
   100c8:	c519                	beqz	a0,100d6 <_start+0x2e>
   100ca:	00007517          	auipc	a0,0x7
   100ce:	15050513          	add	a0,a0,336 # 1721a <__libc_fini_array>
   100d2:	4a5050ef          	jal	15d76 <atexit>
   100d6:	069000ef          	jal	1093e <__libc_init_array>
   100da:	4502                	lw	a0,0(sp)
   100dc:	004c                	add	a1,sp,4
   100de:	4601                	li	a2,0
   100e0:	2f31                	jal	107fc <main>
   100e2:	0c70006f          	j	109a8 <exit>

000100e6 <deregister_tm_clones>:
   100e6:	ea018793          	add	a5,gp,-352 # 1e6b0 <__TMC_END__>
   100ea:	ea018713          	add	a4,gp,-352 # 1e6b0 <__TMC_END__>
   100ee:	00f70863          	beq	a4,a5,100fe <deregister_tm_clones+0x18>
   100f2:	00000793          	li	a5,0
   100f6:	c781                	beqz	a5,100fe <deregister_tm_clones+0x18>
   100f8:	ea018513          	add	a0,gp,-352 # 1e6b0 <__TMC_END__>
   100fc:	8782                	jr	a5
   100fe:	8082                	ret

00010100 <register_tm_clones>:
   10100:	ea018793          	add	a5,gp,-352 # 1e6b0 <__TMC_END__>
   10104:	ea018593          	add	a1,gp,-352 # 1e6b0 <__TMC_END__>
   10108:	8d9d                	sub	a1,a1,a5
   1010a:	4025d793          	sra	a5,a1,0x2
   1010e:	81fd                	srl	a1,a1,0x1f
   10110:	95be                	add	a1,a1,a5
   10112:	8585                	sra	a1,a1,0x1
   10114:	c599                	beqz	a1,10122 <register_tm_clones+0x22>
   10116:	00000793          	li	a5,0
   1011a:	c781                	beqz	a5,10122 <register_tm_clones+0x22>
   1011c:	ea018513          	add	a0,gp,-352 # 1e6b0 <__TMC_END__>
   10120:	8782                	jr	a5
   10122:	8082                	ret

00010124 <__do_global_dtors_aux>:
   10124:	1141                	add	sp,sp,-16
   10126:	c422                	sw	s0,8(sp)
   10128:	0081c783          	lbu	a5,8(gp) # 1e818 <completed.1>
   1012c:	c606                	sw	ra,12(sp)
   1012e:	ef99                	bnez	a5,1014c <__do_global_dtors_aux+0x28>
   10130:	3f5d                	jal	100e6 <deregister_tm_clones>
   10132:	00000793          	li	a5,0
   10136:	cb81                	beqz	a5,10146 <__do_global_dtors_aux+0x22>
   10138:	6579                	lui	a0,0x1e
   1013a:	00050513          	mv	a0,a0
   1013e:	00000097          	auipc	ra,0x0
   10142:	000000e7          	jalr	zero # 0 <register_fini-0x10094>
   10146:	4785                	li	a5,1
   10148:	00f18423          	sb	a5,8(gp) # 1e818 <completed.1>
   1014c:	40b2                	lw	ra,12(sp)
   1014e:	4422                	lw	s0,8(sp)
   10150:	0141                	add	sp,sp,16
   10152:	8082                	ret

00010154 <frame_dummy>:
   10154:	00000793          	li	a5,0
   10158:	cf99                	beqz	a5,10176 <frame_dummy+0x22>
   1015a:	6579                	lui	a0,0x1e
   1015c:	1141                	add	sp,sp,-16
   1015e:	00c18593          	add	a1,gp,12 # 1e81c <object.0>
   10162:	00050513          	mv	a0,a0
   10166:	c606                	sw	ra,12(sp)
   10168:	00000097          	auipc	ra,0x0
   1016c:	000000e7          	jalr	zero # 0 <register_fini-0x10094>
   10170:	40b2                	lw	ra,12(sp)
   10172:	0141                	add	sp,sp,16
   10174:	b771                	j	10100 <register_tm_clones>
   10176:	b769                	j	10100 <register_tm_clones>

00010178 <get_dev_bar>:
   10178:	715d                	add	sp,sp,-80
   1017a:	c6a2                	sw	s0,76(sp)
   1017c:	0880                	add	s0,sp,80
   1017e:	faa42e23          	sw	a0,-68(s0)
   10182:	87ae                	mv	a5,a1
   10184:	8732                	mv	a4,a2
   10186:	faf41d23          	sh	a5,-70(s0)
   1018a:	87ba                	mv	a5,a4
   1018c:	faf41c23          	sh	a5,-72(s0)
   10190:	fbc42783          	lw	a5,-68(s0)
   10194:	479c                	lw	a5,8(a5)
   10196:	83a1                	srl	a5,a5,0x8
   10198:	0ff7f793          	zext.b	a5,a5
   1019c:	fef42223          	sw	a5,-28(s0)
   101a0:	fe042623          	sw	zero,-20(s0)
   101a4:	fe042423          	sw	zero,-24(s0)
   101a8:	a079                	j	10236 <get_dev_bar+0xbe>
   101aa:	fec42783          	lw	a5,-20(s0)
   101ae:	04078793          	add	a5,a5,64
   101b2:	fbc42703          	lw	a4,-68(s0)
   101b6:	97ba                	add	a5,a5,a4
   101b8:	0007a883          	lw	a7,0(a5)
   101bc:	0047a803          	lw	a6,4(a5)
   101c0:	4788                	lw	a0,8(a5)
   101c2:	47cc                	lw	a1,12(a5)
   101c4:	4b90                	lw	a2,16(a5)
   101c6:	4bd4                	lw	a3,20(a5)
   101c8:	4f98                	lw	a4,24(a5)
   101ca:	4fdc                	lw	a5,28(a5)
   101cc:	fd142023          	sw	a7,-64(s0)
   101d0:	fd042223          	sw	a6,-60(s0)
   101d4:	fca42423          	sw	a0,-56(s0)
   101d8:	fcb42623          	sw	a1,-52(s0)
   101dc:	fcc42823          	sw	a2,-48(s0)
   101e0:	fcd42a23          	sw	a3,-44(s0)
   101e4:	fce42c23          	sw	a4,-40(s0)
   101e8:	fcf42e23          	sw	a5,-36(s0)
   101ec:	fec42783          	lw	a5,-20(s0)
   101f0:	02078793          	add	a5,a5,32
   101f4:	fef42623          	sw	a5,-20(s0)
   101f8:	fc042783          	lw	a5,-64(s0)
   101fc:	3007f713          	and	a4,a5,768
   10200:	20000793          	li	a5,512
   10204:	02f71363          	bne	a4,a5,1022a <get_dev_bar+0xb2>
   10208:	fc645783          	lhu	a5,-58(s0)
   1020c:	fba45703          	lhu	a4,-70(s0)
   10210:	00f71e63          	bne	a4,a5,1022c <get_dev_bar+0xb4>
   10214:	fc445783          	lhu	a5,-60(s0)
   10218:	fb845703          	lhu	a4,-72(s0)
   1021c:	00f71863          	bne	a4,a5,1022c <get_dev_bar+0xb4>
   10220:	fd042703          	lw	a4,-48(s0)
   10224:	fd442783          	lw	a5,-44(s0)
   10228:	a839                	j	10246 <get_dev_bar+0xce>
   1022a:	0001                	nop
   1022c:	fe842783          	lw	a5,-24(s0)
   10230:	0785                	add	a5,a5,1
   10232:	fef42423          	sw	a5,-24(s0)
   10236:	fe842703          	lw	a4,-24(s0)
   1023a:	fe442783          	lw	a5,-28(s0)
   1023e:	f6f746e3          	blt	a4,a5,101aa <get_dev_bar+0x32>
   10242:	577d                	li	a4,-1
   10244:	57fd                	li	a5,-1
   10246:	853a                	mv	a0,a4
   10248:	85be                	mv	a1,a5
   1024a:	4436                	lw	s0,76(sp)
   1024c:	6161                	add	sp,sp,80
   1024e:	8082                	ret

00010250 <mpu_region_total>:
   10250:	1101                	add	sp,sp,-32
   10252:	ce22                	sw	s0,28(sp)
   10254:	1000                	add	s0,sp,32
   10256:	4601                	li	a2,0
   10258:	4681                	li	a3,0
   1025a:	fec42423          	sw	a2,-24(s0)
   1025e:	fed42623          	sw	a3,-20(s0)
   10262:	bc402673          	csrr	a2,0xbc4
   10266:	fec42423          	sw	a2,-24(s0)
   1026a:	fed42623          	sw	a3,-20(s0)
   1026e:	fec42683          	lw	a3,-20(s0)
   10272:	06e2                	sll	a3,a3,0x18
   10274:	fe842603          	lw	a2,-24(s0)
   10278:	00865713          	srl	a4,a2,0x8
   1027c:	8f55                	or	a4,a4,a3
   1027e:	fec42683          	lw	a3,-20(s0)
   10282:	0086d793          	srl	a5,a3,0x8
   10286:	87ba                	mv	a5,a4
   10288:	853e                	mv	a0,a5
   1028a:	4472                	lw	s0,28(sp)
   1028c:	6105                	add	sp,sp,32
   1028e:	8082                	ret

00010290 <mpu_disable_region>:
   10290:	7179                	add	sp,sp,-48
   10292:	d622                	sw	s0,44(sp)
   10294:	1800                	add	s0,sp,48
   10296:	fca42e23          	sw	a0,-36(s0)
   1029a:	4781                	li	a5,0
   1029c:	4801                	li	a6,0
   1029e:	fef42423          	sw	a5,-24(s0)
   102a2:	ff042623          	sw	a6,-20(s0)
   102a6:	fdc42783          	lw	a5,-36(s0)
   102aa:	0ff7f793          	zext.b	a5,a5
   102ae:	fef404a3          	sb	a5,-23(s0)
   102b2:	fe842783          	lw	a5,-24(s0)
   102b6:	0807e793          	or	a5,a5,128
   102ba:	fef42423          	sw	a5,-24(s0)
   102be:	fe842703          	lw	a4,-24(s0)
   102c2:	fec42783          	lw	a5,-20(s0)
   102c6:	bc471073          	csrw	0xbc4,a4
   102ca:	0001                	nop
   102cc:	5432                	lw	s0,44(sp)
   102ce:	6145                	add	sp,sp,48
   102d0:	8082                	ret

000102d2 <mpu_enable_region>:
   102d2:	715d                	add	sp,sp,-80
   102d4:	c6a2                	sw	s0,76(sp)
   102d6:	0880                	add	s0,sp,80
   102d8:	fca42623          	sw	a0,-52(s0)
   102dc:	fcb42023          	sw	a1,-64(s0)
   102e0:	fcc42223          	sw	a2,-60(s0)
   102e4:	fad42c23          	sw	a3,-72(s0)
   102e8:	fae42e23          	sw	a4,-68(s0)
   102ec:	fcf42423          	sw	a5,-56(s0)
   102f0:	fb042a23          	sw	a6,-76(s0)
   102f4:	c0000713          	li	a4,-1024
   102f8:	57fd                	li	a5,-1
   102fa:	fee42423          	sw	a4,-24(s0)
   102fe:	fef42623          	sw	a5,-20(s0)
   10302:	fb442783          	lw	a5,-76(s0)
   10306:	fef42223          	sw	a5,-28(s0)
   1030a:	fc042703          	lw	a4,-64(s0)
   1030e:	fc442783          	lw	a5,-60(s0)
   10312:	bc271073          	csrw	0xbc2,a4
   10316:	fbc42783          	lw	a5,-68(s0)
   1031a:	07fe                	sll	a5,a5,0x1f
   1031c:	fb842703          	lw	a4,-72(s0)
   10320:	00175f13          	srl	t5,a4,0x1
   10324:	01e7ef33          	or	t5,a5,t5
   10328:	fbc42783          	lw	a5,-68(s0)
   1032c:	0017df93          	srl	t6,a5,0x1
   10330:	fbe42c23          	sw	t5,-72(s0)
   10334:	fbf42e23          	sw	t6,-68(s0)
   10338:	a099                	j	1037e <mpu_enable_region+0xac>
   1033a:	fe842783          	lw	a5,-24(s0)
   1033e:	83fd                	srl	a5,a5,0x1f
   10340:	fec42703          	lw	a4,-20(s0)
   10344:	00171393          	sll	t2,a4,0x1
   10348:	0077e3b3          	or	t2,a5,t2
   1034c:	fe842783          	lw	a5,-24(s0)
   10350:	00179313          	sll	t1,a5,0x1
   10354:	fe642423          	sw	t1,-24(s0)
   10358:	fe742623          	sw	t2,-20(s0)
   1035c:	fbc42783          	lw	a5,-68(s0)
   10360:	07fe                	sll	a5,a5,0x1f
   10362:	fb842703          	lw	a4,-72(s0)
   10366:	00175e13          	srl	t3,a4,0x1
   1036a:	01c7ee33          	or	t3,a5,t3
   1036e:	fbc42783          	lw	a5,-68(s0)
   10372:	0017de93          	srl	t4,a5,0x1
   10376:	fbc42c23          	sw	t3,-72(s0)
   1037a:	fbd42e23          	sw	t4,-68(s0)
   1037e:	fb842783          	lw	a5,-72(s0)
   10382:	fbc42703          	lw	a4,-68(s0)
   10386:	8fd9                	or	a5,a5,a4
   10388:	fbcd                	bnez	a5,1033a <mpu_enable_region+0x68>
   1038a:	fe842703          	lw	a4,-24(s0)
   1038e:	fec42783          	lw	a5,-20(s0)
   10392:	bc371073          	csrw	0xbc3,a4
   10396:	4781                	li	a5,0
   10398:	4801                	li	a6,0
   1039a:	fcf42c23          	sw	a5,-40(s0)
   1039e:	fd042e23          	sw	a6,-36(s0)
   103a2:	fcc42783          	lw	a5,-52(s0)
   103a6:	0ff7f793          	zext.b	a5,a5
   103aa:	fcf40ca3          	sb	a5,-39(s0)
   103ae:	fd842783          	lw	a5,-40(s0)
   103b2:	0107e793          	or	a5,a5,16
   103b6:	fcf42c23          	sw	a5,-40(s0)
   103ba:	fc842783          	lw	a5,-56(s0)
   103be:	8b85                	and	a5,a5,1
   103c0:	0ff7f793          	zext.b	a5,a5
   103c4:	8b85                	and	a5,a5,1
   103c6:	078e                	sll	a5,a5,0x3
   103c8:	fd842703          	lw	a4,-40(s0)
   103cc:	9b5d                	and	a4,a4,-9
   103ce:	8fd9                	or	a5,a5,a4
   103d0:	fcf42c23          	sw	a5,-40(s0)
   103d4:	fd842783          	lw	a5,-40(s0)
   103d8:	0807e793          	or	a5,a5,128
   103dc:	fcf42c23          	sw	a5,-40(s0)
   103e0:	a085                	j	10440 <mpu_enable_region+0x16e>
   103e2:	fe442783          	lw	a5,-28(s0)
   103e6:	0007c703          	lbu	a4,0(a5)
   103ea:	07200793          	li	a5,114
   103ee:	00f71863          	bne	a4,a5,103fe <mpu_enable_region+0x12c>
   103f2:	fd842783          	lw	a5,-40(s0)
   103f6:	0027e793          	or	a5,a5,2
   103fa:	fcf42c23          	sw	a5,-40(s0)
   103fe:	fe442783          	lw	a5,-28(s0)
   10402:	0007c703          	lbu	a4,0(a5)
   10406:	07700793          	li	a5,119
   1040a:	00f71863          	bne	a4,a5,1041a <mpu_enable_region+0x148>
   1040e:	fd842783          	lw	a5,-40(s0)
   10412:	0017e793          	or	a5,a5,1
   10416:	fcf42c23          	sw	a5,-40(s0)
   1041a:	fe442783          	lw	a5,-28(s0)
   1041e:	0007c703          	lbu	a4,0(a5)
   10422:	07800793          	li	a5,120
   10426:	00f71863          	bne	a4,a5,10436 <mpu_enable_region+0x164>
   1042a:	fd842783          	lw	a5,-40(s0)
   1042e:	0047e793          	or	a5,a5,4
   10432:	fcf42c23          	sw	a5,-40(s0)
   10436:	fe442783          	lw	a5,-28(s0)
   1043a:	0785                	add	a5,a5,1
   1043c:	fef42223          	sw	a5,-28(s0)
   10440:	fe442783          	lw	a5,-28(s0)
   10444:	0007c783          	lbu	a5,0(a5)
   10448:	ffc9                	bnez	a5,103e2 <mpu_enable_region+0x110>
   1044a:	fd842703          	lw	a4,-40(s0)
   1044e:	fdc42783          	lw	a5,-36(s0)
   10452:	bc471073          	csrw	0xbc4,a4
   10456:	0001                	nop
   10458:	4436                	lw	s0,76(sp)
   1045a:	6161                	add	sp,sp,80
   1045c:	8082                	ret

0001045e <sbrk>:
   1045e:	1101                	add	sp,sp,-32
   10460:	ce22                	sw	s0,28(sp)
   10462:	1000                	add	s0,sp,32
   10464:	fea42623          	sw	a0,-20(s0)
   10468:	31418793          	add	a5,gp,788 # 1eb24 <__BSS_END__>
   1046c:	853e                	mv	a0,a5
   1046e:	4472                	lw	s0,28(sp)
   10470:	6105                	add	sp,sp,32
   10472:	8082                	ret

00010474 <print_uart>:
   10474:	7179                	add	sp,sp,-48
   10476:	d622                	sw	s0,44(sp)
   10478:	1800                	add	s0,sp,48
   1047a:	fca42e23          	sw	a0,-36(s0)
   1047e:	fcb42c23          	sw	a1,-40(s0)
   10482:	100107b7          	lui	a5,0x10010
   10486:	fef42423          	sw	a5,-24(s0)
   1048a:	fe042623          	sw	zero,-20(s0)
   1048e:	a825                	j	104c6 <print_uart+0x52>
   10490:	fe842783          	lw	a5,-24(s0)
   10494:	439c                	lw	a5,0(a5)
   10496:	fef42223          	sw	a5,-28(s0)
   1049a:	fe442703          	lw	a4,-28(s0)
   1049e:	800007b7          	lui	a5,0x80000
   104a2:	8ff9                	and	a5,a5,a4
   104a4:	f7f5                	bnez	a5,10490 <print_uart+0x1c>
   104a6:	fec42783          	lw	a5,-20(s0)
   104aa:	fdc42703          	lw	a4,-36(s0)
   104ae:	97ba                	add	a5,a5,a4
   104b0:	0007c783          	lbu	a5,0(a5) # 80000000 <__BSS_END__+0x7ffe14dc>
   104b4:	873e                	mv	a4,a5
   104b6:	fe842783          	lw	a5,-24(s0)
   104ba:	c398                	sw	a4,0(a5)
   104bc:	fec42783          	lw	a5,-20(s0)
   104c0:	0785                	add	a5,a5,1
   104c2:	fef42623          	sw	a5,-20(s0)
   104c6:	fec42703          	lw	a4,-20(s0)
   104ca:	fd842783          	lw	a5,-40(s0)
   104ce:	fcf741e3          	blt	a4,a5,10490 <print_uart+0x1c>
   104d2:	0001                	nop
   104d4:	0001                	nop
   104d6:	5432                	lw	s0,44(sp)
   104d8:	6145                	add	sp,sp,48
   104da:	8082                	ret

000104dc <helloWorld>:
   104dc:	712d                	add	sp,sp,-288
   104de:	10112e23          	sw	ra,284(sp)
   104e2:	10812c23          	sw	s0,280(sp)
   104e6:	1200                	add	s0,sp,288
   104e8:	eec40713          	add	a4,s0,-276
   104ec:	4605                	li	a2,1
   104ee:	67f5                	lui	a5,0x1d
   104f0:	4b078593          	add	a1,a5,1200 # 1d4b0 <__clzsi2+0x74>
   104f4:	853a                	mv	a0,a4
   104f6:	2ea9                	jal	10850 <sprintf>
   104f8:	fea42623          	sw	a0,-20(s0)
   104fc:	eec40793          	add	a5,s0,-276
   10500:	fec42583          	lw	a1,-20(s0)
   10504:	853e                	mv	a0,a5
   10506:	37bd                	jal	10474 <print_uart>
   10508:	0001                	nop
   1050a:	11c12083          	lw	ra,284(sp)
   1050e:	11812403          	lw	s0,280(sp)
   10512:	6115                	add	sp,sp,288
   10514:	8082                	ret

00010516 <get_dev_bar>:
   10516:	715d                	add	sp,sp,-80
   10518:	c6a2                	sw	s0,76(sp)
   1051a:	0880                	add	s0,sp,80
   1051c:	faa42e23          	sw	a0,-68(s0)
   10520:	87ae                	mv	a5,a1
   10522:	8732                	mv	a4,a2
   10524:	faf41d23          	sh	a5,-70(s0)
   10528:	87ba                	mv	a5,a4
   1052a:	faf41c23          	sh	a5,-72(s0)
   1052e:	fbc42783          	lw	a5,-68(s0)
   10532:	479c                	lw	a5,8(a5)
   10534:	83a1                	srl	a5,a5,0x8
   10536:	0ff7f793          	zext.b	a5,a5
   1053a:	fef42223          	sw	a5,-28(s0)
   1053e:	fe042623          	sw	zero,-20(s0)
   10542:	fe042423          	sw	zero,-24(s0)
   10546:	a079                	j	105d4 <get_dev_bar+0xbe>
   10548:	fec42783          	lw	a5,-20(s0)
   1054c:	04078793          	add	a5,a5,64
   10550:	fbc42703          	lw	a4,-68(s0)
   10554:	97ba                	add	a5,a5,a4
   10556:	0007a883          	lw	a7,0(a5)
   1055a:	0047a803          	lw	a6,4(a5)
   1055e:	4788                	lw	a0,8(a5)
   10560:	47cc                	lw	a1,12(a5)
   10562:	4b90                	lw	a2,16(a5)
   10564:	4bd4                	lw	a3,20(a5)
   10566:	4f98                	lw	a4,24(a5)
   10568:	4fdc                	lw	a5,28(a5)
   1056a:	fd142023          	sw	a7,-64(s0)
   1056e:	fd042223          	sw	a6,-60(s0)
   10572:	fca42423          	sw	a0,-56(s0)
   10576:	fcb42623          	sw	a1,-52(s0)
   1057a:	fcc42823          	sw	a2,-48(s0)
   1057e:	fcd42a23          	sw	a3,-44(s0)
   10582:	fce42c23          	sw	a4,-40(s0)
   10586:	fcf42e23          	sw	a5,-36(s0)
   1058a:	fec42783          	lw	a5,-20(s0)
   1058e:	02078793          	add	a5,a5,32
   10592:	fef42623          	sw	a5,-20(s0)
   10596:	fc042783          	lw	a5,-64(s0)
   1059a:	3007f713          	and	a4,a5,768
   1059e:	20000793          	li	a5,512
   105a2:	02f71363          	bne	a4,a5,105c8 <get_dev_bar+0xb2>
   105a6:	fc645783          	lhu	a5,-58(s0)
   105aa:	fba45703          	lhu	a4,-70(s0)
   105ae:	00f71e63          	bne	a4,a5,105ca <get_dev_bar+0xb4>
   105b2:	fc445783          	lhu	a5,-60(s0)
   105b6:	fb845703          	lhu	a4,-72(s0)
   105ba:	00f71863          	bne	a4,a5,105ca <get_dev_bar+0xb4>
   105be:	fd042703          	lw	a4,-48(s0)
   105c2:	fd442783          	lw	a5,-44(s0)
   105c6:	a839                	j	105e4 <get_dev_bar+0xce>
   105c8:	0001                	nop
   105ca:	fe842783          	lw	a5,-24(s0)
   105ce:	0785                	add	a5,a5,1
   105d0:	fef42423          	sw	a5,-24(s0)
   105d4:	fe842703          	lw	a4,-24(s0)
   105d8:	fe442783          	lw	a5,-28(s0)
   105dc:	f6f746e3          	blt	a4,a5,10548 <get_dev_bar+0x32>
   105e0:	577d                	li	a4,-1
   105e2:	57fd                	li	a5,-1
   105e4:	853a                	mv	a0,a4
   105e6:	85be                	mv	a1,a5
   105e8:	4436                	lw	s0,76(sp)
   105ea:	6161                	add	sp,sp,80
   105ec:	8082                	ret

000105ee <mpu_region_total>:
   105ee:	1101                	add	sp,sp,-32
   105f0:	ce22                	sw	s0,28(sp)
   105f2:	1000                	add	s0,sp,32
   105f4:	4601                	li	a2,0
   105f6:	4681                	li	a3,0
   105f8:	fec42423          	sw	a2,-24(s0)
   105fc:	fed42623          	sw	a3,-20(s0)
   10600:	bc402673          	csrr	a2,0xbc4
   10604:	fec42423          	sw	a2,-24(s0)
   10608:	fed42623          	sw	a3,-20(s0)
   1060c:	fec42683          	lw	a3,-20(s0)
   10610:	06e2                	sll	a3,a3,0x18
   10612:	fe842603          	lw	a2,-24(s0)
   10616:	00865713          	srl	a4,a2,0x8
   1061a:	8f55                	or	a4,a4,a3
   1061c:	fec42683          	lw	a3,-20(s0)
   10620:	0086d793          	srl	a5,a3,0x8
   10624:	87ba                	mv	a5,a4
   10626:	853e                	mv	a0,a5
   10628:	4472                	lw	s0,28(sp)
   1062a:	6105                	add	sp,sp,32
   1062c:	8082                	ret

0001062e <mpu_disable_region>:
   1062e:	7179                	add	sp,sp,-48
   10630:	d622                	sw	s0,44(sp)
   10632:	1800                	add	s0,sp,48
   10634:	fca42e23          	sw	a0,-36(s0)
   10638:	4781                	li	a5,0
   1063a:	4801                	li	a6,0
   1063c:	fef42423          	sw	a5,-24(s0)
   10640:	ff042623          	sw	a6,-20(s0)
   10644:	fdc42783          	lw	a5,-36(s0)
   10648:	0ff7f793          	zext.b	a5,a5
   1064c:	fef404a3          	sb	a5,-23(s0)
   10650:	fe842783          	lw	a5,-24(s0)
   10654:	0807e793          	or	a5,a5,128
   10658:	fef42423          	sw	a5,-24(s0)
   1065c:	fe842703          	lw	a4,-24(s0)
   10660:	fec42783          	lw	a5,-20(s0)
   10664:	bc471073          	csrw	0xbc4,a4
   10668:	0001                	nop
   1066a:	5432                	lw	s0,44(sp)
   1066c:	6145                	add	sp,sp,48
   1066e:	8082                	ret

00010670 <mpu_enable_region>:
   10670:	715d                	add	sp,sp,-80
   10672:	c6a2                	sw	s0,76(sp)
   10674:	0880                	add	s0,sp,80
   10676:	fca42623          	sw	a0,-52(s0)
   1067a:	fcb42023          	sw	a1,-64(s0)
   1067e:	fcc42223          	sw	a2,-60(s0)
   10682:	fad42c23          	sw	a3,-72(s0)
   10686:	fae42e23          	sw	a4,-68(s0)
   1068a:	fcf42423          	sw	a5,-56(s0)
   1068e:	fb042a23          	sw	a6,-76(s0)
   10692:	c0000713          	li	a4,-1024
   10696:	57fd                	li	a5,-1
   10698:	fee42423          	sw	a4,-24(s0)
   1069c:	fef42623          	sw	a5,-20(s0)
   106a0:	fb442783          	lw	a5,-76(s0)
   106a4:	fef42223          	sw	a5,-28(s0)
   106a8:	fc042703          	lw	a4,-64(s0)
   106ac:	fc442783          	lw	a5,-60(s0)
   106b0:	bc271073          	csrw	0xbc2,a4
   106b4:	fbc42783          	lw	a5,-68(s0)
   106b8:	07fe                	sll	a5,a5,0x1f
   106ba:	fb842703          	lw	a4,-72(s0)
   106be:	00175f13          	srl	t5,a4,0x1
   106c2:	01e7ef33          	or	t5,a5,t5
   106c6:	fbc42783          	lw	a5,-68(s0)
   106ca:	0017df93          	srl	t6,a5,0x1
   106ce:	fbe42c23          	sw	t5,-72(s0)
   106d2:	fbf42e23          	sw	t6,-68(s0)
   106d6:	a099                	j	1071c <mpu_enable_region+0xac>
   106d8:	fe842783          	lw	a5,-24(s0)
   106dc:	83fd                	srl	a5,a5,0x1f
   106de:	fec42703          	lw	a4,-20(s0)
   106e2:	00171393          	sll	t2,a4,0x1
   106e6:	0077e3b3          	or	t2,a5,t2
   106ea:	fe842783          	lw	a5,-24(s0)
   106ee:	00179313          	sll	t1,a5,0x1
   106f2:	fe642423          	sw	t1,-24(s0)
   106f6:	fe742623          	sw	t2,-20(s0)
   106fa:	fbc42783          	lw	a5,-68(s0)
   106fe:	07fe                	sll	a5,a5,0x1f
   10700:	fb842703          	lw	a4,-72(s0)
   10704:	00175e13          	srl	t3,a4,0x1
   10708:	01c7ee33          	or	t3,a5,t3
   1070c:	fbc42783          	lw	a5,-68(s0)
   10710:	0017de93          	srl	t4,a5,0x1
   10714:	fbc42c23          	sw	t3,-72(s0)
   10718:	fbd42e23          	sw	t4,-68(s0)
   1071c:	fb842783          	lw	a5,-72(s0)
   10720:	fbc42703          	lw	a4,-68(s0)
   10724:	8fd9                	or	a5,a5,a4
   10726:	fbcd                	bnez	a5,106d8 <mpu_enable_region+0x68>
   10728:	fe842703          	lw	a4,-24(s0)
   1072c:	fec42783          	lw	a5,-20(s0)
   10730:	bc371073          	csrw	0xbc3,a4
   10734:	4781                	li	a5,0
   10736:	4801                	li	a6,0
   10738:	fcf42c23          	sw	a5,-40(s0)
   1073c:	fd042e23          	sw	a6,-36(s0)
   10740:	fcc42783          	lw	a5,-52(s0)
   10744:	0ff7f793          	zext.b	a5,a5
   10748:	fcf40ca3          	sb	a5,-39(s0)
   1074c:	fd842783          	lw	a5,-40(s0)
   10750:	0107e793          	or	a5,a5,16
   10754:	fcf42c23          	sw	a5,-40(s0)
   10758:	fc842783          	lw	a5,-56(s0)
   1075c:	8b85                	and	a5,a5,1
   1075e:	0ff7f793          	zext.b	a5,a5
   10762:	8b85                	and	a5,a5,1
   10764:	078e                	sll	a5,a5,0x3
   10766:	fd842703          	lw	a4,-40(s0)
   1076a:	9b5d                	and	a4,a4,-9
   1076c:	8fd9                	or	a5,a5,a4
   1076e:	fcf42c23          	sw	a5,-40(s0)
   10772:	fd842783          	lw	a5,-40(s0)
   10776:	0807e793          	or	a5,a5,128
   1077a:	fcf42c23          	sw	a5,-40(s0)
   1077e:	a085                	j	107de <mpu_enable_region+0x16e>
   10780:	fe442783          	lw	a5,-28(s0)
   10784:	0007c703          	lbu	a4,0(a5)
   10788:	07200793          	li	a5,114
   1078c:	00f71863          	bne	a4,a5,1079c <mpu_enable_region+0x12c>
   10790:	fd842783          	lw	a5,-40(s0)
   10794:	0027e793          	or	a5,a5,2
   10798:	fcf42c23          	sw	a5,-40(s0)
   1079c:	fe442783          	lw	a5,-28(s0)
   107a0:	0007c703          	lbu	a4,0(a5)
   107a4:	07700793          	li	a5,119
   107a8:	00f71863          	bne	a4,a5,107b8 <mpu_enable_region+0x148>
   107ac:	fd842783          	lw	a5,-40(s0)
   107b0:	0017e793          	or	a5,a5,1
   107b4:	fcf42c23          	sw	a5,-40(s0)
   107b8:	fe442783          	lw	a5,-28(s0)
   107bc:	0007c703          	lbu	a4,0(a5)
   107c0:	07800793          	li	a5,120
   107c4:	00f71863          	bne	a4,a5,107d4 <mpu_enable_region+0x164>
   107c8:	fd842783          	lw	a5,-40(s0)
   107cc:	0047e793          	or	a5,a5,4
   107d0:	fcf42c23          	sw	a5,-40(s0)
   107d4:	fe442783          	lw	a5,-28(s0)
   107d8:	0785                	add	a5,a5,1
   107da:	fef42223          	sw	a5,-28(s0)
   107de:	fe442783          	lw	a5,-28(s0)
   107e2:	0007c783          	lbu	a5,0(a5)
   107e6:	ffc9                	bnez	a5,10780 <mpu_enable_region+0x110>
   107e8:	fd842703          	lw	a4,-40(s0)
   107ec:	fdc42783          	lw	a5,-36(s0)
   107f0:	bc471073          	csrw	0xbc4,a4
   107f4:	0001                	nop
   107f6:	4436                	lw	s0,76(sp)
   107f8:	6161                	add	sp,sp,80
   107fa:	8082                	ret

000107fc <main>:
   107fc:	1141                	add	sp,sp,-16
   107fe:	c606                	sw	ra,12(sp)
   10800:	c422                	sw	s0,8(sp)
   10802:	0800                	add	s0,sp,16
   10804:	39e1                	jal	104dc <helloWorld>
   10806:	4781                	li	a5,0
   10808:	853e                	mv	a0,a5
   1080a:	40b2                	lw	ra,12(sp)
   1080c:	4422                	lw	s0,8(sp)
   1080e:	0141                	add	sp,sp,16
   10810:	8082                	ret

00010812 <_sprintf_r>:
   10812:	7135                	add	sp,sp,-160
   10814:	08c10f13          	add	t5,sp,140
   10818:	7ec1                	lui	t4,0xffff0
   1081a:	80000337          	lui	t1,0x80000
   1081e:	8e2e                	mv	t3,a1
   10820:	137d                	add	t1,t1,-1 # 7fffffff <__BSS_END__+0x7ffe14db>
   10822:	c736                	sw	a3,140(sp)
   10824:	208e8e93          	add	t4,t4,520 # ffff0208 <__BSS_END__+0xfffd16e4>
   10828:	002c                	add	a1,sp,8
   1082a:	86fa                	mv	a3,t5
   1082c:	de86                	sw	ra,124(sp)
   1082e:	cb3e                	sw	a5,148(sp)
   10830:	c93a                	sw	a4,144(sp)
   10832:	cd42                	sw	a6,152(sp)
   10834:	cf46                	sw	a7,156(sp)
   10836:	c472                	sw	t3,8(sp)
   10838:	cc72                	sw	t3,24(sp)
   1083a:	c81a                	sw	t1,16(sp)
   1083c:	ce1a                	sw	t1,28(sp)
   1083e:	ca76                	sw	t4,20(sp)
   10840:	c27a                	sw	t5,4(sp)
   10842:	2249                	jal	109c4 <_svfprintf_r>
   10844:	47a2                	lw	a5,8(sp)
   10846:	00078023          	sb	zero,0(a5)
   1084a:	50f6                	lw	ra,124(sp)
   1084c:	610d                	add	sp,sp,160
   1084e:	8082                	ret

00010850 <sprintf>:
   10850:	7135                	add	sp,sp,-160
   10852:	08810f13          	add	t5,sp,136
   10856:	7ec1                	lui	t4,0xffff0
   10858:	80000337          	lui	t1,0x80000
   1085c:	8e2a                	mv	t3,a0
   1085e:	137d                	add	t1,t1,-1 # 7fffffff <__BSS_END__+0x7ffe14db>
   10860:	c532                	sw	a2,136(sp)
   10862:	c736                	sw	a3,140(sp)
   10864:	208e8e93          	add	t4,t4,520 # ffff0208 <__BSS_END__+0xfffd16e4>
   10868:	862e                	mv	a2,a1
   1086a:	86fa                	mv	a3,t5
   1086c:	002c                	add	a1,sp,8
   1086e:	fdc1a503          	lw	a0,-36(gp) # 1e7ec <_impure_ptr>
   10872:	de86                	sw	ra,124(sp)
   10874:	cb3e                	sw	a5,148(sp)
   10876:	c93a                	sw	a4,144(sp)
   10878:	cd42                	sw	a6,152(sp)
   1087a:	cf46                	sw	a7,156(sp)
   1087c:	c472                	sw	t3,8(sp)
   1087e:	cc72                	sw	t3,24(sp)
   10880:	c81a                	sw	t1,16(sp)
   10882:	ce1a                	sw	t1,28(sp)
   10884:	ca76                	sw	t4,20(sp)
   10886:	c27a                	sw	t5,4(sp)
   10888:	2a35                	jal	109c4 <_svfprintf_r>
   1088a:	47a2                	lw	a5,8(sp)
   1088c:	00078023          	sb	zero,0(a5)
   10890:	50f6                	lw	ra,124(sp)
   10892:	610d                	add	sp,sp,160
   10894:	8082                	ret

00010896 <memset>:
   10896:	433d                	li	t1,15
   10898:	872a                	mv	a4,a0
   1089a:	02c37363          	bgeu	t1,a2,108c0 <memset+0x2a>
   1089e:	00f77793          	and	a5,a4,15
   108a2:	efbd                	bnez	a5,10920 <memset+0x8a>
   108a4:	e5ad                	bnez	a1,1090e <memset+0x78>
   108a6:	ff067693          	and	a3,a2,-16
   108aa:	8a3d                	and	a2,a2,15
   108ac:	96ba                	add	a3,a3,a4
   108ae:	c30c                	sw	a1,0(a4)
   108b0:	c34c                	sw	a1,4(a4)
   108b2:	c70c                	sw	a1,8(a4)
   108b4:	c74c                	sw	a1,12(a4)
   108b6:	0741                	add	a4,a4,16
   108b8:	fed76be3          	bltu	a4,a3,108ae <memset+0x18>
   108bc:	e211                	bnez	a2,108c0 <memset+0x2a>
   108be:	8082                	ret
   108c0:	40c306b3          	sub	a3,t1,a2
   108c4:	068a                	sll	a3,a3,0x2
   108c6:	00000297          	auipc	t0,0x0
   108ca:	9696                	add	a3,a3,t0
   108cc:	00a68067          	jr	10(a3)
   108d0:	00b70723          	sb	a1,14(a4)
   108d4:	00b706a3          	sb	a1,13(a4)
   108d8:	00b70623          	sb	a1,12(a4)
   108dc:	00b705a3          	sb	a1,11(a4)
   108e0:	00b70523          	sb	a1,10(a4)
   108e4:	00b704a3          	sb	a1,9(a4)
   108e8:	00b70423          	sb	a1,8(a4)
   108ec:	00b703a3          	sb	a1,7(a4)
   108f0:	00b70323          	sb	a1,6(a4)
   108f4:	00b702a3          	sb	a1,5(a4)
   108f8:	00b70223          	sb	a1,4(a4)
   108fc:	00b701a3          	sb	a1,3(a4)
   10900:	00b70123          	sb	a1,2(a4)
   10904:	00b700a3          	sb	a1,1(a4)
   10908:	00b70023          	sb	a1,0(a4)
   1090c:	8082                	ret
   1090e:	0ff5f593          	zext.b	a1,a1
   10912:	00859693          	sll	a3,a1,0x8
   10916:	8dd5                	or	a1,a1,a3
   10918:	01059693          	sll	a3,a1,0x10
   1091c:	8dd5                	or	a1,a1,a3
   1091e:	b761                	j	108a6 <memset+0x10>
   10920:	00279693          	sll	a3,a5,0x2
   10924:	00000297          	auipc	t0,0x0
   10928:	9696                	add	a3,a3,t0
   1092a:	8286                	mv	t0,ra
   1092c:	fa8680e7          	jalr	-88(a3)
   10930:	8096                	mv	ra,t0
   10932:	17c1                	add	a5,a5,-16
   10934:	8f1d                	sub	a4,a4,a5
   10936:	963e                	add	a2,a2,a5
   10938:	f8c374e3          	bgeu	t1,a2,108c0 <memset+0x2a>
   1093c:	b7a5                	j	108a4 <memset+0xe>

0001093e <__libc_init_array>:
   1093e:	1141                	add	sp,sp,-16
   10940:	c422                	sw	s0,8(sp)
   10942:	c04a                	sw	s2,0(sp)
   10944:	0000d797          	auipc	a5,0xd
   10948:	6c078793          	add	a5,a5,1728 # 1e004 <__init_array_start>
   1094c:	0000d417          	auipc	s0,0xd
   10950:	6b840413          	add	s0,s0,1720 # 1e004 <__init_array_start>
   10954:	c606                	sw	ra,12(sp)
   10956:	c226                	sw	s1,4(sp)
   10958:	40878933          	sub	s2,a5,s0
   1095c:	00878b63          	beq	a5,s0,10972 <__libc_init_array+0x34>
   10960:	40295913          	sra	s2,s2,0x2
   10964:	4481                	li	s1,0
   10966:	401c                	lw	a5,0(s0)
   10968:	0485                	add	s1,s1,1
   1096a:	0411                	add	s0,s0,4
   1096c:	9782                	jalr	a5
   1096e:	ff24ece3          	bltu	s1,s2,10966 <__libc_init_array+0x28>
   10972:	0000d797          	auipc	a5,0xd
   10976:	69a78793          	add	a5,a5,1690 # 1e00c <__do_global_dtors_aux_fini_array_entry>
   1097a:	0000d417          	auipc	s0,0xd
   1097e:	68a40413          	add	s0,s0,1674 # 1e004 <__init_array_start>
   10982:	40878933          	sub	s2,a5,s0
   10986:	40295913          	sra	s2,s2,0x2
   1098a:	00878963          	beq	a5,s0,1099c <__libc_init_array+0x5e>
   1098e:	4481                	li	s1,0
   10990:	401c                	lw	a5,0(s0)
   10992:	0485                	add	s1,s1,1
   10994:	0411                	add	s0,s0,4
   10996:	9782                	jalr	a5
   10998:	ff24ece3          	bltu	s1,s2,10990 <__libc_init_array+0x52>
   1099c:	40b2                	lw	ra,12(sp)
   1099e:	4422                	lw	s0,8(sp)
   109a0:	4492                	lw	s1,4(sp)
   109a2:	4902                	lw	s2,0(sp)
   109a4:	0141                	add	sp,sp,16
   109a6:	8082                	ret

000109a8 <exit>:
   109a8:	1141                	add	sp,sp,-16
   109aa:	4581                	li	a1,0
   109ac:	c422                	sw	s0,8(sp)
   109ae:	c606                	sw	ra,12(sp)
   109b0:	842a                	mv	s0,a0
   109b2:	545030ef          	jal	146f6 <__call_exitprocs>
   109b6:	fe81a783          	lw	a5,-24(gp) # 1e7f8 <__stdio_exit_handler>
   109ba:	c391                	beqz	a5,109be <exit+0x16>
   109bc:	9782                	jalr	a5
   109be:	8522                	mv	a0,s0
   109c0:	7f6080ef          	jal	191b6 <_exit>

000109c4 <_svfprintf_r>:
   109c4:	7145                	add	sp,sp,-464
   109c6:	1c112623          	sw	ra,460(sp)
   109ca:	1c812423          	sw	s0,456(sp)
   109ce:	c22e                	sw	a1,4(sp)
   109d0:	842e                	mv	s0,a1
   109d2:	c432                	sw	a2,8(sp)
   109d4:	c836                	sw	a3,16(sp)
   109d6:	d22a                	sw	a0,36(sp)
   109d8:	6ae050ef          	jal	16086 <_localeconv_r>
   109dc:	4118                	lw	a4,0(a0)
   109de:	853a                	mv	a0,a4
   109e0:	d63a                	sw	a4,44(sp)
   109e2:	5e7030ef          	jal	147c8 <strlen>
   109e6:	00c45703          	lhu	a4,12(s0)
   109ea:	c982                	sw	zero,208(sp)
   109ec:	cb82                	sw	zero,212(sp)
   109ee:	cd82                	sw	zero,216(sp)
   109f0:	cf82                	sw	zero,220(sp)
   109f2:	08077713          	and	a4,a4,128
   109f6:	d42a                	sw	a0,40(sp)
   109f8:	4322                	lw	t1,8(sp)
   109fa:	c701                	beqz	a4,10a02 <_svfprintf_r+0x3e>
   109fc:	4818                	lw	a4,16(s0)
   109fe:	60070fe3          	beqz	a4,1181c <_svfprintf_r+0xe58>
   10a02:	1c912223          	sw	s1,452(sp)
   10a06:	1d212023          	sw	s2,448(sp)
   10a0a:	1b312e23          	sw	s3,444(sp)
   10a0e:	1b412c23          	sw	s4,440(sp)
   10a12:	1b512a23          	sw	s5,436(sp)
   10a16:	1b612823          	sw	s6,432(sp)
   10a1a:	1b712623          	sw	s7,428(sp)
   10a1e:	1b812423          	sw	s8,424(sp)
   10a22:	1b912223          	sw	s9,420(sp)
   10a26:	1ba12023          	sw	s10,416(sp)
   10a2a:	19b12e23          	sw	s11,412(sp)
   10a2e:	8c9a                	mv	s9,t1
   10a30:	000cc783          	lbu	a5,0(s9)
   10a34:	0ec10913          	add	s2,sp,236
   10a38:	c3ca                	sw	s2,196(sp)
   10a3a:	c782                	sw	zero,204(sp)
   10a3c:	c582                	sw	zero,200(sp)
   10a3e:	cc02                	sw	zero,24(sp)
   10a40:	d802                	sw	zero,48(sp)
   10a42:	de02                	sw	zero,60(sp)
   10a44:	dc02                	sw	zero,56(sp)
   10a46:	c282                	sw	zero,68(sp)
   10a48:	c082                	sw	zero,64(sp)
   10a4a:	c402                	sw	zero,8(sp)
   10a4c:	5a92                	lw	s5,36(sp)
   10a4e:	4441                	li	s0,16
   10a50:	84ca                	mv	s1,s2
   10a52:	18078463          	beqz	a5,10bda <_svfprintf_r+0x216>
   10a56:	89e6                	mv	s3,s9
   10a58:	02500713          	li	a4,37
   10a5c:	2ce78c63          	beq	a5,a4,10d34 <_svfprintf_r+0x370>
   10a60:	0019c783          	lbu	a5,1(s3)
   10a64:	0985                	add	s3,s3,1
   10a66:	fbfd                	bnez	a5,10a5c <_svfprintf_r+0x98>
   10a68:	41998a33          	sub	s4,s3,s9
   10a6c:	17998763          	beq	s3,s9,10bda <_svfprintf_r+0x216>
   10a70:	473e                	lw	a4,204(sp)
   10a72:	47ae                	lw	a5,200(sp)
   10a74:	0194a023          	sw	s9,0(s1)
   10a78:	9752                	add	a4,a4,s4
   10a7a:	0785                	add	a5,a5,1
   10a7c:	0144a223          	sw	s4,4(s1)
   10a80:	c7ba                	sw	a4,204(sp)
   10a82:	c5be                	sw	a5,200(sp)
   10a84:	471d                	li	a4,7
   10a86:	04a1                	add	s1,s1,8
   10a88:	2af74d63          	blt	a4,a5,10d42 <_svfprintf_r+0x37e>
   10a8c:	4722                	lw	a4,8(sp)
   10a8e:	0009c783          	lbu	a5,0(s3)
   10a92:	9752                	add	a4,a4,s4
   10a94:	c43a                	sw	a4,8(sp)
   10a96:	14078263          	beqz	a5,10bda <_svfprintf_r+0x216>
   10a9a:	0019c883          	lbu	a7,1(s3)
   10a9e:	0a0103a3          	sb	zero,167(sp)
   10aa2:	0985                	add	s3,s3,1
   10aa4:	5a7d                	li	s4,-1
   10aa6:	4c01                	li	s8,0
   10aa8:	4b01                	li	s6,0
   10aaa:	05a00d13          	li	s10,90
   10aae:	0985                	add	s3,s3,1
   10ab0:	fe088793          	add	a5,a7,-32
   10ab4:	02fd6f63          	bltu	s10,a5,10af2 <_svfprintf_r+0x12e>
   10ab8:	0000d717          	auipc	a4,0xd
   10abc:	a5470713          	add	a4,a4,-1452 # 1d50c <__clzsi2+0xd0>
   10ac0:	078a                	sll	a5,a5,0x2
   10ac2:	97ba                	add	a5,a5,a4
   10ac4:	439c                	lw	a5,0(a5)
   10ac6:	97ba                	add	a5,a5,a4
   10ac8:	8782                	jr	a5
   10aca:	4c01                	li	s8,0
   10acc:	fd088793          	add	a5,a7,-48
   10ad0:	46a5                	li	a3,9
   10ad2:	0009c883          	lbu	a7,0(s3)
   10ad6:	002c1713          	sll	a4,s8,0x2
   10ada:	9c3a                	add	s8,s8,a4
   10adc:	0c06                	sll	s8,s8,0x1
   10ade:	9c3e                	add	s8,s8,a5
   10ae0:	fd088793          	add	a5,a7,-48
   10ae4:	0985                	add	s3,s3,1
   10ae6:	fef6f6e3          	bgeu	a3,a5,10ad2 <_svfprintf_r+0x10e>
   10aea:	fe088793          	add	a5,a7,-32
   10aee:	fcfd75e3          	bgeu	s10,a5,10ab8 <_svfprintf_r+0xf4>
   10af2:	0e088463          	beqz	a7,10bda <_svfprintf_r+0x216>
   10af6:	13110623          	sb	a7,300(sp)
   10afa:	0a0103a3          	sb	zero,167(sp)
   10afe:	4d05                	li	s10,1
   10b00:	4d85                	li	s11,1
   10b02:	12c10c93          	add	s9,sp,300
   10b06:	c602                	sw	zero,12(sp)
   10b08:	4a01                	li	s4,0
   10b0a:	d002                	sw	zero,32(sp)
   10b0c:	ce02                	sw	zero,28(sp)
   10b0e:	ca02                	sw	zero,20(sp)
   10b10:	002b7293          	and	t0,s6,2
   10b14:	00028363          	beqz	t0,10b1a <_svfprintf_r+0x156>
   10b18:	0d09                	add	s10,s10,2
   10b1a:	084b7f93          	and	t6,s6,132
   10b1e:	463e                	lw	a2,204(sp)
   10b20:	000f9663          	bnez	t6,10b2c <_svfprintf_r+0x168>
   10b24:	41ac07b3          	sub	a5,s8,s10
   10b28:	0af044e3          	bgtz	a5,113d0 <_svfprintf_r+0xa0c>
   10b2c:	0a714783          	lbu	a5,167(sp)
   10b30:	cf99                	beqz	a5,10b4e <_svfprintf_r+0x18a>
   10b32:	47ae                	lw	a5,200(sp)
   10b34:	0a710693          	add	a3,sp,167
   10b38:	c094                	sw	a3,0(s1)
   10b3a:	0605                	add	a2,a2,1
   10b3c:	4685                	li	a3,1
   10b3e:	0785                	add	a5,a5,1
   10b40:	c0d4                	sw	a3,4(s1)
   10b42:	c7b2                	sw	a2,204(sp)
   10b44:	c5be                	sw	a5,200(sp)
   10b46:	469d                	li	a3,7
   10b48:	04a1                	add	s1,s1,8
   10b4a:	2cf6cc63          	blt	a3,a5,10e22 <_svfprintf_r+0x45e>
   10b4e:	00028f63          	beqz	t0,10b6c <_svfprintf_r+0x1a8>
   10b52:	47ae                	lw	a5,200(sp)
   10b54:	4689                	li	a3,2
   10b56:	0609                	add	a2,a2,2
   10b58:	0785                	add	a5,a5,1
   10b5a:	1138                	add	a4,sp,168
   10b5c:	c0d4                	sw	a3,4(s1)
   10b5e:	c098                	sw	a4,0(s1)
   10b60:	c7b2                	sw	a2,204(sp)
   10b62:	c5be                	sw	a5,200(sp)
   10b64:	469d                	li	a3,7
   10b66:	04a1                	add	s1,s1,8
   10b68:	10f6c5e3          	blt	a3,a5,11472 <_svfprintf_r+0xaae>
   10b6c:	08000793          	li	a5,128
   10b70:	70ff8863          	beq	t6,a5,11280 <_svfprintf_r+0x8bc>
   10b74:	41ba0a33          	sub	s4,s4,s11
   10b78:	7b404663          	bgtz	s4,11324 <_svfprintf_r+0x960>
   10b7c:	100b7793          	and	a5,s6,256
   10b80:	5e079763          	bnez	a5,1116e <_svfprintf_r+0x7aa>
   10b84:	47ae                	lw	a5,200(sp)
   10b86:	966e                	add	a2,a2,s11
   10b88:	0194a023          	sw	s9,0(s1)
   10b8c:	0785                	add	a5,a5,1
   10b8e:	01b4a223          	sw	s11,4(s1)
   10b92:	c7b2                	sw	a2,204(sp)
   10b94:	c5be                	sw	a5,200(sp)
   10b96:	469d                	li	a3,7
   10b98:	34f6cb63          	blt	a3,a5,10eee <_svfprintf_r+0x52a>
   10b9c:	04a1                	add	s1,s1,8
   10b9e:	004b7e93          	and	t4,s6,4
   10ba2:	000e8663          	beqz	t4,10bae <_svfprintf_r+0x1ea>
   10ba6:	41ac0a33          	sub	s4,s8,s10
   10baa:	0f4042e3          	bgtz	s4,1148e <_svfprintf_r+0xaca>
   10bae:	8e62                	mv	t3,s8
   10bb0:	01ac5363          	bge	s8,s10,10bb6 <_svfprintf_r+0x1f2>
   10bb4:	8e6a                	mv	t3,s10
   10bb6:	47a2                	lw	a5,8(sp)
   10bb8:	97f2                	add	a5,a5,t3
   10bba:	c43e                	sw	a5,8(sp)
   10bbc:	7e061863          	bnez	a2,113ac <_svfprintf_r+0x9e8>
   10bc0:	47b2                	lw	a5,12(sp)
   10bc2:	c582                	sw	zero,200(sp)
   10bc4:	c789                	beqz	a5,10bce <_svfprintf_r+0x20a>
   10bc6:	45b2                	lw	a1,12(sp)
   10bc8:	8556                	mv	a0,s5
   10bca:	654020ef          	jal	1321e <_free_r>
   10bce:	84ca                	mv	s1,s2
   10bd0:	8cce                	mv	s9,s3
   10bd2:	000cc783          	lbu	a5,0(s9)
   10bd6:	e80790e3          	bnez	a5,10a56 <_svfprintf_r+0x92>
   10bda:	47be                	lw	a5,204(sp)
   10bdc:	c399                	beqz	a5,10be2 <_svfprintf_r+0x21e>
   10bde:	3700106f          	j	11f4e <_svfprintf_r+0x158a>
   10be2:	4792                	lw	a5,4(sp)
   10be4:	1c412483          	lw	s1,452(sp)
   10be8:	1c012903          	lw	s2,448(sp)
   10bec:	00c7d783          	lhu	a5,12(a5)
   10bf0:	1bc12983          	lw	s3,444(sp)
   10bf4:	1b812a03          	lw	s4,440(sp)
   10bf8:	0407f793          	and	a5,a5,64
   10bfc:	1b412a83          	lw	s5,436(sp)
   10c00:	1b012b03          	lw	s6,432(sp)
   10c04:	1ac12b83          	lw	s7,428(sp)
   10c08:	1a812c03          	lw	s8,424(sp)
   10c0c:	1a412c83          	lw	s9,420(sp)
   10c10:	1a012d03          	lw	s10,416(sp)
   10c14:	19c12d83          	lw	s11,412(sp)
   10c18:	c399                	beqz	a5,10c1e <_svfprintf_r+0x25a>
   10c1a:	0730106f          	j	1248c <_svfprintf_r+0x1ac8>
   10c1e:	1cc12083          	lw	ra,460(sp)
   10c22:	1c812403          	lw	s0,456(sp)
   10c26:	4522                	lw	a0,8(sp)
   10c28:	6179                	add	sp,sp,464
   10c2a:	8082                	ret
   10c2c:	8556                	mv	a0,s5
   10c2e:	458050ef          	jal	16086 <_localeconv_r>
   10c32:	415c                	lw	a5,4(a0)
   10c34:	853e                	mv	a0,a5
   10c36:	c0be                	sw	a5,64(sp)
   10c38:	391030ef          	jal	147c8 <strlen>
   10c3c:	87aa                	mv	a5,a0
   10c3e:	8556                	mv	a0,s5
   10c40:	8bbe                	mv	s7,a5
   10c42:	c2be                	sw	a5,68(sp)
   10c44:	442050ef          	jal	16086 <_localeconv_r>
   10c48:	4518                	lw	a4,8(a0)
   10c4a:	dc3a                	sw	a4,56(sp)
   10c4c:	2c0b97e3          	bnez	s7,1171a <_svfprintf_r+0xd56>
   10c50:	0009c883          	lbu	a7,0(s3)
   10c54:	bda9                	j	10aae <_svfprintf_r+0xea>
   10c56:	0009c883          	lbu	a7,0(s3)
   10c5a:	020b6b13          	or	s6,s6,32
   10c5e:	bd81                	j	10aae <_svfprintf_r+0xea>
   10c60:	010b6b13          	or	s6,s6,16
   10c64:	020b7793          	and	a5,s6,32
   10c68:	2a078f63          	beqz	a5,10f26 <_svfprintf_r+0x562>
   10c6c:	47c2                	lw	a5,16(sp)
   10c6e:	00778b93          	add	s7,a5,7
   10c72:	ff8bfb93          	and	s7,s7,-8
   10c76:	004ba783          	lw	a5,4(s7)
   10c7a:	000bad03          	lw	s10,0(s7)
   10c7e:	008b8713          	add	a4,s7,8
   10c82:	c83a                	sw	a4,16(sp)
   10c84:	8dbe                	mv	s11,a5
   10c86:	2c07c563          	bltz	a5,10f50 <_svfprintf_r+0x58c>
   10c8a:	8fda                	mv	t6,s6
   10c8c:	000a4863          	bltz	s4,10c9c <_svfprintf_r+0x2d8>
   10c90:	01bd67b3          	or	a5,s10,s11
   10c94:	f7fb7f93          	and	t6,s6,-129
   10c98:	2e0782e3          	beqz	a5,1177c <_svfprintf_r+0xdb8>
   10c9c:	5c0d9ee3          	bnez	s11,11a78 <_svfprintf_r+0x10b4>
   10ca0:	47a5                	li	a5,9
   10ca2:	5da7ebe3          	bltu	a5,s10,11a78 <_svfprintf_r+0x10b4>
   10ca6:	030d0d13          	add	s10,s10,48
   10caa:	19a107a3          	sb	s10,399(sp)
   10cae:	8b7e                	mv	s6,t6
   10cb0:	4d85                	li	s11,1
   10cb2:	18f10c93          	add	s9,sp,399
   10cb6:	0a714783          	lbu	a5,167(sp)
   10cba:	8d52                	mv	s10,s4
   10cbc:	01ba5363          	bge	s4,s11,10cc2 <_svfprintf_r+0x2fe>
   10cc0:	8d6e                	mv	s10,s11
   10cc2:	c602                	sw	zero,12(sp)
   10cc4:	d002                	sw	zero,32(sp)
   10cc6:	ce02                	sw	zero,28(sp)
   10cc8:	ca02                	sw	zero,20(sp)
   10cca:	e40783e3          	beqz	a5,10b10 <_svfprintf_r+0x14c>
   10cce:	0d05                	add	s10,s10,1
   10cd0:	b581                	j	10b10 <_svfprintf_r+0x14c>
   10cd2:	010b6b13          	or	s6,s6,16
   10cd6:	020b7793          	and	a5,s6,32
   10cda:	22078463          	beqz	a5,10f02 <_svfprintf_r+0x53e>
   10cde:	47c2                	lw	a5,16(sp)
   10ce0:	00778b93          	add	s7,a5,7
   10ce4:	ff8bfb93          	and	s7,s7,-8
   10ce8:	000bad03          	lw	s10,0(s7)
   10cec:	004bad83          	lw	s11,4(s7)
   10cf0:	008b8793          	add	a5,s7,8
   10cf4:	c83e                	sw	a5,16(sp)
   10cf6:	bffb7f93          	and	t6,s6,-1025
   10cfa:	4781                	li	a5,0
   10cfc:	4701                	li	a4,0
   10cfe:	0ae103a3          	sb	a4,167(sp)
   10d02:	260a4763          	bltz	s4,10f70 <_svfprintf_r+0x5ac>
   10d06:	01bd6733          	or	a4,s10,s11
   10d0a:	f7fffb13          	and	s6,t6,-129
   10d0e:	6a071f63          	bnez	a4,113cc <_svfprintf_r+0xa08>
   10d12:	520a1363          	bnez	s4,11238 <_svfprintf_r+0x874>
   10d16:	18079be3          	bnez	a5,116ac <_svfprintf_r+0xce8>
   10d1a:	001ffd93          	and	s11,t6,1
   10d1e:	19010c93          	add	s9,sp,400
   10d22:	f80d8ae3          	beqz	s11,10cb6 <_svfprintf_r+0x2f2>
   10d26:	03000793          	li	a5,48
   10d2a:	18f107a3          	sb	a5,399(sp)
   10d2e:	18f10c93          	add	s9,sp,399
   10d32:	b751                	j	10cb6 <_svfprintf_r+0x2f2>
   10d34:	41998a33          	sub	s4,s3,s9
   10d38:	d3999ce3          	bne	s3,s9,10a70 <_svfprintf_r+0xac>
   10d3c:	0009c783          	lbu	a5,0(s3)
   10d40:	bb99                	j	10a96 <_svfprintf_r+0xd2>
   10d42:	4592                	lw	a1,4(sp)
   10d44:	01d0                	add	a2,sp,196
   10d46:	8556                	mv	a0,s5
   10d48:	2e5030ef          	jal	1482c <__ssprint_r>
   10d4c:	e8051be3          	bnez	a0,10be2 <_svfprintf_r+0x21e>
   10d50:	84ca                	mv	s1,s2
   10d52:	bb2d                	j	10a8c <_svfprintf_r+0xc8>
   10d54:	008b7793          	and	a5,s6,8
   10d58:	200790e3          	bnez	a5,11758 <_svfprintf_r+0xd94>
   10d5c:	47c2                	lw	a5,16(sp)
   10d5e:	0908                	add	a0,sp,144
   10d60:	c646                	sw	a7,12(sp)
   10d62:	00778b93          	add	s7,a5,7
   10d66:	ff8bfb93          	and	s7,s7,-8
   10d6a:	004ba603          	lw	a2,4(s7)
   10d6e:	000ba583          	lw	a1,0(s7)
   10d72:	008b8793          	add	a5,s7,8
   10d76:	c83e                	sw	a5,16(sp)
   10d78:	5300c0ef          	jal	1d2a8 <__extenddftf2>
   10d7c:	464a                	lw	a2,144(sp)
   10d7e:	46da                	lw	a3,148(sp)
   10d80:	476a                	lw	a4,152(sp)
   10d82:	47fa                	lw	a5,156(sp)
   10d84:	48b2                	lw	a7,12(sp)
   10d86:	0988                	add	a0,sp,208
   10d88:	c646                	sw	a7,12(sp)
   10d8a:	cfbe                	sw	a5,220(sp)
   10d8c:	c9b2                	sw	a2,208(sp)
   10d8e:	cbb6                	sw	a3,212(sp)
   10d90:	cdba                	sw	a4,216(sp)
   10d92:	237010ef          	jal	127c8 <_ldcheck>
   10d96:	d72a                	sw	a0,172(sp)
   10d98:	4789                	li	a5,2
   10d9a:	48b2                	lw	a7,12(sp)
   10d9c:	68f500e3          	beq	a0,a5,11c1c <_svfprintf_r+0x1258>
   10da0:	4785                	li	a5,1
   10da2:	00f51463          	bne	a0,a5,10daa <_svfprintf_r+0x3e6>
   10da6:	7750006f          	j	11d1a <_svfprintf_r+0x1356>
   10daa:	06100793          	li	a5,97
   10dae:	00f89463          	bne	a7,a5,10db6 <_svfprintf_r+0x3f2>
   10db2:	5560106f          	j	12308 <_svfprintf_r+0x1944>
   10db6:	04100793          	li	a5,65
   10dba:	00f89463          	bne	a7,a5,10dc2 <_svfprintf_r+0x3fe>
   10dbe:	5d80106f          	j	12396 <_svfprintf_r+0x19d2>
   10dc2:	57fd                	li	a5,-1
   10dc4:	00fa1463          	bne	s4,a5,10dcc <_svfprintf_r+0x408>
   10dc8:	1b60106f          	j	11f7e <_svfprintf_r+0x15ba>
   10dcc:	fdf8f793          	and	a5,a7,-33
   10dd0:	04700713          	li	a4,71
   10dd4:	c602                	sw	zero,12(sp)
   10dd6:	00e79463          	bne	a5,a4,10dde <_svfprintf_r+0x41a>
   10dda:	6ec0106f          	j	124c6 <_svfprintf_r+0x1b02>
   10dde:	4bfe                	lw	s7,220(sp)
   10de0:	100b6793          	or	a5,s6,256
   10de4:	c4be                	sw	a5,72(sp)
   10de6:	da02                	sw	zero,52(sp)
   10de8:	42ce                	lw	t0,208(sp)
   10dea:	4fde                	lw	t6,212(sp)
   10dec:	4f6e                	lw	t5,216(sp)
   10dee:	000bd963          	bgez	s7,10e00 <_svfprintf_r+0x43c>
   10df2:	800007b7          	lui	a5,0x80000
   10df6:	0177cbb3          	xor	s7,a5,s7
   10dfa:	02d00793          	li	a5,45
   10dfe:	da3e                	sw	a5,52(sp)
   10e00:	fbf88793          	add	a5,a7,-65
   10e04:	02500713          	li	a4,37
   10e08:	00f77463          	bgeu	a4,a5,10e10 <_svfprintf_r+0x44c>
   10e0c:	7fd0006f          	j	11e08 <_svfprintf_r+0x1444>
   10e10:	0000d717          	auipc	a4,0xd
   10e14:	86870713          	add	a4,a4,-1944 # 1d678 <__clzsi2+0x23c>
   10e18:	078a                	sll	a5,a5,0x2
   10e1a:	97ba                	add	a5,a5,a4
   10e1c:	439c                	lw	a5,0(a5)
   10e1e:	97ba                	add	a5,a5,a4
   10e20:	8782                	jr	a5
   10e22:	4592                	lw	a1,4(sp)
   10e24:	01d0                	add	a2,sp,196
   10e26:	8556                	mv	a0,s5
   10e28:	c6c6                	sw	a7,76(sp)
   10e2a:	c4fe                	sw	t6,72(sp)
   10e2c:	da16                	sw	t0,52(sp)
   10e2e:	1ff030ef          	jal	1482c <__ssprint_r>
   10e32:	58051463          	bnez	a0,113ba <_svfprintf_r+0x9f6>
   10e36:	463e                	lw	a2,204(sp)
   10e38:	48b6                	lw	a7,76(sp)
   10e3a:	4fa6                	lw	t6,72(sp)
   10e3c:	52d2                	lw	t0,52(sp)
   10e3e:	84ca                	mv	s1,s2
   10e40:	b339                	j	10b4e <_svfprintf_r+0x18a>
   10e42:	47ae                	lw	a5,200(sp)
   10e44:	4685                	li	a3,1
   10e46:	0194a023          	sw	s9,0(s1)
   10e4a:	00178a13          	add	s4,a5,1 # 80000001 <__BSS_END__+0x7ffe14dd>
   10e4e:	47e2                	lw	a5,24(sp)
   10e50:	00160b93          	add	s7,a2,1
   10e54:	00848d93          	add	s11,s1,8
   10e58:	7af6d063          	bge	a3,a5,115f8 <_svfprintf_r+0xc34>
   10e5c:	4785                	li	a5,1
   10e5e:	c0dc                	sw	a5,4(s1)
   10e60:	c7de                	sw	s7,204(sp)
   10e62:	c5d2                	sw	s4,200(sp)
   10e64:	479d                	li	a5,7
   10e66:	0547c8e3          	blt	a5,s4,116b6 <_svfprintf_r+0xcf2>
   10e6a:	57a2                	lw	a5,40(sp)
   10e6c:	5732                	lw	a4,44(sp)
   10e6e:	0a05                	add	s4,s4,1
   10e70:	9bbe                	add	s7,s7,a5
   10e72:	00fda223          	sw	a5,4(s11)
   10e76:	00eda023          	sw	a4,0(s11)
   10e7a:	c7de                	sw	s7,204(sp)
   10e7c:	c5d2                	sw	s4,200(sp)
   10e7e:	479d                	li	a5,7
   10e80:	0da1                	add	s11,s11,8
   10e82:	0547c6e3          	blt	a5,s4,116ce <_svfprintf_r+0xd0a>
   10e86:	47ce                	lw	a5,208(sp)
   10e88:	010c                	add	a1,sp,128
   10e8a:	0908                	add	a0,sp,144
   10e8c:	c93e                	sw	a5,144(sp)
   10e8e:	47de                	lw	a5,212(sp)
   10e90:	c102                	sw	zero,128(sp)
   10e92:	c302                	sw	zero,132(sp)
   10e94:	cb3e                	sw	a5,148(sp)
   10e96:	47ee                	lw	a5,216(sp)
   10e98:	c502                	sw	zero,136(sp)
   10e9a:	c702                	sw	zero,140(sp)
   10e9c:	cd3e                	sw	a5,152(sp)
   10e9e:	47fe                	lw	a5,220(sp)
   10ea0:	cf3e                	sw	a5,156(sp)
   10ea2:	47e2                	lw	a5,24(sp)
   10ea4:	fff78493          	add	s1,a5,-1
   10ea8:	1020a0ef          	jal	1afaa <__eqtf2>
   10eac:	76050b63          	beqz	a0,11622 <_svfprintf_r+0xc5e>
   10eb0:	001c8313          	add	t1,s9,1
   10eb4:	0a05                	add	s4,s4,1
   10eb6:	9ba6                	add	s7,s7,s1
   10eb8:	006da023          	sw	t1,0(s11)
   10ebc:	009da223          	sw	s1,4(s11)
   10ec0:	c7de                	sw	s7,204(sp)
   10ec2:	c5d2                	sw	s4,200(sp)
   10ec4:	479d                	li	a5,7
   10ec6:	0da1                	add	s11,s11,8
   10ec8:	7547c263          	blt	a5,s4,1160c <_svfprintf_r+0xc48>
   10ecc:	5772                	lw	a4,60(sp)
   10ece:	1954                	add	a3,sp,180
   10ed0:	001a0793          	add	a5,s4,1
   10ed4:	01770633          	add	a2,a4,s7
   10ed8:	00dda023          	sw	a3,0(s11)
   10edc:	00eda223          	sw	a4,4(s11)
   10ee0:	c7b2                	sw	a2,204(sp)
   10ee2:	c5be                	sw	a5,200(sp)
   10ee4:	469d                	li	a3,7
   10ee6:	008d8493          	add	s1,s11,8
   10eea:	caf6dae3          	bge	a3,a5,10b9e <_svfprintf_r+0x1da>
   10eee:	4592                	lw	a1,4(sp)
   10ef0:	01d0                	add	a2,sp,196
   10ef2:	8556                	mv	a0,s5
   10ef4:	139030ef          	jal	1482c <__ssprint_r>
   10ef8:	4c051163          	bnez	a0,113ba <_svfprintf_r+0x9f6>
   10efc:	463e                	lw	a2,204(sp)
   10efe:	84ca                	mv	s1,s2
   10f00:	b979                	j	10b9e <_svfprintf_r+0x1da>
   10f02:	4742                	lw	a4,16(sp)
   10f04:	010b7793          	and	a5,s6,16
   10f08:	00072d03          	lw	s10,0(a4)
   10f0c:	0711                	add	a4,a4,4
   10f0e:	c83a                	sw	a4,16(sp)
   10f10:	7e079963          	bnez	a5,11702 <_svfprintf_r+0xd3e>
   10f14:	040b7793          	and	a5,s6,64
   10f18:	7e078163          	beqz	a5,116fa <_svfprintf_r+0xd36>
   10f1c:	0d42                	sll	s10,s10,0x10
   10f1e:	010d5d13          	srl	s10,s10,0x10
   10f22:	4d81                	li	s11,0
   10f24:	bbc9                	j	10cf6 <_svfprintf_r+0x332>
   10f26:	4742                	lw	a4,16(sp)
   10f28:	010b7793          	and	a5,s6,16
   10f2c:	00072d03          	lw	s10,0(a4)
   10f30:	0711                	add	a4,a4,4
   10f32:	c83a                	sw	a4,16(sp)
   10f34:	7c079e63          	bnez	a5,11710 <_svfprintf_r+0xd4c>
   10f38:	040b7793          	and	a5,s6,64
   10f3c:	7c078663          	beqz	a5,11708 <_svfprintf_r+0xd44>
   10f40:	0d42                	sll	s10,s10,0x10
   10f42:	410d5d13          	sra	s10,s10,0x10
   10f46:	41fd5d93          	sra	s11,s10,0x1f
   10f4a:	87ee                	mv	a5,s11
   10f4c:	d207dfe3          	bgez	a5,10c8a <_svfprintf_r+0x2c6>
   10f50:	02d00713          	li	a4,45
   10f54:	01a037b3          	snez	a5,s10
   10f58:	41b00db3          	neg	s11,s11
   10f5c:	0ae103a3          	sb	a4,167(sp)
   10f60:	40fd8db3          	sub	s11,s11,a5
   10f64:	41a00d33          	neg	s10,s10
   10f68:	8fda                	mv	t6,s6
   10f6a:	4785                	li	a5,1
   10f6c:	d80a5de3          	bgez	s4,10d06 <_svfprintf_r+0x342>
   10f70:	4705                	li	a4,1
   10f72:	d2e785e3          	beq	a5,a4,10c9c <_svfprintf_r+0x2d8>
   10f76:	4709                	li	a4,2
   10f78:	2ce78963          	beq	a5,a4,1124a <_svfprintf_r+0x886>
   10f7c:	19010c93          	add	s9,sp,400
   10f80:	01dd9713          	sll	a4,s11,0x1d
   10f84:	007d7793          	and	a5,s10,7
   10f88:	003d5d13          	srl	s10,s10,0x3
   10f8c:	03078793          	add	a5,a5,48
   10f90:	01a76d33          	or	s10,a4,s10
   10f94:	003ddd93          	srl	s11,s11,0x3
   10f98:	fefc8fa3          	sb	a5,-1(s9)
   10f9c:	01bd6733          	or	a4,s10,s11
   10fa0:	86e6                	mv	a3,s9
   10fa2:	1cfd                	add	s9,s9,-1
   10fa4:	ff71                	bnez	a4,10f80 <_svfprintf_r+0x5bc>
   10fa6:	001ff713          	and	a4,t6,1
   10faa:	2c070663          	beqz	a4,11276 <_svfprintf_r+0x8b2>
   10fae:	03000713          	li	a4,48
   10fb2:	2ce78263          	beq	a5,a4,11276 <_svfprintf_r+0x8b2>
   10fb6:	16f9                	add	a3,a3,-2
   10fb8:	0b1c                	add	a5,sp,400
   10fba:	feec8fa3          	sb	a4,-1(s9)
   10fbe:	40d78db3          	sub	s11,a5,a3
   10fc2:	8b7e                	mv	s6,t6
   10fc4:	8cb6                	mv	s9,a3
   10fc6:	b9c5                	j	10cb6 <_svfprintf_r+0x2f2>
   10fc8:	47c2                	lw	a5,16(sp)
   10fca:	0a0103a3          	sb	zero,167(sp)
   10fce:	0007ac83          	lw	s9,0(a5)
   10fd2:	00478b93          	add	s7,a5,4
   10fd6:	4a0c88e3          	beqz	s9,11c86 <_svfprintf_r+0x12c2>
   10fda:	080a48e3          	bltz	s4,1186a <_svfprintf_r+0xea6>
   10fde:	8652                	mv	a2,s4
   10fe0:	4581                	li	a1,0
   10fe2:	8566                	mv	a0,s9
   10fe4:	c846                	sw	a7,16(sp)
   10fe6:	626040ef          	jal	1560c <memchr>
   10fea:	c62a                	sw	a0,12(sp)
   10fec:	48c2                	lw	a7,16(sp)
   10fee:	e119                	bnez	a0,10ff4 <_svfprintf_r+0x630>
   10ff0:	3620106f          	j	12352 <_svfprintf_r+0x198e>
   10ff4:	47b2                	lw	a5,12(sp)
   10ff6:	c85e                	sw	s7,16(sp)
   10ff8:	c602                	sw	zero,12(sp)
   10ffa:	41978db3          	sub	s11,a5,s9
   10ffe:	0a714783          	lbu	a5,167(sp)
   11002:	fffdc713          	not	a4,s11
   11006:	877d                	sra	a4,a4,0x1f
   11008:	d002                	sw	zero,32(sp)
   1100a:	ce02                	sw	zero,28(sp)
   1100c:	ca02                	sw	zero,20(sp)
   1100e:	00edfd33          	and	s10,s11,a4
   11012:	4a01                	li	s4,0
   11014:	ca079de3          	bnez	a5,10cce <_svfprintf_r+0x30a>
   11018:	bce5                	j	10b10 <_svfprintf_r+0x14c>
   1101a:	4742                	lw	a4,16(sp)
   1101c:	0a0103a3          	sb	zero,167(sp)
   11020:	4d05                	li	s10,1
   11022:	431c                	lw	a5,0(a4)
   11024:	0711                	add	a4,a4,4
   11026:	c83a                	sw	a4,16(sp)
   11028:	12f10623          	sb	a5,300(sp)
   1102c:	4d85                	li	s11,1
   1102e:	12c10c93          	add	s9,sp,300
   11032:	bcd1                	j	10b06 <_svfprintf_r+0x142>
   11034:	47c2                	lw	a5,16(sp)
   11036:	0007ac03          	lw	s8,0(a5)
   1103a:	0791                	add	a5,a5,4
   1103c:	6a0c5a63          	bgez	s8,116f0 <_svfprintf_r+0xd2c>
   11040:	41800c33          	neg	s8,s8
   11044:	c83e                	sw	a5,16(sp)
   11046:	0009c883          	lbu	a7,0(s3)
   1104a:	004b6b13          	or	s6,s6,4
   1104e:	b485                	j	10aae <_svfprintf_r+0xea>
   11050:	02b00793          	li	a5,43
   11054:	0009c883          	lbu	a7,0(s3)
   11058:	0af103a3          	sb	a5,167(sp)
   1105c:	bc89                	j	10aae <_svfprintf_r+0xea>
   1105e:	0009c883          	lbu	a7,0(s3)
   11062:	080b6b13          	or	s6,s6,128
   11066:	b4a1                	j	10aae <_svfprintf_r+0xea>
   11068:	0009c883          	lbu	a7,0(s3)
   1106c:	02a00793          	li	a5,42
   11070:	00198693          	add	a3,s3,1
   11074:	00f89463          	bne	a7,a5,1107c <_svfprintf_r+0x6b8>
   11078:	5140106f          	j	1258c <_svfprintf_r+0x1bc8>
   1107c:	fd088793          	add	a5,a7,-48
   11080:	4725                	li	a4,9
   11082:	4a01                	li	s4,0
   11084:	4625                	li	a2,9
   11086:	02f76063          	bltu	a4,a5,110a6 <_svfprintf_r+0x6e2>
   1108a:	0006c883          	lbu	a7,0(a3)
   1108e:	002a1713          	sll	a4,s4,0x2
   11092:	9a3a                	add	s4,s4,a4
   11094:	0a06                	sll	s4,s4,0x1
   11096:	9a3e                	add	s4,s4,a5
   11098:	fd088793          	add	a5,a7,-48
   1109c:	0685                	add	a3,a3,1
   1109e:	fef676e3          	bgeu	a2,a5,1108a <_svfprintf_r+0x6c6>
   110a2:	6c0a4963          	bltz	s4,11774 <_svfprintf_r+0xdb0>
   110a6:	89b6                	mv	s3,a3
   110a8:	b421                	j	10ab0 <_svfprintf_r+0xec>
   110aa:	0009c883          	lbu	a7,0(s3)
   110ae:	001b6b13          	or	s6,s6,1
   110b2:	baf5                	j	10aae <_svfprintf_r+0xea>
   110b4:	0a714783          	lbu	a5,167(sp)
   110b8:	0009c883          	lbu	a7,0(s3)
   110bc:	9e0799e3          	bnez	a5,10aae <_svfprintf_r+0xea>
   110c0:	02000793          	li	a5,32
   110c4:	0af103a3          	sb	a5,167(sp)
   110c8:	b2dd                	j	10aae <_svfprintf_r+0xea>
   110ca:	010b6f93          	or	t6,s6,16
   110ce:	020ff793          	and	a5,t6,32
   110d2:	5a078263          	beqz	a5,11676 <_svfprintf_r+0xcb2>
   110d6:	47c2                	lw	a5,16(sp)
   110d8:	00778b93          	add	s7,a5,7
   110dc:	ff8bfb93          	and	s7,s7,-8
   110e0:	008b8793          	add	a5,s7,8
   110e4:	c83e                	sw	a5,16(sp)
   110e6:	000bad03          	lw	s10,0(s7)
   110ea:	004bad83          	lw	s11,4(s7)
   110ee:	4785                	li	a5,1
   110f0:	b131                	j	10cfc <_svfprintf_r+0x338>
   110f2:	0009c883          	lbu	a7,0(s3)
   110f6:	008b6b13          	or	s6,s6,8
   110fa:	ba55                	j	10aae <_svfprintf_r+0xea>
   110fc:	4742                	lw	a4,16(sp)
   110fe:	67a1                	lui	a5,0x8
   11100:	83078793          	add	a5,a5,-2000 # 7830 <register_fini-0x8864>
   11104:	0af11423          	sh	a5,168(sp)
   11108:	00470793          	add	a5,a4,4
   1110c:	c83e                	sw	a5,16(sp)
   1110e:	0000c797          	auipc	a5,0xc
   11112:	3ca78793          	add	a5,a5,970 # 1d4d8 <__clzsi2+0x9c>
   11116:	d83e                	sw	a5,48(sp)
   11118:	00072d03          	lw	s10,0(a4)
   1111c:	4d81                	li	s11,0
   1111e:	002b6f93          	or	t6,s6,2
   11122:	4789                	li	a5,2
   11124:	07800893          	li	a7,120
   11128:	bed1                	j	10cfc <_svfprintf_r+0x338>
   1112a:	020b7793          	and	a5,s6,32
   1112e:	60078363          	beqz	a5,11734 <_svfprintf_r+0xd70>
   11132:	47c2                	lw	a5,16(sp)
   11134:	46a2                	lw	a3,8(sp)
   11136:	439c                	lw	a5,0(a5)
   11138:	41f6d713          	sra	a4,a3,0x1f
   1113c:	c394                	sw	a3,0(a5)
   1113e:	c3d8                	sw	a4,4(a5)
   11140:	47c2                	lw	a5,16(sp)
   11142:	8cce                	mv	s9,s3
   11144:	0791                	add	a5,a5,4
   11146:	c83e                	sw	a5,16(sp)
   11148:	b469                	j	10bd2 <_svfprintf_r+0x20e>
   1114a:	0009c883          	lbu	a7,0(s3)
   1114e:	06c00793          	li	a5,108
   11152:	6af88e63          	beq	a7,a5,1180e <_svfprintf_r+0xe4a>
   11156:	010b6b13          	or	s6,s6,16
   1115a:	ba91                	j	10aae <_svfprintf_r+0xea>
   1115c:	0009c883          	lbu	a7,0(s3)
   11160:	06800793          	li	a5,104
   11164:	68f88863          	beq	a7,a5,117f4 <_svfprintf_r+0xe30>
   11168:	040b6b13          	or	s6,s6,64
   1116c:	b289                	j	10aae <_svfprintf_r+0xea>
   1116e:	06500793          	li	a5,101
   11172:	cd17d8e3          	bge	a5,a7,10e42 <_svfprintf_r+0x47e>
   11176:	47ce                	lw	a5,208(sp)
   11178:	010c                	add	a1,sp,128
   1117a:	0908                	add	a0,sp,144
   1117c:	c93e                	sw	a5,144(sp)
   1117e:	47de                	lw	a5,212(sp)
   11180:	da32                	sw	a2,52(sp)
   11182:	c102                	sw	zero,128(sp)
   11184:	cb3e                	sw	a5,148(sp)
   11186:	47ee                	lw	a5,216(sp)
   11188:	c302                	sw	zero,132(sp)
   1118a:	c502                	sw	zero,136(sp)
   1118c:	cd3e                	sw	a5,152(sp)
   1118e:	47fe                	lw	a5,220(sp)
   11190:	c702                	sw	zero,140(sp)
   11192:	cf3e                	sw	a5,156(sp)
   11194:	617090ef          	jal	1afaa <__eqtf2>
   11198:	5652                	lw	a2,52(sp)
   1119a:	36051663          	bnez	a0,11506 <_svfprintf_r+0xb42>
   1119e:	47ae                	lw	a5,200(sp)
   111a0:	0000c697          	auipc	a3,0xc
   111a4:	36868693          	add	a3,a3,872 # 1d508 <__clzsi2+0xcc>
   111a8:	c094                	sw	a3,0(s1)
   111aa:	0605                	add	a2,a2,1
   111ac:	4685                	li	a3,1
   111ae:	0785                	add	a5,a5,1
   111b0:	c0d4                	sw	a3,4(s1)
   111b2:	c7b2                	sw	a2,204(sp)
   111b4:	c5be                	sw	a5,200(sp)
   111b6:	469d                	li	a3,7
   111b8:	04a1                	add	s1,s1,8
   111ba:	20f6c9e3          	blt	a3,a5,11bcc <_svfprintf_r+0x1208>
   111be:	57ba                	lw	a5,172(sp)
   111c0:	4762                	lw	a4,24(sp)
   111c2:	52e7d263          	bge	a5,a4,116e6 <_svfprintf_r+0xd22>
   111c6:	57b2                	lw	a5,44(sp)
   111c8:	5722                	lw	a4,40(sp)
   111ca:	469d                	li	a3,7
   111cc:	c09c                	sw	a5,0(s1)
   111ce:	47ae                	lw	a5,200(sp)
   111d0:	963a                	add	a2,a2,a4
   111d2:	c0d8                	sw	a4,4(s1)
   111d4:	0785                	add	a5,a5,1
   111d6:	c7b2                	sw	a2,204(sp)
   111d8:	c5be                	sw	a5,200(sp)
   111da:	04a1                	add	s1,s1,8
   111dc:	60f6c263          	blt	a3,a5,117e0 <_svfprintf_r+0xe1c>
   111e0:	47e2                	lw	a5,24(sp)
   111e2:	fff78a13          	add	s4,a5,-1
   111e6:	9b405ce3          	blez	s4,10b9e <_svfprintf_r+0x1da>
   111ea:	46c1                	li	a3,16
   111ec:	47ae                	lw	a5,200(sp)
   111ee:	0146c463          	blt	a3,s4,111f6 <_svfprintf_r+0x832>
   111f2:	3720106f          	j	12564 <_svfprintf_r+0x1ba0>
   111f6:	0000c697          	auipc	a3,0xc
   111fa:	52a68693          	add	a3,a3,1322 # 1d720 <zeroes.0>
   111fe:	4dc1                	li	s11,16
   11200:	4b9d                	li	s7,7
   11202:	8cb6                	mv	s9,a3
   11204:	a021                	j	1120c <_svfprintf_r+0x848>
   11206:	1a41                	add	s4,s4,-16
   11208:	1d4ddde3          	bge	s11,s4,11be2 <_svfprintf_r+0x121e>
   1120c:	0641                	add	a2,a2,16
   1120e:	0785                	add	a5,a5,1
   11210:	0194a023          	sw	s9,0(s1)
   11214:	01b4a223          	sw	s11,4(s1)
   11218:	c7b2                	sw	a2,204(sp)
   1121a:	c5be                	sw	a5,200(sp)
   1121c:	04a1                	add	s1,s1,8
   1121e:	fefbd4e3          	bge	s7,a5,11206 <_svfprintf_r+0x842>
   11222:	4592                	lw	a1,4(sp)
   11224:	01d0                	add	a2,sp,196
   11226:	8556                	mv	a0,s5
   11228:	604030ef          	jal	1482c <__ssprint_r>
   1122c:	18051763          	bnez	a0,113ba <_svfprintf_r+0x9f6>
   11230:	463e                	lw	a2,204(sp)
   11232:	47ae                	lw	a5,200(sp)
   11234:	84ca                	mv	s1,s2
   11236:	bfc1                	j	11206 <_svfprintf_r+0x842>
   11238:	4705                	li	a4,1
   1123a:	00e79463          	bne	a5,a4,11242 <_svfprintf_r+0x87e>
   1123e:	1f80106f          	j	12436 <_svfprintf_r+0x1a72>
   11242:	4709                	li	a4,2
   11244:	8fda                	mv	t6,s6
   11246:	d2e79be3          	bne	a5,a4,10f7c <_svfprintf_r+0x5b8>
   1124a:	56c2                	lw	a3,48(sp)
   1124c:	19010c93          	add	s9,sp,400
   11250:	00fd7793          	and	a5,s10,15
   11254:	97b6                	add	a5,a5,a3
   11256:	0007c703          	lbu	a4,0(a5)
   1125a:	004d5d13          	srl	s10,s10,0x4
   1125e:	01cd9793          	sll	a5,s11,0x1c
   11262:	01a7ed33          	or	s10,a5,s10
   11266:	004ddd93          	srl	s11,s11,0x4
   1126a:	feec8fa3          	sb	a4,-1(s9)
   1126e:	01bd67b3          	or	a5,s10,s11
   11272:	1cfd                	add	s9,s9,-1
   11274:	fff1                	bnez	a5,11250 <_svfprintf_r+0x88c>
   11276:	0b1c                	add	a5,sp,400
   11278:	41978db3          	sub	s11,a5,s9
   1127c:	8b7e                	mv	s6,t6
   1127e:	bc25                	j	10cb6 <_svfprintf_r+0x2f2>
   11280:	41ac0bb3          	sub	s7,s8,s10
   11284:	8f7058e3          	blez	s7,10b74 <_svfprintf_r+0x1b0>
   11288:	46c1                	li	a3,16
   1128a:	45ae                	lw	a1,200(sp)
   1128c:	0176c463          	blt	a3,s7,11294 <_svfprintf_r+0x8d0>
   11290:	1b80106f          	j	12448 <_svfprintf_r+0x1a84>
   11294:	0000c697          	auipc	a3,0xc
   11298:	48c68693          	add	a3,a3,1164 # 1d720 <zeroes.0>
   1129c:	da4e                	sw	s3,52(sp)
   1129e:	87a6                	mv	a5,s1
   112a0:	4841                	li	a6,16
   112a2:	84de                	mv	s1,s7
   112a4:	4f9d                	li	t6,7
   112a6:	8bd2                	mv	s7,s4
   112a8:	89b6                	mv	s3,a3
   112aa:	8a46                	mv	s4,a7
   112ac:	a021                	j	112b4 <_svfprintf_r+0x8f0>
   112ae:	14c1                	add	s1,s1,-16
   112b0:	02985b63          	bge	a6,s1,112e6 <_svfprintf_r+0x922>
   112b4:	0641                	add	a2,a2,16
   112b6:	0585                	add	a1,a1,1
   112b8:	0137a023          	sw	s3,0(a5)
   112bc:	0107a223          	sw	a6,4(a5)
   112c0:	c7b2                	sw	a2,204(sp)
   112c2:	c5ae                	sw	a1,200(sp)
   112c4:	07a1                	add	a5,a5,8
   112c6:	febfd4e3          	bge	t6,a1,112ae <_svfprintf_r+0x8ea>
   112ca:	4592                	lw	a1,4(sp)
   112cc:	01d0                	add	a2,sp,196
   112ce:	8556                	mv	a0,s5
   112d0:	55c030ef          	jal	1482c <__ssprint_r>
   112d4:	e17d                	bnez	a0,113ba <_svfprintf_r+0x9f6>
   112d6:	4841                	li	a6,16
   112d8:	14c1                	add	s1,s1,-16
   112da:	463e                	lw	a2,204(sp)
   112dc:	45ae                	lw	a1,200(sp)
   112de:	87ca                	mv	a5,s2
   112e0:	4f9d                	li	t6,7
   112e2:	fc9849e3          	blt	a6,s1,112b4 <_svfprintf_r+0x8f0>
   112e6:	86ce                	mv	a3,s3
   112e8:	59d2                	lw	s3,52(sp)
   112ea:	88d2                	mv	a7,s4
   112ec:	8a5e                	mv	s4,s7
   112ee:	8ba6                	mv	s7,s1
   112f0:	84be                	mv	s1,a5
   112f2:	965e                	add	a2,a2,s7
   112f4:	0585                	add	a1,a1,1
   112f6:	c094                	sw	a3,0(s1)
   112f8:	0174a223          	sw	s7,4(s1)
   112fc:	c7b2                	sw	a2,204(sp)
   112fe:	c5ae                	sw	a1,200(sp)
   11300:	479d                	li	a5,7
   11302:	04a1                	add	s1,s1,8
   11304:	86b7d8e3          	bge	a5,a1,10b74 <_svfprintf_r+0x1b0>
   11308:	4592                	lw	a1,4(sp)
   1130a:	01d0                	add	a2,sp,196
   1130c:	8556                	mv	a0,s5
   1130e:	da46                	sw	a7,52(sp)
   11310:	51c030ef          	jal	1482c <__ssprint_r>
   11314:	e15d                	bnez	a0,113ba <_svfprintf_r+0x9f6>
   11316:	41ba0a33          	sub	s4,s4,s11
   1131a:	463e                	lw	a2,204(sp)
   1131c:	58d2                	lw	a7,52(sp)
   1131e:	84ca                	mv	s1,s2
   11320:	85405ee3          	blez	s4,10b7c <_svfprintf_r+0x1b8>
   11324:	45ae                	lw	a1,200(sp)
   11326:	0000c697          	auipc	a3,0xc
   1132a:	3fa68693          	add	a3,a3,1018 # 1d720 <zeroes.0>
   1132e:	05445863          	bge	s0,s4,1137e <_svfprintf_r+0x9ba>
   11332:	87a6                	mv	a5,s1
   11334:	4b9d                	li	s7,7
   11336:	84d2                	mv	s1,s4
   11338:	da46                	sw	a7,52(sp)
   1133a:	8a36                	mv	s4,a3
   1133c:	a021                	j	11344 <_svfprintf_r+0x980>
   1133e:	14c1                	add	s1,s1,-16
   11340:	02945b63          	bge	s0,s1,11376 <_svfprintf_r+0x9b2>
   11344:	0641                	add	a2,a2,16
   11346:	0585                	add	a1,a1,1
   11348:	0000c717          	auipc	a4,0xc
   1134c:	3d870713          	add	a4,a4,984 # 1d720 <zeroes.0>
   11350:	c398                	sw	a4,0(a5)
   11352:	c3c0                	sw	s0,4(a5)
   11354:	c7b2                	sw	a2,204(sp)
   11356:	c5ae                	sw	a1,200(sp)
   11358:	07a1                	add	a5,a5,8
   1135a:	febbd2e3          	bge	s7,a1,1133e <_svfprintf_r+0x97a>
   1135e:	4592                	lw	a1,4(sp)
   11360:	01d0                	add	a2,sp,196
   11362:	8556                	mv	a0,s5
   11364:	4c8030ef          	jal	1482c <__ssprint_r>
   11368:	e929                	bnez	a0,113ba <_svfprintf_r+0x9f6>
   1136a:	14c1                	add	s1,s1,-16
   1136c:	463e                	lw	a2,204(sp)
   1136e:	45ae                	lw	a1,200(sp)
   11370:	87ca                	mv	a5,s2
   11372:	fc9449e3          	blt	s0,s1,11344 <_svfprintf_r+0x980>
   11376:	58d2                	lw	a7,52(sp)
   11378:	86d2                	mv	a3,s4
   1137a:	8a26                	mv	s4,s1
   1137c:	84be                	mv	s1,a5
   1137e:	9652                	add	a2,a2,s4
   11380:	0585                	add	a1,a1,1
   11382:	c094                	sw	a3,0(s1)
   11384:	0144a223          	sw	s4,4(s1)
   11388:	c7b2                	sw	a2,204(sp)
   1138a:	c5ae                	sw	a1,200(sp)
   1138c:	479d                	li	a5,7
   1138e:	04a1                	add	s1,s1,8
   11390:	feb7d663          	bge	a5,a1,10b7c <_svfprintf_r+0x1b8>
   11394:	4592                	lw	a1,4(sp)
   11396:	01d0                	add	a2,sp,196
   11398:	8556                	mv	a0,s5
   1139a:	da46                	sw	a7,52(sp)
   1139c:	490030ef          	jal	1482c <__ssprint_r>
   113a0:	ed09                	bnez	a0,113ba <_svfprintf_r+0x9f6>
   113a2:	463e                	lw	a2,204(sp)
   113a4:	58d2                	lw	a7,52(sp)
   113a6:	84ca                	mv	s1,s2
   113a8:	fd4ff06f          	j	10b7c <_svfprintf_r+0x1b8>
   113ac:	4592                	lw	a1,4(sp)
   113ae:	01d0                	add	a2,sp,196
   113b0:	8556                	mv	a0,s5
   113b2:	47a030ef          	jal	1482c <__ssprint_r>
   113b6:	800505e3          	beqz	a0,10bc0 <_svfprintf_r+0x1fc>
   113ba:	43b2                	lw	t2,12(sp)
   113bc:	820383e3          	beqz	t2,10be2 <_svfprintf_r+0x21e>
   113c0:	5512                	lw	a0,36(sp)
   113c2:	859e                	mv	a1,t2
   113c4:	65b010ef          	jal	1321e <_free_r>
   113c8:	81bff06f          	j	10be2 <_svfprintf_r+0x21e>
   113cc:	8fda                	mv	t6,s6
   113ce:	b64d                	j	10f70 <_svfprintf_r+0x5ac>
   113d0:	46c1                	li	a3,16
   113d2:	45ae                	lw	a1,200(sp)
   113d4:	0000cb97          	auipc	s7,0xc
   113d8:	33cb8b93          	add	s7,s7,828 # 1d710 <blanks.1>
   113dc:	06f6d063          	bge	a3,a5,1143c <_svfprintf_r+0xa78>
   113e0:	da4e                	sw	s3,52(sp)
   113e2:	8726                	mv	a4,s1
   113e4:	89de                	mv	s3,s7
   113e6:	46c1                	li	a3,16
   113e8:	8bd2                	mv	s7,s4
   113ea:	439d                	li	t2,7
   113ec:	c496                	sw	t0,72(sp)
   113ee:	c6fe                	sw	t6,76(sp)
   113f0:	84be                	mv	s1,a5
   113f2:	8a46                	mv	s4,a7
   113f4:	a021                	j	113fc <_svfprintf_r+0xa38>
   113f6:	14c1                	add	s1,s1,-16
   113f8:	0296da63          	bge	a3,s1,1142c <_svfprintf_r+0xa68>
   113fc:	0641                	add	a2,a2,16
   113fe:	0585                	add	a1,a1,1
   11400:	01372023          	sw	s3,0(a4)
   11404:	c354                	sw	a3,4(a4)
   11406:	c7b2                	sw	a2,204(sp)
   11408:	c5ae                	sw	a1,200(sp)
   1140a:	0721                	add	a4,a4,8
   1140c:	feb3d5e3          	bge	t2,a1,113f6 <_svfprintf_r+0xa32>
   11410:	4592                	lw	a1,4(sp)
   11412:	01d0                	add	a2,sp,196
   11414:	8556                	mv	a0,s5
   11416:	416030ef          	jal	1482c <__ssprint_r>
   1141a:	f145                	bnez	a0,113ba <_svfprintf_r+0x9f6>
   1141c:	46c1                	li	a3,16
   1141e:	14c1                	add	s1,s1,-16
   11420:	463e                	lw	a2,204(sp)
   11422:	45ae                	lw	a1,200(sp)
   11424:	874a                	mv	a4,s2
   11426:	439d                	li	t2,7
   11428:	fc96cae3          	blt	a3,s1,113fc <_svfprintf_r+0xa38>
   1142c:	88d2                	mv	a7,s4
   1142e:	42a6                	lw	t0,72(sp)
   11430:	8a5e                	mv	s4,s7
   11432:	4fb6                	lw	t6,76(sp)
   11434:	8bce                	mv	s7,s3
   11436:	59d2                	lw	s3,52(sp)
   11438:	87a6                	mv	a5,s1
   1143a:	84ba                	mv	s1,a4
   1143c:	963e                	add	a2,a2,a5
   1143e:	0585                	add	a1,a1,1
   11440:	c0dc                	sw	a5,4(s1)
   11442:	0174a023          	sw	s7,0(s1)
   11446:	c7b2                	sw	a2,204(sp)
   11448:	c5ae                	sw	a1,200(sp)
   1144a:	479d                	li	a5,7
   1144c:	04a1                	add	s1,s1,8
   1144e:	ecb7df63          	bge	a5,a1,10b2c <_svfprintf_r+0x168>
   11452:	4592                	lw	a1,4(sp)
   11454:	01d0                	add	a2,sp,196
   11456:	8556                	mv	a0,s5
   11458:	c6c6                	sw	a7,76(sp)
   1145a:	c4fe                	sw	t6,72(sp)
   1145c:	da16                	sw	t0,52(sp)
   1145e:	3ce030ef          	jal	1482c <__ssprint_r>
   11462:	fd21                	bnez	a0,113ba <_svfprintf_r+0x9f6>
   11464:	463e                	lw	a2,204(sp)
   11466:	48b6                	lw	a7,76(sp)
   11468:	4fa6                	lw	t6,72(sp)
   1146a:	52d2                	lw	t0,52(sp)
   1146c:	84ca                	mv	s1,s2
   1146e:	ebeff06f          	j	10b2c <_svfprintf_r+0x168>
   11472:	4592                	lw	a1,4(sp)
   11474:	01d0                	add	a2,sp,196
   11476:	8556                	mv	a0,s5
   11478:	c4c6                	sw	a7,72(sp)
   1147a:	da7e                	sw	t6,52(sp)
   1147c:	3b0030ef          	jal	1482c <__ssprint_r>
   11480:	fd0d                	bnez	a0,113ba <_svfprintf_r+0x9f6>
   11482:	463e                	lw	a2,204(sp)
   11484:	48a6                	lw	a7,72(sp)
   11486:	5fd2                	lw	t6,52(sp)
   11488:	84ca                	mv	s1,s2
   1148a:	ee2ff06f          	j	10b6c <_svfprintf_r+0x1a8>
   1148e:	46c1                	li	a3,16
   11490:	47ae                	lw	a5,200(sp)
   11492:	0000cb97          	auipc	s7,0xc
   11496:	27eb8b93          	add	s7,s7,638 # 1d710 <blanks.1>
   1149a:	0546d163          	bge	a3,s4,114dc <_svfprintf_r+0xb18>
   1149e:	4c92                	lw	s9,4(sp)
   114a0:	4dc1                	li	s11,16
   114a2:	4b1d                	li	s6,7
   114a4:	a021                	j	114ac <_svfprintf_r+0xae8>
   114a6:	1a41                	add	s4,s4,-16
   114a8:	034dda63          	bge	s11,s4,114dc <_svfprintf_r+0xb18>
   114ac:	0641                	add	a2,a2,16
   114ae:	0785                	add	a5,a5,1
   114b0:	0174a023          	sw	s7,0(s1)
   114b4:	01b4a223          	sw	s11,4(s1)
   114b8:	c7b2                	sw	a2,204(sp)
   114ba:	c5be                	sw	a5,200(sp)
   114bc:	04a1                	add	s1,s1,8
   114be:	fefb54e3          	bge	s6,a5,114a6 <_svfprintf_r+0xae2>
   114c2:	01d0                	add	a2,sp,196
   114c4:	85e6                	mv	a1,s9
   114c6:	8556                	mv	a0,s5
   114c8:	364030ef          	jal	1482c <__ssprint_r>
   114cc:	ee0517e3          	bnez	a0,113ba <_svfprintf_r+0x9f6>
   114d0:	1a41                	add	s4,s4,-16
   114d2:	463e                	lw	a2,204(sp)
   114d4:	47ae                	lw	a5,200(sp)
   114d6:	84ca                	mv	s1,s2
   114d8:	fd4dcae3          	blt	s11,s4,114ac <_svfprintf_r+0xae8>
   114dc:	9652                	add	a2,a2,s4
   114de:	0785                	add	a5,a5,1
   114e0:	0174a023          	sw	s7,0(s1)
   114e4:	0144a223          	sw	s4,4(s1)
   114e8:	c7b2                	sw	a2,204(sp)
   114ea:	c5be                	sw	a5,200(sp)
   114ec:	469d                	li	a3,7
   114ee:	ecf6d063          	bge	a3,a5,10bae <_svfprintf_r+0x1ea>
   114f2:	4592                	lw	a1,4(sp)
   114f4:	01d0                	add	a2,sp,196
   114f6:	8556                	mv	a0,s5
   114f8:	334030ef          	jal	1482c <__ssprint_r>
   114fc:	ea051fe3          	bnez	a0,113ba <_svfprintf_r+0x9f6>
   11500:	463e                	lw	a2,204(sp)
   11502:	eacff06f          	j	10bae <_svfprintf_r+0x1ea>
   11506:	56ba                	lw	a3,172(sp)
   11508:	64d05263          	blez	a3,11b4c <_svfprintf_r+0x1188>
   1150c:	47d2                	lw	a5,20(sp)
   1150e:	4762                	lw	a4,24(sp)
   11510:	8a3e                	mv	s4,a5
   11512:	24f74d63          	blt	a4,a5,1176c <_svfprintf_r+0xda8>
   11516:	01405f63          	blez	s4,11534 <_svfprintf_r+0xb70>
   1151a:	47ae                	lw	a5,200(sp)
   1151c:	9652                	add	a2,a2,s4
   1151e:	0194a023          	sw	s9,0(s1)
   11522:	0785                	add	a5,a5,1
   11524:	0144a223          	sw	s4,4(s1)
   11528:	c7b2                	sw	a2,204(sp)
   1152a:	c5be                	sw	a5,200(sp)
   1152c:	469d                	li	a3,7
   1152e:	04a1                	add	s1,s1,8
   11530:	0af6cfe3          	blt	a3,a5,11dee <_svfprintf_r+0x142a>
   11534:	fffa4793          	not	a5,s4
   11538:	87fd                	sra	a5,a5,0x1f
   1153a:	00fa7a33          	and	s4,s4,a5
   1153e:	47d2                	lw	a5,20(sp)
   11540:	41478a33          	sub	s4,a5,s4
   11544:	35404a63          	bgtz	s4,11898 <_svfprintf_r+0xed4>
   11548:	4752                	lw	a4,20(sp)
   1154a:	400b7793          	and	a5,s6,1024
   1154e:	00ec8bb3          	add	s7,s9,a4
   11552:	38079863          	bnez	a5,118e2 <_svfprintf_r+0xf1e>
   11556:	56ba                	lw	a3,172(sp)
   11558:	47e2                	lw	a5,24(sp)
   1155a:	4af6c563          	blt	a3,a5,11a04 <_svfprintf_r+0x1040>
   1155e:	001b7793          	and	a5,s6,1
   11562:	4a079163          	bnez	a5,11a04 <_svfprintf_r+0x1040>
   11566:	4762                	lw	a4,24(sp)
   11568:	00ec87b3          	add	a5,s9,a4
   1156c:	40d70a33          	sub	s4,a4,a3
   11570:	41778db3          	sub	s11,a5,s7
   11574:	01ba5363          	bge	s4,s11,1157a <_svfprintf_r+0xbb6>
   11578:	8dd2                	mv	s11,s4
   1157a:	01b05f63          	blez	s11,11598 <_svfprintf_r+0xbd4>
   1157e:	45ae                	lw	a1,200(sp)
   11580:	966e                	add	a2,a2,s11
   11582:	0174a023          	sw	s7,0(s1)
   11586:	0585                	add	a1,a1,1
   11588:	01b4a223          	sw	s11,4(s1)
   1158c:	c7b2                	sw	a2,204(sp)
   1158e:	c5ae                	sw	a1,200(sp)
   11590:	479d                	li	a5,7
   11592:	04a1                	add	s1,s1,8
   11594:	5eb7c1e3          	blt	a5,a1,12376 <_svfprintf_r+0x19b2>
   11598:	fffdc693          	not	a3,s11
   1159c:	86fd                	sra	a3,a3,0x1f
   1159e:	00ddf7b3          	and	a5,s11,a3
   115a2:	40fa0a33          	sub	s4,s4,a5
   115a6:	df405c63          	blez	s4,10b9e <_svfprintf_r+0x1da>
   115aa:	46c1                	li	a3,16
   115ac:	47ae                	lw	a5,200(sp)
   115ae:	0146c463          	blt	a3,s4,115b6 <_svfprintf_r+0xbf2>
   115b2:	7b30006f          	j	12564 <_svfprintf_r+0x1ba0>
   115b6:	0000c697          	auipc	a3,0xc
   115ba:	16a68693          	add	a3,a3,362 # 1d720 <zeroes.0>
   115be:	4dc1                	li	s11,16
   115c0:	4b9d                	li	s7,7
   115c2:	8cb6                	mv	s9,a3
   115c4:	a021                	j	115cc <_svfprintf_r+0xc08>
   115c6:	1a41                	add	s4,s4,-16
   115c8:	614ddd63          	bge	s11,s4,11be2 <_svfprintf_r+0x121e>
   115cc:	0641                	add	a2,a2,16
   115ce:	0785                	add	a5,a5,1
   115d0:	0194a023          	sw	s9,0(s1)
   115d4:	01b4a223          	sw	s11,4(s1)
   115d8:	c7b2                	sw	a2,204(sp)
   115da:	c5be                	sw	a5,200(sp)
   115dc:	04a1                	add	s1,s1,8
   115de:	fefbd4e3          	bge	s7,a5,115c6 <_svfprintf_r+0xc02>
   115e2:	4592                	lw	a1,4(sp)
   115e4:	01d0                	add	a2,sp,196
   115e6:	8556                	mv	a0,s5
   115e8:	244030ef          	jal	1482c <__ssprint_r>
   115ec:	dc0517e3          	bnez	a0,113ba <_svfprintf_r+0x9f6>
   115f0:	463e                	lw	a2,204(sp)
   115f2:	47ae                	lw	a5,200(sp)
   115f4:	84ca                	mv	s1,s2
   115f6:	bfc1                	j	115c6 <_svfprintf_r+0xc02>
   115f8:	001b7793          	and	a5,s6,1
   115fc:	860790e3          	bnez	a5,10e5c <_svfprintf_r+0x498>
   11600:	c0d4                	sw	a3,4(s1)
   11602:	c7de                	sw	s7,204(sp)
   11604:	c5d2                	sw	s4,200(sp)
   11606:	479d                	li	a5,7
   11608:	8d47d2e3          	bge	a5,s4,10ecc <_svfprintf_r+0x508>
   1160c:	4592                	lw	a1,4(sp)
   1160e:	01d0                	add	a2,sp,196
   11610:	8556                	mv	a0,s5
   11612:	21a030ef          	jal	1482c <__ssprint_r>
   11616:	da0512e3          	bnez	a0,113ba <_svfprintf_r+0x9f6>
   1161a:	4bbe                	lw	s7,204(sp)
   1161c:	4a2e                	lw	s4,200(sp)
   1161e:	8dca                	mv	s11,s2
   11620:	b075                	j	10ecc <_svfprintf_r+0x508>
   11622:	4762                	lw	a4,24(sp)
   11624:	4785                	li	a5,1
   11626:	8ae7d3e3          	bge	a5,a4,10ecc <_svfprintf_r+0x508>
   1162a:	47c5                	li	a5,17
   1162c:	0000c697          	auipc	a3,0xc
   11630:	0f468693          	add	a3,a3,244 # 1d720 <zeroes.0>
   11634:	6ce7dd63          	bge	a5,a4,11d0e <_svfprintf_r+0x134a>
   11638:	ca4e                	sw	s3,20(sp)
   1163a:	47c1                	li	a5,16
   1163c:	4c9d                	li	s9,7
   1163e:	89b6                	mv	s3,a3
   11640:	a021                	j	11648 <_svfprintf_r+0xc84>
   11642:	14c1                	add	s1,s1,-16
   11644:	6c97d363          	bge	a5,s1,11d0a <_svfprintf_r+0x1346>
   11648:	0bc1                	add	s7,s7,16
   1164a:	0a05                	add	s4,s4,1
   1164c:	013da023          	sw	s3,0(s11)
   11650:	00fda223          	sw	a5,4(s11)
   11654:	c7de                	sw	s7,204(sp)
   11656:	c5d2                	sw	s4,200(sp)
   11658:	0da1                	add	s11,s11,8
   1165a:	ff4cd4e3          	bge	s9,s4,11642 <_svfprintf_r+0xc7e>
   1165e:	4592                	lw	a1,4(sp)
   11660:	01d0                	add	a2,sp,196
   11662:	8556                	mv	a0,s5
   11664:	1c8030ef          	jal	1482c <__ssprint_r>
   11668:	d40519e3          	bnez	a0,113ba <_svfprintf_r+0x9f6>
   1166c:	4bbe                	lw	s7,204(sp)
   1166e:	4a2e                	lw	s4,200(sp)
   11670:	8dca                	mv	s11,s2
   11672:	47c1                	li	a5,16
   11674:	b7f9                	j	11642 <_svfprintf_r+0xc7e>
   11676:	4742                	lw	a4,16(sp)
   11678:	010ff793          	and	a5,t6,16
   1167c:	00072d03          	lw	s10,0(a4)
   11680:	0711                	add	a4,a4,4
   11682:	c83a                	sw	a4,16(sp)
   11684:	e385                	bnez	a5,116a4 <_svfprintf_r+0xce0>
   11686:	040ff793          	and	a5,t6,64
   1168a:	cb81                	beqz	a5,1169a <_svfprintf_r+0xcd6>
   1168c:	0d42                	sll	s10,s10,0x10
   1168e:	010d5d13          	srl	s10,s10,0x10
   11692:	4d81                	li	s11,0
   11694:	4785                	li	a5,1
   11696:	e66ff06f          	j	10cfc <_svfprintf_r+0x338>
   1169a:	200ff793          	and	a5,t6,512
   1169e:	c399                	beqz	a5,116a4 <_svfprintf_r+0xce0>
   116a0:	0ffd7d13          	zext.b	s10,s10
   116a4:	4d81                	li	s11,0
   116a6:	4785                	li	a5,1
   116a8:	e54ff06f          	j	10cfc <_svfprintf_r+0x338>
   116ac:	4d81                	li	s11,0
   116ae:	19010c93          	add	s9,sp,400
   116b2:	e04ff06f          	j	10cb6 <_svfprintf_r+0x2f2>
   116b6:	4592                	lw	a1,4(sp)
   116b8:	01d0                	add	a2,sp,196
   116ba:	8556                	mv	a0,s5
   116bc:	170030ef          	jal	1482c <__ssprint_r>
   116c0:	ce051de3          	bnez	a0,113ba <_svfprintf_r+0x9f6>
   116c4:	4bbe                	lw	s7,204(sp)
   116c6:	4a2e                	lw	s4,200(sp)
   116c8:	8dca                	mv	s11,s2
   116ca:	fa0ff06f          	j	10e6a <_svfprintf_r+0x4a6>
   116ce:	4592                	lw	a1,4(sp)
   116d0:	01d0                	add	a2,sp,196
   116d2:	8556                	mv	a0,s5
   116d4:	158030ef          	jal	1482c <__ssprint_r>
   116d8:	ce0511e3          	bnez	a0,113ba <_svfprintf_r+0x9f6>
   116dc:	4bbe                	lw	s7,204(sp)
   116de:	4a2e                	lw	s4,200(sp)
   116e0:	8dca                	mv	s11,s2
   116e2:	fa4ff06f          	j	10e86 <_svfprintf_r+0x4c2>
   116e6:	001b7793          	and	a5,s6,1
   116ea:	ca078a63          	beqz	a5,10b9e <_svfprintf_r+0x1da>
   116ee:	bce1                	j	111c6 <_svfprintf_r+0x802>
   116f0:	0009c883          	lbu	a7,0(s3)
   116f4:	c83e                	sw	a5,16(sp)
   116f6:	bb8ff06f          	j	10aae <_svfprintf_r+0xea>
   116fa:	200b7793          	and	a5,s6,512
   116fe:	040793e3          	bnez	a5,11f44 <_svfprintf_r+0x1580>
   11702:	4d81                	li	s11,0
   11704:	df2ff06f          	j	10cf6 <_svfprintf_r+0x332>
   11708:	200b7793          	and	a5,s6,512
   1170c:	000799e3          	bnez	a5,11f1e <_svfprintf_r+0x155a>
   11710:	41fd5d93          	sra	s11,s10,0x1f
   11714:	87ee                	mv	a5,s11
   11716:	d70ff06f          	j	10c86 <_svfprintf_r+0x2c2>
   1171a:	57e2                	lw	a5,56(sp)
   1171c:	0009c883          	lbu	a7,0(s3)
   11720:	b8078763          	beqz	a5,10aae <_svfprintf_r+0xea>
   11724:	0007c783          	lbu	a5,0(a5)
   11728:	b8078363          	beqz	a5,10aae <_svfprintf_r+0xea>
   1172c:	400b6b13          	or	s6,s6,1024
   11730:	b7eff06f          	j	10aae <_svfprintf_r+0xea>
   11734:	010b7793          	and	a5,s6,16
   11738:	54079163          	bnez	a5,11c7a <_svfprintf_r+0x12b6>
   1173c:	040b7793          	and	a5,s6,64
   11740:	7e079763          	bnez	a5,11f2e <_svfprintf_r+0x156a>
   11744:	200b7e93          	and	t4,s6,512
   11748:	520e8963          	beqz	t4,11c7a <_svfprintf_r+0x12b6>
   1174c:	47c2                	lw	a5,16(sp)
   1174e:	4722                	lw	a4,8(sp)
   11750:	439c                	lw	a5,0(a5)
   11752:	00e78023          	sb	a4,0(a5)
   11756:	b2ed                	j	11140 <_svfprintf_r+0x77c>
   11758:	4742                	lw	a4,16(sp)
   1175a:	431c                	lw	a5,0(a4)
   1175c:	0711                	add	a4,a4,4
   1175e:	c83a                	sw	a4,16(sp)
   11760:	4390                	lw	a2,0(a5)
   11762:	43d4                	lw	a3,4(a5)
   11764:	4798                	lw	a4,8(a5)
   11766:	47dc                	lw	a5,12(a5)
   11768:	e1eff06f          	j	10d86 <_svfprintf_r+0x3c2>
   1176c:	8a3a                	mv	s4,a4
   1176e:	db4046e3          	bgtz	s4,1151a <_svfprintf_r+0xb56>
   11772:	b3c9                	j	11534 <_svfprintf_r+0xb70>
   11774:	5a7d                	li	s4,-1
   11776:	89b6                	mv	s3,a3
   11778:	b38ff06f          	j	10ab0 <_svfprintf_r+0xec>
   1177c:	d20a1563          	bnez	s4,10ca6 <_svfprintf_r+0x2e2>
   11780:	4d81                	li	s11,0
   11782:	8b7e                	mv	s6,t6
   11784:	19010c93          	add	s9,sp,400
   11788:	d2eff06f          	j	10cb6 <_svfprintf_r+0x2f2>
   1178c:	8fda                	mv	t6,s6
   1178e:	b281                	j	110ce <_svfprintf_r+0x70a>
   11790:	0000c797          	auipc	a5,0xc
   11794:	d5c78793          	add	a5,a5,-676 # 1d4ec <__clzsi2+0xb0>
   11798:	d83e                	sw	a5,48(sp)
   1179a:	020b7793          	and	a5,s6,32
   1179e:	28078b63          	beqz	a5,11a34 <_svfprintf_r+0x1070>
   117a2:	47c2                	lw	a5,16(sp)
   117a4:	00778b93          	add	s7,a5,7
   117a8:	ff8bfb93          	and	s7,s7,-8
   117ac:	000bad03          	lw	s10,0(s7)
   117b0:	004bad83          	lw	s11,4(s7)
   117b4:	008b8793          	add	a5,s7,8
   117b8:	c83e                	sw	a5,16(sp)
   117ba:	001b7793          	and	a5,s6,1
   117be:	cf81                	beqz	a5,117d6 <_svfprintf_r+0xe12>
   117c0:	01bd67b3          	or	a5,s10,s11
   117c4:	cb89                	beqz	a5,117d6 <_svfprintf_r+0xe12>
   117c6:	03000793          	li	a5,48
   117ca:	0af10423          	sb	a5,168(sp)
   117ce:	0b1104a3          	sb	a7,169(sp)
   117d2:	002b6b13          	or	s6,s6,2
   117d6:	bffb7f93          	and	t6,s6,-1025
   117da:	4789                	li	a5,2
   117dc:	d20ff06f          	j	10cfc <_svfprintf_r+0x338>
   117e0:	4592                	lw	a1,4(sp)
   117e2:	01d0                	add	a2,sp,196
   117e4:	8556                	mv	a0,s5
   117e6:	046030ef          	jal	1482c <__ssprint_r>
   117ea:	bc0518e3          	bnez	a0,113ba <_svfprintf_r+0x9f6>
   117ee:	463e                	lw	a2,204(sp)
   117f0:	84ca                	mv	s1,s2
   117f2:	b2fd                	j	111e0 <_svfprintf_r+0x81c>
   117f4:	0019c883          	lbu	a7,1(s3)
   117f8:	200b6b13          	or	s6,s6,512
   117fc:	0985                	add	s3,s3,1
   117fe:	ab0ff06f          	j	10aae <_svfprintf_r+0xea>
   11802:	0000c797          	auipc	a5,0xc
   11806:	cd678793          	add	a5,a5,-810 # 1d4d8 <__clzsi2+0x9c>
   1180a:	d83e                	sw	a5,48(sp)
   1180c:	b779                	j	1179a <_svfprintf_r+0xdd6>
   1180e:	0019c883          	lbu	a7,1(s3)
   11812:	020b6b13          	or	s6,s6,32
   11816:	0985                	add	s3,s3,1
   11818:	a96ff06f          	j	10aae <_svfprintf_r+0xea>
   1181c:	5512                	lw	a0,36(sp)
   1181e:	04000593          	li	a1,64
   11822:	37c010ef          	jal	12b9e <_malloc_r>
   11826:	4792                	lw	a5,4(sp)
   11828:	4322                	lw	t1,8(sp)
   1182a:	c388                	sw	a0,0(a5)
   1182c:	cb88                	sw	a0,16(a5)
   1182e:	44050ce3          	beqz	a0,12486 <_svfprintf_r+0x1ac2>
   11832:	4792                	lw	a5,4(sp)
   11834:	1c912223          	sw	s1,452(sp)
   11838:	1d212023          	sw	s2,448(sp)
   1183c:	1b312e23          	sw	s3,444(sp)
   11840:	1b412c23          	sw	s4,440(sp)
   11844:	1b512a23          	sw	s5,436(sp)
   11848:	1b612823          	sw	s6,432(sp)
   1184c:	1b712623          	sw	s7,428(sp)
   11850:	1b812423          	sw	s8,424(sp)
   11854:	1b912223          	sw	s9,420(sp)
   11858:	1ba12023          	sw	s10,416(sp)
   1185c:	19b12e23          	sw	s11,412(sp)
   11860:	04000713          	li	a4,64
   11864:	cbd8                	sw	a4,20(a5)
   11866:	9c8ff06f          	j	10a2e <_svfprintf_r+0x6a>
   1186a:	8566                	mv	a0,s9
   1186c:	da46                	sw	a7,52(sp)
   1186e:	75b020ef          	jal	147c8 <strlen>
   11872:	0a714783          	lbu	a5,167(sp)
   11876:	fff54713          	not	a4,a0
   1187a:	877d                	sra	a4,a4,0x1f
   1187c:	c85e                	sw	s7,16(sp)
   1187e:	c602                	sw	zero,12(sp)
   11880:	d002                	sw	zero,32(sp)
   11882:	ce02                	sw	zero,28(sp)
   11884:	ca02                	sw	zero,20(sp)
   11886:	58d2                	lw	a7,52(sp)
   11888:	8daa                	mv	s11,a0
   1188a:	00e57d33          	and	s10,a0,a4
   1188e:	4a01                	li	s4,0
   11890:	c2079f63          	bnez	a5,10cce <_svfprintf_r+0x30a>
   11894:	a7cff06f          	j	10b10 <_svfprintf_r+0x14c>
   11898:	46c1                	li	a3,16
   1189a:	47ae                	lw	a5,200(sp)
   1189c:	4d46dfe3          	bge	a3,s4,1257a <_svfprintf_r+0x1bb6>
   118a0:	0000c697          	auipc	a3,0xc
   118a4:	e8068693          	add	a3,a3,-384 # 1d720 <zeroes.0>
   118a8:	8726                	mv	a4,s1
   118aa:	4dc1                	li	s11,16
   118ac:	4b9d                	li	s7,7
   118ae:	84b6                	mv	s1,a3
   118b0:	a021                	j	118b8 <_svfprintf_r+0xef4>
   118b2:	1a41                	add	s4,s4,-16
   118b4:	494dd763          	bge	s11,s4,11d42 <_svfprintf_r+0x137e>
   118b8:	0641                	add	a2,a2,16
   118ba:	0785                	add	a5,a5,1
   118bc:	c304                	sw	s1,0(a4)
   118be:	01b72223          	sw	s11,4(a4)
   118c2:	c7b2                	sw	a2,204(sp)
   118c4:	c5be                	sw	a5,200(sp)
   118c6:	0721                	add	a4,a4,8
   118c8:	fefbd5e3          	bge	s7,a5,118b2 <_svfprintf_r+0xeee>
   118cc:	4592                	lw	a1,4(sp)
   118ce:	01d0                	add	a2,sp,196
   118d0:	8556                	mv	a0,s5
   118d2:	75b020ef          	jal	1482c <__ssprint_r>
   118d6:	ae0512e3          	bnez	a0,113ba <_svfprintf_r+0x9f6>
   118da:	463e                	lw	a2,204(sp)
   118dc:	47ae                	lw	a5,200(sp)
   118de:	874a                	mv	a4,s2
   118e0:	bfc9                	j	118b2 <_svfprintf_r+0xeee>
   118e2:	47e2                	lw	a5,24(sp)
   118e4:	4df2                	lw	s11,28(sp)
   118e6:	da4e                	sw	s3,52(sp)
   118e8:	00fc8733          	add	a4,s9,a5
   118ec:	c4da                	sw	s6,72(sp)
   118ee:	c6e2                	sw	s8,76(sp)
   118f0:	ce6a                	sw	s10,28(sp)
   118f2:	5d02                	lw	s10,32(sp)
   118f4:	d066                	sw	s9,32(sp)
   118f6:	4c16                	lw	s8,68(sp)
   118f8:	8cde                	mv	s9,s7
   118fa:	4992                	lw	s3,4(sp)
   118fc:	5be2                	lw	s7,56(sp)
   118fe:	469d                	li	a3,7
   11900:	47c1                	li	a5,16
   11902:	0000ca17          	auipc	s4,0xc
   11906:	e1ea0a13          	add	s4,s4,-482 # 1d720 <zeroes.0>
   1190a:	8526                	mv	a0,s1
   1190c:	8b3a                	mv	s6,a4
   1190e:	07b05463          	blez	s11,11976 <_svfprintf_r+0xfb2>
   11912:	0fa05663          	blez	s10,119fe <_svfprintf_r+0x103a>
   11916:	1d7d                	add	s10,s10,-1
   11918:	4706                	lw	a4,64(sp)
   1191a:	9662                	add	a2,a2,s8
   1191c:	01852223          	sw	s8,4(a0) # 1e004 <__init_array_start>
   11920:	c118                	sw	a4,0(a0)
   11922:	472e                	lw	a4,200(sp)
   11924:	c7b2                	sw	a2,204(sp)
   11926:	0521                	add	a0,a0,8
   11928:	0705                	add	a4,a4,1
   1192a:	c5ba                	sw	a4,200(sp)
   1192c:	12e6c463          	blt	a3,a4,11a54 <_svfprintf_r+0x1090>
   11930:	000bc583          	lbu	a1,0(s7)
   11934:	419b04b3          	sub	s1,s6,s9
   11938:	0095d363          	bge	a1,s1,1193e <_svfprintf_r+0xf7a>
   1193c:	84ae                	mv	s1,a1
   1193e:	00905f63          	blez	s1,1195c <_svfprintf_r+0xf98>
   11942:	45ae                	lw	a1,200(sp)
   11944:	9626                	add	a2,a2,s1
   11946:	01952023          	sw	s9,0(a0)
   1194a:	0585                	add	a1,a1,1
   1194c:	c144                	sw	s1,4(a0)
   1194e:	c7b2                	sw	a2,204(sp)
   11950:	c5ae                	sw	a1,200(sp)
   11952:	2ab6c763          	blt	a3,a1,11c00 <_svfprintf_r+0x123c>
   11956:	000bc583          	lbu	a1,0(s7)
   1195a:	0521                	add	a0,a0,8
   1195c:	fff4ce93          	not	t4,s1
   11960:	41fede93          	sra	t4,t4,0x1f
   11964:	01d4f733          	and	a4,s1,t4
   11968:	40e584b3          	sub	s1,a1,a4
   1196c:	02904563          	bgtz	s1,11996 <_svfprintf_r+0xfd2>
   11970:	9cae                	add	s9,s9,a1
   11972:	fbb040e3          	bgtz	s11,11912 <_svfprintf_r+0xf4e>
   11976:	fba040e3          	bgtz	s10,11916 <_svfprintf_r+0xf52>
   1197a:	47e2                	lw	a5,24(sp)
   1197c:	dc5e                	sw	s7,56(sp)
   1197e:	8be6                	mv	s7,s9
   11980:	5c82                	lw	s9,32(sp)
   11982:	59d2                	lw	s3,52(sp)
   11984:	4b26                	lw	s6,72(sp)
   11986:	97e6                	add	a5,a5,s9
   11988:	4c36                	lw	s8,76(sp)
   1198a:	4d72                	lw	s10,28(sp)
   1198c:	84aa                	mv	s1,a0
   1198e:	bd77f4e3          	bgeu	a5,s7,11556 <_svfprintf_r+0xb92>
   11992:	8bbe                	mv	s7,a5
   11994:	b6c9                	j	11556 <_svfprintf_r+0xb92>
   11996:	45ae                	lw	a1,200(sp)
   11998:	0000ce97          	auipc	t4,0xc
   1199c:	d88e8e93          	add	t4,t4,-632 # 1d720 <zeroes.0>
   119a0:	0497d163          	bge	a5,s1,119e2 <_svfprintf_r+0x101e>
   119a4:	ca52                	sw	s4,20(sp)
   119a6:	a021                	j	119ae <_svfprintf_r+0xfea>
   119a8:	14c1                	add	s1,s1,-16
   119aa:	0297db63          	bge	a5,s1,119e0 <_svfprintf_r+0x101c>
   119ae:	0641                	add	a2,a2,16
   119b0:	0585                	add	a1,a1,1
   119b2:	01452023          	sw	s4,0(a0)
   119b6:	c15c                	sw	a5,4(a0)
   119b8:	c7b2                	sw	a2,204(sp)
   119ba:	c5ae                	sw	a1,200(sp)
   119bc:	0521                	add	a0,a0,8
   119be:	feb6d5e3          	bge	a3,a1,119a8 <_svfprintf_r+0xfe4>
   119c2:	01d0                	add	a2,sp,196
   119c4:	85ce                	mv	a1,s3
   119c6:	8556                	mv	a0,s5
   119c8:	665020ef          	jal	1482c <__ssprint_r>
   119cc:	9e0517e3          	bnez	a0,113ba <_svfprintf_r+0x9f6>
   119d0:	47c1                	li	a5,16
   119d2:	14c1                	add	s1,s1,-16
   119d4:	463e                	lw	a2,204(sp)
   119d6:	45ae                	lw	a1,200(sp)
   119d8:	854a                	mv	a0,s2
   119da:	469d                	li	a3,7
   119dc:	fc97c9e3          	blt	a5,s1,119ae <_svfprintf_r+0xfea>
   119e0:	4ed2                	lw	t4,20(sp)
   119e2:	9626                	add	a2,a2,s1
   119e4:	0585                	add	a1,a1,1
   119e6:	01d52023          	sw	t4,0(a0)
   119ea:	c144                	sw	s1,4(a0)
   119ec:	c7b2                	sw	a2,204(sp)
   119ee:	c5ae                	sw	a1,200(sp)
   119f0:	0eb6cce3          	blt	a3,a1,122e8 <_svfprintf_r+0x1924>
   119f4:	000bc583          	lbu	a1,0(s7)
   119f8:	0521                	add	a0,a0,8
   119fa:	9cae                	add	s9,s9,a1
   119fc:	bf9d                	j	11972 <_svfprintf_r+0xfae>
   119fe:	1bfd                	add	s7,s7,-1
   11a00:	1dfd                	add	s11,s11,-1
   11a02:	bf19                	j	11918 <_svfprintf_r+0xf54>
   11a04:	57b2                	lw	a5,44(sp)
   11a06:	5722                	lw	a4,40(sp)
   11a08:	459d                	li	a1,7
   11a0a:	c09c                	sw	a5,0(s1)
   11a0c:	47ae                	lw	a5,200(sp)
   11a0e:	963a                	add	a2,a2,a4
   11a10:	c0d8                	sw	a4,4(s1)
   11a12:	0785                	add	a5,a5,1
   11a14:	c7b2                	sw	a2,204(sp)
   11a16:	c5be                	sw	a5,200(sp)
   11a18:	04a1                	add	s1,s1,8
   11a1a:	b4f5d6e3          	bge	a1,a5,11566 <_svfprintf_r+0xba2>
   11a1e:	4592                	lw	a1,4(sp)
   11a20:	01d0                	add	a2,sp,196
   11a22:	8556                	mv	a0,s5
   11a24:	609020ef          	jal	1482c <__ssprint_r>
   11a28:	980519e3          	bnez	a0,113ba <_svfprintf_r+0x9f6>
   11a2c:	56ba                	lw	a3,172(sp)
   11a2e:	463e                	lw	a2,204(sp)
   11a30:	84ca                	mv	s1,s2
   11a32:	be15                	j	11566 <_svfprintf_r+0xba2>
   11a34:	4742                	lw	a4,16(sp)
   11a36:	010b7793          	and	a5,s6,16
   11a3a:	00072d03          	lw	s10,0(a4)
   11a3e:	0711                	add	a4,a4,4
   11a40:	c83a                	sw	a4,16(sp)
   11a42:	eb8d                	bnez	a5,11a74 <_svfprintf_r+0x10b0>
   11a44:	040b7793          	and	a5,s6,64
   11a48:	c395                	beqz	a5,11a6c <_svfprintf_r+0x10a8>
   11a4a:	0d42                	sll	s10,s10,0x10
   11a4c:	010d5d13          	srl	s10,s10,0x10
   11a50:	4d81                	li	s11,0
   11a52:	b3a5                	j	117ba <_svfprintf_r+0xdf6>
   11a54:	01d0                	add	a2,sp,196
   11a56:	85ce                	mv	a1,s3
   11a58:	8556                	mv	a0,s5
   11a5a:	5d3020ef          	jal	1482c <__ssprint_r>
   11a5e:	94051ee3          	bnez	a0,113ba <_svfprintf_r+0x9f6>
   11a62:	463e                	lw	a2,204(sp)
   11a64:	854a                	mv	a0,s2
   11a66:	47c1                	li	a5,16
   11a68:	469d                	li	a3,7
   11a6a:	b5d9                	j	11930 <_svfprintf_r+0xf6c>
   11a6c:	200b7793          	and	a5,s6,512
   11a70:	4c079663          	bnez	a5,11f3c <_svfprintf_r+0x1578>
   11a74:	4d81                	li	s11,0
   11a76:	b391                	j	117ba <_svfprintf_r+0xdf6>
   11a78:	ccccd837          	lui	a6,0xccccd
   11a7c:	ccccdbb7          	lui	s7,0xccccd
   11a80:	5762                	lw	a4,56(sp)
   11a82:	400fff13          	and	t5,t6,1024
   11a86:	4581                	li	a1,0
   11a88:	0b10                	add	a2,sp,400
   11a8a:	4e95                	li	t4,5
   11a8c:	ccd80813          	add	a6,a6,-819 # cccccccd <__BSS_END__+0xcccae1a9>
   11a90:	cccb8b93          	add	s7,s7,-820 # cccccccc <__BSS_END__+0xcccae1a8>
   11a94:	0ff00b13          	li	s6,255
   11a98:	a081                	j	11ad8 <_svfprintf_r+0x1114>
   11a9a:	01acb7b3          	sltu	a5,s9,s10
   11a9e:	97e6                	add	a5,a5,s9
   11aa0:	03d7f7b3          	remu	a5,a5,t4
   11aa4:	40fd07b3          	sub	a5,s10,a5
   11aa8:	00fd3633          	sltu	a2,s10,a5
   11aac:	40cd8633          	sub	a2,s11,a2
   11ab0:	03778333          	mul	t1,a5,s7
   11ab4:	03060633          	mul	a2,a2,a6
   11ab8:	0307b533          	mulhu	a0,a5,a6
   11abc:	961a                	add	a2,a2,t1
   11abe:	030787b3          	mul	a5,a5,a6
   11ac2:	962a                	add	a2,a2,a0
   11ac4:	01f61513          	sll	a0,a2,0x1f
   11ac8:	8205                	srl	a2,a2,0x1
   11aca:	8385                	srl	a5,a5,0x1
   11acc:	8fc9                	or	a5,a5,a0
   11ace:	000d88e3          	beqz	s11,122de <_svfprintf_r+0x191a>
   11ad2:	8db2                	mv	s11,a2
   11ad4:	8d3e                	mv	s10,a5
   11ad6:	8636                	mv	a2,a3
   11ad8:	01bd0cb3          	add	s9,s10,s11
   11adc:	01acb7b3          	sltu	a5,s9,s10
   11ae0:	97e6                	add	a5,a5,s9
   11ae2:	03d7f7b3          	remu	a5,a5,t4
   11ae6:	fff60693          	add	a3,a2,-1
   11aea:	0585                	add	a1,a1,1
   11aec:	40fd07b3          	sub	a5,s10,a5
   11af0:	00fd3533          	sltu	a0,s10,a5
   11af4:	40ad8533          	sub	a0,s11,a0
   11af8:	0307b333          	mulhu	t1,a5,a6
   11afc:	03050533          	mul	a0,a0,a6
   11b00:	030787b3          	mul	a5,a5,a6
   11b04:	951a                	add	a0,a0,t1
   11b06:	057e                	sll	a0,a0,0x1f
   11b08:	8385                	srl	a5,a5,0x1
   11b0a:	8fc9                	or	a5,a5,a0
   11b0c:	00279513          	sll	a0,a5,0x2
   11b10:	97aa                	add	a5,a5,a0
   11b12:	0786                	sll	a5,a5,0x1
   11b14:	40fd07b3          	sub	a5,s10,a5
   11b18:	03078793          	add	a5,a5,48
   11b1c:	fef60fa3          	sb	a5,-1(a2)
   11b20:	f60f0de3          	beqz	t5,11a9a <_svfprintf_r+0x10d6>
   11b24:	00074783          	lbu	a5,0(a4)
   11b28:	f6f599e3          	bne	a1,a5,11a9a <_svfprintf_r+0x10d6>
   11b2c:	f76587e3          	beq	a1,s6,11a9a <_svfprintf_r+0x10d6>
   11b30:	240d9163          	bnez	s11,11d72 <_svfprintf_r+0x13ae>
   11b34:	47a5                	li	a5,9
   11b36:	23a7ee63          	bltu	a5,s10,11d72 <_svfprintf_r+0x13ae>
   11b3a:	8cb6                	mv	s9,a3
   11b3c:	0b1c                	add	a5,sp,400
   11b3e:	dc3a                	sw	a4,56(sp)
   11b40:	cc2e                	sw	a1,24(sp)
   11b42:	41978db3          	sub	s11,a5,s9
   11b46:	8b7e                	mv	s6,t6
   11b48:	96eff06f          	j	10cb6 <_svfprintf_r+0x2f2>
   11b4c:	47ae                	lw	a5,200(sp)
   11b4e:	0000c597          	auipc	a1,0xc
   11b52:	9ba58593          	add	a1,a1,-1606 # 1d508 <__clzsi2+0xcc>
   11b56:	c08c                	sw	a1,0(s1)
   11b58:	0605                	add	a2,a2,1
   11b5a:	4585                	li	a1,1
   11b5c:	0785                	add	a5,a5,1
   11b5e:	c0cc                	sw	a1,4(s1)
   11b60:	c7b2                	sw	a2,204(sp)
   11b62:	c5be                	sw	a5,200(sp)
   11b64:	459d                	li	a1,7
   11b66:	04a1                	add	s1,s1,8
   11b68:	04f5c763          	blt	a1,a5,11bb6 <_svfprintf_r+0x11f2>
   11b6c:	12069963          	bnez	a3,11c9e <_svfprintf_r+0x12da>
   11b70:	4762                	lw	a4,24(sp)
   11b72:	001b7793          	and	a5,s6,1
   11b76:	8fd9                	or	a5,a5,a4
   11b78:	e399                	bnez	a5,11b7e <_svfprintf_r+0x11ba>
   11b7a:	824ff06f          	j	10b9e <_svfprintf_r+0x1da>
   11b7e:	57b2                	lw	a5,44(sp)
   11b80:	5722                	lw	a4,40(sp)
   11b82:	469d                	li	a3,7
   11b84:	c09c                	sw	a5,0(s1)
   11b86:	47ae                	lw	a5,200(sp)
   11b88:	963a                	add	a2,a2,a4
   11b8a:	c0d8                	sw	a4,4(s1)
   11b8c:	0785                	add	a5,a5,1
   11b8e:	c7b2                	sw	a2,204(sp)
   11b90:	c5be                	sw	a5,200(sp)
   11b92:	3cf6c863          	blt	a3,a5,11f62 <_svfprintf_r+0x159e>
   11b96:	04a1                	add	s1,s1,8
   11b98:	4762                	lw	a4,24(sp)
   11b9a:	0785                	add	a5,a5,1
   11b9c:	0194a023          	sw	s9,0(s1)
   11ba0:	963a                	add	a2,a2,a4
   11ba2:	c0d8                	sw	a4,4(s1)
   11ba4:	c7b2                	sw	a2,204(sp)
   11ba6:	c5be                	sw	a5,200(sp)
   11ba8:	469d                	li	a3,7
   11baa:	00f6c463          	blt	a3,a5,11bb2 <_svfprintf_r+0x11ee>
   11bae:	feffe06f          	j	10b9c <_svfprintf_r+0x1d8>
   11bb2:	b3cff06f          	j	10eee <_svfprintf_r+0x52a>
   11bb6:	4592                	lw	a1,4(sp)
   11bb8:	01d0                	add	a2,sp,196
   11bba:	8556                	mv	a0,s5
   11bbc:	471020ef          	jal	1482c <__ssprint_r>
   11bc0:	fe051d63          	bnez	a0,113ba <_svfprintf_r+0x9f6>
   11bc4:	56ba                	lw	a3,172(sp)
   11bc6:	463e                	lw	a2,204(sp)
   11bc8:	84ca                	mv	s1,s2
   11bca:	b74d                	j	11b6c <_svfprintf_r+0x11a8>
   11bcc:	4592                	lw	a1,4(sp)
   11bce:	01d0                	add	a2,sp,196
   11bd0:	8556                	mv	a0,s5
   11bd2:	45b020ef          	jal	1482c <__ssprint_r>
   11bd6:	fe051263          	bnez	a0,113ba <_svfprintf_r+0x9f6>
   11bda:	463e                	lw	a2,204(sp)
   11bdc:	84ca                	mv	s1,s2
   11bde:	de0ff06f          	j	111be <_svfprintf_r+0x7fa>
   11be2:	86e6                	mv	a3,s9
   11be4:	c094                	sw	a3,0(s1)
   11be6:	0144a223          	sw	s4,4(s1)
   11bea:	9652                	add	a2,a2,s4
   11bec:	0785                	add	a5,a5,1
   11bee:	c7b2                	sw	a2,204(sp)
   11bf0:	c5be                	sw	a5,200(sp)
   11bf2:	469d                	li	a3,7
   11bf4:	00f6c463          	blt	a3,a5,11bfc <_svfprintf_r+0x1238>
   11bf8:	fa5fe06f          	j	10b9c <_svfprintf_r+0x1d8>
   11bfc:	af2ff06f          	j	10eee <_svfprintf_r+0x52a>
   11c00:	01d0                	add	a2,sp,196
   11c02:	85ce                	mv	a1,s3
   11c04:	8556                	mv	a0,s5
   11c06:	427020ef          	jal	1482c <__ssprint_r>
   11c0a:	fa051863          	bnez	a0,113ba <_svfprintf_r+0x9f6>
   11c0e:	000bc583          	lbu	a1,0(s7)
   11c12:	463e                	lw	a2,204(sp)
   11c14:	854a                	mv	a0,s2
   11c16:	47c1                	li	a5,16
   11c18:	469d                	li	a3,7
   11c1a:	b389                	j	1195c <_svfprintf_r+0xf98>
   11c1c:	47ce                	lw	a5,208(sp)
   11c1e:	010c                	add	a1,sp,128
   11c20:	0908                	add	a0,sp,144
   11c22:	c93e                	sw	a5,144(sp)
   11c24:	47de                	lw	a5,212(sp)
   11c26:	c102                	sw	zero,128(sp)
   11c28:	c302                	sw	zero,132(sp)
   11c2a:	cb3e                	sw	a5,148(sp)
   11c2c:	47ee                	lw	a5,216(sp)
   11c2e:	c502                	sw	zero,136(sp)
   11c30:	c702                	sw	zero,140(sp)
   11c32:	cd3e                	sw	a5,152(sp)
   11c34:	47fe                	lw	a5,220(sp)
   11c36:	cf3e                	sw	a5,156(sp)
   11c38:	53a090ef          	jal	1b172 <__letf2>
   11c3c:	48b2                	lw	a7,12(sp)
   11c3e:	70054563          	bltz	a0,12348 <_svfprintf_r+0x1984>
   11c42:	0a714783          	lbu	a5,167(sp)
   11c46:	04700713          	li	a4,71
   11c4a:	0000cc97          	auipc	s9,0xc
   11c4e:	882c8c93          	add	s9,s9,-1918 # 1d4cc <__clzsi2+0x90>
   11c52:	01174663          	blt	a4,a7,11c5e <_svfprintf_r+0x129a>
   11c56:	0000cc97          	auipc	s9,0xc
   11c5a:	872c8c93          	add	s9,s9,-1934 # 1d4c8 <__clzsi2+0x8c>
   11c5e:	c602                	sw	zero,12(sp)
   11c60:	d002                	sw	zero,32(sp)
   11c62:	ce02                	sw	zero,28(sp)
   11c64:	ca02                	sw	zero,20(sp)
   11c66:	f7fb7b13          	and	s6,s6,-129
   11c6a:	4d0d                	li	s10,3
   11c6c:	4d8d                	li	s11,3
   11c6e:	4a01                	li	s4,0
   11c70:	c399                	beqz	a5,11c76 <_svfprintf_r+0x12b2>
   11c72:	85cff06f          	j	10cce <_svfprintf_r+0x30a>
   11c76:	e9bfe06f          	j	10b10 <_svfprintf_r+0x14c>
   11c7a:	47c2                	lw	a5,16(sp)
   11c7c:	4722                	lw	a4,8(sp)
   11c7e:	439c                	lw	a5,0(a5)
   11c80:	c398                	sw	a4,0(a5)
   11c82:	cbeff06f          	j	11140 <_svfprintf_r+0x77c>
   11c86:	4799                	li	a5,6
   11c88:	8dd2                	mv	s11,s4
   11c8a:	1747ed63          	bltu	a5,s4,11e04 <_svfprintf_r+0x1440>
   11c8e:	8d6e                	mv	s10,s11
   11c90:	c85e                	sw	s7,16(sp)
   11c92:	0000cc97          	auipc	s9,0xc
   11c96:	86ec8c93          	add	s9,s9,-1938 # 1d500 <__clzsi2+0xc4>
   11c9a:	e6dfe06f          	j	10b06 <_svfprintf_r+0x142>
   11c9e:	57b2                	lw	a5,44(sp)
   11ca0:	5722                	lw	a4,40(sp)
   11ca2:	459d                	li	a1,7
   11ca4:	c09c                	sw	a5,0(s1)
   11ca6:	47ae                	lw	a5,200(sp)
   11ca8:	963a                	add	a2,a2,a4
   11caa:	c0d8                	sw	a4,4(s1)
   11cac:	0785                	add	a5,a5,1
   11cae:	c7b2                	sw	a2,204(sp)
   11cb0:	c5be                	sw	a5,200(sp)
   11cb2:	04a1                	add	s1,s1,8
   11cb4:	2af5c763          	blt	a1,a5,11f62 <_svfprintf_r+0x159e>
   11cb8:	ee06d0e3          	bgez	a3,11b98 <_svfprintf_r+0x11d4>
   11cbc:	55c1                	li	a1,-16
   11cbe:	40d00a33          	neg	s4,a3
   11cc2:	12b6d5e3          	bge	a3,a1,125ec <_svfprintf_r+0x1c28>
   11cc6:	0000c697          	auipc	a3,0xc
   11cca:	a5a68693          	add	a3,a3,-1446 # 1d720 <zeroes.0>
   11cce:	ca4e                	sw	s3,20(sp)
   11cd0:	4dc1                	li	s11,16
   11cd2:	4b9d                	li	s7,7
   11cd4:	89b6                	mv	s3,a3
   11cd6:	a021                	j	11cde <_svfprintf_r+0x131a>
   11cd8:	1a41                	add	s4,s4,-16
   11cda:	7b4ddd63          	bge	s11,s4,12494 <_svfprintf_r+0x1ad0>
   11cde:	0641                	add	a2,a2,16
   11ce0:	0785                	add	a5,a5,1
   11ce2:	0134a023          	sw	s3,0(s1)
   11ce6:	01b4a223          	sw	s11,4(s1)
   11cea:	c7b2                	sw	a2,204(sp)
   11cec:	c5be                	sw	a5,200(sp)
   11cee:	04a1                	add	s1,s1,8
   11cf0:	fefbd4e3          	bge	s7,a5,11cd8 <_svfprintf_r+0x1314>
   11cf4:	4592                	lw	a1,4(sp)
   11cf6:	01d0                	add	a2,sp,196
   11cf8:	8556                	mv	a0,s5
   11cfa:	333020ef          	jal	1482c <__ssprint_r>
   11cfe:	ea051e63          	bnez	a0,113ba <_svfprintf_r+0x9f6>
   11d02:	463e                	lw	a2,204(sp)
   11d04:	47ae                	lw	a5,200(sp)
   11d06:	84ca                	mv	s1,s2
   11d08:	bfc1                	j	11cd8 <_svfprintf_r+0x1314>
   11d0a:	86ce                	mv	a3,s3
   11d0c:	49d2                	lw	s3,20(sp)
   11d0e:	9ba6                	add	s7,s7,s1
   11d10:	0a05                	add	s4,s4,1
   11d12:	00dda023          	sw	a3,0(s11)
   11d16:	9a6ff06f          	j	10ebc <_svfprintf_r+0x4f8>
   11d1a:	47fe                	lw	a5,220(sp)
   11d1c:	2407d063          	bgez	a5,11f5c <_svfprintf_r+0x1598>
   11d20:	02d00793          	li	a5,45
   11d24:	0af103a3          	sb	a5,167(sp)
   11d28:	04700713          	li	a4,71
   11d2c:	0000bc97          	auipc	s9,0xb
   11d30:	7a8c8c93          	add	s9,s9,1960 # 1d4d4 <__clzsi2+0x98>
   11d34:	f31745e3          	blt	a4,a7,11c5e <_svfprintf_r+0x129a>
   11d38:	0000bc97          	auipc	s9,0xb
   11d3c:	798c8c93          	add	s9,s9,1944 # 1d4d0 <__clzsi2+0x94>
   11d40:	bf39                	j	11c5e <_svfprintf_r+0x129a>
   11d42:	86a6                	mv	a3,s1
   11d44:	84ba                	mv	s1,a4
   11d46:	9652                	add	a2,a2,s4
   11d48:	0785                	add	a5,a5,1
   11d4a:	c094                	sw	a3,0(s1)
   11d4c:	0144a223          	sw	s4,4(s1)
   11d50:	c7b2                	sw	a2,204(sp)
   11d52:	c5be                	sw	a5,200(sp)
   11d54:	469d                	li	a3,7
   11d56:	04a1                	add	s1,s1,8
   11d58:	fef6d863          	bge	a3,a5,11548 <_svfprintf_r+0xb84>
   11d5c:	4592                	lw	a1,4(sp)
   11d5e:	01d0                	add	a2,sp,196
   11d60:	8556                	mv	a0,s5
   11d62:	2cb020ef          	jal	1482c <__ssprint_r>
   11d66:	e4051a63          	bnez	a0,113ba <_svfprintf_r+0x9f6>
   11d6a:	463e                	lw	a2,204(sp)
   11d6c:	84ca                	mv	s1,s2
   11d6e:	fdaff06f          	j	11548 <_svfprintf_r+0xb84>
   11d72:	4796                	lw	a5,68(sp)
   11d74:	4586                	lw	a1,64(sp)
   11d76:	da42                	sw	a6,52(sp)
   11d78:	8e9d                	sub	a3,a3,a5
   11d7a:	863e                	mv	a2,a5
   11d7c:	8536                	mv	a0,a3
   11d7e:	d07a                	sw	t5,32(sp)
   11d80:	ce7e                	sw	t6,28(sp)
   11d82:	cc46                	sw	a7,24(sp)
   11d84:	ca3a                	sw	a4,20(sp)
   11d86:	c636                	sw	a3,12(sp)
   11d88:	771030ef          	jal	15cf8 <strncpy>
   11d8c:	01acb7b3          	sltu	a5,s9,s10
   11d90:	4615                	li	a2,5
   11d92:	97e6                	add	a5,a5,s9
   11d94:	02c7f7b3          	remu	a5,a5,a2
   11d98:	4752                	lw	a4,20(sp)
   11d9a:	ccccd337          	lui	t1,0xccccd
   11d9e:	ccccd537          	lui	a0,0xccccd
   11da2:	00174603          	lbu	a2,1(a4)
   11da6:	ccd30313          	add	t1,t1,-819 # cccccccd <__BSS_END__+0xcccae1a9>
   11daa:	ccc50513          	add	a0,a0,-820 # cccccccc <__BSS_END__+0xcccae1a8>
   11dae:	00c03633          	snez	a2,a2
   11db2:	9732                	add	a4,a4,a2
   11db4:	46b2                	lw	a3,12(sp)
   11db6:	48e2                	lw	a7,24(sp)
   11db8:	4ff2                	lw	t6,28(sp)
   11dba:	5f02                	lw	t5,32(sp)
   11dbc:	5852                	lw	a6,52(sp)
   11dbe:	4581                	li	a1,0
   11dc0:	4e95                	li	t4,5
   11dc2:	40fd07b3          	sub	a5,s10,a5
   11dc6:	00fd3633          	sltu	a2,s10,a5
   11dca:	40cd8633          	sub	a2,s11,a2
   11dce:	02a78533          	mul	a0,a5,a0
   11dd2:	02660633          	mul	a2,a2,t1
   11dd6:	0267be33          	mulhu	t3,a5,t1
   11dda:	962a                	add	a2,a2,a0
   11ddc:	02678533          	mul	a0,a5,t1
   11de0:	9672                	add	a2,a2,t3
   11de2:	01f61793          	sll	a5,a2,0x1f
   11de6:	8205                	srl	a2,a2,0x1
   11de8:	8105                	srl	a0,a0,0x1
   11dea:	8fc9                	or	a5,a5,a0
   11dec:	b1dd                	j	11ad2 <_svfprintf_r+0x110e>
   11dee:	4592                	lw	a1,4(sp)
   11df0:	01d0                	add	a2,sp,196
   11df2:	8556                	mv	a0,s5
   11df4:	239020ef          	jal	1482c <__ssprint_r>
   11df8:	dc051163          	bnez	a0,113ba <_svfprintf_r+0x9f6>
   11dfc:	463e                	lw	a2,204(sp)
   11dfe:	84ca                	mv	s1,s2
   11e00:	f34ff06f          	j	11534 <_svfprintf_r+0xb70>
   11e04:	4d99                	li	s11,6
   11e06:	b561                	j	11c8e <_svfprintf_r+0x12ca>
   11e08:	09010d93          	add	s11,sp,144
   11e0c:	191c                	add	a5,sp,176
   11e0e:	0bc10813          	add	a6,sp,188
   11e12:	1178                	add	a4,sp,172
   11e14:	86d2                	mv	a3,s4
   11e16:	4609                	li	a2,2
   11e18:	85ee                	mv	a1,s11
   11e1a:	8556                	mv	a0,s5
   11e1c:	d046                	sw	a7,32(sp)
   11e1e:	c916                	sw	t0,144(sp)
   11e20:	ce16                	sw	t0,28(sp)
   11e22:	cb7e                	sw	t6,148(sp)
   11e24:	cc7e                	sw	t6,24(sp)
   11e26:	cd7a                	sw	t5,152(sp)
   11e28:	ca7a                	sw	t5,20(sp)
   11e2a:	cf5e                	sw	s7,156(sp)
   11e2c:	7ca000ef          	jal	125f6 <_ldtoa_r>
   11e30:	001b7793          	and	a5,s6,1
   11e34:	4f52                	lw	t5,20(sp)
   11e36:	4fe2                	lw	t6,24(sp)
   11e38:	42f2                	lw	t0,28(sp)
   11e3a:	5882                	lw	a7,32(sp)
   11e3c:	8caa                	mv	s9,a0
   11e3e:	5e079f63          	bnez	a5,1243c <_svfprintf_r+0x1a78>
   11e42:	57ba                	lw	a5,172(sp)
   11e44:	ca3e                	sw	a5,20(sp)
   11e46:	57fa                	lw	a5,188(sp)
   11e48:	8f89                	sub	a5,a5,a0
   11e4a:	cc3e                	sw	a5,24(sp)
   11e4c:	4752                	lw	a4,20(sp)
   11e4e:	57f5                	li	a5,-3
   11e50:	00f74463          	blt	a4,a5,11e58 <_svfprintf_r+0x1494>
   11e54:	44ea5963          	bge	s4,a4,122a6 <_svfprintf_r+0x18e2>
   11e58:	47d2                	lw	a5,20(sp)
   11e5a:	18f9                	add	a7,a7,-2
   11e5c:	17fd                	add	a5,a5,-1
   11e5e:	d73e                	sw	a5,172(sp)
   11e60:	0ff8f713          	zext.b	a4,a7
   11e64:	4681                	li	a3,0
   11e66:	0ae10a23          	sb	a4,180(sp)
   11e6a:	02b00713          	li	a4,43
   11e6e:	0007d763          	bgez	a5,11e7c <_svfprintf_r+0x14b8>
   11e72:	4752                	lw	a4,20(sp)
   11e74:	4785                	li	a5,1
   11e76:	8f99                	sub	a5,a5,a4
   11e78:	02d00713          	li	a4,45
   11e7c:	0ae10aa3          	sb	a4,181(sp)
   11e80:	4725                	li	a4,9
   11e82:	5cf75963          	bge	a4,a5,12454 <_svfprintf_r+0x1a90>
   11e86:	0c310513          	add	a0,sp,195
   11e8a:	882a                	mv	a6,a0
   11e8c:	46a9                	li	a3,10
   11e8e:	06300f13          	li	t5,99
   11e92:	02d7e733          	rem	a4,a5,a3
   11e96:	85c2                	mv	a1,a6
   11e98:	863e                	mv	a2,a5
   11e9a:	187d                	add	a6,a6,-1
   11e9c:	03070713          	add	a4,a4,48
   11ea0:	fee58fa3          	sb	a4,-1(a1)
   11ea4:	02d7c7b3          	div	a5,a5,a3
   11ea8:	fecf45e3          	blt	t5,a2,11e92 <_svfprintf_r+0x14ce>
   11eac:	03078793          	add	a5,a5,48
   11eb0:	ffe58713          	add	a4,a1,-2
   11eb4:	fef80fa3          	sb	a5,-1(a6)
   11eb8:	6ca77763          	bgeu	a4,a0,12586 <_svfprintf_r+0x1bc2>
   11ebc:	0b610693          	add	a3,sp,182
   11ec0:	00074783          	lbu	a5,0(a4)
   11ec4:	0705                	add	a4,a4,1
   11ec6:	0685                	add	a3,a3,1
   11ec8:	fef68fa3          	sb	a5,-1(a3)
   11ecc:	fea71ae3          	bne	a4,a0,11ec0 <_svfprintf_r+0x14fc>
   11ed0:	0b1c                	add	a5,sp,400
   11ed2:	8f8d                	sub	a5,a5,a1
   11ed4:	f3778793          	add	a5,a5,-201
   11ed8:	de3e                	sw	a5,60(sp)
   11eda:	4762                	lw	a4,24(sp)
   11edc:	56f2                	lw	a3,60(sp)
   11ede:	4785                	li	a5,1
   11ee0:	00d70db3          	add	s11,a4,a3
   11ee4:	58e7dc63          	bge	a5,a4,1247c <_svfprintf_r+0x1ab8>
   11ee8:	57a2                	lw	a5,40(sp)
   11eea:	9dbe                	add	s11,s11,a5
   11eec:	fffdc713          	not	a4,s11
   11ef0:	bffb7e93          	and	t4,s6,-1025
   11ef4:	877d                	sra	a4,a4,0x1f
   11ef6:	100ee793          	or	a5,t4,256
   11efa:	c4be                	sw	a5,72(sp)
   11efc:	00edfd33          	and	s10,s11,a4
   11f00:	d002                	sw	zero,32(sp)
   11f02:	ce02                	sw	zero,28(sp)
   11f04:	ca02                	sw	zero,20(sp)
   11f06:	57d2                	lw	a5,52(sp)
   11f08:	38078663          	beqz	a5,12294 <_svfprintf_r+0x18d0>
   11f0c:	02d00793          	li	a5,45
   11f10:	4b26                	lw	s6,72(sp)
   11f12:	0af103a3          	sb	a5,167(sp)
   11f16:	4a01                	li	s4,0
   11f18:	0d05                	add	s10,s10,1
   11f1a:	bf7fe06f          	j	10b10 <_svfprintf_r+0x14c>
   11f1e:	0d62                	sll	s10,s10,0x18
   11f20:	418d5d13          	sra	s10,s10,0x18
   11f24:	41fd5d93          	sra	s11,s10,0x1f
   11f28:	87ee                	mv	a5,s11
   11f2a:	d5dfe06f          	j	10c86 <_svfprintf_r+0x2c2>
   11f2e:	47c2                	lw	a5,16(sp)
   11f30:	4722                	lw	a4,8(sp)
   11f32:	439c                	lw	a5,0(a5)
   11f34:	00e79023          	sh	a4,0(a5)
   11f38:	a08ff06f          	j	11140 <_svfprintf_r+0x77c>
   11f3c:	0ffd7d13          	zext.b	s10,s10
   11f40:	4d81                	li	s11,0
   11f42:	b8a5                	j	117ba <_svfprintf_r+0xdf6>
   11f44:	0ffd7d13          	zext.b	s10,s10
   11f48:	4d81                	li	s11,0
   11f4a:	dadfe06f          	j	10cf6 <_svfprintf_r+0x332>
   11f4e:	4592                	lw	a1,4(sp)
   11f50:	5512                	lw	a0,36(sp)
   11f52:	01d0                	add	a2,sp,196
   11f54:	0d9020ef          	jal	1482c <__ssprint_r>
   11f58:	c8bfe06f          	j	10be2 <_svfprintf_r+0x21e>
   11f5c:	0a714783          	lbu	a5,167(sp)
   11f60:	b3e1                	j	11d28 <_svfprintf_r+0x1364>
   11f62:	4592                	lw	a1,4(sp)
   11f64:	01d0                	add	a2,sp,196
   11f66:	8556                	mv	a0,s5
   11f68:	0c5020ef          	jal	1482c <__ssprint_r>
   11f6c:	c4051763          	bnez	a0,113ba <_svfprintf_r+0x9f6>
   11f70:	56ba                	lw	a3,172(sp)
   11f72:	463e                	lw	a2,204(sp)
   11f74:	47ae                	lw	a5,200(sp)
   11f76:	84ca                	mv	s1,s2
   11f78:	c206d0e3          	bgez	a3,11b98 <_svfprintf_r+0x11d4>
   11f7c:	b381                	j	11cbc <_svfprintf_r+0x12f8>
   11f7e:	c602                	sw	zero,12(sp)
   11f80:	4a19                	li	s4,6
   11f82:	e5dfe06f          	j	10dde <_svfprintf_r+0x41a>
   11f86:	001a0693          	add	a3,s4,1
   11f8a:	4609                	li	a2,2
   11f8c:	09010d93          	add	s11,sp,144
   11f90:	191c                	add	a5,sp,176
   11f92:	1178                	add	a4,sp,172
   11f94:	0bc10813          	add	a6,sp,188
   11f98:	85ee                	mv	a1,s11
   11f9a:	8556                	mv	a0,s5
   11f9c:	c6c6                	sw	a7,76(sp)
   11f9e:	d036                	sw	a3,32(sp)
   11fa0:	c916                	sw	t0,144(sp)
   11fa2:	ce16                	sw	t0,28(sp)
   11fa4:	cb7e                	sw	t6,148(sp)
   11fa6:	cc7e                	sw	t6,24(sp)
   11fa8:	cd7a                	sw	t5,152(sp)
   11faa:	ca7a                	sw	t5,20(sp)
   11fac:	cf5e                	sw	s7,156(sp)
   11fae:	25a1                	jal	125f6 <_ldtoa_r>
   11fb0:	48b6                	lw	a7,76(sp)
   11fb2:	5682                	lw	a3,32(sp)
   11fb4:	04600613          	li	a2,70
   11fb8:	fdf8f713          	and	a4,a7,-33
   11fbc:	4f52                	lw	t5,20(sp)
   11fbe:	4fe2                	lw	t6,24(sp)
   11fc0:	42f2                	lw	t0,28(sp)
   11fc2:	8caa                	mv	s9,a0
   11fc4:	00d507b3          	add	a5,a0,a3
   11fc8:	60c71563          	bne	a4,a2,125d2 <_svfprintf_r+0x1c0e>
   11fcc:	000cc583          	lbu	a1,0(s9)
   11fd0:	03000613          	li	a2,48
   11fd4:	3cc58463          	beq	a1,a2,1239c <_svfprintf_r+0x19d8>
   11fd8:	56ba                	lw	a3,172(sp)
   11fda:	010c                	add	a1,sp,128
   11fdc:	97b6                	add	a5,a5,a3
   11fde:	856e                	mv	a0,s11
   11fe0:	ce3e                	sw	a5,28(sp)
   11fe2:	cc3a                	sw	a4,24(sp)
   11fe4:	ca46                	sw	a7,20(sp)
   11fe6:	c916                	sw	t0,144(sp)
   11fe8:	cb7e                	sw	t6,148(sp)
   11fea:	cd7a                	sw	t5,152(sp)
   11fec:	cf5e                	sw	s7,156(sp)
   11fee:	c102                	sw	zero,128(sp)
   11ff0:	c302                	sw	zero,132(sp)
   11ff2:	c502                	sw	zero,136(sp)
   11ff4:	c702                	sw	zero,140(sp)
   11ff6:	7b5080ef          	jal	1afaa <__eqtf2>
   11ffa:	48d2                	lw	a7,20(sp)
   11ffc:	4762                	lw	a4,24(sp)
   11ffe:	47f2                	lw	a5,28(sp)
   12000:	36050763          	beqz	a0,1236e <_svfprintf_r+0x19aa>
   12004:	55fa                	lw	a1,188(sp)
   12006:	00f5fc63          	bgeu	a1,a5,1201e <_svfprintf_r+0x165a>
   1200a:	03000613          	li	a2,48
   1200e:	00158693          	add	a3,a1,1
   12012:	df36                	sw	a3,188(sp)
   12014:	00c58023          	sb	a2,0(a1)
   12018:	55fa                	lw	a1,188(sp)
   1201a:	fef5eae3          	bltu	a1,a5,1200e <_svfprintf_r+0x164a>
   1201e:	57ba                	lw	a5,172(sp)
   12020:	ca3e                	sw	a5,20(sp)
   12022:	419586b3          	sub	a3,a1,s9
   12026:	04700793          	li	a5,71
   1202a:	cc36                	sw	a3,24(sp)
   1202c:	e2f700e3          	beq	a4,a5,11e4c <_svfprintf_r+0x1488>
   12030:	04600793          	li	a5,70
   12034:	3af70863          	beq	a4,a5,123e4 <_svfprintf_r+0x1a20>
   12038:	47d2                	lw	a5,20(sp)
   1203a:	17fd                	add	a5,a5,-1
   1203c:	b50d                	j	11e5e <_svfprintf_r+0x149a>
   1203e:	09010d93          	add	s11,sp,144
   12042:	010c                	add	a1,sp,128
   12044:	1170                	add	a2,sp,172
   12046:	856e                	mv	a0,s11
   12048:	de46                	sw	a7,60(sp)
   1204a:	c116                	sw	t0,128(sp)
   1204c:	c37e                	sw	t6,132(sp)
   1204e:	c57a                	sw	t5,136(sp)
   12050:	ca2e                	sw	a1,20(sp)
   12052:	c75e                	sw	s7,140(sp)
   12054:	731030ef          	jal	15f84 <frexpl>
   12058:	454a                	lw	a0,144(sp)
   1205a:	0000b797          	auipc	a5,0xb
   1205e:	6d678793          	add	a5,a5,1750 # 1d730 <zeroes.0+0x10>
   12062:	4390                	lw	a2,0(a5)
   12064:	c12a                	sw	a0,128(sp)
   12066:	455a                	lw	a0,148(sp)
   12068:	43d4                	lw	a3,4(a5)
   1206a:	4798                	lw	a4,8(a5)
   1206c:	c32a                	sw	a0,132(sp)
   1206e:	456a                	lw	a0,152(sp)
   12070:	47dc                	lw	a5,12(a5)
   12072:	45d2                	lw	a1,20(sp)
   12074:	c52a                	sw	a0,136(sp)
   12076:	457a                	lw	a0,156(sp)
   12078:	d8b2                	sw	a2,112(sp)
   1207a:	1890                	add	a2,sp,112
   1207c:	c72a                	sw	a0,140(sp)
   1207e:	856e                	mv	a0,s11
   12080:	dab6                	sw	a3,116(sp)
   12082:	dcba                	sw	a4,120(sp)
   12084:	debe                	sw	a5,124(sp)
   12086:	204090ef          	jal	1b28a <__multf3>
   1208a:	45d2                	lw	a1,20(sp)
   1208c:	4f4a                	lw	t5,144(sp)
   1208e:	485a                	lw	a6,148(sp)
   12090:	466a                	lw	a2,152(sp)
   12092:	856e                	mv	a0,s11
   12094:	d02e                	sw	a1,32(sp)
   12096:	ce7a                	sw	t5,28(sp)
   12098:	cc42                	sw	a6,24(sp)
   1209a:	ca32                	sw	a2,20(sp)
   1209c:	c102                	sw	zero,128(sp)
   1209e:	c302                	sw	zero,132(sp)
   120a0:	c502                	sw	zero,136(sp)
   120a2:	c702                	sw	zero,140(sp)
   120a4:	707080ef          	jal	1afaa <__eqtf2>
   120a8:	4d7a                	lw	s10,156(sp)
   120aa:	4652                	lw	a2,20(sp)
   120ac:	4862                	lw	a6,24(sp)
   120ae:	4f72                	lw	t5,28(sp)
   120b0:	5582                	lw	a1,32(sp)
   120b2:	58f2                	lw	a7,60(sp)
   120b4:	e119                	bnez	a0,120ba <_svfprintf_r+0x16f6>
   120b6:	4785                	li	a5,1
   120b8:	d73e                	sw	a5,172(sp)
   120ba:	0000b717          	auipc	a4,0xb
   120be:	43270713          	add	a4,a4,1074 # 1d4ec <__clzsi2+0xb0>
   120c2:	06100793          	li	a5,97
   120c6:	ca3a                	sw	a4,20(sp)
   120c8:	00f89763          	bne	a7,a5,120d6 <_svfprintf_r+0x1712>
   120cc:	0000b797          	auipc	a5,0xb
   120d0:	40c78793          	add	a5,a5,1036 # 1d4d8 <__clzsi2+0x9c>
   120d4:	ca3e                	sw	a5,20(sp)
   120d6:	0000b797          	auipc	a5,0xb
   120da:	66a78793          	add	a5,a5,1642 # 1d740 <zeroes.0+0x20>
   120de:	4398                	lw	a4,0(a5)
   120e0:	de4e                	sw	s3,60(sp)
   120e2:	c6da                	sw	s6,76(sp)
   120e4:	cc3a                	sw	a4,24(sp)
   120e6:	43d8                	lw	a4,4(a5)
   120e8:	caa6                	sw	s1,84(sp)
   120ea:	ccd6                	sw	s5,88(sp)
   120ec:	ce3a                	sw	a4,28(sp)
   120ee:	4798                	lw	a4,8(a5)
   120f0:	47dc                	lw	a5,12(a5)
   120f2:	8ae6                	mv	s5,s9
   120f4:	cee6                	sw	s9,92(sp)
   120f6:	8bea                	mv	s7,s10
   120f8:	d03a                	sw	a4,32(sp)
   120fa:	1a7d                	add	s4,s4,-1
   120fc:	c4c6                	sw	a7,72(sp)
   120fe:	c8e2                	sw	s8,80(sp)
   12100:	8cbe                	mv	s9,a5
   12102:	89c2                	mv	s3,a6
   12104:	8b32                	mv	s6,a2
   12106:	8d7a                	mv	s10,t5
   12108:	84ae                	mv	s1,a1
   1210a:	a015                	j	1212e <_svfprintf_r+0x176a>
   1210c:	85a6                	mv	a1,s1
   1210e:	856e                	mv	a0,s11
   12110:	c96a                	sw	s10,144(sp)
   12112:	cb4e                	sw	s3,148(sp)
   12114:	cd5a                	sw	s6,152(sp)
   12116:	cf5e                	sw	s7,156(sp)
   12118:	c102                	sw	zero,128(sp)
   1211a:	c302                	sw	zero,132(sp)
   1211c:	c502                	sw	zero,136(sp)
   1211e:	c702                	sw	zero,140(sp)
   12120:	fffa0c13          	add	s8,s4,-1
   12124:	687080ef          	jal	1afaa <__eqtf2>
   12128:	40050163          	beqz	a0,1252a <_svfprintf_r+0x1b66>
   1212c:	8a62                	mv	s4,s8
   1212e:	47e2                	lw	a5,24(sp)
   12130:	1890                	add	a2,sp,112
   12132:	85a6                	mv	a1,s1
   12134:	d8be                	sw	a5,112(sp)
   12136:	47f2                	lw	a5,28(sp)
   12138:	856e                	mv	a0,s11
   1213a:	c16a                	sw	s10,128(sp)
   1213c:	dabe                	sw	a5,116(sp)
   1213e:	5782                	lw	a5,32(sp)
   12140:	c34e                	sw	s3,132(sp)
   12142:	c55a                	sw	s6,136(sp)
   12144:	dcbe                	sw	a5,120(sp)
   12146:	c75e                	sw	s7,140(sp)
   12148:	dee6                	sw	s9,124(sp)
   1214a:	140090ef          	jal	1b28a <__multf3>
   1214e:	856e                	mv	a0,s11
   12150:	7b90a0ef          	jal	1d108 <__fixtfsi>
   12154:	85aa                	mv	a1,a0
   12156:	8c2a                	mv	s8,a0
   12158:	856e                	mv	a0,s11
   1215a:	4d4a                	lw	s10,144(sp)
   1215c:	4bda                	lw	s7,148(sp)
   1215e:	4b6a                	lw	s6,152(sp)
   12160:	49fa                	lw	s3,156(sp)
   12162:	04a0b0ef          	jal	1d1ac <__floatsitf>
   12166:	46ca                	lw	a3,144(sp)
   12168:	188c                	add	a1,sp,112
   1216a:	1090                	add	a2,sp,96
   1216c:	d0b6                	sw	a3,96(sp)
   1216e:	46da                	lw	a3,148(sp)
   12170:	8526                	mv	a0,s1
   12172:	d8ea                	sw	s10,112(sp)
   12174:	d2b6                	sw	a3,100(sp)
   12176:	46ea                	lw	a3,152(sp)
   12178:	dade                	sw	s7,116(sp)
   1217a:	dcda                	sw	s6,120(sp)
   1217c:	d4b6                	sw	a3,104(sp)
   1217e:	46fa                	lw	a3,156(sp)
   12180:	dece                	sw	s3,124(sp)
   12182:	d6b6                	sw	a3,108(sp)
   12184:	5dd090ef          	jal	1bf60 <__subtf3>
   12188:	47d2                	lw	a5,20(sp)
   1218a:	8fd6                	mv	t6,s5
   1218c:	0a85                	add	s5,s5,1
   1218e:	018786b3          	add	a3,a5,s8
   12192:	0006c583          	lbu	a1,0(a3)
   12196:	4d0a                	lw	s10,128(sp)
   12198:	499a                	lw	s3,132(sp)
   1219a:	4b2a                	lw	s6,136(sp)
   1219c:	4bba                	lw	s7,140(sp)
   1219e:	57fd                	li	a5,-1
   121a0:	feba8fa3          	sb	a1,-1(s5)
   121a4:	f6fa14e3          	bne	s4,a5,1210c <_svfprintf_r+0x1748>
   121a8:	0000b517          	auipc	a0,0xb
   121ac:	5a850513          	add	a0,a0,1448 # 1d750 <zeroes.0+0x30>
   121b0:	48a6                	lw	a7,72(sp)
   121b2:	00452283          	lw	t0,4(a0)
   121b6:	00852383          	lw	t2,8(a0)
   121ba:	455c                	lw	a5,12(a0)
   121bc:	00052a03          	lw	s4,0(a0)
   121c0:	8f6a                	mv	t5,s10
   121c2:	884e                	mv	a6,s3
   121c4:	865a                	mv	a2,s6
   121c6:	85a6                	mv	a1,s1
   121c8:	8d5e                	mv	s10,s7
   121ca:	4cf6                	lw	s9,92(sp)
   121cc:	59f2                	lw	s3,60(sp)
   121ce:	4b36                	lw	s6,76(sp)
   121d0:	44d6                	lw	s1,84(sp)
   121d2:	ce7e                	sw	t6,28(sp)
   121d4:	cc46                	sw	a7,24(sp)
   121d6:	cee2                	sw	s8,92(sp)
   121d8:	8bd6                	mv	s7,s5
   121da:	4c46                	lw	s8,80(sp)
   121dc:	4ae6                	lw	s5,88(sp)
   121de:	c97a                	sw	t5,144(sp)
   121e0:	ccfa                	sw	t5,88(sp)
   121e2:	cb42                	sw	a6,148(sp)
   121e4:	cac2                	sw	a6,84(sp)
   121e6:	cd32                	sw	a2,152(sp)
   121e8:	c8b2                	sw	a2,80(sp)
   121ea:	cf6a                	sw	s10,156(sp)
   121ec:	c152                	sw	s4,128(sp)
   121ee:	c316                	sw	t0,132(sp)
   121f0:	c696                	sw	t0,76(sp)
   121f2:	c51e                	sw	t2,136(sp)
   121f4:	c49e                	sw	t2,72(sp)
   121f6:	c73e                	sw	a5,140(sp)
   121f8:	de3e                	sw	a5,60(sp)
   121fa:	d02e                	sw	a1,32(sp)
   121fc:	856e                	mv	a0,s11
   121fe:	659080ef          	jal	1b056 <__getf2>
   12202:	48e2                	lw	a7,24(sp)
   12204:	4ff2                	lw	t6,28(sp)
   12206:	00a04e63          	bgtz	a0,12222 <_svfprintf_r+0x185e>
   1220a:	5582                	lw	a1,32(sp)
   1220c:	856e                	mv	a0,s11
   1220e:	ce46                	sw	a7,28(sp)
   12210:	cc7e                	sw	t6,24(sp)
   12212:	599080ef          	jal	1afaa <__eqtf2>
   12216:	48f2                	lw	a7,28(sp)
   12218:	e521                	bnez	a0,12260 <_svfprintf_r+0x189c>
   1221a:	4776                	lw	a4,92(sp)
   1221c:	4fe2                	lw	t6,24(sp)
   1221e:	8b05                	and	a4,a4,1
   12220:	c321                	beqz	a4,12260 <_svfprintf_r+0x189c>
   12222:	47d2                	lw	a5,20(sp)
   12224:	df7e                	sw	t6,188(sp)
   12226:	fffbc683          	lbu	a3,-1(s7)
   1222a:	00f7c603          	lbu	a2,15(a5)
   1222e:	875e                	mv	a4,s7
   12230:	00c69e63          	bne	a3,a2,1224c <_svfprintf_r+0x1888>
   12234:	03000593          	li	a1,48
   12238:	feb70fa3          	sb	a1,-1(a4)
   1223c:	577a                	lw	a4,188(sp)
   1223e:	fff70793          	add	a5,a4,-1
   12242:	df3e                	sw	a5,188(sp)
   12244:	fff74683          	lbu	a3,-1(a4)
   12248:	fed608e3          	beq	a2,a3,12238 <_svfprintf_r+0x1874>
   1224c:	00168613          	add	a2,a3,1
   12250:	03900593          	li	a1,57
   12254:	0ff67613          	zext.b	a2,a2
   12258:	02b68a63          	beq	a3,a1,1228c <_svfprintf_r+0x18c8>
   1225c:	fec70fa3          	sb	a2,-1(a4)
   12260:	57ba                	lw	a5,172(sp)
   12262:	419b8733          	sub	a4,s7,s9
   12266:	cc3a                	sw	a4,24(sp)
   12268:	ca3e                	sw	a5,20(sp)
   1226a:	17fd                	add	a5,a5,-1
   1226c:	06100693          	li	a3,97
   12270:	d73e                	sw	a5,172(sp)
   12272:	07000713          	li	a4,112
   12276:	00d88663          	beq	a7,a3,12282 <_svfprintf_r+0x18be>
   1227a:	05000713          	li	a4,80
   1227e:	04100893          	li	a7,65
   12282:	4685                	li	a3,1
   12284:	b6cd                	j	11e66 <_svfprintf_r+0x14a2>
   12286:	86d2                	mv	a3,s4
   12288:	460d                	li	a2,3
   1228a:	b309                	j	11f8c <_svfprintf_r+0x15c8>
   1228c:	47d2                	lw	a5,20(sp)
   1228e:	00a7c603          	lbu	a2,10(a5)
   12292:	b7e9                	j	1225c <_svfprintf_r+0x1898>
   12294:	0a714783          	lbu	a5,167(sp)
   12298:	4b26                	lw	s6,72(sp)
   1229a:	4a01                	li	s4,0
   1229c:	c399                	beqz	a5,122a2 <_svfprintf_r+0x18de>
   1229e:	a31fe06f          	j	10cce <_svfprintf_r+0x30a>
   122a2:	86ffe06f          	j	10b10 <_svfprintf_r+0x14c>
   122a6:	47e2                	lw	a5,24(sp)
   122a8:	4752                	lw	a4,20(sp)
   122aa:	16f74363          	blt	a4,a5,12410 <_svfprintf_r+0x1a4c>
   122ae:	4752                	lw	a4,20(sp)
   122b0:	001b7793          	and	a5,s6,1
   122b4:	8dba                	mv	s11,a4
   122b6:	c399                	beqz	a5,122bc <_svfprintf_r+0x18f8>
   122b8:	5722                	lw	a4,40(sp)
   122ba:	9dba                	add	s11,s11,a4
   122bc:	400b7e93          	and	t4,s6,1024
   122c0:	000e8563          	beqz	t4,122ca <_svfprintf_r+0x1906>
   122c4:	47d2                	lw	a5,20(sp)
   122c6:	20f04763          	bgtz	a5,124d4 <_svfprintf_r+0x1b10>
   122ca:	fffdc713          	not	a4,s11
   122ce:	877d                	sra	a4,a4,0x1f
   122d0:	00edfd33          	and	s10,s11,a4
   122d4:	06700893          	li	a7,103
   122d8:	d002                	sw	zero,32(sp)
   122da:	ce02                	sw	zero,28(sp)
   122dc:	b12d                	j	11f06 <_svfprintf_r+0x1542>
   122de:	4525                	li	a0,9
   122e0:	ffa56963          	bltu	a0,s10,11ad2 <_svfprintf_r+0x110e>
   122e4:	857ff06f          	j	11b3a <_svfprintf_r+0x1176>
   122e8:	01d0                	add	a2,sp,196
   122ea:	85ce                	mv	a1,s3
   122ec:	8556                	mv	a0,s5
   122ee:	53e020ef          	jal	1482c <__ssprint_r>
   122f2:	8c051463          	bnez	a0,113ba <_svfprintf_r+0x9f6>
   122f6:	000bc583          	lbu	a1,0(s7)
   122fa:	463e                	lw	a2,204(sp)
   122fc:	854a                	mv	a0,s2
   122fe:	47c1                	li	a5,16
   12300:	469d                	li	a3,7
   12302:	9cae                	add	s9,s9,a1
   12304:	e6eff06f          	j	11972 <_svfprintf_r+0xfae>
   12308:	07800793          	li	a5,120
   1230c:	03000713          	li	a4,48
   12310:	0af104a3          	sb	a5,169(sp)
   12314:	0ae10423          	sb	a4,168(sp)
   12318:	06300793          	li	a5,99
   1231c:	c602                	sw	zero,12(sp)
   1231e:	002b6b13          	or	s6,s6,2
   12322:	12c10c93          	add	s9,sp,300
   12326:	0147c463          	blt	a5,s4,1232e <_svfprintf_r+0x196a>
   1232a:	ab5fe06f          	j	10dde <_svfprintf_r+0x41a>
   1232e:	001a0593          	add	a1,s4,1
   12332:	8556                	mv	a0,s5
   12334:	c646                	sw	a7,12(sp)
   12336:	069000ef          	jal	12b9e <_malloc_r>
   1233a:	48b2                	lw	a7,12(sp)
   1233c:	8caa                	mv	s9,a0
   1233e:	28050e63          	beqz	a0,125da <_svfprintf_r+0x1c16>
   12342:	c62a                	sw	a0,12(sp)
   12344:	a9bfe06f          	j	10dde <_svfprintf_r+0x41a>
   12348:	02d00793          	li	a5,45
   1234c:	0af103a3          	sb	a5,167(sp)
   12350:	b8dd                	j	11c46 <_svfprintf_r+0x1282>
   12352:	0a714783          	lbu	a5,167(sp)
   12356:	c85e                	sw	s7,16(sp)
   12358:	d002                	sw	zero,32(sp)
   1235a:	ce02                	sw	zero,28(sp)
   1235c:	ca02                	sw	zero,20(sp)
   1235e:	8d52                	mv	s10,s4
   12360:	8dd2                	mv	s11,s4
   12362:	4a01                	li	s4,0
   12364:	c399                	beqz	a5,1236a <_svfprintf_r+0x19a6>
   12366:	969fe06f          	j	10cce <_svfprintf_r+0x30a>
   1236a:	fa6fe06f          	j	10b10 <_svfprintf_r+0x14c>
   1236e:	56ba                	lw	a3,172(sp)
   12370:	85be                	mv	a1,a5
   12372:	ca36                	sw	a3,20(sp)
   12374:	b17d                	j	12022 <_svfprintf_r+0x165e>
   12376:	4592                	lw	a1,4(sp)
   12378:	01d0                	add	a2,sp,196
   1237a:	8556                	mv	a0,s5
   1237c:	4b0020ef          	jal	1482c <__ssprint_r>
   12380:	c119                	beqz	a0,12386 <_svfprintf_r+0x19c2>
   12382:	838ff06f          	j	113ba <_svfprintf_r+0x9f6>
   12386:	5a3a                	lw	s4,172(sp)
   12388:	47e2                	lw	a5,24(sp)
   1238a:	463e                	lw	a2,204(sp)
   1238c:	84ca                	mv	s1,s2
   1238e:	41478a33          	sub	s4,a5,s4
   12392:	a06ff06f          	j	11598 <_svfprintf_r+0xbd4>
   12396:	05800793          	li	a5,88
   1239a:	bf8d                	j	1230c <_svfprintf_r+0x1948>
   1239c:	010c                	add	a1,sp,128
   1239e:	856e                	mv	a0,s11
   123a0:	ccbe                	sw	a5,88(sp)
   123a2:	caba                	sw	a4,84(sp)
   123a4:	c8c6                	sw	a7,80(sp)
   123a6:	c6b6                	sw	a3,76(sp)
   123a8:	c916                	sw	t0,144(sp)
   123aa:	d016                	sw	t0,32(sp)
   123ac:	cb7e                	sw	t6,148(sp)
   123ae:	ce7e                	sw	t6,28(sp)
   123b0:	cd7a                	sw	t5,152(sp)
   123b2:	cc7a                	sw	t5,24(sp)
   123b4:	ca2e                	sw	a1,20(sp)
   123b6:	cf5e                	sw	s7,156(sp)
   123b8:	c102                	sw	zero,128(sp)
   123ba:	c302                	sw	zero,132(sp)
   123bc:	c502                	sw	zero,136(sp)
   123be:	c702                	sw	zero,140(sp)
   123c0:	3eb080ef          	jal	1afaa <__eqtf2>
   123c4:	45d2                	lw	a1,20(sp)
   123c6:	4f62                	lw	t5,24(sp)
   123c8:	4ff2                	lw	t6,28(sp)
   123ca:	5282                	lw	t0,32(sp)
   123cc:	46b6                	lw	a3,76(sp)
   123ce:	48c6                	lw	a7,80(sp)
   123d0:	4756                	lw	a4,84(sp)
   123d2:	47e6                	lw	a5,88(sp)
   123d4:	18051e63          	bnez	a0,12570 <_svfprintf_r+0x1bac>
   123d8:	573a                	lw	a4,172(sp)
   123da:	97ba                	add	a5,a5,a4
   123dc:	419787b3          	sub	a5,a5,s9
   123e0:	ca3a                	sw	a4,20(sp)
   123e2:	cc3e                	sw	a5,24(sp)
   123e4:	4752                	lw	a4,20(sp)
   123e6:	001b7793          	and	a5,s6,1
   123ea:	0147e7b3          	or	a5,a5,s4
   123ee:	1ae05c63          	blez	a4,125a6 <_svfprintf_r+0x1be2>
   123f2:	16079163          	bnez	a5,12554 <_svfprintf_r+0x1b90>
   123f6:	4dd2                	lw	s11,20(sp)
   123f8:	06600893          	li	a7,102
   123fc:	400b7e93          	and	t4,s6,1024
   12400:	0c0e9c63          	bnez	t4,124d8 <_svfprintf_r+0x1b14>
   12404:	fffdc713          	not	a4,s11
   12408:	877d                	sra	a4,a4,0x1f
   1240a:	00edfd33          	and	s10,s11,a4
   1240e:	b5e9                	j	122d8 <_svfprintf_r+0x1914>
   12410:	47e2                	lw	a5,24(sp)
   12412:	5722                	lw	a4,40(sp)
   12414:	06700893          	li	a7,103
   12418:	00e78db3          	add	s11,a5,a4
   1241c:	47d2                	lw	a5,20(sp)
   1241e:	fcf04fe3          	bgtz	a5,123fc <_svfprintf_r+0x1a38>
   12422:	40fd8f33          	sub	t5,s11,a5
   12426:	001f0d93          	add	s11,t5,1
   1242a:	fffdc713          	not	a4,s11
   1242e:	877d                	sra	a4,a4,0x1f
   12430:	00edfd33          	and	s10,s11,a4
   12434:	b555                	j	122d8 <_svfprintf_r+0x1914>
   12436:	8fda                	mv	t6,s6
   12438:	86ffe06f          	j	10ca6 <_svfprintf_r+0x2e2>
   1243c:	014507b3          	add	a5,a0,s4
   12440:	04700713          	li	a4,71
   12444:	010c                	add	a1,sp,128
   12446:	be61                	j	11fde <_svfprintf_r+0x161a>
   12448:	0000b697          	auipc	a3,0xb
   1244c:	2d868693          	add	a3,a3,728 # 1d720 <zeroes.0>
   12450:	ea3fe06f          	j	112f2 <_svfprintf_r+0x92e>
   12454:	0b610713          	add	a4,sp,182
   12458:	e699                	bnez	a3,12466 <_svfprintf_r+0x1aa2>
   1245a:	03000713          	li	a4,48
   1245e:	0ae10b23          	sb	a4,182(sp)
   12462:	0b710713          	add	a4,sp,183
   12466:	0b14                	add	a3,sp,400
   12468:	03078793          	add	a5,a5,48
   1246c:	40d706b3          	sub	a3,a4,a3
   12470:	00f70023          	sb	a5,0(a4)
   12474:	0dd68793          	add	a5,a3,221
   12478:	de3e                	sw	a5,60(sp)
   1247a:	b485                	j	11eda <_svfprintf_r+0x1516>
   1247c:	001b7793          	and	a5,s6,1
   12480:	a60786e3          	beqz	a5,11eec <_svfprintf_r+0x1528>
   12484:	b495                	j	11ee8 <_svfprintf_r+0x1524>
   12486:	5712                	lw	a4,36(sp)
   12488:	47b1                	li	a5,12
   1248a:	c31c                	sw	a5,0(a4)
   1248c:	57fd                	li	a5,-1
   1248e:	c43e                	sw	a5,8(sp)
   12490:	f8efe06f          	j	10c1e <_svfprintf_r+0x25a>
   12494:	86ce                	mv	a3,s3
   12496:	49d2                	lw	s3,20(sp)
   12498:	9652                	add	a2,a2,s4
   1249a:	0785                	add	a5,a5,1
   1249c:	c094                	sw	a3,0(s1)
   1249e:	0144a223          	sw	s4,4(s1)
   124a2:	c7b2                	sw	a2,204(sp)
   124a4:	c5be                	sw	a5,200(sp)
   124a6:	469d                	li	a3,7
   124a8:	eef6d763          	bge	a3,a5,11b96 <_svfprintf_r+0x11d2>
   124ac:	4592                	lw	a1,4(sp)
   124ae:	01d0                	add	a2,sp,196
   124b0:	8556                	mv	a0,s5
   124b2:	37a020ef          	jal	1482c <__ssprint_r>
   124b6:	c119                	beqz	a0,124bc <_svfprintf_r+0x1af8>
   124b8:	f03fe06f          	j	113ba <_svfprintf_r+0x9f6>
   124bc:	463e                	lw	a2,204(sp)
   124be:	47ae                	lw	a5,200(sp)
   124c0:	84ca                	mv	s1,s2
   124c2:	ed6ff06f          	j	11b98 <_svfprintf_r+0x11d4>
   124c6:	000a0463          	beqz	s4,124ce <_svfprintf_r+0x1b0a>
   124ca:	915fe06f          	j	10dde <_svfprintf_r+0x41a>
   124ce:	4a05                	li	s4,1
   124d0:	90ffe06f          	j	10dde <_svfprintf_r+0x41a>
   124d4:	06700893          	li	a7,103
   124d8:	5662                	lw	a2,56(sp)
   124da:	0ff00713          	li	a4,255
   124de:	00064783          	lbu	a5,0(a2)
   124e2:	0ee78563          	beq	a5,a4,125cc <_svfprintf_r+0x1c08>
   124e6:	46d2                	lw	a3,20(sp)
   124e8:	4501                	li	a0,0
   124ea:	4581                	li	a1,0
   124ec:	00d7da63          	bge	a5,a3,12500 <_svfprintf_r+0x1b3c>
   124f0:	8e9d                	sub	a3,a3,a5
   124f2:	00164783          	lbu	a5,1(a2)
   124f6:	c795                	beqz	a5,12522 <_svfprintf_r+0x1b5e>
   124f8:	0585                	add	a1,a1,1
   124fa:	0605                	add	a2,a2,1
   124fc:	fee798e3          	bne	a5,a4,124ec <_svfprintf_r+0x1b28>
   12500:	dc32                	sw	a2,56(sp)
   12502:	ce2e                	sw	a1,28(sp)
   12504:	d02a                	sw	a0,32(sp)
   12506:	ca36                	sw	a3,20(sp)
   12508:	4772                	lw	a4,28(sp)
   1250a:	5782                	lw	a5,32(sp)
   1250c:	97ba                	add	a5,a5,a4
   1250e:	4716                	lw	a4,68(sp)
   12510:	02e787b3          	mul	a5,a5,a4
   12514:	9dbe                	add	s11,s11,a5
   12516:	fffdc713          	not	a4,s11
   1251a:	877d                	sra	a4,a4,0x1f
   1251c:	00edfd33          	and	s10,s11,a4
   12520:	b2dd                	j	11f06 <_svfprintf_r+0x1542>
   12522:	00064783          	lbu	a5,0(a2)
   12526:	0505                	add	a0,a0,1
   12528:	bfd1                	j	124fc <_svfprintf_r+0x1b38>
   1252a:	8bd6                	mv	s7,s5
   1252c:	001a0713          	add	a4,s4,1
   12530:	59f2                	lw	s3,60(sp)
   12532:	48a6                	lw	a7,72(sp)
   12534:	4b36                	lw	s6,76(sp)
   12536:	4c46                	lw	s8,80(sp)
   12538:	44d6                	lw	s1,84(sp)
   1253a:	4ae6                	lw	s5,88(sp)
   1253c:	4cf6                	lw	s9,92(sp)
   1253e:	975e                	add	a4,a4,s7
   12540:	03000693          	li	a3,48
   12544:	d00a4ee3          	bltz	s4,12260 <_svfprintf_r+0x189c>
   12548:	0b85                	add	s7,s7,1
   1254a:	fedb8fa3          	sb	a3,-1(s7)
   1254e:	feeb9de3          	bne	s7,a4,12548 <_svfprintf_r+0x1b84>
   12552:	b339                	j	12260 <_svfprintf_r+0x189c>
   12554:	57a2                	lw	a5,40(sp)
   12556:	06600893          	li	a7,102
   1255a:	00fa0f33          	add	t5,s4,a5
   1255e:	00ef0db3          	add	s11,t5,a4
   12562:	bd69                	j	123fc <_svfprintf_r+0x1a38>
   12564:	0000b697          	auipc	a3,0xb
   12568:	1bc68693          	add	a3,a3,444 # 1d720 <zeroes.0>
   1256c:	e78ff06f          	j	11be4 <_svfprintf_r+0x1220>
   12570:	4605                	li	a2,1
   12572:	40d606b3          	sub	a3,a2,a3
   12576:	d736                	sw	a3,172(sp)
   12578:	b495                	j	11fdc <_svfprintf_r+0x1618>
   1257a:	0000b697          	auipc	a3,0xb
   1257e:	1a668693          	add	a3,a3,422 # 1d720 <zeroes.0>
   12582:	fc4ff06f          	j	11d46 <_svfprintf_r+0x1382>
   12586:	4789                	li	a5,2
   12588:	de3e                	sw	a5,60(sp)
   1258a:	ba81                	j	11eda <_svfprintf_r+0x1516>
   1258c:	47c2                	lw	a5,16(sp)
   1258e:	0007aa03          	lw	s4,0(a5)
   12592:	0791                	add	a5,a5,4
   12594:	000a5363          	bgez	s4,1259a <_svfprintf_r+0x1bd6>
   12598:	5a7d                	li	s4,-1
   1259a:	0019c883          	lbu	a7,1(s3)
   1259e:	c83e                	sw	a5,16(sp)
   125a0:	89b6                	mv	s3,a3
   125a2:	d0cfe06f          	j	10aae <_svfprintf_r+0xea>
   125a6:	e791                	bnez	a5,125b2 <_svfprintf_r+0x1bee>
   125a8:	4d05                	li	s10,1
   125aa:	06600893          	li	a7,102
   125ae:	4d85                	li	s11,1
   125b0:	b325                	j	122d8 <_svfprintf_r+0x1914>
   125b2:	57a2                	lw	a5,40(sp)
   125b4:	06600893          	li	a7,102
   125b8:	00178f13          	add	t5,a5,1
   125bc:	014f0db3          	add	s11,t5,s4
   125c0:	fffdc713          	not	a4,s11
   125c4:	877d                	sra	a4,a4,0x1f
   125c6:	00edfd33          	and	s10,s11,a4
   125ca:	b339                	j	122d8 <_svfprintf_r+0x1914>
   125cc:	d002                	sw	zero,32(sp)
   125ce:	ce02                	sw	zero,28(sp)
   125d0:	bf25                	j	12508 <_svfprintf_r+0x1b44>
   125d2:	04500713          	li	a4,69
   125d6:	010c                	add	a1,sp,128
   125d8:	b419                	j	11fde <_svfprintf_r+0x161a>
   125da:	4712                	lw	a4,4(sp)
   125dc:	00c75783          	lhu	a5,12(a4)
   125e0:	0407e793          	or	a5,a5,64
   125e4:	00f71623          	sh	a5,12(a4)
   125e8:	dfafe06f          	j	10be2 <_svfprintf_r+0x21e>
   125ec:	0000b697          	auipc	a3,0xb
   125f0:	13468693          	add	a3,a3,308 # 1d720 <zeroes.0>
   125f4:	b555                	j	12498 <_svfprintf_r+0x1ad4>

000125f6 <_ldtoa_r>:
   125f6:	0000b897          	auipc	a7,0xb
   125fa:	18a88893          	add	a7,a7,394 # 1d780 <zeroes.0+0x60>
   125fe:	0008af83          	lw	t6,0(a7)
   12602:	0048af03          	lw	t5,4(a7)
   12606:	0088ae83          	lw	t4,8(a7)
   1260a:	00c8ae03          	lw	t3,12(a7)
   1260e:	0108a303          	lw	t1,16(a7)
   12612:	03852883          	lw	a7,56(a0)
   12616:	7131                	add	sp,sp,-192
   12618:	d94a                	sw	s2,176(sp)
   1261a:	d74e                	sw	s3,172(sp)
   1261c:	d552                	sw	s4,168(sp)
   1261e:	d15a                	sw	s6,160(sp)
   12620:	cf5e                	sw	s7,156(sp)
   12622:	cd62                	sw	s8,152(sp)
   12624:	cb66                	sw	s9,148(sp)
   12626:	c96a                	sw	s10,144(sp)
   12628:	df06                	sw	ra,188(sp)
   1262a:	dd22                	sw	s0,184(sp)
   1262c:	db26                	sw	s1,180(sp)
   1262e:	d356                	sw	s5,164(sp)
   12630:	c76e                	sw	s11,140(sp)
   12632:	d6fe                	sw	t6,108(sp)
   12634:	d8fa                	sw	t5,112(sp)
   12636:	daf6                	sw	t4,116(sp)
   12638:	dcf2                	sw	t3,120(sp)
   1263a:	de9a                	sw	t1,124(sp)
   1263c:	d032                	sw	a2,32(sp)
   1263e:	d236                	sw	a3,36(sp)
   12640:	0005aa03          	lw	s4,0(a1)
   12644:	0045a983          	lw	s3,4(a1)
   12648:	0085a903          	lw	s2,8(a1)
   1264c:	00c5ac03          	lw	s8,12(a1)
   12650:	8b2a                	mv	s6,a0
   12652:	8bba                	mv	s7,a4
   12654:	8cbe                	mv	s9,a5
   12656:	8d42                	mv	s10,a6
   12658:	00088f63          	beqz	a7,12676 <_ldtoa_r+0x80>
   1265c:	5d54                	lw	a3,60(a0)
   1265e:	4705                	li	a4,1
   12660:	85c6                	mv	a1,a7
   12662:	00d71733          	sll	a4,a4,a3
   12666:	00d8a223          	sw	a3,4(a7)
   1266a:	00e8a423          	sw	a4,8(a7)
   1266e:	291030ef          	jal	160fe <_Bfree>
   12672:	020b2c23          	sw	zero,56(s6)
   12676:	5666                	lw	a2,120(sp)
   12678:	01fc5693          	srl	a3,s8,0x1f
   1267c:	001c1a93          	sll	s5,s8,0x1
   12680:	40165713          	sra	a4,a2,0x1
   12684:	74f1                	lui	s1,0xffffc
   12686:	001c1413          	sll	s0,s8,0x1
   1268a:	8f75                	and	a4,a4,a3
   1268c:	011ada93          	srl	s5,s5,0x11
   12690:	f9148493          	add	s1,s1,-111 # ffffbf91 <__BSS_END__+0xfffdd46d>
   12694:	010c1d93          	sll	s11,s8,0x10
   12698:	00dca023          	sw	a3,0(s9)
   1269c:	8005                	srl	s0,s0,0x1
   1269e:	8f31                	xor	a4,a4,a2
   126a0:	010ddd93          	srl	s11,s11,0x10
   126a4:	009a87b3          	add	a5,s5,s1
   126a8:	180c                	add	a1,sp,48
   126aa:	0088                	add	a0,sp,64
   126ac:	c0d2                	sw	s4,64(sp)
   126ae:	c2ce                	sw	s3,68(sp)
   126b0:	c4ca                	sw	s2,72(sp)
   126b2:	c6a2                	sw	s0,76(sp)
   126b4:	d852                	sw	s4,48(sp)
   126b6:	da4e                	sw	s3,52(sp)
   126b8:	dc4a                	sw	s2,56(sp)
   126ba:	de22                	sw	s0,60(sp)
   126bc:	dcba                	sw	a4,120(sp)
   126be:	ce3e                	sw	a5,28(sp)
   126c0:	ced2                	sw	s4,92(sp)
   126c2:	d0ce                	sw	s3,96(sp)
   126c4:	d2ca                	sw	s2,100(sp)
   126c6:	d4ee                	sw	s11,104(sp)
   126c8:	1d70a0ef          	jal	1d09e <__unordtf2>
   126cc:	0e051b63          	bnez	a0,127c2 <_ldtoa_r+0x1cc>
   126d0:	0000b797          	auipc	a5,0xb
   126d4:	09078793          	add	a5,a5,144 # 1d760 <zeroes.0+0x40>
   126d8:	4390                	lw	a2,0(a5)
   126da:	43d4                	lw	a3,4(a5)
   126dc:	4784                	lw	s1,8(a5)
   126de:	00c7ac83          	lw	s9,12(a5)
   126e2:	180c                	add	a1,sp,48
   126e4:	0088                	add	a0,sp,64
   126e6:	c0d2                	sw	s4,64(sp)
   126e8:	c2ce                	sw	s3,68(sp)
   126ea:	c4ca                	sw	s2,72(sp)
   126ec:	c6a2                	sw	s0,76(sp)
   126ee:	d832                	sw	a2,48(sp)
   126f0:	d632                	sw	a2,44(sp)
   126f2:	da36                	sw	a3,52(sp)
   126f4:	d436                	sw	a3,40(sp)
   126f6:	dc26                	sw	s1,56(sp)
   126f8:	de66                	sw	s9,60(sp)
   126fa:	1a50a0ef          	jal	1d09e <__unordtf2>
   126fe:	ed29                	bnez	a0,12758 <_ldtoa_r+0x162>
   12700:	180c                	add	a1,sp,48
   12702:	0088                	add	a0,sp,64
   12704:	26f080ef          	jal	1b172 <__letf2>
   12708:	04a05863          	blez	a0,12758 <_ldtoa_r+0x162>
   1270c:	478d                	li	a5,3
   1270e:	ccbe                	sw	a5,88(sp)
   12710:	5782                	lw	a5,32(sp)
   12712:	5812                	lw	a6,36(sp)
   12714:	4672                	lw	a2,28(sp)
   12716:	08b8                	add	a4,sp,88
   12718:	c06a                	sw	s10,0(sp)
   1271a:	88de                	mv	a7,s7
   1271c:	08f4                	add	a3,sp,92
   1271e:	10ec                	add	a1,sp,108
   12720:	855a                	mv	a0,s6
   12722:	529000ef          	jal	1344a <__gdtoa>
   12726:	000ba703          	lw	a4,0(s7)
   1272a:	77e1                	lui	a5,0xffff8
   1272c:	00f71763          	bne	a4,a5,1273a <_ldtoa_r+0x144>
   12730:	800007b7          	lui	a5,0x80000
   12734:	17fd                	add	a5,a5,-1 # 7fffffff <__BSS_END__+0x7ffe14db>
   12736:	00fba023          	sw	a5,0(s7)
   1273a:	50fa                	lw	ra,188(sp)
   1273c:	546a                	lw	s0,184(sp)
   1273e:	54da                	lw	s1,180(sp)
   12740:	594a                	lw	s2,176(sp)
   12742:	59ba                	lw	s3,172(sp)
   12744:	5a2a                	lw	s4,168(sp)
   12746:	5a9a                	lw	s5,164(sp)
   12748:	5b0a                	lw	s6,160(sp)
   1274a:	4bfa                	lw	s7,156(sp)
   1274c:	4c6a                	lw	s8,152(sp)
   1274e:	4cda                	lw	s9,148(sp)
   12750:	4d4a                	lw	s10,144(sp)
   12752:	4dba                	lw	s11,140(sp)
   12754:	6129                	add	sp,sp,192
   12756:	8082                	ret
   12758:	0000b797          	auipc	a5,0xb
   1275c:	01878793          	add	a5,a5,24 # 1d770 <zeroes.0+0x50>
   12760:	4390                	lw	a2,0(a5)
   12762:	43d4                	lw	a3,4(a5)
   12764:	4798                	lw	a4,8(a5)
   12766:	47dc                	lw	a5,12(a5)
   12768:	180c                	add	a1,sp,48
   1276a:	0088                	add	a0,sp,64
   1276c:	c0d2                	sw	s4,64(sp)
   1276e:	c2ce                	sw	s3,68(sp)
   12770:	c4ca                	sw	s2,72(sp)
   12772:	c6a2                	sw	s0,76(sp)
   12774:	d832                	sw	a2,48(sp)
   12776:	da36                	sw	a3,52(sp)
   12778:	dc3a                	sw	a4,56(sp)
   1277a:	de3e                	sw	a5,60(sp)
   1277c:	0db080ef          	jal	1b056 <__getf2>
   12780:	00054963          	bltz	a0,12792 <_ldtoa_r+0x19c>
   12784:	67c1                	lui	a5,0x10
   12786:	00fdedb3          	or	s11,s11,a5
   1278a:	4785                	li	a5,1
   1278c:	ccbe                	sw	a5,88(sp)
   1278e:	d4ee                	sw	s11,104(sp)
   12790:	b741                	j	12710 <_ldtoa_r+0x11a>
   12792:	180c                	add	a1,sp,48
   12794:	0088                	add	a0,sp,64
   12796:	c0d2                	sw	s4,64(sp)
   12798:	c2ce                	sw	s3,68(sp)
   1279a:	c4ca                	sw	s2,72(sp)
   1279c:	c6e2                	sw	s8,76(sp)
   1279e:	d802                	sw	zero,48(sp)
   127a0:	da02                	sw	zero,52(sp)
   127a2:	dc02                	sw	zero,56(sp)
   127a4:	de02                	sw	zero,60(sp)
   127a6:	005080ef          	jal	1afaa <__eqtf2>
   127aa:	e119                	bnez	a0,127b0 <_ldtoa_r+0x1ba>
   127ac:	cc82                	sw	zero,88(sp)
   127ae:	b78d                	j	12710 <_ldtoa_r+0x11a>
   127b0:	74f1                	lui	s1,0xffffc
   127b2:	4789                	li	a5,2
   127b4:	f9248493          	add	s1,s1,-110 # ffffbf92 <__BSS_END__+0xfffdd46e>
   127b8:	ccbe                	sw	a5,88(sp)
   127ba:	009a87b3          	add	a5,s5,s1
   127be:	ce3e                	sw	a5,28(sp)
   127c0:	bf81                	j	12710 <_ldtoa_r+0x11a>
   127c2:	4791                	li	a5,4
   127c4:	ccbe                	sw	a5,88(sp)
   127c6:	b7a9                	j	12710 <_ldtoa_r+0x11a>

000127c8 <_ldcheck>:
   127c8:	715d                	add	sp,sp,-80
   127ca:	c2a6                	sw	s1,68(sp)
   127cc:	4544                	lw	s1,12(a0)
   127ce:	c0ca                	sw	s2,64(sp)
   127d0:	de4e                	sw	s3,60(sp)
   127d2:	00852903          	lw	s2,8(a0)
   127d6:	00452983          	lw	s3,4(a0)
   127da:	dc52                	sw	s4,56(sp)
   127dc:	00052a03          	lw	s4,0(a0)
   127e0:	0486                	sll	s1,s1,0x1
   127e2:	8085                	srl	s1,s1,0x1
   127e4:	858a                	mv	a1,sp
   127e6:	0808                	add	a0,sp,16
   127e8:	c686                	sw	ra,76(sp)
   127ea:	c852                	sw	s4,16(sp)
   127ec:	ca4e                	sw	s3,20(sp)
   127ee:	cc4a                	sw	s2,24(sp)
   127f0:	ce26                	sw	s1,28(sp)
   127f2:	c052                	sw	s4,0(sp)
   127f4:	c24e                	sw	s3,4(sp)
   127f6:	c44a                	sw	s2,8(sp)
   127f8:	c626                	sw	s1,12(sp)
   127fa:	0a50a0ef          	jal	1d09e <__unordtf2>
   127fe:	e525                	bnez	a0,12866 <_ldcheck+0x9e>
   12800:	0000b797          	auipc	a5,0xb
   12804:	f6078793          	add	a5,a5,-160 # 1d760 <zeroes.0+0x40>
   12808:	da56                	sw	s5,52(sp)
   1280a:	d85a                	sw	s6,48(sp)
   1280c:	d65e                	sw	s7,44(sp)
   1280e:	d462                	sw	s8,40(sp)
   12810:	0047ab83          	lw	s7,4(a5)
   12814:	0007ac03          	lw	s8,0(a5)
   12818:	0087ab03          	lw	s6,8(a5)
   1281c:	00c7aa83          	lw	s5,12(a5)
   12820:	858a                	mv	a1,sp
   12822:	0808                	add	a0,sp,16
   12824:	c4a2                	sw	s0,72(sp)
   12826:	c062                	sw	s8,0(sp)
   12828:	c25e                	sw	s7,4(sp)
   1282a:	c45a                	sw	s6,8(sp)
   1282c:	c656                	sw	s5,12(sp)
   1282e:	4405                	li	s0,1
   12830:	06f0a0ef          	jal	1d09e <__unordtf2>
   12834:	c115                	beqz	a0,12858 <_ldcheck+0x90>
   12836:	40b6                	lw	ra,76(sp)
   12838:	00144513          	xor	a0,s0,1
   1283c:	4426                	lw	s0,72(sp)
   1283e:	0ff57513          	zext.b	a0,a0
   12842:	5ad2                	lw	s5,52(sp)
   12844:	5b42                	lw	s6,48(sp)
   12846:	5bb2                	lw	s7,44(sp)
   12848:	5c22                	lw	s8,40(sp)
   1284a:	4496                	lw	s1,68(sp)
   1284c:	4906                	lw	s2,64(sp)
   1284e:	59f2                	lw	s3,60(sp)
   12850:	5a62                	lw	s4,56(sp)
   12852:	0506                	sll	a0,a0,0x1
   12854:	6161                	add	sp,sp,80
   12856:	8082                	ret
   12858:	858a                	mv	a1,sp
   1285a:	0808                	add	a0,sp,16
   1285c:	117080ef          	jal	1b172 <__letf2>
   12860:	00152413          	slti	s0,a0,1
   12864:	bfc9                	j	12836 <_ldcheck+0x6e>
   12866:	40b6                	lw	ra,76(sp)
   12868:	4496                	lw	s1,68(sp)
   1286a:	4906                	lw	s2,64(sp)
   1286c:	59f2                	lw	s3,60(sp)
   1286e:	5a62                	lw	s4,56(sp)
   12870:	4505                	li	a0,1
   12872:	6161                	add	sp,sp,80
   12874:	8082                	ret

00012876 <__fp_lock>:
   12876:	4501                	li	a0,0
   12878:	8082                	ret

0001287a <stdio_exit_handler>:
   1287a:	92018613          	add	a2,gp,-1760 # 1e130 <__sglue>
   1287e:	00000597          	auipc	a1,0x0
   12882:	27c58593          	add	a1,a1,636 # 12afa <_fclose_r>
   12886:	0000b517          	auipc	a0,0xb
   1288a:	78a50513          	add	a0,a0,1930 # 1e010 <_impure_data>
   1288e:	60d0206f          	j	1569a <_fwalk_sglue>

00012892 <cleanup_stdio>:
   12892:	414c                	lw	a1,4(a0)
   12894:	1141                	add	sp,sp,-16
   12896:	c422                	sw	s0,8(sp)
   12898:	c606                	sw	ra,12(sp)
   1289a:	02418793          	add	a5,gp,36 # 1e834 <__sf>
   1289e:	842a                	mv	s0,a0
   128a0:	00f58363          	beq	a1,a5,128a6 <cleanup_stdio+0x14>
   128a4:	2c99                	jal	12afa <_fclose_r>
   128a6:	440c                	lw	a1,8(s0)
   128a8:	08c18793          	add	a5,gp,140 # 1e89c <__sf+0x68>
   128ac:	00f58463          	beq	a1,a5,128b4 <cleanup_stdio+0x22>
   128b0:	8522                	mv	a0,s0
   128b2:	24a1                	jal	12afa <_fclose_r>
   128b4:	444c                	lw	a1,12(s0)
   128b6:	0f418793          	add	a5,gp,244 # 1e904 <__sf+0xd0>
   128ba:	00f58763          	beq	a1,a5,128c8 <cleanup_stdio+0x36>
   128be:	8522                	mv	a0,s0
   128c0:	4422                	lw	s0,8(sp)
   128c2:	40b2                	lw	ra,12(sp)
   128c4:	0141                	add	sp,sp,16
   128c6:	ac15                	j	12afa <_fclose_r>
   128c8:	40b2                	lw	ra,12(sp)
   128ca:	4422                	lw	s0,8(sp)
   128cc:	0141                	add	sp,sp,16
   128ce:	8082                	ret

000128d0 <__fp_unlock>:
   128d0:	4501                	li	a0,0
   128d2:	8082                	ret

000128d4 <global_stdio_init.part.0>:
   128d4:	1101                	add	sp,sp,-32
   128d6:	00000797          	auipc	a5,0x0
   128da:	fa478793          	add	a5,a5,-92 # 1287a <stdio_exit_handler>
   128de:	ce06                	sw	ra,28(sp)
   128e0:	cc22                	sw	s0,24(sp)
   128e2:	ca26                	sw	s1,20(sp)
   128e4:	02418413          	add	s0,gp,36 # 1e834 <__sf>
   128e8:	c84a                	sw	s2,16(sp)
   128ea:	c64e                	sw	s3,12(sp)
   128ec:	c452                	sw	s4,8(sp)
   128ee:	fef1a423          	sw	a5,-24(gp) # 1e7f8 <__stdio_exit_handler>
   128f2:	4621                	li	a2,8
   128f4:	4791                	li	a5,4
   128f6:	4581                	li	a1,0
   128f8:	08018513          	add	a0,gp,128 # 1e890 <__sf+0x5c>
   128fc:	c45c                	sw	a5,12(s0)
   128fe:	00042023          	sw	zero,0(s0)
   12902:	00042223          	sw	zero,4(s0)
   12906:	00042423          	sw	zero,8(s0)
   1290a:	06042223          	sw	zero,100(s0)
   1290e:	00042823          	sw	zero,16(s0)
   12912:	00042a23          	sw	zero,20(s0)
   12916:	00042c23          	sw	zero,24(s0)
   1291a:	f7dfd0ef          	jal	10896 <memset>
   1291e:	67c1                	lui	a5,0x10
   12920:	00004a17          	auipc	s4,0x4
   12924:	3a8a0a13          	add	s4,s4,936 # 16cc8 <__sread>
   12928:	00004997          	auipc	s3,0x4
   1292c:	3dc98993          	add	s3,s3,988 # 16d04 <__swrite>
   12930:	00004917          	auipc	s2,0x4
   12934:	42490913          	add	s2,s2,1060 # 16d54 <__sseek>
   12938:	00004497          	auipc	s1,0x4
   1293c:	46448493          	add	s1,s1,1124 # 16d9c <__sclose>
   12940:	07a5                	add	a5,a5,9 # 10009 <register_fini-0x8b>
   12942:	4621                	li	a2,8
   12944:	4581                	li	a1,0
   12946:	0e818513          	add	a0,gp,232 # 1e8f8 <__sf+0xc4>
   1294a:	03442023          	sw	s4,32(s0)
   1294e:	03342223          	sw	s3,36(s0)
   12952:	03242423          	sw	s2,40(s0)
   12956:	d444                	sw	s1,44(s0)
   12958:	d87c                	sw	a5,116(s0)
   1295a:	cc40                	sw	s0,28(s0)
   1295c:	06042423          	sw	zero,104(s0)
   12960:	06042623          	sw	zero,108(s0)
   12964:	06042823          	sw	zero,112(s0)
   12968:	0c042623          	sw	zero,204(s0)
   1296c:	06042c23          	sw	zero,120(s0)
   12970:	06042e23          	sw	zero,124(s0)
   12974:	08042023          	sw	zero,128(s0)
   12978:	f1ffd0ef          	jal	10896 <memset>
   1297c:	000207b7          	lui	a5,0x20
   12980:	07c9                	add	a5,a5,18 # 20012 <__BSS_END__+0x14ee>
   12982:	08c18713          	add	a4,gp,140 # 1e89c <__sf+0x68>
   12986:	4621                	li	a2,8
   12988:	4581                	li	a1,0
   1298a:	15018513          	add	a0,gp,336 # 1e960 <__sf+0x12c>
   1298e:	09442423          	sw	s4,136(s0)
   12992:	09342623          	sw	s3,140(s0)
   12996:	09242823          	sw	s2,144(s0)
   1299a:	08942a23          	sw	s1,148(s0)
   1299e:	0cf42e23          	sw	a5,220(s0)
   129a2:	08e42223          	sw	a4,132(s0)
   129a6:	0c042823          	sw	zero,208(s0)
   129aa:	0c042a23          	sw	zero,212(s0)
   129ae:	0c042c23          	sw	zero,216(s0)
   129b2:	12042a23          	sw	zero,308(s0)
   129b6:	0e042023          	sw	zero,224(s0)
   129ba:	0e042223          	sw	zero,228(s0)
   129be:	0e042423          	sw	zero,232(s0)
   129c2:	ed5fd0ef          	jal	10896 <memset>
   129c6:	0f418793          	add	a5,gp,244 # 1e904 <__sf+0xd0>
   129ca:	0f442823          	sw	s4,240(s0)
   129ce:	0f342a23          	sw	s3,244(s0)
   129d2:	0f242c23          	sw	s2,248(s0)
   129d6:	0e942e23          	sw	s1,252(s0)
   129da:	40f2                	lw	ra,28(sp)
   129dc:	0ef42623          	sw	a5,236(s0)
   129e0:	4462                	lw	s0,24(sp)
   129e2:	44d2                	lw	s1,20(sp)
   129e4:	4942                	lw	s2,16(sp)
   129e6:	49b2                	lw	s3,12(sp)
   129e8:	4a22                	lw	s4,8(sp)
   129ea:	6105                	add	sp,sp,32
   129ec:	8082                	ret

000129ee <__sfp>:
   129ee:	1101                	add	sp,sp,-32
   129f0:	c64e                	sw	s3,12(sp)
   129f2:	ce06                	sw	ra,28(sp)
   129f4:	cc22                	sw	s0,24(sp)
   129f6:	ca26                	sw	s1,20(sp)
   129f8:	c84a                	sw	s2,16(sp)
   129fa:	fe81a783          	lw	a5,-24(gp) # 1e7f8 <__stdio_exit_handler>
   129fe:	89aa                	mv	s3,a0
   12a00:	c7cd                	beqz	a5,12aaa <__sfp+0xbc>
   12a02:	92018913          	add	s2,gp,-1760 # 1e130 <__sglue>
   12a06:	54fd                	li	s1,-1
   12a08:	00492783          	lw	a5,4(s2)
   12a0c:	00892403          	lw	s0,8(s2)
   12a10:	17fd                	add	a5,a5,-1
   12a12:	0007d763          	bgez	a5,12a20 <__sfp+0x32>
   12a16:	a085                	j	12a76 <__sfp+0x88>
   12a18:	06840413          	add	s0,s0,104
   12a1c:	04978d63          	beq	a5,s1,12a76 <__sfp+0x88>
   12a20:	00c41703          	lh	a4,12(s0)
   12a24:	17fd                	add	a5,a5,-1
   12a26:	fb6d                	bnez	a4,12a18 <__sfp+0x2a>
   12a28:	77c1                	lui	a5,0xffff0
   12a2a:	0785                	add	a5,a5,1 # ffff0001 <__BSS_END__+0xfffd14dd>
   12a2c:	c45c                	sw	a5,12(s0)
   12a2e:	06042223          	sw	zero,100(s0)
   12a32:	00042023          	sw	zero,0(s0)
   12a36:	00042423          	sw	zero,8(s0)
   12a3a:	00042223          	sw	zero,4(s0)
   12a3e:	00042823          	sw	zero,16(s0)
   12a42:	00042a23          	sw	zero,20(s0)
   12a46:	00042c23          	sw	zero,24(s0)
   12a4a:	4621                	li	a2,8
   12a4c:	4581                	li	a1,0
   12a4e:	05c40513          	add	a0,s0,92
   12a52:	e45fd0ef          	jal	10896 <memset>
   12a56:	02042823          	sw	zero,48(s0)
   12a5a:	02042a23          	sw	zero,52(s0)
   12a5e:	04042223          	sw	zero,68(s0)
   12a62:	04042423          	sw	zero,72(s0)
   12a66:	40f2                	lw	ra,28(sp)
   12a68:	8522                	mv	a0,s0
   12a6a:	4462                	lw	s0,24(sp)
   12a6c:	44d2                	lw	s1,20(sp)
   12a6e:	4942                	lw	s2,16(sp)
   12a70:	49b2                	lw	s3,12(sp)
   12a72:	6105                	add	sp,sp,32
   12a74:	8082                	ret
   12a76:	00092403          	lw	s0,0(s2)
   12a7a:	c019                	beqz	s0,12a80 <__sfp+0x92>
   12a7c:	8922                	mv	s2,s0
   12a7e:	b769                	j	12a08 <__sfp+0x1a>
   12a80:	1ac00593          	li	a1,428
   12a84:	854e                	mv	a0,s3
   12a86:	2a21                	jal	12b9e <_malloc_r>
   12a88:	842a                	mv	s0,a0
   12a8a:	c115                	beqz	a0,12aae <__sfp+0xc0>
   12a8c:	0531                	add	a0,a0,12
   12a8e:	4791                	li	a5,4
   12a90:	00042023          	sw	zero,0(s0)
   12a94:	c05c                	sw	a5,4(s0)
   12a96:	c408                	sw	a0,8(s0)
   12a98:	1a000613          	li	a2,416
   12a9c:	4581                	li	a1,0
   12a9e:	df9fd0ef          	jal	10896 <memset>
   12aa2:	00892023          	sw	s0,0(s2)
   12aa6:	8922                	mv	s2,s0
   12aa8:	b785                	j	12a08 <__sfp+0x1a>
   12aaa:	352d                	jal	128d4 <global_stdio_init.part.0>
   12aac:	bf99                	j	12a02 <__sfp+0x14>
   12aae:	00092023          	sw	zero,0(s2)
   12ab2:	47b1                	li	a5,12
   12ab4:	00f9a023          	sw	a5,0(s3)
   12ab8:	b77d                	j	12a66 <__sfp+0x78>

00012aba <__sinit>:
   12aba:	595c                	lw	a5,52(a0)
   12abc:	c391                	beqz	a5,12ac0 <__sinit+0x6>
   12abe:	8082                	ret
   12ac0:	00000797          	auipc	a5,0x0
   12ac4:	dd278793          	add	a5,a5,-558 # 12892 <cleanup_stdio>
   12ac8:	d95c                	sw	a5,52(a0)
   12aca:	fe81a783          	lw	a5,-24(gp) # 1e7f8 <__stdio_exit_handler>
   12ace:	fbe5                	bnez	a5,12abe <__sinit+0x4>
   12ad0:	b511                	j	128d4 <global_stdio_init.part.0>

00012ad2 <__sfp_lock_acquire>:
   12ad2:	8082                	ret

00012ad4 <__sfp_lock_release>:
   12ad4:	8082                	ret

00012ad6 <__fp_lock_all>:
   12ad6:	92018613          	add	a2,gp,-1760 # 1e130 <__sglue>
   12ada:	00000597          	auipc	a1,0x0
   12ade:	d9c58593          	add	a1,a1,-612 # 12876 <__fp_lock>
   12ae2:	4501                	li	a0,0
   12ae4:	3b70206f          	j	1569a <_fwalk_sglue>

00012ae8 <__fp_unlock_all>:
   12ae8:	92018613          	add	a2,gp,-1760 # 1e130 <__sglue>
   12aec:	00000597          	auipc	a1,0x0
   12af0:	de458593          	add	a1,a1,-540 # 128d0 <__fp_unlock>
   12af4:	4501                	li	a0,0
   12af6:	3a50206f          	j	1569a <_fwalk_sglue>

00012afa <_fclose_r>:
   12afa:	1141                	add	sp,sp,-16
   12afc:	c606                	sw	ra,12(sp)
   12afe:	c04a                	sw	s2,0(sp)
   12b00:	cd89                	beqz	a1,12b1a <_fclose_r+0x20>
   12b02:	c422                	sw	s0,8(sp)
   12b04:	c226                	sw	s1,4(sp)
   12b06:	842e                	mv	s0,a1
   12b08:	84aa                	mv	s1,a0
   12b0a:	c119                	beqz	a0,12b10 <_fclose_r+0x16>
   12b0c:	595c                	lw	a5,52(a0)
   12b0e:	c3d1                	beqz	a5,12b92 <_fclose_r+0x98>
   12b10:	00c41783          	lh	a5,12(s0)
   12b14:	eb89                	bnez	a5,12b26 <_fclose_r+0x2c>
   12b16:	4422                	lw	s0,8(sp)
   12b18:	4492                	lw	s1,4(sp)
   12b1a:	40b2                	lw	ra,12(sp)
   12b1c:	4901                	li	s2,0
   12b1e:	854a                	mv	a0,s2
   12b20:	4902                	lw	s2,0(sp)
   12b22:	0141                	add	sp,sp,16
   12b24:	8082                	ret
   12b26:	85a2                	mv	a1,s0
   12b28:	8526                	mv	a0,s1
   12b2a:	7b3020ef          	jal	15adc <__sflush_r>
   12b2e:	545c                	lw	a5,44(s0)
   12b30:	892a                	mv	s2,a0
   12b32:	c791                	beqz	a5,12b3e <_fclose_r+0x44>
   12b34:	4c4c                	lw	a1,28(s0)
   12b36:	8526                	mv	a0,s1
   12b38:	9782                	jalr	a5
   12b3a:	04054263          	bltz	a0,12b7e <_fclose_r+0x84>
   12b3e:	00c45783          	lhu	a5,12(s0)
   12b42:	0807f793          	and	a5,a5,128
   12b46:	e3b1                	bnez	a5,12b8a <_fclose_r+0x90>
   12b48:	580c                	lw	a1,48(s0)
   12b4a:	c989                	beqz	a1,12b5c <_fclose_r+0x62>
   12b4c:	04040793          	add	a5,s0,64
   12b50:	00f58463          	beq	a1,a5,12b58 <_fclose_r+0x5e>
   12b54:	8526                	mv	a0,s1
   12b56:	25e1                	jal	1321e <_free_r>
   12b58:	02042823          	sw	zero,48(s0)
   12b5c:	406c                	lw	a1,68(s0)
   12b5e:	c589                	beqz	a1,12b68 <_fclose_r+0x6e>
   12b60:	8526                	mv	a0,s1
   12b62:	2d75                	jal	1321e <_free_r>
   12b64:	04042223          	sw	zero,68(s0)
   12b68:	37ad                	jal	12ad2 <__sfp_lock_acquire>
   12b6a:	00041623          	sh	zero,12(s0)
   12b6e:	379d                	jal	12ad4 <__sfp_lock_release>
   12b70:	40b2                	lw	ra,12(sp)
   12b72:	4422                	lw	s0,8(sp)
   12b74:	4492                	lw	s1,4(sp)
   12b76:	854a                	mv	a0,s2
   12b78:	4902                	lw	s2,0(sp)
   12b7a:	0141                	add	sp,sp,16
   12b7c:	8082                	ret
   12b7e:	00c45783          	lhu	a5,12(s0)
   12b82:	597d                	li	s2,-1
   12b84:	0807f793          	and	a5,a5,128
   12b88:	d3e1                	beqz	a5,12b48 <_fclose_r+0x4e>
   12b8a:	480c                	lw	a1,16(s0)
   12b8c:	8526                	mv	a0,s1
   12b8e:	2d41                	jal	1321e <_free_r>
   12b90:	bf65                	j	12b48 <_fclose_r+0x4e>
   12b92:	3725                	jal	12aba <__sinit>
   12b94:	bfb5                	j	12b10 <_fclose_r+0x16>

00012b96 <fclose>:
   12b96:	85aa                	mv	a1,a0
   12b98:	fdc1a503          	lw	a0,-36(gp) # 1e7ec <_impure_ptr>
   12b9c:	bfb9                	j	12afa <_fclose_r>

00012b9e <_malloc_r>:
   12b9e:	7179                	add	sp,sp,-48
   12ba0:	d04a                	sw	s2,32(sp)
   12ba2:	d606                	sw	ra,44(sp)
   12ba4:	d422                	sw	s0,40(sp)
   12ba6:	d226                	sw	s1,36(sp)
   12ba8:	ce4e                	sw	s3,28(sp)
   12baa:	00b58793          	add	a5,a1,11
   12bae:	4759                	li	a4,22
   12bb0:	892a                	mv	s2,a0
   12bb2:	04f76963          	bltu	a4,a5,12c04 <_malloc_r+0x66>
   12bb6:	47c1                	li	a5,16
   12bb8:	16b7e963          	bltu	a5,a1,12d2a <_malloc_r+0x18c>
   12bbc:	1b6030ef          	jal	15d72 <__malloc_lock>
   12bc0:	47e1                	li	a5,24
   12bc2:	4589                	li	a1,2
   12bc4:	44c1                	li	s1,16
   12bc6:	92c18993          	add	s3,gp,-1748 # 1e13c <__malloc_av_>
   12bca:	97ce                	add	a5,a5,s3
   12bcc:	43c0                	lw	s0,4(a5)
   12bce:	ff878713          	add	a4,a5,-8
   12bd2:	26e40163          	beq	s0,a4,12e34 <_malloc_r+0x296>
   12bd6:	405c                	lw	a5,4(s0)
   12bd8:	4454                	lw	a3,12(s0)
   12bda:	4410                	lw	a2,8(s0)
   12bdc:	9bf1                	and	a5,a5,-4
   12bde:	97a2                	add	a5,a5,s0
   12be0:	43d8                	lw	a4,4(a5)
   12be2:	c654                	sw	a3,12(a2)
   12be4:	c690                	sw	a2,8(a3)
   12be6:	00176713          	or	a4,a4,1
   12bea:	854a                	mv	a0,s2
   12bec:	c3d8                	sw	a4,4(a5)
   12bee:	186030ef          	jal	15d74 <__malloc_unlock>
   12bf2:	00840513          	add	a0,s0,8
   12bf6:	50b2                	lw	ra,44(sp)
   12bf8:	5422                	lw	s0,40(sp)
   12bfa:	5492                	lw	s1,36(sp)
   12bfc:	5902                	lw	s2,32(sp)
   12bfe:	49f2                	lw	s3,28(sp)
   12c00:	6145                	add	sp,sp,48
   12c02:	8082                	ret
   12c04:	ff87f493          	and	s1,a5,-8
   12c08:	1207c163          	bltz	a5,12d2a <_malloc_r+0x18c>
   12c0c:	10b4ef63          	bltu	s1,a1,12d2a <_malloc_r+0x18c>
   12c10:	162030ef          	jal	15d72 <__malloc_lock>
   12c14:	1f700793          	li	a5,503
   12c18:	2c97ff63          	bgeu	a5,s1,12ef6 <_malloc_r+0x358>
   12c1c:	0094d793          	srl	a5,s1,0x9
   12c20:	10078a63          	beqz	a5,12d34 <_malloc_r+0x196>
   12c24:	4711                	li	a4,4
   12c26:	24f76c63          	bltu	a4,a5,12e7e <_malloc_r+0x2e0>
   12c2a:	0064d793          	srl	a5,s1,0x6
   12c2e:	03978593          	add	a1,a5,57
   12c32:	03878813          	add	a6,a5,56
   12c36:	00359613          	sll	a2,a1,0x3
   12c3a:	92c18993          	add	s3,gp,-1748 # 1e13c <__malloc_av_>
   12c3e:	964e                	add	a2,a2,s3
   12c40:	4240                	lw	s0,4(a2)
   12c42:	1661                	add	a2,a2,-8
   12c44:	02860163          	beq	a2,s0,12c66 <_malloc_r+0xc8>
   12c48:	453d                	li	a0,15
   12c4a:	a039                	j	12c58 <_malloc_r+0xba>
   12c4c:	4454                	lw	a3,12(s0)
   12c4e:	1e075163          	bgez	a4,12e30 <_malloc_r+0x292>
   12c52:	00d60a63          	beq	a2,a3,12c66 <_malloc_r+0xc8>
   12c56:	8436                	mv	s0,a3
   12c58:	405c                	lw	a5,4(s0)
   12c5a:	9bf1                	and	a5,a5,-4
   12c5c:	40978733          	sub	a4,a5,s1
   12c60:	fee556e3          	bge	a0,a4,12c4c <_malloc_r+0xae>
   12c64:	85c2                	mv	a1,a6
   12c66:	0109a403          	lw	s0,16(s3)
   12c6a:	93418893          	add	a7,gp,-1740 # 1e144 <__malloc_av_+0x8>
   12c6e:	1b140e63          	beq	s0,a7,12e2a <_malloc_r+0x28c>
   12c72:	405c                	lw	a5,4(s0)
   12c74:	46bd                	li	a3,15
   12c76:	9bf1                	and	a5,a5,-4
   12c78:	40978733          	sub	a4,a5,s1
   12c7c:	28e6c263          	blt	a3,a4,12f00 <_malloc_r+0x362>
   12c80:	0119aa23          	sw	a7,20(s3)
   12c84:	0119a823          	sw	a7,16(s3)
   12c88:	24075c63          	bgez	a4,12ee0 <_malloc_r+0x342>
   12c8c:	1ff00713          	li	a4,511
   12c90:	0049a503          	lw	a0,4(s3)
   12c94:	1af76563          	bltu	a4,a5,12e3e <_malloc_r+0x2a0>
   12c98:	ff87f713          	and	a4,a5,-8
   12c9c:	0721                	add	a4,a4,8
   12c9e:	974e                	add	a4,a4,s3
   12ca0:	4314                	lw	a3,0(a4)
   12ca2:	0057d613          	srl	a2,a5,0x5
   12ca6:	4785                	li	a5,1
   12ca8:	00c797b3          	sll	a5,a5,a2
   12cac:	8d5d                	or	a0,a0,a5
   12cae:	ff870793          	add	a5,a4,-8
   12cb2:	c45c                	sw	a5,12(s0)
   12cb4:	c414                	sw	a3,8(s0)
   12cb6:	00a9a223          	sw	a0,4(s3)
   12cba:	c300                	sw	s0,0(a4)
   12cbc:	c6c0                	sw	s0,12(a3)
   12cbe:	4025d793          	sra	a5,a1,0x2
   12cc2:	4605                	li	a2,1
   12cc4:	00f61633          	sll	a2,a2,a5
   12cc8:	06c56d63          	bltu	a0,a2,12d42 <_malloc_r+0x1a4>
   12ccc:	00a677b3          	and	a5,a2,a0
   12cd0:	ef81                	bnez	a5,12ce8 <_malloc_r+0x14a>
   12cd2:	0606                	sll	a2,a2,0x1
   12cd4:	99f1                	and	a1,a1,-4
   12cd6:	00a677b3          	and	a5,a2,a0
   12cda:	0591                	add	a1,a1,4
   12cdc:	e791                	bnez	a5,12ce8 <_malloc_r+0x14a>
   12cde:	0606                	sll	a2,a2,0x1
   12ce0:	00a677b3          	and	a5,a2,a0
   12ce4:	0591                	add	a1,a1,4
   12ce6:	dfe5                	beqz	a5,12cde <_malloc_r+0x140>
   12ce8:	483d                	li	a6,15
   12cea:	00359313          	sll	t1,a1,0x3
   12cee:	934e                	add	t1,t1,s3
   12cf0:	851a                	mv	a0,t1
   12cf2:	455c                	lw	a5,12(a0)
   12cf4:	8e2e                	mv	t3,a1
   12cf6:	1af50463          	beq	a0,a5,12e9e <_malloc_r+0x300>
   12cfa:	43d8                	lw	a4,4(a5)
   12cfc:	843e                	mv	s0,a5
   12cfe:	47dc                	lw	a5,12(a5)
   12d00:	9b71                	and	a4,a4,-4
   12d02:	409706b3          	sub	a3,a4,s1
   12d06:	1ad84363          	blt	a6,a3,12eac <_malloc_r+0x30e>
   12d0a:	fe06c6e3          	bltz	a3,12cf6 <_malloc_r+0x158>
   12d0e:	9722                	add	a4,a4,s0
   12d10:	4354                	lw	a3,4(a4)
   12d12:	4410                	lw	a2,8(s0)
   12d14:	854a                	mv	a0,s2
   12d16:	0016e693          	or	a3,a3,1
   12d1a:	c354                	sw	a3,4(a4)
   12d1c:	c65c                	sw	a5,12(a2)
   12d1e:	c790                	sw	a2,8(a5)
   12d20:	054030ef          	jal	15d74 <__malloc_unlock>
   12d24:	00840513          	add	a0,s0,8
   12d28:	b5f9                	j	12bf6 <_malloc_r+0x58>
   12d2a:	47b1                	li	a5,12
   12d2c:	00f92023          	sw	a5,0(s2)
   12d30:	4501                	li	a0,0
   12d32:	b5d1                	j	12bf6 <_malloc_r+0x58>
   12d34:	20000613          	li	a2,512
   12d38:	04000593          	li	a1,64
   12d3c:	03f00813          	li	a6,63
   12d40:	bded                	j	12c3a <_malloc_r+0x9c>
   12d42:	0089a403          	lw	s0,8(s3)
   12d46:	c85a                	sw	s6,16(sp)
   12d48:	405c                	lw	a5,4(s0)
   12d4a:	ffc7fb13          	and	s6,a5,-4
   12d4e:	009b6763          	bltu	s6,s1,12d5c <_malloc_r+0x1be>
   12d52:	409b0733          	sub	a4,s6,s1
   12d56:	47bd                	li	a5,15
   12d58:	0ae7c363          	blt	a5,a4,12dfe <_malloc_r+0x260>
   12d5c:	c266                	sw	s9,4(sp)
   12d5e:	fe018c93          	add	s9,gp,-32 # 1e7f0 <__malloc_sbrk_base>
   12d62:	000ca703          	lw	a4,0(s9)
   12d66:	cc52                	sw	s4,24(sp)
   12d68:	ca56                	sw	s5,20(sp)
   12d6a:	c65e                	sw	s7,12(sp)
   12d6c:	ff41aa83          	lw	s5,-12(gp) # 1e804 <__malloc_top_pad>
   12d70:	57fd                	li	a5,-1
   12d72:	01640a33          	add	s4,s0,s6
   12d76:	9aa6                	add	s5,s5,s1
   12d78:	2cf70a63          	beq	a4,a5,1304c <_malloc_r+0x4ae>
   12d7c:	6785                	lui	a5,0x1
   12d7e:	07bd                	add	a5,a5,15 # 100f <register_fini-0xf085>
   12d80:	9abe                	add	s5,s5,a5
   12d82:	77fd                	lui	a5,0xfffff
   12d84:	00fafab3          	and	s5,s5,a5
   12d88:	85d6                	mv	a1,s5
   12d8a:	854a                	mv	a0,s2
   12d8c:	45e040ef          	jal	171ea <_sbrk_r>
   12d90:	57fd                	li	a5,-1
   12d92:	8baa                	mv	s7,a0
   12d94:	32f50d63          	beq	a0,a5,130ce <_malloc_r+0x530>
   12d98:	c462                	sw	s8,8(sp)
   12d9a:	1b456263          	bltu	a0,s4,12f3e <_malloc_r+0x3a0>
   12d9e:	15c18c13          	add	s8,gp,348 # 1e96c <__malloc_current_mallinfo>
   12da2:	000c2583          	lw	a1,0(s8)
   12da6:	95d6                	add	a1,a1,s5
   12da8:	00bc2023          	sw	a1,0(s8)
   12dac:	872e                	mv	a4,a1
   12dae:	1eaa1c63          	bne	s4,a0,12fa6 <_malloc_r+0x408>
   12db2:	01451793          	sll	a5,a0,0x14
   12db6:	1e079863          	bnez	a5,12fa6 <_malloc_r+0x408>
   12dba:	0089ab83          	lw	s7,8(s3)
   12dbe:	015b07b3          	add	a5,s6,s5
   12dc2:	0017e793          	or	a5,a5,1
   12dc6:	00fba223          	sw	a5,4(s7)
   12dca:	ff018713          	add	a4,gp,-16 # 1e800 <__malloc_max_sbrked_mem>
   12dce:	4314                	lw	a3,0(a4)
   12dd0:	00b6f363          	bgeu	a3,a1,12dd6 <_malloc_r+0x238>
   12dd4:	c30c                	sw	a1,0(a4)
   12dd6:	fec18713          	add	a4,gp,-20 # 1e7fc <__malloc_max_total_mem>
   12dda:	4314                	lw	a3,0(a4)
   12ddc:	00b6f363          	bgeu	a3,a1,12de2 <_malloc_r+0x244>
   12de0:	c30c                	sw	a1,0(a4)
   12de2:	4c22                	lw	s8,8(sp)
   12de4:	845e                	mv	s0,s7
   12de6:	9bf1                	and	a5,a5,-4
   12de8:	40978733          	sub	a4,a5,s1
   12dec:	2897ee63          	bltu	a5,s1,13088 <_malloc_r+0x4ea>
   12df0:	47bd                	li	a5,15
   12df2:	28e7db63          	bge	a5,a4,13088 <_malloc_r+0x4ea>
   12df6:	4a62                	lw	s4,24(sp)
   12df8:	4ad2                	lw	s5,20(sp)
   12dfa:	4bb2                	lw	s7,12(sp)
   12dfc:	4c92                	lw	s9,4(sp)
   12dfe:	0014e793          	or	a5,s1,1
   12e02:	c05c                	sw	a5,4(s0)
   12e04:	94a2                	add	s1,s1,s0
   12e06:	0099a423          	sw	s1,8(s3)
   12e0a:	00176713          	or	a4,a4,1
   12e0e:	854a                	mv	a0,s2
   12e10:	c0d8                	sw	a4,4(s1)
   12e12:	763020ef          	jal	15d74 <__malloc_unlock>
   12e16:	50b2                	lw	ra,44(sp)
   12e18:	00840513          	add	a0,s0,8
   12e1c:	5422                	lw	s0,40(sp)
   12e1e:	4b42                	lw	s6,16(sp)
   12e20:	5492                	lw	s1,36(sp)
   12e22:	5902                	lw	s2,32(sp)
   12e24:	49f2                	lw	s3,28(sp)
   12e26:	6145                	add	sp,sp,48
   12e28:	8082                	ret
   12e2a:	0049a503          	lw	a0,4(s3)
   12e2e:	bd41                	j	12cbe <_malloc_r+0x120>
   12e30:	4410                	lw	a2,8(s0)
   12e32:	b375                	j	12bde <_malloc_r+0x40>
   12e34:	47c0                	lw	s0,12(a5)
   12e36:	0589                	add	a1,a1,2
   12e38:	e28787e3          	beq	a5,s0,12c66 <_malloc_r+0xc8>
   12e3c:	bb69                	j	12bd6 <_malloc_r+0x38>
   12e3e:	0097d713          	srl	a4,a5,0x9
   12e42:	4691                	li	a3,4
   12e44:	0ee6f563          	bgeu	a3,a4,12f2e <_malloc_r+0x390>
   12e48:	46d1                	li	a3,20
   12e4a:	24e6e963          	bltu	a3,a4,1309c <_malloc_r+0x4fe>
   12e4e:	05c70613          	add	a2,a4,92
   12e52:	05b70693          	add	a3,a4,91
   12e56:	060e                	sll	a2,a2,0x3
   12e58:	964e                	add	a2,a2,s3
   12e5a:	4218                	lw	a4,0(a2)
   12e5c:	1661                	add	a2,a2,-8
   12e5e:	00e61663          	bne	a2,a4,12e6a <_malloc_r+0x2cc>
   12e62:	a2fd                	j	13050 <_malloc_r+0x4b2>
   12e64:	4718                	lw	a4,8(a4)
   12e66:	00e60663          	beq	a2,a4,12e72 <_malloc_r+0x2d4>
   12e6a:	4354                	lw	a3,4(a4)
   12e6c:	9af1                	and	a3,a3,-4
   12e6e:	fed7ebe3          	bltu	a5,a3,12e64 <_malloc_r+0x2c6>
   12e72:	4750                	lw	a2,12(a4)
   12e74:	c450                	sw	a2,12(s0)
   12e76:	c418                	sw	a4,8(s0)
   12e78:	c600                	sw	s0,8(a2)
   12e7a:	c740                	sw	s0,12(a4)
   12e7c:	b589                	j	12cbe <_malloc_r+0x120>
   12e7e:	4751                	li	a4,20
   12e80:	0cf77663          	bgeu	a4,a5,12f4c <_malloc_r+0x3ae>
   12e84:	05400713          	li	a4,84
   12e88:	22f76663          	bltu	a4,a5,130b4 <_malloc_r+0x516>
   12e8c:	00c4d793          	srl	a5,s1,0xc
   12e90:	06f78593          	add	a1,a5,111 # fffff06f <__BSS_END__+0xfffe054b>
   12e94:	06e78813          	add	a6,a5,110
   12e98:	00359613          	sll	a2,a1,0x3
   12e9c:	bb79                	j	12c3a <_malloc_r+0x9c>
   12e9e:	0e05                	add	t3,t3,1
   12ea0:	003e7793          	and	a5,t3,3
   12ea4:	0521                	add	a0,a0,8
   12ea6:	cfdd                	beqz	a5,12f64 <_malloc_r+0x3c6>
   12ea8:	455c                	lw	a5,12(a0)
   12eaa:	b5b1                	j	12cf6 <_malloc_r+0x158>
   12eac:	4410                	lw	a2,8(s0)
   12eae:	0014e593          	or	a1,s1,1
   12eb2:	c04c                	sw	a1,4(s0)
   12eb4:	c65c                	sw	a5,12(a2)
   12eb6:	c790                	sw	a2,8(a5)
   12eb8:	94a2                	add	s1,s1,s0
   12eba:	0099aa23          	sw	s1,20(s3)
   12ebe:	0099a823          	sw	s1,16(s3)
   12ec2:	0016e793          	or	a5,a3,1
   12ec6:	0114a623          	sw	a7,12(s1)
   12eca:	0114a423          	sw	a7,8(s1)
   12ece:	c0dc                	sw	a5,4(s1)
   12ed0:	9722                	add	a4,a4,s0
   12ed2:	854a                	mv	a0,s2
   12ed4:	c314                	sw	a3,0(a4)
   12ed6:	69f020ef          	jal	15d74 <__malloc_unlock>
   12eda:	00840513          	add	a0,s0,8
   12ede:	bb21                	j	12bf6 <_malloc_r+0x58>
   12ee0:	97a2                	add	a5,a5,s0
   12ee2:	43d8                	lw	a4,4(a5)
   12ee4:	854a                	mv	a0,s2
   12ee6:	00176713          	or	a4,a4,1
   12eea:	c3d8                	sw	a4,4(a5)
   12eec:	689020ef          	jal	15d74 <__malloc_unlock>
   12ef0:	00840513          	add	a0,s0,8
   12ef4:	b309                	j	12bf6 <_malloc_r+0x58>
   12ef6:	0034d593          	srl	a1,s1,0x3
   12efa:	00848793          	add	a5,s1,8
   12efe:	b1e1                	j	12bc6 <_malloc_r+0x28>
   12f00:	0014e693          	or	a3,s1,1
   12f04:	c054                	sw	a3,4(s0)
   12f06:	94a2                	add	s1,s1,s0
   12f08:	0099aa23          	sw	s1,20(s3)
   12f0c:	0099a823          	sw	s1,16(s3)
   12f10:	00176693          	or	a3,a4,1
   12f14:	0114a623          	sw	a7,12(s1)
   12f18:	0114a423          	sw	a7,8(s1)
   12f1c:	c0d4                	sw	a3,4(s1)
   12f1e:	97a2                	add	a5,a5,s0
   12f20:	854a                	mv	a0,s2
   12f22:	c398                	sw	a4,0(a5)
   12f24:	651020ef          	jal	15d74 <__malloc_unlock>
   12f28:	00840513          	add	a0,s0,8
   12f2c:	b1e9                	j	12bf6 <_malloc_r+0x58>
   12f2e:	0067d713          	srl	a4,a5,0x6
   12f32:	03970613          	add	a2,a4,57
   12f36:	03870693          	add	a3,a4,56
   12f3a:	060e                	sll	a2,a2,0x3
   12f3c:	bf31                	j	12e58 <_malloc_r+0x2ba>
   12f3e:	05340d63          	beq	s0,s3,12f98 <_malloc_r+0x3fa>
   12f42:	0089a403          	lw	s0,8(s3)
   12f46:	4c22                	lw	s8,8(sp)
   12f48:	405c                	lw	a5,4(s0)
   12f4a:	bd71                	j	12de6 <_malloc_r+0x248>
   12f4c:	05c78593          	add	a1,a5,92
   12f50:	05b78813          	add	a6,a5,91
   12f54:	00359613          	sll	a2,a1,0x3
   12f58:	b1cd                	j	12c3a <_malloc_r+0x9c>
   12f5a:	00832783          	lw	a5,8(t1)
   12f5e:	15fd                	add	a1,a1,-1
   12f60:	1e679563          	bne	a5,t1,1314a <_malloc_r+0x5ac>
   12f64:	0035f793          	and	a5,a1,3
   12f68:	1361                	add	t1,t1,-8
   12f6a:	fbe5                	bnez	a5,12f5a <_malloc_r+0x3bc>
   12f6c:	0049a703          	lw	a4,4(s3)
   12f70:	fff64793          	not	a5,a2
   12f74:	8ff9                	and	a5,a5,a4
   12f76:	00f9a223          	sw	a5,4(s3)
   12f7a:	0606                	sll	a2,a2,0x1
   12f7c:	dcc7e3e3          	bltu	a5,a2,12d42 <_malloc_r+0x1a4>
   12f80:	dc0601e3          	beqz	a2,12d42 <_malloc_r+0x1a4>
   12f84:	00f67733          	and	a4,a2,a5
   12f88:	e711                	bnez	a4,12f94 <_malloc_r+0x3f6>
   12f8a:	0606                	sll	a2,a2,0x1
   12f8c:	00f67733          	and	a4,a2,a5
   12f90:	0e11                	add	t3,t3,4
   12f92:	df65                	beqz	a4,12f8a <_malloc_r+0x3ec>
   12f94:	85f2                	mv	a1,t3
   12f96:	bb91                	j	12cea <_malloc_r+0x14c>
   12f98:	15c18c13          	add	s8,gp,348 # 1e96c <__malloc_current_mallinfo>
   12f9c:	000c2703          	lw	a4,0(s8)
   12fa0:	9756                	add	a4,a4,s5
   12fa2:	00ec2023          	sw	a4,0(s8)
   12fa6:	000ca683          	lw	a3,0(s9)
   12faa:	57fd                	li	a5,-1
   12fac:	12f68563          	beq	a3,a5,130d6 <_malloc_r+0x538>
   12fb0:	414b87b3          	sub	a5,s7,s4
   12fb4:	97ba                	add	a5,a5,a4
   12fb6:	00fc2023          	sw	a5,0(s8)
   12fba:	007bfc93          	and	s9,s7,7
   12fbe:	0a0c8163          	beqz	s9,13060 <_malloc_r+0x4c2>
   12fc2:	419b8bb3          	sub	s7,s7,s9
   12fc6:	6785                	lui	a5,0x1
   12fc8:	07a1                	add	a5,a5,8 # 1008 <register_fini-0xf08c>
   12fca:	0ba1                	add	s7,s7,8
   12fcc:	419785b3          	sub	a1,a5,s9
   12fd0:	9ade                	add	s5,s5,s7
   12fd2:	415585b3          	sub	a1,a1,s5
   12fd6:	05d2                	sll	a1,a1,0x14
   12fd8:	0145da13          	srl	s4,a1,0x14
   12fdc:	85d2                	mv	a1,s4
   12fde:	854a                	mv	a0,s2
   12fe0:	20a040ef          	jal	171ea <_sbrk_r>
   12fe4:	57fd                	li	a5,-1
   12fe6:	12f50463          	beq	a0,a5,1310e <_malloc_r+0x570>
   12fea:	41750533          	sub	a0,a0,s7
   12fee:	01450ab3          	add	s5,a0,s4
   12ff2:	000c2703          	lw	a4,0(s8)
   12ff6:	0179a423          	sw	s7,8(s3)
   12ffa:	001ae793          	or	a5,s5,1
   12ffe:	00ea05b3          	add	a1,s4,a4
   13002:	00bc2023          	sw	a1,0(s8)
   13006:	00fba223          	sw	a5,4(s7)
   1300a:	dd3400e3          	beq	s0,s3,12dca <_malloc_r+0x22c>
   1300e:	46bd                	li	a3,15
   13010:	0766f863          	bgeu	a3,s6,13080 <_malloc_r+0x4e2>
   13014:	4058                	lw	a4,4(s0)
   13016:	ff4b0793          	add	a5,s6,-12
   1301a:	9be1                	and	a5,a5,-8
   1301c:	8b05                	and	a4,a4,1
   1301e:	8f5d                	or	a4,a4,a5
   13020:	c058                	sw	a4,4(s0)
   13022:	4615                	li	a2,5
   13024:	00f40733          	add	a4,s0,a5
   13028:	c350                	sw	a2,4(a4)
   1302a:	c710                	sw	a2,8(a4)
   1302c:	00f6e563          	bltu	a3,a5,13036 <_malloc_r+0x498>
   13030:	004ba783          	lw	a5,4(s7)
   13034:	bb59                	j	12dca <_malloc_r+0x22c>
   13036:	00840593          	add	a1,s0,8
   1303a:	854a                	mv	a0,s2
   1303c:	22cd                	jal	1321e <_free_r>
   1303e:	0089ab83          	lw	s7,8(s3)
   13042:	000c2583          	lw	a1,0(s8)
   13046:	004ba783          	lw	a5,4(s7)
   1304a:	b341                	j	12dca <_malloc_r+0x22c>
   1304c:	0ac1                	add	s5,s5,16
   1304e:	bb2d                	j	12d88 <_malloc_r+0x1ea>
   13050:	8689                	sra	a3,a3,0x2
   13052:	4785                	li	a5,1
   13054:	00d797b3          	sll	a5,a5,a3
   13058:	8d5d                	or	a0,a0,a5
   1305a:	00a9a223          	sw	a0,4(s3)
   1305e:	bd19                	j	12e74 <_malloc_r+0x2d6>
   13060:	015b85b3          	add	a1,s7,s5
   13064:	40b005b3          	neg	a1,a1
   13068:	05d2                	sll	a1,a1,0x14
   1306a:	0145da13          	srl	s4,a1,0x14
   1306e:	85d2                	mv	a1,s4
   13070:	854a                	mv	a0,s2
   13072:	178040ef          	jal	171ea <_sbrk_r>
   13076:	57fd                	li	a5,-1
   13078:	f6f519e3          	bne	a0,a5,12fea <_malloc_r+0x44c>
   1307c:	4a01                	li	s4,0
   1307e:	bf95                	j	12ff2 <_malloc_r+0x454>
   13080:	4c22                	lw	s8,8(sp)
   13082:	4785                	li	a5,1
   13084:	00fba223          	sw	a5,4(s7)
   13088:	854a                	mv	a0,s2
   1308a:	4eb020ef          	jal	15d74 <__malloc_unlock>
   1308e:	4501                	li	a0,0
   13090:	4a62                	lw	s4,24(sp)
   13092:	4ad2                	lw	s5,20(sp)
   13094:	4b42                	lw	s6,16(sp)
   13096:	4bb2                	lw	s7,12(sp)
   13098:	4c92                	lw	s9,4(sp)
   1309a:	beb1                	j	12bf6 <_malloc_r+0x58>
   1309c:	05400693          	li	a3,84
   130a0:	02e6ee63          	bltu	a3,a4,130dc <_malloc_r+0x53e>
   130a4:	00c7d713          	srl	a4,a5,0xc
   130a8:	06f70613          	add	a2,a4,111
   130ac:	06e70693          	add	a3,a4,110
   130b0:	060e                	sll	a2,a2,0x3
   130b2:	b35d                	j	12e58 <_malloc_r+0x2ba>
   130b4:	15400713          	li	a4,340
   130b8:	02f76e63          	bltu	a4,a5,130f4 <_malloc_r+0x556>
   130bc:	00f4d793          	srl	a5,s1,0xf
   130c0:	07878593          	add	a1,a5,120
   130c4:	07778813          	add	a6,a5,119
   130c8:	00359613          	sll	a2,a1,0x3
   130cc:	b6bd                	j	12c3a <_malloc_r+0x9c>
   130ce:	0089a403          	lw	s0,8(s3)
   130d2:	405c                	lw	a5,4(s0)
   130d4:	bb09                	j	12de6 <_malloc_r+0x248>
   130d6:	017ca023          	sw	s7,0(s9)
   130da:	b5c5                	j	12fba <_malloc_r+0x41c>
   130dc:	15400693          	li	a3,340
   130e0:	02e6ed63          	bltu	a3,a4,1311a <_malloc_r+0x57c>
   130e4:	00f7d713          	srl	a4,a5,0xf
   130e8:	07870613          	add	a2,a4,120
   130ec:	07770693          	add	a3,a4,119
   130f0:	060e                	sll	a2,a2,0x3
   130f2:	b39d                	j	12e58 <_malloc_r+0x2ba>
   130f4:	55400713          	li	a4,1364
   130f8:	02f76d63          	bltu	a4,a5,13132 <_malloc_r+0x594>
   130fc:	0124d793          	srl	a5,s1,0x12
   13100:	07d78593          	add	a1,a5,125
   13104:	07c78813          	add	a6,a5,124
   13108:	00359613          	sll	a2,a1,0x3
   1310c:	b63d                	j	12c3a <_malloc_r+0x9c>
   1310e:	1ce1                	add	s9,s9,-8
   13110:	9ae6                	add	s5,s5,s9
   13112:	417a8ab3          	sub	s5,s5,s7
   13116:	4a01                	li	s4,0
   13118:	bde9                	j	12ff2 <_malloc_r+0x454>
   1311a:	55400693          	li	a3,1364
   1311e:	02e6e163          	bltu	a3,a4,13140 <_malloc_r+0x5a2>
   13122:	0127d713          	srl	a4,a5,0x12
   13126:	07d70613          	add	a2,a4,125
   1312a:	07c70693          	add	a3,a4,124
   1312e:	060e                	sll	a2,a2,0x3
   13130:	b325                	j	12e58 <_malloc_r+0x2ba>
   13132:	3f800613          	li	a2,1016
   13136:	07f00593          	li	a1,127
   1313a:	07e00813          	li	a6,126
   1313e:	bcf5                	j	12c3a <_malloc_r+0x9c>
   13140:	3f800613          	li	a2,1016
   13144:	07e00693          	li	a3,126
   13148:	bb01                	j	12e58 <_malloc_r+0x2ba>
   1314a:	0049a783          	lw	a5,4(s3)
   1314e:	b535                	j	12f7a <_malloc_r+0x3dc>

00013150 <_malloc_trim_r>:
   13150:	1101                	add	sp,sp,-32
   13152:	cc22                	sw	s0,24(sp)
   13154:	ca26                	sw	s1,20(sp)
   13156:	c84a                	sw	s2,16(sp)
   13158:	c64e                	sw	s3,12(sp)
   1315a:	c452                	sw	s4,8(sp)
   1315c:	89ae                	mv	s3,a1
   1315e:	ce06                	sw	ra,28(sp)
   13160:	892a                	mv	s2,a0
   13162:	0000ba17          	auipc	s4,0xb
   13166:	fdaa0a13          	add	s4,s4,-38 # 1e13c <__malloc_av_>
   1316a:	409020ef          	jal	15d72 <__malloc_lock>
   1316e:	008a2703          	lw	a4,8(s4)
   13172:	6785                	lui	a5,0x1
   13174:	17bd                	add	a5,a5,-17 # fef <register_fini-0xf0a5>
   13176:	4344                	lw	s1,4(a4)
   13178:	6705                	lui	a4,0x1
   1317a:	98f1                	and	s1,s1,-4
   1317c:	00f48433          	add	s0,s1,a5
   13180:	41340433          	sub	s0,s0,s3
   13184:	8031                	srl	s0,s0,0xc
   13186:	147d                	add	s0,s0,-1
   13188:	0432                	sll	s0,s0,0xc
   1318a:	00e44b63          	blt	s0,a4,131a0 <_malloc_trim_r+0x50>
   1318e:	4581                	li	a1,0
   13190:	854a                	mv	a0,s2
   13192:	058040ef          	jal	171ea <_sbrk_r>
   13196:	008a2783          	lw	a5,8(s4)
   1319a:	97a6                	add	a5,a5,s1
   1319c:	00f50e63          	beq	a0,a5,131b8 <_malloc_trim_r+0x68>
   131a0:	854a                	mv	a0,s2
   131a2:	3d3020ef          	jal	15d74 <__malloc_unlock>
   131a6:	40f2                	lw	ra,28(sp)
   131a8:	4462                	lw	s0,24(sp)
   131aa:	44d2                	lw	s1,20(sp)
   131ac:	4942                	lw	s2,16(sp)
   131ae:	49b2                	lw	s3,12(sp)
   131b0:	4a22                	lw	s4,8(sp)
   131b2:	4501                	li	a0,0
   131b4:	6105                	add	sp,sp,32
   131b6:	8082                	ret
   131b8:	408005b3          	neg	a1,s0
   131bc:	854a                	mv	a0,s2
   131be:	02c040ef          	jal	171ea <_sbrk_r>
   131c2:	57fd                	li	a5,-1
   131c4:	02f50963          	beq	a0,a5,131f6 <_malloc_trim_r+0xa6>
   131c8:	15c18713          	add	a4,gp,348 # 1e96c <__malloc_current_mallinfo>
   131cc:	431c                	lw	a5,0(a4)
   131ce:	008a2683          	lw	a3,8(s4)
   131d2:	8c81                	sub	s1,s1,s0
   131d4:	0014e493          	or	s1,s1,1
   131d8:	8f81                	sub	a5,a5,s0
   131da:	854a                	mv	a0,s2
   131dc:	c2c4                	sw	s1,4(a3)
   131de:	c31c                	sw	a5,0(a4)
   131e0:	395020ef          	jal	15d74 <__malloc_unlock>
   131e4:	40f2                	lw	ra,28(sp)
   131e6:	4462                	lw	s0,24(sp)
   131e8:	44d2                	lw	s1,20(sp)
   131ea:	4942                	lw	s2,16(sp)
   131ec:	49b2                	lw	s3,12(sp)
   131ee:	4a22                	lw	s4,8(sp)
   131f0:	4505                	li	a0,1
   131f2:	6105                	add	sp,sp,32
   131f4:	8082                	ret
   131f6:	4581                	li	a1,0
   131f8:	854a                	mv	a0,s2
   131fa:	7f1030ef          	jal	171ea <_sbrk_r>
   131fe:	008a2703          	lw	a4,8(s4)
   13202:	46bd                	li	a3,15
   13204:	40e507b3          	sub	a5,a0,a4
   13208:	f8f6dce3          	bge	a3,a5,131a0 <_malloc_trim_r+0x50>
   1320c:	fe01a683          	lw	a3,-32(gp) # 1e7f0 <__malloc_sbrk_base>
   13210:	8d15                	sub	a0,a0,a3
   13212:	0017e793          	or	a5,a5,1
   13216:	14a1ae23          	sw	a0,348(gp) # 1e96c <__malloc_current_mallinfo>
   1321a:	c35c                	sw	a5,4(a4)
   1321c:	b751                	j	131a0 <_malloc_trim_r+0x50>

0001321e <_free_r>:
   1321e:	10058d63          	beqz	a1,13338 <_free_r+0x11a>
   13222:	1141                	add	sp,sp,-16
   13224:	c422                	sw	s0,8(sp)
   13226:	c226                	sw	s1,4(sp)
   13228:	842e                	mv	s0,a1
   1322a:	84aa                	mv	s1,a0
   1322c:	c606                	sw	ra,12(sp)
   1322e:	345020ef          	jal	15d72 <__malloc_lock>
   13232:	ffc42583          	lw	a1,-4(s0)
   13236:	ff840713          	add	a4,s0,-8
   1323a:	0000b517          	auipc	a0,0xb
   1323e:	f0250513          	add	a0,a0,-254 # 1e13c <__malloc_av_>
   13242:	ffe5f793          	and	a5,a1,-2
   13246:	00f70633          	add	a2,a4,a5
   1324a:	4254                	lw	a3,4(a2)
   1324c:	00852803          	lw	a6,8(a0)
   13250:	9af1                	and	a3,a3,-4
   13252:	12c80563          	beq	a6,a2,1337c <_free_r+0x15e>
   13256:	c254                	sw	a3,4(a2)
   13258:	8985                	and	a1,a1,1
   1325a:	00d60833          	add	a6,a2,a3
   1325e:	e9bd                	bnez	a1,132d4 <_free_r+0xb6>
   13260:	ff842303          	lw	t1,-8(s0)
   13264:	00482583          	lw	a1,4(a6)
   13268:	0000b897          	auipc	a7,0xb
   1326c:	edc88893          	add	a7,a7,-292 # 1e144 <__malloc_av_+0x8>
   13270:	40670733          	sub	a4,a4,t1
   13274:	00872803          	lw	a6,8(a4) # 1008 <register_fini-0xf08c>
   13278:	979a                	add	a5,a5,t1
   1327a:	8985                	and	a1,a1,1
   1327c:	0f180463          	beq	a6,a7,13364 <_free_r+0x146>
   13280:	00c72303          	lw	t1,12(a4)
   13284:	00682623          	sw	t1,12(a6)
   13288:	01032423          	sw	a6,8(t1)
   1328c:	12058063          	beqz	a1,133ac <_free_r+0x18e>
   13290:	0017e693          	or	a3,a5,1
   13294:	c354                	sw	a3,4(a4)
   13296:	c21c                	sw	a5,0(a2)
   13298:	1ff00693          	li	a3,511
   1329c:	04f6e963          	bltu	a3,a5,132ee <_free_r+0xd0>
   132a0:	ff87f693          	and	a3,a5,-8
   132a4:	06a1                	add	a3,a3,8
   132a6:	414c                	lw	a1,4(a0)
   132a8:	96aa                	add	a3,a3,a0
   132aa:	4290                	lw	a2,0(a3)
   132ac:	0057d813          	srl	a6,a5,0x5
   132b0:	4785                	li	a5,1
   132b2:	010797b3          	sll	a5,a5,a6
   132b6:	8fcd                	or	a5,a5,a1
   132b8:	ff868593          	add	a1,a3,-8
   132bc:	c74c                	sw	a1,12(a4)
   132be:	c710                	sw	a2,8(a4)
   132c0:	c15c                	sw	a5,4(a0)
   132c2:	c298                	sw	a4,0(a3)
   132c4:	c658                	sw	a4,12(a2)
   132c6:	4422                	lw	s0,8(sp)
   132c8:	40b2                	lw	ra,12(sp)
   132ca:	8526                	mv	a0,s1
   132cc:	4492                	lw	s1,4(sp)
   132ce:	0141                	add	sp,sp,16
   132d0:	2a50206f          	j	15d74 <__malloc_unlock>
   132d4:	00482583          	lw	a1,4(a6)
   132d8:	8985                	and	a1,a1,1
   132da:	c1a5                	beqz	a1,1333a <_free_r+0x11c>
   132dc:	0017e693          	or	a3,a5,1
   132e0:	fed42e23          	sw	a3,-4(s0)
   132e4:	c21c                	sw	a5,0(a2)
   132e6:	1ff00693          	li	a3,511
   132ea:	faf6fbe3          	bgeu	a3,a5,132a0 <_free_r+0x82>
   132ee:	0097d693          	srl	a3,a5,0x9
   132f2:	4611                	li	a2,4
   132f4:	0ad66e63          	bltu	a2,a3,133b0 <_free_r+0x192>
   132f8:	0067d693          	srl	a3,a5,0x6
   132fc:	03968593          	add	a1,a3,57
   13300:	03868613          	add	a2,a3,56
   13304:	058e                	sll	a1,a1,0x3
   13306:	95aa                	add	a1,a1,a0
   13308:	4194                	lw	a3,0(a1)
   1330a:	15e1                	add	a1,a1,-8
   1330c:	00d59663          	bne	a1,a3,13318 <_free_r+0xfa>
   13310:	a0cd                	j	133f2 <_free_r+0x1d4>
   13312:	4694                	lw	a3,8(a3)
   13314:	00d58663          	beq	a1,a3,13320 <_free_r+0x102>
   13318:	42d0                	lw	a2,4(a3)
   1331a:	9a71                	and	a2,a2,-4
   1331c:	fec7ebe3          	bltu	a5,a2,13312 <_free_r+0xf4>
   13320:	46cc                	lw	a1,12(a3)
   13322:	c74c                	sw	a1,12(a4)
   13324:	c714                	sw	a3,8(a4)
   13326:	4422                	lw	s0,8(sp)
   13328:	40b2                	lw	ra,12(sp)
   1332a:	c598                	sw	a4,8(a1)
   1332c:	8526                	mv	a0,s1
   1332e:	4492                	lw	s1,4(sp)
   13330:	c6d8                	sw	a4,12(a3)
   13332:	0141                	add	sp,sp,16
   13334:	2410206f          	j	15d74 <__malloc_unlock>
   13338:	8082                	ret
   1333a:	97b6                	add	a5,a5,a3
   1333c:	0000b897          	auipc	a7,0xb
   13340:	e0888893          	add	a7,a7,-504 # 1e144 <__malloc_av_+0x8>
   13344:	4614                	lw	a3,8(a2)
   13346:	09168a63          	beq	a3,a7,133da <_free_r+0x1bc>
   1334a:	00c62803          	lw	a6,12(a2)
   1334e:	0017e593          	or	a1,a5,1
   13352:	00f70633          	add	a2,a4,a5
   13356:	0106a623          	sw	a6,12(a3)
   1335a:	00d82423          	sw	a3,8(a6)
   1335e:	c34c                	sw	a1,4(a4)
   13360:	c21c                	sw	a5,0(a2)
   13362:	bf1d                	j	13298 <_free_r+0x7a>
   13364:	edf1                	bnez	a1,13440 <_free_r+0x222>
   13366:	460c                	lw	a1,8(a2)
   13368:	4650                	lw	a2,12(a2)
   1336a:	96be                	add	a3,a3,a5
   1336c:	0016e793          	or	a5,a3,1
   13370:	c5d0                	sw	a2,12(a1)
   13372:	c60c                	sw	a1,8(a2)
   13374:	c35c                	sw	a5,4(a4)
   13376:	9736                	add	a4,a4,a3
   13378:	c314                	sw	a3,0(a4)
   1337a:	b7b1                	j	132c6 <_free_r+0xa8>
   1337c:	8985                	and	a1,a1,1
   1337e:	96be                	add	a3,a3,a5
   13380:	e989                	bnez	a1,13392 <_free_r+0x174>
   13382:	ff842583          	lw	a1,-8(s0)
   13386:	8f0d                	sub	a4,a4,a1
   13388:	475c                	lw	a5,12(a4)
   1338a:	4710                	lw	a2,8(a4)
   1338c:	96ae                	add	a3,a3,a1
   1338e:	c65c                	sw	a5,12(a2)
   13390:	c790                	sw	a2,8(a5)
   13392:	0016e793          	or	a5,a3,1
   13396:	c35c                	sw	a5,4(a4)
   13398:	c518                	sw	a4,8(a0)
   1339a:	fe41a783          	lw	a5,-28(gp) # 1e7f4 <__malloc_trim_threshold>
   1339e:	f2f6e4e3          	bltu	a3,a5,132c6 <_free_r+0xa8>
   133a2:	ff41a583          	lw	a1,-12(gp) # 1e804 <__malloc_top_pad>
   133a6:	8526                	mv	a0,s1
   133a8:	3365                	jal	13150 <_malloc_trim_r>
   133aa:	bf31                	j	132c6 <_free_r+0xa8>
   133ac:	97b6                	add	a5,a5,a3
   133ae:	bf59                	j	13344 <_free_r+0x126>
   133b0:	4651                	li	a2,20
   133b2:	00d67e63          	bgeu	a2,a3,133ce <_free_r+0x1b0>
   133b6:	05400613          	li	a2,84
   133ba:	04d66663          	bltu	a2,a3,13406 <_free_r+0x1e8>
   133be:	00c7d693          	srl	a3,a5,0xc
   133c2:	06f68593          	add	a1,a3,111
   133c6:	06e68613          	add	a2,a3,110
   133ca:	058e                	sll	a1,a1,0x3
   133cc:	bf2d                	j	13306 <_free_r+0xe8>
   133ce:	05c68593          	add	a1,a3,92
   133d2:	05b68613          	add	a2,a3,91
   133d6:	058e                	sll	a1,a1,0x3
   133d8:	b73d                	j	13306 <_free_r+0xe8>
   133da:	c958                	sw	a4,20(a0)
   133dc:	c918                	sw	a4,16(a0)
   133de:	0017e693          	or	a3,a5,1
   133e2:	01172623          	sw	a7,12(a4)
   133e6:	01172423          	sw	a7,8(a4)
   133ea:	c354                	sw	a3,4(a4)
   133ec:	973e                	add	a4,a4,a5
   133ee:	c31c                	sw	a5,0(a4)
   133f0:	bdd9                	j	132c6 <_free_r+0xa8>
   133f2:	00452803          	lw	a6,4(a0)
   133f6:	8609                	sra	a2,a2,0x2
   133f8:	4785                	li	a5,1
   133fa:	00c797b3          	sll	a5,a5,a2
   133fe:	0107e7b3          	or	a5,a5,a6
   13402:	c15c                	sw	a5,4(a0)
   13404:	bf39                	j	13322 <_free_r+0x104>
   13406:	15400613          	li	a2,340
   1340a:	00d66a63          	bltu	a2,a3,1341e <_free_r+0x200>
   1340e:	00f7d693          	srl	a3,a5,0xf
   13412:	07868593          	add	a1,a3,120
   13416:	07768613          	add	a2,a3,119
   1341a:	058e                	sll	a1,a1,0x3
   1341c:	b5ed                	j	13306 <_free_r+0xe8>
   1341e:	55400613          	li	a2,1364
   13422:	00d66a63          	bltu	a2,a3,13436 <_free_r+0x218>
   13426:	0127d693          	srl	a3,a5,0x12
   1342a:	07d68593          	add	a1,a3,125
   1342e:	07c68613          	add	a2,a3,124
   13432:	058e                	sll	a1,a1,0x3
   13434:	bdc9                	j	13306 <_free_r+0xe8>
   13436:	3f800593          	li	a1,1016
   1343a:	07e00613          	li	a2,126
   1343e:	b5e1                	j	13306 <_free_r+0xe8>
   13440:	0017e693          	or	a3,a5,1
   13444:	c354                	sw	a3,4(a4)
   13446:	c21c                	sw	a5,0(a2)
   13448:	bdbd                	j	132c6 <_free_r+0xa8>

0001344a <__gdtoa>:
   1344a:	7131                	add	sp,sp,-192
   1344c:	d15a                	sw	s6,160(sp)
   1344e:	00072b03          	lw	s6,0(a4)
   13452:	d94a                	sw	s2,176(sp)
   13454:	df06                	sw	ra,188(sp)
   13456:	fcfb7313          	and	t1,s6,-49
   1345a:	00672023          	sw	t1,0(a4)
   1345e:	893a                	mv	s2,a4
   13460:	470e                	lw	a4,192(sp)
   13462:	00fb7313          	and	t1,s6,15
   13466:	4e0d                	li	t3,3
   13468:	c43a                	sw	a4,8(sp)
   1346a:	c02a                	sw	a0,0(sp)
   1346c:	c832                	sw	a2,16(sp)
   1346e:	ca42                	sw	a6,20(sp)
   13470:	c246                	sw	a7,4(sp)
   13472:	55c30163          	beq	t1,t3,139b4 <__gdtoa+0x56a>
   13476:	cd62                	sw	s8,152(sp)
   13478:	00cb7c13          	and	s8,s6,12
   1347c:	4c0c1b63          	bnez	s8,13952 <__gdtoa+0x508>
   13480:	50030663          	beqz	t1,1398c <__gdtoa+0x542>
   13484:	d356                	sw	s5,164(sp)
   13486:	0005aa83          	lw	s5,0(a1)
   1348a:	d74e                	sw	s3,172(sp)
   1348c:	c96a                	sw	s10,144(sp)
   1348e:	c76e                	sw	s11,140(sp)
   13490:	89b6                	mv	s3,a3
   13492:	02000693          	li	a3,32
   13496:	8dae                	mv	s11,a1
   13498:	8d3e                	mv	s10,a5
   1349a:	4581                	li	a1,0
   1349c:	02000793          	li	a5,32
   134a0:	0156d663          	bge	a3,s5,134ac <__gdtoa+0x62>
   134a4:	0786                	sll	a5,a5,0x1
   134a6:	0585                	add	a1,a1,1
   134a8:	ff57cee3          	blt	a5,s5,134a4 <__gdtoa+0x5a>
   134ac:	4502                	lw	a0,0(sp)
   134ae:	3e5020ef          	jal	16092 <_Balloc>
   134b2:	c62a                	sw	a0,12(sp)
   134b4:	7c050163          	beqz	a0,13c76 <__gdtoa+0x82c>
   134b8:	47b2                	lw	a5,12(sp)
   134ba:	fffa8513          	add	a0,s5,-1
   134be:	8515                	sra	a0,a0,0x5
   134c0:	00251593          	sll	a1,a0,0x2
   134c4:	01478693          	add	a3,a5,20
   134c8:	d552                	sw	s4,168(sp)
   134ca:	cb66                	sw	s9,148(sp)
   134cc:	95ce                	add	a1,a1,s3
   134ce:	87ce                	mv	a5,s3
   134d0:	4398                	lw	a4,0(a5)
   134d2:	0791                	add	a5,a5,4
   134d4:	0691                	add	a3,a3,4
   134d6:	fee6ae23          	sw	a4,-4(a3)
   134da:	fef5fbe3          	bgeu	a1,a5,134d0 <__gdtoa+0x86>
   134de:	0585                	add	a1,a1,1
   134e0:	00198793          	add	a5,s3,1
   134e4:	4691                	li	a3,4
   134e6:	00f5e563          	bltu	a1,a5,134f0 <__gdtoa+0xa6>
   134ea:	050a                	sll	a0,a0,0x2
   134ec:	00450693          	add	a3,a0,4
   134f0:	47b2                	lw	a5,12(sp)
   134f2:	4026dc93          	sra	s9,a3,0x2
   134f6:	96be                	add	a3,a3,a5
   134f8:	a021                	j	13500 <__gdtoa+0xb6>
   134fa:	16f1                	add	a3,a3,-4
   134fc:	4e0c8f63          	beqz	s9,139fa <__gdtoa+0x5b0>
   13500:	4a9c                	lw	a5,16(a3)
   13502:	8a66                	mv	s4,s9
   13504:	1cfd                	add	s9,s9,-1
   13506:	dbf5                	beqz	a5,134fa <__gdtoa+0xb0>
   13508:	4732                	lw	a4,12(sp)
   1350a:	004c8793          	add	a5,s9,4
   1350e:	078a                	sll	a5,a5,0x2
   13510:	97ba                	add	a5,a5,a4
   13512:	43c8                	lw	a0,4(a5)
   13514:	01472823          	sw	s4,16(a4)
   13518:	0a16                	sll	s4,s4,0x5
   1351a:	5a3020ef          	jal	162bc <__hi0bits>
   1351e:	40aa0cb3          	sub	s9,s4,a0
   13522:	4532                	lw	a0,12(sp)
   13524:	123030ef          	jal	16e46 <__trailz_D2A>
   13528:	47c2                	lw	a5,16(sp)
   1352a:	deaa                	sw	a0,124(sp)
   1352c:	d03e                	sw	a5,32(sp)
   1352e:	4e051c63          	bnez	a0,13a26 <__gdtoa+0x5dc>
   13532:	47b2                	lw	a5,12(sp)
   13534:	4b94                	lw	a3,16(a5)
   13536:	44068163          	beqz	a3,13978 <__gdtoa+0x52e>
   1353a:	4532                	lw	a0,12(sp)
   1353c:	18ec                	add	a1,sp,124
   1353e:	dd22                	sw	s0,184(sp)
   13540:	db26                	sw	s1,180(sp)
   13542:	cf5e                	sw	s7,156(sp)
   13544:	476030ef          	jal	169ba <__b2d>
   13548:	00c59a13          	sll	s4,a1,0xc
   1354c:	00ca5a13          	srl	s4,s4,0xc
   13550:	3ff006b7          	lui	a3,0x3ff00
   13554:	00da64b3          	or	s1,s4,a3
   13558:	5702                	lw	a4,32(sp)
   1355a:	0000b697          	auipc	a3,0xb
   1355e:	15668693          	add	a3,a3,342 # 1e6b0 <__TMC_END__>
   13562:	4290                	lw	a2,0(a3)
   13564:	42d4                	lw	a3,4(a3)
   13566:	9766                	add	a4,a4,s9
   13568:	87aa                	mv	a5,a0
   1356a:	85a6                	mv	a1,s1
   1356c:	fff70a13          	add	s4,a4,-1
   13570:	c4be                	sw	a5,72(sp)
   13572:	ce3a                	sw	a4,28(sp)
   13574:	dc2a                	sw	a0,56(sp)
   13576:	210070ef          	jal	1a786 <__subdf3>
   1357a:	0000b697          	auipc	a3,0xb
   1357e:	13e68693          	add	a3,a3,318 # 1e6b8 <__TMC_END__+0x8>
   13582:	4290                	lw	a2,0(a3)
   13584:	42d4                	lw	a3,4(a3)
   13586:	4e3060ef          	jal	1a268 <__muldf3>
   1358a:	0000b697          	auipc	a3,0xb
   1358e:	13668693          	add	a3,a3,310 # 1e6c0 <__TMC_END__+0x10>
   13592:	4290                	lw	a2,0(a3)
   13594:	42d4                	lw	a3,4(a3)
   13596:	60f050ef          	jal	193a4 <__adddf3>
   1359a:	8baa                	mv	s7,a0
   1359c:	8552                	mv	a0,s4
   1359e:	842e                	mv	s0,a1
   135a0:	19b070ef          	jal	1af3a <__floatsidf>
   135a4:	0000b697          	auipc	a3,0xb
   135a8:	12468693          	add	a3,a3,292 # 1e6c8 <__TMC_END__+0x18>
   135ac:	4290                	lw	a2,0(a3)
   135ae:	42d4                	lw	a3,4(a3)
   135b0:	4b9060ef          	jal	1a268 <__muldf3>
   135b4:	862a                	mv	a2,a0
   135b6:	86ae                	mv	a3,a1
   135b8:	855e                	mv	a0,s7
   135ba:	85a2                	mv	a1,s0
   135bc:	5e9050ef          	jal	193a4 <__adddf3>
   135c0:	8baa                	mv	s7,a0
   135c2:	842e                	mv	s0,a1
   135c4:	8552                	mv	a0,s4
   135c6:	000a5563          	bgez	s4,135d0 <__gdtoa+0x186>
   135ca:	4772                	lw	a4,28(sp)
   135cc:	4505                	li	a0,1
   135ce:	8d19                	sub	a0,a0,a4
   135d0:	bcb50513          	add	a0,a0,-1077
   135d4:	02a05463          	blez	a0,135fc <__gdtoa+0x1b2>
   135d8:	163070ef          	jal	1af3a <__floatsidf>
   135dc:	0000b697          	auipc	a3,0xb
   135e0:	0f468693          	add	a3,a3,244 # 1e6d0 <__TMC_END__+0x20>
   135e4:	4290                	lw	a2,0(a3)
   135e6:	42d4                	lw	a3,4(a3)
   135e8:	481060ef          	jal	1a268 <__muldf3>
   135ec:	862a                	mv	a2,a0
   135ee:	86ae                	mv	a3,a1
   135f0:	855e                	mv	a0,s7
   135f2:	85a2                	mv	a1,s0
   135f4:	5b1050ef          	jal	193a4 <__adddf3>
   135f8:	8baa                	mv	s7,a0
   135fa:	842e                	mv	s0,a1
   135fc:	85a2                	mv	a1,s0
   135fe:	855e                	mv	a0,s7
   13600:	0d5070ef          	jal	1aed4 <__fixdfsi>
   13604:	882a                	mv	a6,a0
   13606:	85a2                	mv	a1,s0
   13608:	855e                	mv	a0,s7
   1360a:	4601                	li	a2,0
   1360c:	4681                	li	a3,0
   1360e:	cc42                	sw	a6,24(sp)
   13610:	397060ef          	jal	1a1a6 <__ledf2>
   13614:	00055e63          	bgez	a0,13630 <__gdtoa+0x1e6>
   13618:	4562                	lw	a0,24(sp)
   1361a:	121070ef          	jal	1af3a <__floatsidf>
   1361e:	865e                	mv	a2,s7
   13620:	86a2                	mv	a3,s0
   13622:	25b060ef          	jal	1a07c <__eqdf2>
   13626:	47e2                	lw	a5,24(sp)
   13628:	00a03533          	snez	a0,a0
   1362c:	8f89                	sub	a5,a5,a0
   1362e:	cc3e                	sw	a5,24(sp)
   13630:	014a1613          	sll	a2,s4,0x14
   13634:	47e2                	lw	a5,24(sp)
   13636:	00960833          	add	a6,a2,s1
   1363a:	414c8433          	sub	s0,s9,s4
   1363e:	46d9                	li	a3,22
   13640:	c0c2                	sw	a6,64(sp)
   13642:	fff40b93          	add	s7,s0,-1
   13646:	3af6ee63          	bltu	a3,a5,13a02 <__gdtoa+0x5b8>
   1364a:	0000a317          	auipc	t1,0xa
   1364e:	34e30313          	add	t1,t1,846 # 1d998 <__mprec_tens>
   13652:	00379693          	sll	a3,a5,0x3
   13656:	969a                	add	a3,a3,t1
   13658:	58e2                	lw	a7,56(sp)
   1365a:	4288                	lw	a0,0(a3)
   1365c:	42cc                	lw	a1,4(a3)
   1365e:	8646                	mv	a2,a7
   13660:	86c2                	mv	a3,a6
   13662:	287060ef          	jal	1a0e8 <__gedf2>
   13666:	62a04b63          	bgtz	a0,13c9c <__gdtoa+0x852>
   1366a:	de02                	sw	zero,60(sp)
   1366c:	d202                	sw	zero,36(sp)
   1366e:	00804763          	bgtz	s0,1367c <__gdtoa+0x232>
   13672:	4685                	li	a3,1
   13674:	408687b3          	sub	a5,a3,s0
   13678:	d23e                	sw	a5,36(sp)
   1367a:	4b81                	li	s7,0
   1367c:	47e2                	lw	a5,24(sp)
   1367e:	d602                	sw	zero,44(sp)
   13680:	9bbe                	add	s7,s7,a5
   13682:	d83e                	sw	a5,48(sp)
   13684:	46a5                	li	a3,9
   13686:	3ba6eb63          	bltu	a3,s10,13a3c <__gdtoa+0x5f2>
   1368a:	4695                	li	a3,5
   1368c:	61a6cd63          	blt	a3,s10,13ca6 <__gdtoa+0x85c>
   13690:	47f2                	lw	a5,28(sp)
   13692:	4611                	li	a2,4
   13694:	3fd78a13          	add	s4,a5,1021
   13698:	7f8a3a13          	sltiu	s4,s4,2040
   1369c:	2ccd01e3          	beq	s10,a2,1415e <__gdtoa+0xd14>
   136a0:	2add0be3          	beq	s10,a3,14156 <__gdtoa+0xd0c>
   136a4:	4689                	li	a3,2
   136a6:	2add0fe3          	beq	s10,a3,14164 <__gdtoa+0xd1a>
   136aa:	468d                	li	a3,3
   136ac:	da02                	sw	zero,52(sp)
   136ae:	38dd1d63          	bne	s10,a3,13a48 <__gdtoa+0x5fe>
   136b2:	57c2                	lw	a5,48(sp)
   136b4:	4752                	lw	a4,20(sp)
   136b6:	97ba                	add	a5,a5,a4
   136b8:	c6be                	sw	a5,76(sp)
   136ba:	0785                	add	a5,a5,1
   136bc:	ce3e                	sw	a5,28(sp)
   136be:	12f05be3          	blez	a5,13ff4 <__gdtoa+0xbaa>
   136c2:	86be                	mv	a3,a5
   136c4:	85be                	mv	a1,a5
   136c6:	4502                	lw	a0,0(sp)
   136c8:	deb6                	sw	a3,124(sp)
   136ca:	6b8020ef          	jal	15d82 <__rv_alloc_D2A>
   136ce:	8f2a                	mv	t5,a0
   136d0:	30050a63          	beqz	a0,139e4 <__gdtoa+0x59a>
   136d4:	00cda783          	lw	a5,12(s11)
   136d8:	17fd                	add	a5,a5,-1
   136da:	d43e                	sw	a5,40(sp)
   136dc:	3a078263          	beqz	a5,13a80 <__gdtoa+0x636>
   136e0:	5a07cb63          	bltz	a5,13c96 <__gdtoa+0x84c>
   136e4:	100b7e93          	and	t4,s6,256
   136e8:	380e9763          	bnez	t4,13a76 <__gdtoa+0x62c>
   136ec:	5782                	lw	a5,32(sp)
   136ee:	0007c663          	bltz	a5,136fa <__gdtoa+0x2b0>
   136f2:	57c2                	lw	a5,48(sp)
   136f4:	46b9                	li	a3,14
   136f6:	5cf6d563          	bge	a3,a5,13cc0 <__gdtoa+0x876>
   136fa:	57d2                	lw	a5,52(sp)
   136fc:	58078963          	beqz	a5,13c8e <__gdtoa+0x844>
   13700:	5782                	lw	a5,32(sp)
   13702:	419a8e33          	sub	t3,s5,s9
   13706:	004da683          	lw	a3,4(s11)
   1370a:	001e0613          	add	a2,t3,1
   1370e:	deb2                	sw	a2,124(sp)
   13710:	41c78e33          	sub	t3,a5,t3
   13714:	12de50e3          	bge	t3,a3,14034 <__gdtoa+0xbea>
   13718:	ffdd0613          	add	a2,s10,-3
   1371c:	9a75                	and	a2,a2,-3
   1371e:	04060ee3          	beqz	a2,13f7a <__gdtoa+0xb30>
   13722:	40d786b3          	sub	a3,a5,a3
   13726:	0685                	add	a3,a3,1
   13728:	deb6                	sw	a3,124(sp)
   1372a:	4605                	li	a2,1
   1372c:	01a65a63          	bge	a2,s10,13740 <__gdtoa+0x2f6>
   13730:	47f2                	lw	a5,28(sp)
   13732:	00f05763          	blez	a5,13740 <__gdtoa+0x2f6>
   13736:	47f2                	lw	a5,28(sp)
   13738:	00d7d463          	bge	a5,a3,13740 <__gdtoa+0x2f6>
   1373c:	6610006f          	j	1459c <__gdtoa+0x1152>
   13740:	5792                	lw	a5,36(sp)
   13742:	54b2                	lw	s1,44(sp)
   13744:	9bb6                	add	s7,s7,a3
   13746:	8abe                	mv	s5,a5
   13748:	97b6                	add	a5,a5,a3
   1374a:	d23e                	sw	a5,36(sp)
   1374c:	4502                	lw	a0,0(sp)
   1374e:	4585                	li	a1,1
   13750:	d07a                	sw	t5,32(sp)
   13752:	449020ef          	jal	1639a <__i2b>
   13756:	5f02                	lw	t5,32(sp)
   13758:	8a2a                	mv	s4,a0
   1375a:	28050563          	beqz	a0,139e4 <__gdtoa+0x59a>
   1375e:	020a8063          	beqz	s5,1377e <__gdtoa+0x334>
   13762:	01705e63          	blez	s7,1377e <__gdtoa+0x334>
   13766:	86d6                	mv	a3,s5
   13768:	015bd363          	bge	s7,s5,1376e <__gdtoa+0x324>
   1376c:	86de                	mv	a3,s7
   1376e:	5792                	lw	a5,36(sp)
   13770:	deb6                	sw	a3,124(sp)
   13772:	40da8ab3          	sub	s5,s5,a3
   13776:	8f95                	sub	a5,a5,a3
   13778:	d23e                	sw	a5,36(sp)
   1377a:	40db8bb3          	sub	s7,s7,a3
   1377e:	57b2                	lw	a5,44(sp)
   13780:	cf99                	beqz	a5,1379e <__gdtoa+0x354>
   13782:	57d2                	lw	a5,52(sp)
   13784:	c399                	beqz	a5,1378a <__gdtoa+0x340>
   13786:	12049ce3          	bnez	s1,140be <__gdtoa+0xc74>
   1378a:	5632                	lw	a2,44(sp)
   1378c:	45b2                	lw	a1,12(sp)
   1378e:	4502                	lw	a0,0(sp)
   13790:	d07a                	sw	t5,32(sp)
   13792:	60d020ef          	jal	1659e <__pow5mult>
   13796:	c62a                	sw	a0,12(sp)
   13798:	5f02                	lw	t5,32(sp)
   1379a:	24050563          	beqz	a0,139e4 <__gdtoa+0x59a>
   1379e:	4502                	lw	a0,0(sp)
   137a0:	4585                	li	a1,1
   137a2:	d07a                	sw	t5,32(sp)
   137a4:	3f7020ef          	jal	1639a <__i2b>
   137a8:	832a                	mv	t1,a0
   137aa:	22050d63          	beqz	a0,139e4 <__gdtoa+0x59a>
   137ae:	47e2                	lw	a5,24(sp)
   137b0:	5f02                	lw	t5,32(sp)
   137b2:	040795e3          	bnez	a5,13ffc <__gdtoa+0xbb2>
   137b6:	4685                	li	a3,1
   137b8:	65a6d063          	bge	a3,s10,13df8 <__gdtoa+0x9ae>
   137bc:	4b7d                	li	s6,31
   137be:	5792                	lw	a5,36(sp)
   137c0:	417b0b33          	sub	s6,s6,s7
   137c4:	1b71                	add	s6,s6,-4
   137c6:	01fb7b13          	and	s6,s6,31
   137ca:	00fb0633          	add	a2,s6,a5
   137ce:	deda                	sw	s6,124(sp)
   137d0:	87da                	mv	a5,s6
   137d2:	6cc04863          	bgtz	a2,13ea2 <__gdtoa+0xa58>
   137d6:	00fb8633          	add	a2,s7,a5
   137da:	1ec04c63          	bgtz	a2,139d2 <__gdtoa+0x588>
   137de:	57f2                	lw	a5,60(sp)
   137e0:	6c079e63          	bnez	a5,13ebc <__gdtoa+0xa72>
   137e4:	47f2                	lw	a5,28(sp)
   137e6:	7af05b63          	blez	a5,13f9c <__gdtoa+0xb52>
   137ea:	57d2                	lw	a5,52(sp)
   137ec:	70078863          	beqz	a5,13efc <__gdtoa+0xab2>
   137f0:	015b0633          	add	a2,s6,s5
   137f4:	12c04fe3          	bgtz	a2,14132 <__gdtoa+0xce8>
   137f8:	47e2                	lw	a5,24(sp)
   137fa:	8ad2                	mv	s5,s4
   137fc:	180794e3          	bnez	a5,14184 <__gdtoa+0xd3a>
   13800:	ca4a                	sw	s2,20(sp)
   13802:	44b2                	lw	s1,12(sp)
   13804:	4902                	lw	s2,0(sp)
   13806:	8dfa                	mv	s11,t5
   13808:	4785                	li	a5,1
   1380a:	4409                	li	s0,2
   1380c:	8c1a                	mv	s8,t1
   1380e:	c87a                	sw	t5,16(sp)
   13810:	a885                	j	13880 <__gdtoa+0x436>
   13812:	854a                	mv	a0,s2
   13814:	0eb020ef          	jal	160fe <_Bfree>
   13818:	280b4de3          	bltz	s6,142b2 <__gdtoa+0xe68>
   1381c:	016d6b33          	or	s6,s10,s6
   13820:	000b1763          	bnez	s6,1382e <__gdtoa+0x3e4>
   13824:	0009a783          	lw	a5,0(s3)
   13828:	8b85                	and	a5,a5,1
   1382a:	280784e3          	beqz	a5,142b2 <__gdtoa+0xe68>
   1382e:	57a2                	lw	a5,40(sp)
   13830:	4a879de3          	bne	a5,s0,144ea <__gdtoa+0x10a0>
   13834:	019d8023          	sb	s9,0(s11)
   13838:	57f6                	lw	a5,124(sp)
   1383a:	4772                	lw	a4,28(sp)
   1383c:	0d85                	add	s11,s11,1
   1383e:	40f70ee3          	beq	a4,a5,1445a <__gdtoa+0x1010>
   13842:	85a6                	mv	a1,s1
   13844:	4681                	li	a3,0
   13846:	4629                	li	a2,10
   13848:	854a                	mv	a0,s2
   1384a:	0c7020ef          	jal	16110 <__multadd>
   1384e:	84aa                	mv	s1,a0
   13850:	18050a63          	beqz	a0,139e4 <__gdtoa+0x59a>
   13854:	4681                	li	a3,0
   13856:	4629                	li	a2,10
   13858:	85d2                	mv	a1,s4
   1385a:	854a                	mv	a0,s2
   1385c:	5d5a0a63          	beq	s4,s5,13e30 <__gdtoa+0x9e6>
   13860:	0b1020ef          	jal	16110 <__multadd>
   13864:	8a2a                	mv	s4,a0
   13866:	16050f63          	beqz	a0,139e4 <__gdtoa+0x59a>
   1386a:	85d6                	mv	a1,s5
   1386c:	4681                	li	a3,0
   1386e:	4629                	li	a2,10
   13870:	854a                	mv	a0,s2
   13872:	09f020ef          	jal	16110 <__multadd>
   13876:	8aaa                	mv	s5,a0
   13878:	16050663          	beqz	a0,139e4 <__gdtoa+0x59a>
   1387c:	57f6                	lw	a5,124(sp)
   1387e:	0785                	add	a5,a5,1
   13880:	85e2                	mv	a1,s8
   13882:	8526                	mv	a0,s1
   13884:	debe                	sw	a5,124(sp)
   13886:	5a8020ef          	jal	15e2e <__quorem_D2A>
   1388a:	8baa                	mv	s7,a0
   1388c:	85d2                	mv	a1,s4
   1388e:	8526                	mv	a0,s1
   13890:	6f1020ef          	jal	16780 <__mcmp>
   13894:	85e2                	mv	a1,s8
   13896:	8b2a                	mv	s6,a0
   13898:	8656                	mv	a2,s5
   1389a:	854a                	mv	a0,s2
   1389c:	721020ef          	jal	167bc <__mdiff>
   138a0:	030b8c93          	add	s9,s7,48
   138a4:	85aa                	mv	a1,a0
   138a6:	12050f63          	beqz	a0,139e4 <__gdtoa+0x59a>
   138aa:	455c                	lw	a5,12(a0)
   138ac:	f3bd                	bnez	a5,13812 <__gdtoa+0x3c8>
   138ae:	c62a                	sw	a0,12(sp)
   138b0:	8526                	mv	a0,s1
   138b2:	6cf020ef          	jal	16780 <__mcmp>
   138b6:	45b2                	lw	a1,12(sp)
   138b8:	86aa                	mv	a3,a0
   138ba:	854a                	mv	a0,s2
   138bc:	c636                	sw	a3,12(sp)
   138be:	041020ef          	jal	160fe <_Bfree>
   138c2:	46b2                	lw	a3,12(sp)
   138c4:	00dd6733          	or	a4,s10,a3
   138c8:	5e0710e3          	bnez	a4,146a8 <__gdtoa+0x125e>
   138cc:	0009a783          	lw	a5,0(s3)
   138d0:	8b85                	and	a5,a5,1
   138d2:	56079663          	bnez	a5,13e3e <__gdtoa+0x9f4>
   138d6:	57a2                	lw	a5,40(sp)
   138d8:	500781e3          	beqz	a5,145da <__gdtoa+0x1190>
   138dc:	f5604ce3          	bgtz	s6,13834 <__gdtoa+0x3ea>
   138e0:	4890                	lw	a2,16(s1)
   138e2:	c626                	sw	s1,12(sp)
   138e4:	4685                	li	a3,1
   138e6:	8362                	mv	t1,s8
   138e8:	4f42                	lw	t5,16(sp)
   138ea:	4952                	lw	s2,20(sp)
   138ec:	8c3a                	mv	s8,a4
   138ee:	87a6                	mv	a5,s1
   138f0:	58c6d9e3          	bge	a3,a2,14682 <__gdtoa+0x1238>
   138f4:	57a2                	lw	a5,40(sp)
   138f6:	4689                	li	a3,2
   138f8:	56d787e3          	beq	a5,a3,14666 <__gdtoa+0x121c>
   138fc:	44b2                	lw	s1,12(sp)
   138fe:	4b82                	lw	s7,0(sp)
   13900:	8b1a                	mv	s6,t1
   13902:	8c7a                	mv	s8,t5
   13904:	a821                	j	1391c <__gdtoa+0x4d2>
   13906:	00b020ef          	jal	16110 <__multadd>
   1390a:	85da                	mv	a1,s6
   1390c:	84aa                	mv	s1,a0
   1390e:	c979                	beqz	a0,139e4 <__gdtoa+0x59a>
   13910:	51e020ef          	jal	15e2e <__quorem_D2A>
   13914:	03050c93          	add	s9,a0,48
   13918:	8dce                	mv	s11,s3
   1391a:	8aa2                	mv	s5,s0
   1391c:	85d6                	mv	a1,s5
   1391e:	855a                	mv	a0,s6
   13920:	661020ef          	jal	16780 <__mcmp>
   13924:	87aa                	mv	a5,a0
   13926:	4681                	li	a3,0
   13928:	4629                	li	a2,10
   1392a:	85d6                	mv	a1,s5
   1392c:	855e                	mv	a0,s7
   1392e:	001d8993          	add	s3,s11,1
   13932:	50f05ee3          	blez	a5,1464e <__gdtoa+0x1204>
   13936:	ff998fa3          	sb	s9,-1(s3)
   1393a:	7d6020ef          	jal	16110 <__multadd>
   1393e:	842a                	mv	s0,a0
   13940:	4681                	li	a3,0
   13942:	4629                	li	a2,10
   13944:	85a6                	mv	a1,s1
   13946:	855e                	mv	a0,s7
   13948:	cc51                	beqz	s0,139e4 <__gdtoa+0x59a>
   1394a:	fb5a1ee3          	bne	s4,s5,13906 <__gdtoa+0x4bc>
   1394e:	8a22                	mv	s4,s0
   13950:	bf5d                	j	13906 <__gdtoa+0x4bc>
   13952:	4791                	li	a5,4
   13954:	0af31163          	bne	t1,a5,139f6 <__gdtoa+0x5ac>
   13958:	4712                	lw	a4,4(sp)
   1395a:	4622                	lw	a2,8(sp)
   1395c:	4c6a                	lw	s8,152(sp)
   1395e:	50fa                	lw	ra,188(sp)
   13960:	594a                	lw	s2,176(sp)
   13962:	5b0a                	lw	s6,160(sp)
   13964:	77e1                	lui	a5,0xffff8
   13966:	c31c                	sw	a5,0(a4)
   13968:	468d                	li	a3,3
   1396a:	0000a597          	auipc	a1,0xa
   1396e:	e3658593          	add	a1,a1,-458 # 1d7a0 <zeroes.0+0x80>
   13972:	6129                	add	sp,sp,192
   13974:	43c0206f          	j	15db0 <__nrv_alloc_D2A>
   13978:	4502                	lw	a0,0(sp)
   1397a:	85be                	mv	a1,a5
   1397c:	782020ef          	jal	160fe <_Bfree>
   13980:	59ba                	lw	s3,172(sp)
   13982:	5a2a                	lw	s4,168(sp)
   13984:	5a9a                	lw	s5,164(sp)
   13986:	4cda                	lw	s9,148(sp)
   13988:	4d4a                	lw	s10,144(sp)
   1398a:	4dba                	lw	s11,140(sp)
   1398c:	4712                	lw	a4,4(sp)
   1398e:	4622                	lw	a2,8(sp)
   13990:	4502                	lw	a0,0(sp)
   13992:	4785                	li	a5,1
   13994:	c31c                	sw	a5,0(a4)
   13996:	4685                	li	a3,1
   13998:	0000a597          	auipc	a1,0xa
   1399c:	b7058593          	add	a1,a1,-1168 # 1d508 <__clzsi2+0xcc>
   139a0:	410020ef          	jal	15db0 <__nrv_alloc_D2A>
   139a4:	8f2a                	mv	t5,a0
   139a6:	50fa                	lw	ra,188(sp)
   139a8:	4c6a                	lw	s8,152(sp)
   139aa:	594a                	lw	s2,176(sp)
   139ac:	5b0a                	lw	s6,160(sp)
   139ae:	857a                	mv	a0,t5
   139b0:	6129                	add	sp,sp,192
   139b2:	8082                	ret
   139b4:	4712                	lw	a4,4(sp)
   139b6:	4622                	lw	a2,8(sp)
   139b8:	50fa                	lw	ra,188(sp)
   139ba:	594a                	lw	s2,176(sp)
   139bc:	5b0a                	lw	s6,160(sp)
   139be:	77e1                	lui	a5,0xffff8
   139c0:	c31c                	sw	a5,0(a4)
   139c2:	46a1                	li	a3,8
   139c4:	0000a597          	auipc	a1,0xa
   139c8:	dd058593          	add	a1,a1,-560 # 1d794 <zeroes.0+0x74>
   139cc:	6129                	add	sp,sp,192
   139ce:	3e20206f          	j	15db0 <__nrv_alloc_D2A>
   139d2:	4502                	lw	a0,0(sp)
   139d4:	859a                	mv	a1,t1
   139d6:	c87a                	sw	t5,16(sp)
   139d8:	499020ef          	jal	16670 <__lshift>
   139dc:	4f42                	lw	t5,16(sp)
   139de:	832a                	mv	t1,a0
   139e0:	de051fe3          	bnez	a0,137de <__gdtoa+0x394>
   139e4:	546a                	lw	s0,184(sp)
   139e6:	54da                	lw	s1,180(sp)
   139e8:	59ba                	lw	s3,172(sp)
   139ea:	5a2a                	lw	s4,168(sp)
   139ec:	5a9a                	lw	s5,164(sp)
   139ee:	4bfa                	lw	s7,156(sp)
   139f0:	4cda                	lw	s9,148(sp)
   139f2:	4d4a                	lw	s10,144(sp)
   139f4:	4dba                	lw	s11,140(sp)
   139f6:	4f01                	li	t5,0
   139f8:	b77d                	j	139a6 <__gdtoa+0x55c>
   139fa:	47b2                	lw	a5,12(sp)
   139fc:	0007a823          	sw	zero,16(a5) # ffff8010 <__BSS_END__+0xfffd94ec>
   13a00:	b60d                	j	13522 <__gdtoa+0xd8>
   13a02:	4785                	li	a5,1
   13a04:	de3e                	sw	a5,60(sp)
   13a06:	d202                	sw	zero,36(sp)
   13a08:	260bcd63          	bltz	s7,13c82 <__gdtoa+0x838>
   13a0c:	47e2                	lw	a5,24(sp)
   13a0e:	c607d7e3          	bgez	a5,1367c <__gdtoa+0x232>
   13a12:	47e2                	lw	a5,24(sp)
   13a14:	5712                	lw	a4,36(sp)
   13a16:	cc02                	sw	zero,24(sp)
   13a18:	d83e                	sw	a5,48(sp)
   13a1a:	8f1d                	sub	a4,a4,a5
   13a1c:	d23a                	sw	a4,36(sp)
   13a1e:	40f00733          	neg	a4,a5
   13a22:	d63a                	sw	a4,44(sp)
   13a24:	b185                	j	13684 <__gdtoa+0x23a>
   13a26:	85aa                	mv	a1,a0
   13a28:	4532                	lw	a0,12(sp)
   13a2a:	378030ef          	jal	16da2 <__rshift_D2A>
   13a2e:	56f6                	lw	a3,124(sp)
   13a30:	47c2                	lw	a5,16(sp)
   13a32:	40dc8cb3          	sub	s9,s9,a3
   13a36:	97b6                	add	a5,a5,a3
   13a38:	d03e                	sw	a5,32(sp)
   13a3a:	bce5                	j	13532 <__gdtoa+0xe8>
   13a3c:	47f2                	lw	a5,28(sp)
   13a3e:	4d01                	li	s10,0
   13a40:	3fd78793          	add	a5,a5,1021
   13a44:	7f87ba13          	sltiu	s4,a5,2040
   13a48:	8556                	mv	a0,s5
   13a4a:	4f0070ef          	jal	1af3a <__floatsidf>
   13a4e:	0000b697          	auipc	a3,0xb
   13a52:	c8a68693          	add	a3,a3,-886 # 1e6d8 <__TMC_END__+0x28>
   13a56:	4290                	lw	a2,0(a3)
   13a58:	42d4                	lw	a3,4(a3)
   13a5a:	00f060ef          	jal	1a268 <__muldf3>
   13a5e:	476070ef          	jal	1aed4 <__fixdfsi>
   13a62:	4785                	li	a5,1
   13a64:	00350593          	add	a1,a0,3
   13a68:	da3e                	sw	a5,52(sp)
   13a6a:	57fd                	li	a5,-1
   13a6c:	86ae                	mv	a3,a1
   13a6e:	ca02                	sw	zero,20(sp)
   13a70:	c6be                	sw	a5,76(sp)
   13a72:	ce3e                	sw	a5,28(sp)
   13a74:	b989                	j	136c6 <__gdtoa+0x27c>
   13a76:	57a2                	lw	a5,40(sp)
   13a78:	468d                	li	a3,3
   13a7a:	40f687b3          	sub	a5,a3,a5
   13a7e:	d43e                	sw	a5,40(sp)
   13a80:	44f2                	lw	s1,28(sp)
   13a82:	46b9                	li	a3,14
   13a84:	c696e4e3          	bltu	a3,s1,136ec <__gdtoa+0x2a2>
   13a88:	c60a02e3          	beqz	s4,136ec <__gdtoa+0x2a2>
   13a8c:	57c2                	lw	a5,48(sp)
   13a8e:	5722                	lw	a4,40(sp)
   13a90:	00e7e6b3          	or	a3,a5,a4
   13a94:	c4069ce3          	bnez	a3,136ec <__gdtoa+0x2a2>
   13a98:	5462                	lw	s0,56(sp)
   13a9a:	4a06                	lw	s4,64(sp)
   13a9c:	57f2                	lw	a5,60(sp)
   13a9e:	de82                	sw	zero,124(sp)
   13aa0:	d422                	sw	s0,40(sp)
   13aa2:	dc52                	sw	s4,56(sp)
   13aa4:	cf99                	beqz	a5,13ac2 <__gdtoa+0x678>
   13aa6:	0000b697          	auipc	a3,0xb
   13aaa:	c3a68693          	add	a3,a3,-966 # 1e6e0 <__TMC_END__+0x30>
   13aae:	4290                	lw	a2,0(a3)
   13ab0:	42d4                	lw	a3,4(a3)
   13ab2:	8522                	mv	a0,s0
   13ab4:	85d2                	mv	a1,s4
   13ab6:	c8fa                	sw	t5,80(sp)
   13ab8:	6ee060ef          	jal	1a1a6 <__ledf2>
   13abc:	4f46                	lw	t5,80(sp)
   13abe:	1a0549e3          	bltz	a0,14470 <__gdtoa+0x1026>
   13ac2:	57a2                	lw	a5,40(sp)
   13ac4:	c8fa                	sw	t5,80(sp)
   13ac6:	863e                	mv	a2,a5
   13ac8:	853e                	mv	a0,a5
   13aca:	57e2                	lw	a5,56(sp)
   13acc:	86be                	mv	a3,a5
   13ace:	85be                	mv	a1,a5
   13ad0:	0d5050ef          	jal	193a4 <__adddf3>
   13ad4:	0000b697          	auipc	a3,0xb
   13ad8:	c2468693          	add	a3,a3,-988 # 1e6f8 <__TMC_END__+0x48>
   13adc:	4290                	lw	a2,0(a3)
   13ade:	42d4                	lw	a3,4(a3)
   13ae0:	0c5050ef          	jal	193a4 <__adddf3>
   13ae4:	47f2                	lw	a5,28(sp)
   13ae6:	fcc00737          	lui	a4,0xfcc00
   13aea:	4f46                	lw	t5,80(sp)
   13aec:	8b2a                	mv	s6,a0
   13aee:	00b70a33          	add	s4,a4,a1
   13af2:	6e078e63          	beqz	a5,141ee <__gdtoa+0xda4>
   13af6:	47f2                	lw	a5,28(sp)
   13af8:	5ea2                	lw	t4,40(sp)
   13afa:	5862                	lw	a6,56(sp)
   13afc:	ca82                	sw	zero,84(sp)
   13afe:	c8be                	sw	a5,80(sp)
   13b00:	47c6                	lw	a5,80(sp)
   13b02:	5752                	lw	a4,52(sp)
   13b04:	0000a317          	auipc	t1,0xa
   13b08:	e9430313          	add	t1,t1,-364 # 1d998 <__mprec_tens>
   13b0c:	fff78693          	add	a3,a5,-1
   13b10:	068e                	sll	a3,a3,0x3
   13b12:	969a                	add	a3,a3,t1
   13b14:	cec2                	sw	a6,92(sp)
   13b16:	ccf6                	sw	t4,88(sp)
   13b18:	4290                	lw	a2,0(a3)
   13b1a:	84da                	mv	s1,s6
   13b1c:	42d4                	lw	a3,4(a3)
   13b1e:	020709e3          	beqz	a4,14350 <__gdtoa+0xf06>
   13b22:	0000b597          	auipc	a1,0xb
   13b26:	be658593          	add	a1,a1,-1050 # 1e708 <__TMC_END__+0x58>
   13b2a:	4188                	lw	a0,0(a1)
   13b2c:	41cc                	lw	a1,4(a1)
   13b2e:	d49a                	sw	t1,104(sp)
   13b30:	001f0b13          	add	s6,t5,1
   13b34:	d0fa                	sw	t5,96(sp)
   13b36:	78b050ef          	jal	19ac0 <__divdf3>
   13b3a:	8626                	mv	a2,s1
   13b3c:	86d2                	mv	a3,s4
   13b3e:	449060ef          	jal	1a786 <__subdf3>
   13b42:	4ee6                	lw	t4,88(sp)
   13b44:	4876                	lw	a6,92(sp)
   13b46:	862a                	mv	a2,a0
   13b48:	86ae                	mv	a3,a1
   13b4a:	8576                	mv	a0,t4
   13b4c:	85c2                	mv	a1,a6
   13b4e:	c4f6                	sw	t4,72(sp)
   13b50:	c0c2                	sw	a6,64(sp)
   13b52:	ccb2                	sw	a2,88(sp)
   13b54:	ceb6                	sw	a3,92(sp)
   13b56:	37e070ef          	jal	1aed4 <__fixdfsi>
   13b5a:	842a                	mv	s0,a0
   13b5c:	3de070ef          	jal	1af3a <__floatsidf>
   13b60:	4806                	lw	a6,64(sp)
   13b62:	4ea6                	lw	t4,72(sp)
   13b64:	862a                	mv	a2,a0
   13b66:	86ae                	mv	a3,a1
   13b68:	8576                	mv	a0,t4
   13b6a:	85c2                	mv	a1,a6
   13b6c:	41b060ef          	jal	1a786 <__subdf3>
   13b70:	5f06                	lw	t5,96(sp)
   13b72:	862a                	mv	a2,a0
   13b74:	86ae                	mv	a3,a1
   13b76:	84aa                	mv	s1,a0
   13b78:	8a2e                	mv	s4,a1
   13b7a:	4566                	lw	a0,88(sp)
   13b7c:	45f6                	lw	a1,92(sp)
   13b7e:	03040793          	add	a5,s0,48
   13b82:	00ff0023          	sb	a5,0(t5)
   13b86:	c0fa                	sw	t5,64(sp)
   13b88:	560060ef          	jal	1a0e8 <__gedf2>
   13b8c:	4f06                	lw	t5,64(sp)
   13b8e:	1ca04ee3          	bgtz	a0,1456a <__gdtoa+0x1120>
   13b92:	0000b697          	auipc	a3,0xb
   13b96:	b4e68693          	add	a3,a3,-1202 # 1e6e0 <__TMC_END__+0x30>
   13b9a:	429c                	lw	a5,0(a3)
   13b9c:	0046a803          	lw	a6,4(a3)
   13ba0:	d0de                	sw	s7,96(sp)
   13ba2:	d2d6                	sw	s5,100(sp)
   13ba4:	4bc6                	lw	s7,80(sp)
   13ba6:	4466                	lw	s0,88(sp)
   13ba8:	4af6                	lw	s5,92(sp)
   13baa:	c0be                	sw	a5,64(sp)
   13bac:	c2c2                	sw	a6,68(sp)
   13bae:	c4fa                	sw	t5,72(sp)
   13bb0:	c8ca                	sw	s2,80(sp)
   13bb2:	a0a5                	j	13c1a <__gdtoa+0x7d0>
   13bb4:	57f6                	lw	a5,124(sp)
   13bb6:	0785                	add	a5,a5,1
   13bb8:	debe                	sw	a5,124(sp)
   13bba:	2177d1e3          	bge	a5,s7,145bc <__gdtoa+0x1172>
   13bbe:	0000b917          	auipc	s2,0xb
   13bc2:	b2a90913          	add	s2,s2,-1238 # 1e6e8 <__TMC_END__+0x38>
   13bc6:	00092603          	lw	a2,0(s2)
   13bca:	00492683          	lw	a3,4(s2)
   13bce:	0b05                	add	s6,s6,1
   13bd0:	698060ef          	jal	1a268 <__muldf3>
   13bd4:	00092603          	lw	a2,0(s2)
   13bd8:	00492683          	lw	a3,4(s2)
   13bdc:	842a                	mv	s0,a0
   13bde:	8aae                	mv	s5,a1
   13be0:	8526                	mv	a0,s1
   13be2:	85d2                	mv	a1,s4
   13be4:	684060ef          	jal	1a268 <__muldf3>
   13be8:	8a2e                	mv	s4,a1
   13bea:	892a                	mv	s2,a0
   13bec:	2e8070ef          	jal	1aed4 <__fixdfsi>
   13bf0:	84aa                	mv	s1,a0
   13bf2:	348070ef          	jal	1af3a <__floatsidf>
   13bf6:	862a                	mv	a2,a0
   13bf8:	86ae                	mv	a3,a1
   13bfa:	854a                	mv	a0,s2
   13bfc:	85d2                	mv	a1,s4
   13bfe:	389060ef          	jal	1a786 <__subdf3>
   13c02:	03048793          	add	a5,s1,48
   13c06:	8622                	mv	a2,s0
   13c08:	86d6                	mv	a3,s5
   13c0a:	fefb0fa3          	sb	a5,-1(s6)
   13c0e:	84aa                	mv	s1,a0
   13c10:	8a2e                	mv	s4,a1
   13c12:	594060ef          	jal	1a1a6 <__ledf2>
   13c16:	140548e3          	bltz	a0,14566 <__gdtoa+0x111c>
   13c1a:	4506                	lw	a0,64(sp)
   13c1c:	4596                	lw	a1,68(sp)
   13c1e:	8626                	mv	a2,s1
   13c20:	86d2                	mv	a3,s4
   13c22:	365060ef          	jal	1a786 <__subdf3>
   13c26:	862a                	mv	a2,a0
   13c28:	86ae                	mv	a3,a1
   13c2a:	8522                	mv	a0,s0
   13c2c:	85d6                	mv	a1,s5
   13c2e:	4ba060ef          	jal	1a0e8 <__gedf2>
   13c32:	87aa                	mv	a5,a0
   13c34:	85d6                	mv	a1,s5
   13c36:	8522                	mv	a0,s0
   13c38:	f6f05ee3          	blez	a5,13bb4 <__gdtoa+0x76a>
   13c3c:	47d6                	lw	a5,84(sp)
   13c3e:	4f26                	lw	t5,72(sp)
   13c40:	4946                	lw	s2,80(sp)
   13c42:	fffb4703          	lbu	a4,-1(s6)
   13c46:	00178413          	add	s0,a5,1
   13c4a:	03900693          	li	a3,57
   13c4e:	a031                	j	13c5a <__gdtoa+0x810>
   13c50:	6eff0c63          	beq	t5,a5,14348 <__gdtoa+0xefe>
   13c54:	fff7c703          	lbu	a4,-1(a5)
   13c58:	8b3e                	mv	s6,a5
   13c5a:	fffb0793          	add	a5,s6,-1
   13c5e:	fed709e3          	beq	a4,a3,13c50 <__gdtoa+0x806>
   13c62:	00170693          	add	a3,a4,1 # fcc00001 <__BSS_END__+0xfcbe14dd>
   13c66:	0ff6f693          	zext.b	a3,a3
   13c6a:	00d78023          	sb	a3,0(a5)
   13c6e:	84a2                	mv	s1,s0
   13c70:	02000c13          	li	s8,32
   13c74:	a2a1                	j	13dbc <__gdtoa+0x972>
   13c76:	59ba                	lw	s3,172(sp)
   13c78:	5a9a                	lw	s5,164(sp)
   13c7a:	4d4a                	lw	s10,144(sp)
   13c7c:	4dba                	lw	s11,140(sp)
   13c7e:	4f01                	li	t5,0
   13c80:	b31d                	j	139a6 <__gdtoa+0x55c>
   13c82:	4685                	li	a3,1
   13c84:	408687b3          	sub	a5,a3,s0
   13c88:	d23e                	sw	a5,36(sp)
   13c8a:	4b81                	li	s7,0
   13c8c:	b341                	j	13a0c <__gdtoa+0x5c2>
   13c8e:	54b2                	lw	s1,44(sp)
   13c90:	5a92                	lw	s5,36(sp)
   13c92:	4a01                	li	s4,0
   13c94:	b4e9                	j	1375e <__gdtoa+0x314>
   13c96:	4789                	li	a5,2
   13c98:	d43e                	sw	a5,40(sp)
   13c9a:	b4a9                	j	136e4 <__gdtoa+0x29a>
   13c9c:	47e2                	lw	a5,24(sp)
   13c9e:	de02                	sw	zero,60(sp)
   13ca0:	17fd                	add	a5,a5,-1
   13ca2:	cc3e                	sw	a5,24(sp)
   13ca4:	b38d                	j	13a06 <__gdtoa+0x5bc>
   13ca6:	1d71                	add	s10,s10,-4
   13ca8:	4611                	li	a2,4
   13caa:	16cd0663          	beq	s10,a2,13e16 <__gdtoa+0x9cc>
   13cae:	48dd0f63          	beq	s10,a3,1414c <__gdtoa+0xd02>
   13cb2:	4689                	li	a3,2
   13cb4:	da02                	sw	zero,52(sp)
   13cb6:	4a01                	li	s4,0
   13cb8:	16dd0263          	beq	s10,a3,13e1c <__gdtoa+0x9d2>
   13cbc:	4d0d                	li	s10,3
   13cbe:	bad5                	j	136b2 <__gdtoa+0x268>
   13cc0:	00379693          	sll	a3,a5,0x3
   13cc4:	0000a797          	auipc	a5,0xa
   13cc8:	cd478793          	add	a5,a5,-812 # 1d998 <__mprec_tens>
   13ccc:	97b6                	add	a5,a5,a3
   13cce:	0007ad03          	lw	s10,0(a5)
   13cd2:	0047ad83          	lw	s11,4(a5)
   13cd6:	47d2                	lw	a5,20(sp)
   13cd8:	3807c263          	bltz	a5,1405c <__gdtoa+0xc12>
   13cdc:	4426                	lw	s0,72(sp)
   13cde:	4a06                	lw	s4,64(sp)
   13ce0:	4785                	li	a5,1
   13ce2:	866a                	mv	a2,s10
   13ce4:	86ee                	mv	a3,s11
   13ce6:	8522                	mv	a0,s0
   13ce8:	85d2                	mv	a1,s4
   13cea:	c87a                	sw	t5,16(sp)
   13cec:	debe                	sw	a5,124(sp)
   13cee:	5d3050ef          	jal	19ac0 <__divdf3>
   13cf2:	1e2070ef          	jal	1aed4 <__fixdfsi>
   13cf6:	89aa                	mv	s3,a0
   13cf8:	242070ef          	jal	1af3a <__floatsidf>
   13cfc:	866a                	mv	a2,s10
   13cfe:	86ee                	mv	a3,s11
   13d00:	568060ef          	jal	1a268 <__muldf3>
   13d04:	862a                	mv	a2,a0
   13d06:	86ae                	mv	a3,a1
   13d08:	8522                	mv	a0,s0
   13d0a:	85d2                	mv	a1,s4
   13d0c:	27b060ef          	jal	1a786 <__subdf3>
   13d10:	4f42                	lw	t5,16(sp)
   13d12:	5742                	lw	a4,48(sp)
   13d14:	03098793          	add	a5,s3,48
   13d18:	00ff0023          	sb	a5,0(t5)
   13d1c:	4601                	li	a2,0
   13d1e:	4681                	li	a3,0
   13d20:	00170413          	add	s0,a4,1
   13d24:	001f0b13          	add	s6,t5,1
   13d28:	8aaa                	mv	s5,a0
   13d2a:	8a2e                	mv	s4,a1
   13d2c:	350060ef          	jal	1a07c <__eqdf2>
   13d30:	4f42                	lw	t5,16(sp)
   13d32:	84a2                	mv	s1,s0
   13d34:	c541                	beqz	a0,13dbc <__gdtoa+0x972>
   13d36:	c862                	sw	s8,16(sp)
   13d38:	4cf2                	lw	s9,28(sp)
   13d3a:	8c52                	mv	s8,s4
   13d3c:	0000bb97          	auipc	s7,0xb
   13d40:	9acb8b93          	add	s7,s7,-1620 # 1e6e8 <__TMC_END__+0x38>
   13d44:	8a22                	mv	s4,s0
   13d46:	847a                	mv	s0,t5
   13d48:	a891                	j	13d9c <__gdtoa+0x952>
   13d4a:	000ba603          	lw	a2,0(s7)
   13d4e:	004ba683          	lw	a3,4(s7)
   13d52:	dec2                	sw	a6,124(sp)
   13d54:	0b05                	add	s6,s6,1
   13d56:	512060ef          	jal	1a268 <__muldf3>
   13d5a:	866a                	mv	a2,s10
   13d5c:	86ee                	mv	a3,s11
   13d5e:	8c2a                	mv	s8,a0
   13d60:	8aae                	mv	s5,a1
   13d62:	55f050ef          	jal	19ac0 <__divdf3>
   13d66:	16e070ef          	jal	1aed4 <__fixdfsi>
   13d6a:	89aa                	mv	s3,a0
   13d6c:	1ce070ef          	jal	1af3a <__floatsidf>
   13d70:	866a                	mv	a2,s10
   13d72:	86ee                	mv	a3,s11
   13d74:	4f4060ef          	jal	1a268 <__muldf3>
   13d78:	862a                	mv	a2,a0
   13d7a:	86ae                	mv	a3,a1
   13d7c:	8562                	mv	a0,s8
   13d7e:	85d6                	mv	a1,s5
   13d80:	207060ef          	jal	1a786 <__subdf3>
   13d84:	03098793          	add	a5,s3,48
   13d88:	fefb0fa3          	sb	a5,-1(s6)
   13d8c:	4601                	li	a2,0
   13d8e:	4681                	li	a3,0
   13d90:	8aaa                	mv	s5,a0
   13d92:	8c2e                	mv	s8,a1
   13d94:	2e8060ef          	jal	1a07c <__eqdf2>
   13d98:	2a050f63          	beqz	a0,14056 <__gdtoa+0xc0c>
   13d9c:	5776                	lw	a4,124(sp)
   13d9e:	8556                	mv	a0,s5
   13da0:	85e2                	mv	a1,s8
   13da2:	00170813          	add	a6,a4,1
   13da6:	fb9712e3          	bne	a4,s9,13d4a <__gdtoa+0x900>
   13daa:	5722                	lw	a4,40(sp)
   13dac:	8f22                	mv	t5,s0
   13dae:	8452                	mv	s0,s4
   13db0:	54070b63          	beqz	a4,14306 <__gdtoa+0xebc>
   13db4:	4785                	li	a5,1
   13db6:	4c41                	li	s8,16
   13db8:	6af70863          	beq	a4,a5,14468 <__gdtoa+0x101e>
   13dbc:	45b2                	lw	a1,12(sp)
   13dbe:	4502                	lw	a0,0(sp)
   13dc0:	c87a                	sw	t5,16(sp)
   13dc2:	33c020ef          	jal	160fe <_Bfree>
   13dc6:	4792                	lw	a5,4(sp)
   13dc8:	000b0023          	sb	zero,0(s6)
   13dcc:	4f42                	lw	t5,16(sp)
   13dce:	c384                	sw	s1,0(a5)
   13dd0:	47a2                	lw	a5,8(sp)
   13dd2:	c399                	beqz	a5,13dd8 <__gdtoa+0x98e>
   13dd4:	0167a023          	sw	s6,0(a5)
   13dd8:	00092783          	lw	a5,0(s2)
   13ddc:	546a                	lw	s0,184(sp)
   13dde:	54da                	lw	s1,180(sp)
   13de0:	0187e7b3          	or	a5,a5,s8
   13de4:	59ba                	lw	s3,172(sp)
   13de6:	5a2a                	lw	s4,168(sp)
   13de8:	5a9a                	lw	s5,164(sp)
   13dea:	4bfa                	lw	s7,156(sp)
   13dec:	4cda                	lw	s9,148(sp)
   13dee:	4d4a                	lw	s10,144(sp)
   13df0:	4dba                	lw	s11,140(sp)
   13df2:	00f92023          	sw	a5,0(s2)
   13df6:	be45                	j	139a6 <__gdtoa+0x55c>
   13df8:	9cdc92e3          	bne	s9,a3,137bc <__gdtoa+0x372>
   13dfc:	004da783          	lw	a5,4(s11)
   13e00:	4742                	lw	a4,16(sp)
   13e02:	0785                	add	a5,a5,1
   13e04:	9ae7dce3          	bge	a5,a4,137bc <__gdtoa+0x372>
   13e08:	5792                	lw	a5,36(sp)
   13e0a:	0b85                	add	s7,s7,1
   13e0c:	0785                	add	a5,a5,1
   13e0e:	d23e                	sw	a5,36(sp)
   13e10:	4785                	li	a5,1
   13e12:	cc3e                	sw	a5,24(sp)
   13e14:	b265                	j	137bc <__gdtoa+0x372>
   13e16:	4785                	li	a5,1
   13e18:	4a01                	li	s4,0
   13e1a:	da3e                	sw	a5,52(sp)
   13e1c:	45d2                	lw	a1,20(sp)
   13e1e:	00b04363          	bgtz	a1,13e24 <__gdtoa+0x9da>
   13e22:	4585                	li	a1,1
   13e24:	86ae                	mv	a3,a1
   13e26:	c6ae                	sw	a1,76(sp)
   13e28:	ce2e                	sw	a1,28(sp)
   13e2a:	ca2e                	sw	a1,20(sp)
   13e2c:	89bff06f          	j	136c6 <__gdtoa+0x27c>
   13e30:	2e0020ef          	jal	16110 <__multadd>
   13e34:	8a2a                	mv	s4,a0
   13e36:	ba0507e3          	beqz	a0,139e4 <__gdtoa+0x59a>
   13e3a:	8aaa                	mv	s5,a0
   13e3c:	b481                	j	1387c <__gdtoa+0x432>
   13e3e:	9e0b5be3          	bgez	s6,13834 <__gdtoa+0x3ea>
   13e42:	57a2                	lw	a5,40(sp)
   13e44:	c626                	sw	s1,12(sp)
   13e46:	8362                	mv	t1,s8
   13e48:	4f42                	lw	t5,16(sp)
   13e4a:	4952                	lw	s2,20(sp)
   13e4c:	8c3a                	mv	s8,a4
   13e4e:	020795e3          	bnez	a5,14678 <__gdtoa+0x122e>
   13e52:	47b2                	lw	a5,12(sp)
   13e54:	4685                	li	a3,1
   13e56:	4c41                	li	s8,16
   13e58:	4b90                	lw	a2,16(a5)
   13e5a:	001d8993          	add	s3,s11,1
   13e5e:	7cc6d563          	bge	a3,a2,14628 <__gdtoa+0x11de>
   13e62:	8452                	mv	s0,s4
   13e64:	8b4e                	mv	s6,s3
   13e66:	019d8023          	sb	s9,0(s11)
   13e6a:	8a56                	mv	s4,s5
   13e6c:	4982                	lw	s3,0(sp)
   13e6e:	859a                	mv	a1,t1
   13e70:	c87a                	sw	t5,16(sp)
   13e72:	854e                	mv	a0,s3
   13e74:	28a020ef          	jal	160fe <_Bfree>
   13e78:	57c2                	lw	a5,48(sp)
   13e7a:	4f42                	lw	t5,16(sp)
   13e7c:	00178493          	add	s1,a5,1
   13e80:	f20a0ee3          	beqz	s4,13dbc <__gdtoa+0x972>
   13e84:	c801                	beqz	s0,13e94 <__gdtoa+0xa4a>
   13e86:	01440763          	beq	s0,s4,13e94 <__gdtoa+0xa4a>
   13e8a:	85a2                	mv	a1,s0
   13e8c:	854e                	mv	a0,s3
   13e8e:	270020ef          	jal	160fe <_Bfree>
   13e92:	4f42                	lw	t5,16(sp)
   13e94:	4502                	lw	a0,0(sp)
   13e96:	85d2                	mv	a1,s4
   13e98:	c87a                	sw	t5,16(sp)
   13e9a:	264020ef          	jal	160fe <_Bfree>
   13e9e:	4f42                	lw	t5,16(sp)
   13ea0:	bf31                	j	13dbc <__gdtoa+0x972>
   13ea2:	45b2                	lw	a1,12(sp)
   13ea4:	4502                	lw	a0,0(sp)
   13ea6:	d07a                	sw	t5,32(sp)
   13ea8:	c81a                	sw	t1,16(sp)
   13eaa:	7c6020ef          	jal	16670 <__lshift>
   13eae:	c62a                	sw	a0,12(sp)
   13eb0:	b2050ae3          	beqz	a0,139e4 <__gdtoa+0x59a>
   13eb4:	57f6                	lw	a5,124(sp)
   13eb6:	5f02                	lw	t5,32(sp)
   13eb8:	4342                	lw	t1,16(sp)
   13eba:	ba31                	j	137d6 <__gdtoa+0x38c>
   13ebc:	4532                	lw	a0,12(sp)
   13ebe:	859a                	mv	a1,t1
   13ec0:	d07a                	sw	t5,32(sp)
   13ec2:	c81a                	sw	t1,16(sp)
   13ec4:	0bd020ef          	jal	16780 <__mcmp>
   13ec8:	4342                	lw	t1,16(sp)
   13eca:	5f02                	lw	t5,32(sp)
   13ecc:	90055ce3          	bgez	a0,137e4 <__gdtoa+0x39a>
   13ed0:	57c2                	lw	a5,48(sp)
   13ed2:	45b2                	lw	a1,12(sp)
   13ed4:	4502                	lw	a0,0(sp)
   13ed6:	17fd                	add	a5,a5,-1
   13ed8:	4681                	li	a3,0
   13eda:	4629                	li	a2,10
   13edc:	ce7a                	sw	t5,28(sp)
   13ede:	d83e                	sw	a5,48(sp)
   13ee0:	230020ef          	jal	16110 <__multadd>
   13ee4:	c62a                	sw	a0,12(sp)
   13ee6:	ae050fe3          	beqz	a0,139e4 <__gdtoa+0x59a>
   13eea:	57d2                	lw	a5,52(sp)
   13eec:	4342                	lw	t1,16(sp)
   13eee:	4f72                	lw	t5,28(sp)
   13ef0:	64079363          	bnez	a5,14536 <__gdtoa+0x10ec>
   13ef4:	47b6                	lw	a5,76(sp)
   13ef6:	14f05a63          	blez	a5,1404a <__gdtoa+0xc00>
   13efa:	ce3e                	sw	a5,28(sp)
   13efc:	44f2                	lw	s1,28(sp)
   13efe:	4432                	lw	s0,12(sp)
   13f00:	4a82                	lw	s5,0(sp)
   13f02:	8dfa                	mv	s11,t5
   13f04:	4785                	li	a5,1
   13f06:	899a                	mv	s3,t1
   13f08:	8b7a                	mv	s6,t5
   13f0a:	a801                	j	13f1a <__gdtoa+0xad0>
   13f0c:	204020ef          	jal	16110 <__multadd>
   13f10:	842a                	mv	s0,a0
   13f12:	ac0509e3          	beqz	a0,139e4 <__gdtoa+0x59a>
   13f16:	57f6                	lw	a5,124(sp)
   13f18:	0785                	add	a5,a5,1
   13f1a:	85ce                	mv	a1,s3
   13f1c:	8522                	mv	a0,s0
   13f1e:	debe                	sw	a5,124(sp)
   13f20:	70f010ef          	jal	15e2e <__quorem_D2A>
   13f24:	03050c93          	add	s9,a0,48
   13f28:	019d8023          	sb	s9,0(s11)
   13f2c:	57f6                	lw	a5,124(sp)
   13f2e:	4681                	li	a3,0
   13f30:	4629                	li	a2,10
   13f32:	85a2                	mv	a1,s0
   13f34:	8556                	mv	a0,s5
   13f36:	0d85                	add	s11,s11,1
   13f38:	fc97cae3          	blt	a5,s1,13f0c <__gdtoa+0xac2>
   13f3c:	c622                	sw	s0,12(sp)
   13f3e:	834e                	mv	t1,s3
   13f40:	8f5a                	mv	t5,s6
   13f42:	4401                	li	s0,0
   13f44:	5722                	lw	a4,40(sp)
   13f46:	30070c63          	beqz	a4,1425e <__gdtoa+0xe14>
   13f4a:	4632                	lw	a2,12(sp)
   13f4c:	4789                	li	a5,2
   13f4e:	4a14                	lw	a3,16(a2)
   13f50:	32f70e63          	beq	a4,a5,1428c <__gdtoa+0xe42>
   13f54:	4785                	li	a5,1
   13f56:	1ad7cd63          	blt	a5,a3,14110 <__gdtoa+0xcc6>
   13f5a:	4a5c                	lw	a5,20(a2)
   13f5c:	1a079a63          	bnez	a5,14110 <__gdtoa+0xcc6>
   13f60:	00f037b3          	snez	a5,a5
   13f64:	00479c13          	sll	s8,a5,0x4
   13f68:	03000693          	li	a3,48
   13f6c:	fffdc783          	lbu	a5,-1(s11)
   13f70:	8b6e                	mv	s6,s11
   13f72:	1dfd                	add	s11,s11,-1
   13f74:	fed78ce3          	beq	a5,a3,13f6c <__gdtoa+0xb22>
   13f78:	bdd5                	j	13e6c <__gdtoa+0xa22>
   13f7a:	47f2                	lw	a5,28(sp)
   13f7c:	5732                	lw	a4,44(sp)
   13f7e:	fff78693          	add	a3,a5,-1
   13f82:	10d74d63          	blt	a4,a3,1409c <__gdtoa+0xc52>
   13f86:	40d704b3          	sub	s1,a4,a3
   13f8a:	5407d463          	bgez	a5,144d2 <__gdtoa+0x1088>
   13f8e:	5792                	lw	a5,36(sp)
   13f90:	4772                	lw	a4,28(sp)
   13f92:	de82                	sw	zero,124(sp)
   13f94:	40e78ab3          	sub	s5,a5,a4
   13f98:	fb4ff06f          	j	1374c <__gdtoa+0x302>
   13f9c:	4789                	li	a5,2
   13f9e:	85a7d6e3          	bge	a5,s10,137ea <__gdtoa+0x3a0>
   13fa2:	4502                	lw	a0,0(sp)
   13fa4:	859a                	mv	a1,t1
   13fa6:	4681                	li	a3,0
   13fa8:	4615                	li	a2,5
   13faa:	c87a                	sw	t5,16(sp)
   13fac:	164020ef          	jal	16110 <__multadd>
   13fb0:	85aa                	mv	a1,a0
   13fb2:	a20509e3          	beqz	a0,139e4 <__gdtoa+0x59a>
   13fb6:	47f2                	lw	a5,28(sp)
   13fb8:	4f42                	lw	t5,16(sp)
   13fba:	ebf9                	bnez	a5,14090 <__gdtoa+0xc46>
   13fbc:	c82a                	sw	a0,16(sp)
   13fbe:	4532                	lw	a0,12(sp)
   13fc0:	cc7a                	sw	t5,24(sp)
   13fc2:	7be020ef          	jal	16780 <__mcmp>
   13fc6:	45c2                	lw	a1,16(sp)
   13fc8:	4f62                	lw	t5,24(sp)
   13fca:	0ca05363          	blez	a0,14090 <__gdtoa+0xc46>
   13fce:	57c2                	lw	a5,48(sp)
   13fd0:	00278493          	add	s1,a5,2
   13fd4:	03100793          	li	a5,49
   13fd8:	001f0b13          	add	s6,t5,1
   13fdc:	00ff0023          	sb	a5,0(t5)
   13fe0:	02000c13          	li	s8,32
   13fe4:	4502                	lw	a0,0(sp)
   13fe6:	c87a                	sw	t5,16(sp)
   13fe8:	116020ef          	jal	160fe <_Bfree>
   13fec:	4f42                	lw	t5,16(sp)
   13fee:	dc0a07e3          	beqz	s4,13dbc <__gdtoa+0x972>
   13ff2:	b54d                	j	13e94 <__gdtoa+0xa4a>
   13ff4:	4685                	li	a3,1
   13ff6:	4585                	li	a1,1
   13ff8:	eceff06f          	j	136c6 <__gdtoa+0x27c>
   13ffc:	85aa                	mv	a1,a0
   13ffe:	4502                	lw	a0,0(sp)
   14000:	863e                	mv	a2,a5
   14002:	59c020ef          	jal	1659e <__pow5mult>
   14006:	832a                	mv	t1,a0
   14008:	9c050ee3          	beqz	a0,139e4 <__gdtoa+0x59a>
   1400c:	4685                	li	a3,1
   1400e:	5f02                	lw	t5,32(sp)
   14010:	15a6dc63          	bge	a3,s10,14168 <__gdtoa+0xd1e>
   14014:	01032783          	lw	a5,16(t1)
   14018:	d07a                	sw	t5,32(sp)
   1401a:	c81a                	sw	t1,16(sp)
   1401c:	078d                	add	a5,a5,3
   1401e:	078a                	sll	a5,a5,0x2
   14020:	979a                	add	a5,a5,t1
   14022:	43c8                	lw	a0,4(a5)
   14024:	298020ef          	jal	162bc <__hi0bits>
   14028:	5f02                	lw	t5,32(sp)
   1402a:	4342                	lw	t1,16(sp)
   1402c:	8b2a                	mv	s6,a0
   1402e:	cc62                	sw	s8,24(sp)
   14030:	f8eff06f          	j	137be <__gdtoa+0x374>
   14034:	4685                	li	a3,1
   14036:	f5a6c2e3          	blt	a3,s10,13f7a <__gdtoa+0xb30>
   1403a:	5792                	lw	a5,36(sp)
   1403c:	54b2                	lw	s1,44(sp)
   1403e:	9bb2                	add	s7,s7,a2
   14040:	8abe                	mv	s5,a5
   14042:	97b2                	add	a5,a5,a2
   14044:	d23e                	sw	a5,36(sp)
   14046:	f06ff06f          	j	1374c <__gdtoa+0x302>
   1404a:	4789                	li	a5,2
   1404c:	5fa7ce63          	blt	a5,s10,14648 <__gdtoa+0x11fe>
   14050:	47b6                	lw	a5,76(sp)
   14052:	ce3e                	sw	a5,28(sp)
   14054:	b565                	j	13efc <__gdtoa+0xab2>
   14056:	4c42                	lw	s8,16(sp)
   14058:	8f22                	mv	t5,s0
   1405a:	b38d                	j	13dbc <__gdtoa+0x972>
   1405c:	47f2                	lw	a5,28(sp)
   1405e:	c6f04fe3          	bgtz	a5,13cdc <__gdtoa+0x892>
   14062:	e78d                	bnez	a5,1408c <__gdtoa+0xc42>
   14064:	0000a797          	auipc	a5,0xa
   14068:	69c78793          	add	a5,a5,1692 # 1e700 <__TMC_END__+0x50>
   1406c:	4390                	lw	a2,0(a5)
   1406e:	43d4                	lw	a3,4(a5)
   14070:	856a                	mv	a0,s10
   14072:	85ee                	mv	a1,s11
   14074:	c87a                	sw	t5,16(sp)
   14076:	1f2060ef          	jal	1a268 <__muldf3>
   1407a:	48a6                	lw	a7,72(sp)
   1407c:	4786                	lw	a5,64(sp)
   1407e:	8646                	mv	a2,a7
   14080:	86be                	mv	a3,a5
   14082:	066060ef          	jal	1a0e8 <__gedf2>
   14086:	4f42                	lw	t5,16(sp)
   14088:	48054463          	bltz	a0,14510 <__gdtoa+0x10c6>
   1408c:	4581                	li	a1,0
   1408e:	4a01                	li	s4,0
   14090:	47d2                	lw	a5,20(sp)
   14092:	8b7a                	mv	s6,t5
   14094:	4c41                	li	s8,16
   14096:	40f004b3          	neg	s1,a5
   1409a:	b7a9                	j	13fe4 <__gdtoa+0xb9a>
   1409c:	57b2                	lw	a5,44(sp)
   1409e:	5712                	lw	a4,36(sp)
   140a0:	4481                	li	s1,0
   140a2:	40f68633          	sub	a2,a3,a5
   140a6:	47e2                	lw	a5,24(sp)
   140a8:	8aba                	mv	s5,a4
   140aa:	d636                	sw	a3,44(sp)
   140ac:	97b2                	add	a5,a5,a2
   140ae:	cc3e                	sw	a5,24(sp)
   140b0:	47f2                	lw	a5,28(sp)
   140b2:	debe                	sw	a5,124(sp)
   140b4:	9bbe                	add	s7,s7,a5
   140b6:	97ba                	add	a5,a5,a4
   140b8:	d23e                	sw	a5,36(sp)
   140ba:	e92ff06f          	j	1374c <__gdtoa+0x302>
   140be:	4b02                	lw	s6,0(sp)
   140c0:	85d2                	mv	a1,s4
   140c2:	8626                	mv	a2,s1
   140c4:	855a                	mv	a0,s6
   140c6:	d07a                	sw	t5,32(sp)
   140c8:	4d6020ef          	jal	1659e <__pow5mult>
   140cc:	8a2a                	mv	s4,a0
   140ce:	90050be3          	beqz	a0,139e4 <__gdtoa+0x59a>
   140d2:	4632                	lw	a2,12(sp)
   140d4:	85aa                	mv	a1,a0
   140d6:	855a                	mv	a0,s6
   140d8:	32e020ef          	jal	16406 <__multiply>
   140dc:	842a                	mv	s0,a0
   140de:	900503e3          	beqz	a0,139e4 <__gdtoa+0x59a>
   140e2:	45b2                	lw	a1,12(sp)
   140e4:	855a                	mv	a0,s6
   140e6:	018020ef          	jal	160fe <_Bfree>
   140ea:	57b2                	lw	a5,44(sp)
   140ec:	c622                	sw	s0,12(sp)
   140ee:	5f02                	lw	t5,32(sp)
   140f0:	8f85                	sub	a5,a5,s1
   140f2:	d63e                	sw	a5,44(sp)
   140f4:	ea078563          	beqz	a5,1379e <__gdtoa+0x354>
   140f8:	e92ff06f          	j	1378a <__gdtoa+0x340>
   140fc:	8452                	mv	s0,s4
   140fe:	87ee                	mv	a5,s11
   14100:	001d8993          	add	s3,s11,1
   14104:	8a56                	mv	s4,s5
   14106:	03900693          	li	a3,57
   1410a:	8dce                	mv	s11,s3
   1410c:	00d78023          	sb	a3,0(a5)
   14110:	03900693          	li	a3,57
   14114:	a019                	j	1411a <__gdtoa+0xcd0>
   14116:	19bf0463          	beq	t5,s11,1429e <__gdtoa+0xe54>
   1411a:	fffdc783          	lbu	a5,-1(s11)
   1411e:	8b6e                	mv	s6,s11
   14120:	1dfd                	add	s11,s11,-1
   14122:	fed78ae3          	beq	a5,a3,14116 <__gdtoa+0xccc>
   14126:	0785                	add	a5,a5,1
   14128:	00fd8023          	sb	a5,0(s11)
   1412c:	02000c13          	li	s8,32
   14130:	bb35                	j	13e6c <__gdtoa+0xa22>
   14132:	4502                	lw	a0,0(sp)
   14134:	85d2                	mv	a1,s4
   14136:	ca7a                	sw	t5,20(sp)
   14138:	c81a                	sw	t1,16(sp)
   1413a:	536020ef          	jal	16670 <__lshift>
   1413e:	4342                	lw	t1,16(sp)
   14140:	4f52                	lw	t5,20(sp)
   14142:	8a2a                	mv	s4,a0
   14144:	ea051a63          	bnez	a0,137f8 <__gdtoa+0x3ae>
   14148:	89dff06f          	j	139e4 <__gdtoa+0x59a>
   1414c:	4785                	li	a5,1
   1414e:	4a01                	li	s4,0
   14150:	da3e                	sw	a5,52(sp)
   14152:	d60ff06f          	j	136b2 <__gdtoa+0x268>
   14156:	4785                	li	a5,1
   14158:	da3e                	sw	a5,52(sp)
   1415a:	d58ff06f          	j	136b2 <__gdtoa+0x268>
   1415e:	4785                	li	a5,1
   14160:	da3e                	sw	a5,52(sp)
   14162:	b96d                	j	13e1c <__gdtoa+0x9d2>
   14164:	da02                	sw	zero,52(sp)
   14166:	b95d                	j	13e1c <__gdtoa+0x9d2>
   14168:	eadc96e3          	bne	s9,a3,14014 <__gdtoa+0xbca>
   1416c:	004da783          	lw	a5,4(s11)
   14170:	4742                	lw	a4,16(sp)
   14172:	0785                	add	a5,a5,1
   14174:	eae7d0e3          	bge	a5,a4,14014 <__gdtoa+0xbca>
   14178:	5792                	lw	a5,36(sp)
   1417a:	0b85                	add	s7,s7,1
   1417c:	4c05                	li	s8,1
   1417e:	0785                	add	a5,a5,1
   14180:	d23e                	sw	a5,36(sp)
   14182:	bd49                	j	14014 <__gdtoa+0xbca>
   14184:	4402                	lw	s0,0(sp)
   14186:	004a2583          	lw	a1,4(s4)
   1418a:	ca7a                	sw	t5,20(sp)
   1418c:	8522                	mv	a0,s0
   1418e:	c81a                	sw	t1,16(sp)
   14190:	703010ef          	jal	16092 <_Balloc>
   14194:	8aaa                	mv	s5,a0
   14196:	840507e3          	beqz	a0,139e4 <__gdtoa+0x59a>
   1419a:	010a2603          	lw	a2,16(s4)
   1419e:	00ca0593          	add	a1,s4,12
   141a2:	0531                	add	a0,a0,12
   141a4:	0609                	add	a2,a2,2
   141a6:	060a                	sll	a2,a2,0x2
   141a8:	4db020ef          	jal	16e82 <memcpy>
   141ac:	85d6                	mv	a1,s5
   141ae:	4605                	li	a2,1
   141b0:	8522                	mv	a0,s0
   141b2:	4be020ef          	jal	16670 <__lshift>
   141b6:	4342                	lw	t1,16(sp)
   141b8:	4f52                	lw	t5,20(sp)
   141ba:	8aaa                	mv	s5,a0
   141bc:	e4051263          	bnez	a0,13800 <__gdtoa+0x3b6>
   141c0:	825ff06f          	j	139e4 <__gdtoa+0x59a>
   141c4:	86d2                	mv	a3,s4
   141c6:	8622                	mv	a2,s0
   141c8:	85d2                	mv	a1,s4
   141ca:	8522                	mv	a0,s0
   141cc:	c0fa                	sw	t5,64(sp)
   141ce:	1d6050ef          	jal	193a4 <__adddf3>
   141d2:	0000a697          	auipc	a3,0xa
   141d6:	52668693          	add	a3,a3,1318 # 1e6f8 <__TMC_END__+0x48>
   141da:	4290                	lw	a2,0(a3)
   141dc:	42d4                	lw	a3,4(a3)
   141de:	1c6050ef          	jal	193a4 <__adddf3>
   141e2:	4f06                	lw	t5,64(sp)
   141e4:	fcc00737          	lui	a4,0xfcc00
   141e8:	8b2a                	mv	s6,a0
   141ea:	00b70a33          	add	s4,a4,a1
   141ee:	0000a697          	auipc	a3,0xa
   141f2:	51268693          	add	a3,a3,1298 # 1e700 <__TMC_END__+0x50>
   141f6:	4290                	lw	a2,0(a3)
   141f8:	5522                	lw	a0,40(sp)
   141fa:	42d4                	lw	a3,4(a3)
   141fc:	55e2                	lw	a1,56(sp)
   141fe:	c0fa                	sw	t5,64(sp)
   14200:	586060ef          	jal	1a786 <__subdf3>
   14204:	865a                	mv	a2,s6
   14206:	86d2                	mv	a3,s4
   14208:	84aa                	mv	s1,a0
   1420a:	842e                	mv	s0,a1
   1420c:	6dd050ef          	jal	1a0e8 <__gedf2>
   14210:	4f06                	lw	t5,64(sp)
   14212:	2ca04863          	bgtz	a0,144e2 <__gdtoa+0x1098>
   14216:	800008b7          	lui	a7,0x80000
   1421a:	0148c8b3          	xor	a7,a7,s4
   1421e:	865a                	mv	a2,s6
   14220:	8526                	mv	a0,s1
   14222:	86c6                	mv	a3,a7
   14224:	85a2                	mv	a1,s0
   14226:	781050ef          	jal	1a1a6 <__ledf2>
   1422a:	4f06                	lw	t5,64(sp)
   1422c:	e60540e3          	bltz	a0,1408c <__gdtoa+0xc42>
   14230:	57a2                	lw	a5,40(sp)
   14232:	00009317          	auipc	t1,0x9
   14236:	76630313          	add	t1,t1,1894 # 1d998 <__mprec_tens>
   1423a:	c4be                	sw	a5,72(sp)
   1423c:	57e2                	lw	a5,56(sp)
   1423e:	c0be                	sw	a5,64(sp)
   14240:	5782                	lw	a5,32(sp)
   14242:	3407ca63          	bltz	a5,14596 <__gdtoa+0x114c>
   14246:	47d2                	lw	a5,20(sp)
   14248:	d402                	sw	zero,40(sp)
   1424a:	00032d03          	lw	s10,0(t1)
   1424e:	00432d83          	lw	s11,4(t1)
   14252:	a807d5e3          	bgez	a5,13cdc <__gdtoa+0x892>
   14256:	47f2                	lw	a5,28(sp)
   14258:	a80792e3          	bnez	a5,13cdc <__gdtoa+0x892>
   1425c:	b521                	j	14064 <__gdtoa+0xc1a>
   1425e:	45b2                	lw	a1,12(sp)
   14260:	4502                	lw	a0,0(sp)
   14262:	4605                	li	a2,1
   14264:	ca7a                	sw	t5,20(sp)
   14266:	c81a                	sw	t1,16(sp)
   14268:	408020ef          	jal	16670 <__lshift>
   1426c:	c62a                	sw	a0,12(sp)
   1426e:	f6050b63          	beqz	a0,139e4 <__gdtoa+0x59a>
   14272:	4342                	lw	t1,16(sp)
   14274:	859a                	mv	a1,t1
   14276:	50a020ef          	jal	16780 <__mcmp>
   1427a:	4342                	lw	t1,16(sp)
   1427c:	4f52                	lw	t5,20(sp)
   1427e:	e8a049e3          	bgtz	a0,14110 <__gdtoa+0xcc6>
   14282:	e509                	bnez	a0,1428c <__gdtoa+0xe42>
   14284:	001cf793          	and	a5,s9,1
   14288:	e80794e3          	bnez	a5,14110 <__gdtoa+0xcc6>
   1428c:	47b2                	lw	a5,12(sp)
   1428e:	4c41                	li	s8,16
   14290:	4b94                	lw	a3,16(a5)
   14292:	4785                	li	a5,1
   14294:	ccd7cae3          	blt	a5,a3,13f68 <__gdtoa+0xb1e>
   14298:	47b2                	lw	a5,12(sp)
   1429a:	4bdc                	lw	a5,20(a5)
   1429c:	b1d1                	j	13f60 <__gdtoa+0xb16>
   1429e:	57c2                	lw	a5,48(sp)
   142a0:	02000c13          	li	s8,32
   142a4:	0785                	add	a5,a5,1
   142a6:	d83e                	sw	a5,48(sp)
   142a8:	03100793          	li	a5,49
   142ac:	00ff0023          	sb	a5,0(t5)
   142b0:	be75                	j	13e6c <__gdtoa+0xa22>
   142b2:	57a2                	lw	a5,40(sp)
   142b4:	c626                	sw	s1,12(sp)
   142b6:	4f42                	lw	t5,16(sp)
   142b8:	4952                	lw	s2,20(sp)
   142ba:	8362                	mv	t1,s8
   142bc:	cb89                	beqz	a5,142ce <__gdtoa+0xe84>
   142be:	47b2                	lw	a5,12(sp)
   142c0:	4685                	li	a3,1
   142c2:	4b90                	lw	a2,16(a5)
   142c4:	e2c6c863          	blt	a3,a2,138f4 <__gdtoa+0x4aa>
   142c8:	4bd4                	lw	a3,20(a5)
   142ca:	e2069563          	bnez	a3,138f4 <__gdtoa+0x4aa>
   142ce:	45b2                	lw	a1,12(sp)
   142d0:	4502                	lw	a0,0(sp)
   142d2:	4605                	li	a2,1
   142d4:	ca7a                	sw	t5,20(sp)
   142d6:	c81a                	sw	t1,16(sp)
   142d8:	398020ef          	jal	16670 <__lshift>
   142dc:	c62a                	sw	a0,12(sp)
   142de:	f0050363          	beqz	a0,139e4 <__gdtoa+0x59a>
   142e2:	4342                	lw	t1,16(sp)
   142e4:	859a                	mv	a1,t1
   142e6:	49a020ef          	jal	16780 <__mcmp>
   142ea:	4342                	lw	t1,16(sp)
   142ec:	4f52                	lw	t5,20(sp)
   142ee:	34a05363          	blez	a0,14634 <__gdtoa+0x11ea>
   142f2:	03900693          	li	a3,57
   142f6:	e0dc83e3          	beq	s9,a3,140fc <__gdtoa+0xcb2>
   142fa:	02000793          	li	a5,32
   142fe:	031b8c93          	add	s9,s7,49
   14302:	d43e                	sw	a5,40(sp)
   14304:	b6b9                	j	13e52 <__gdtoa+0xa08>
   14306:	8656                	mv	a2,s5
   14308:	86e2                	mv	a3,s8
   1430a:	ca7a                	sw	t5,20(sp)
   1430c:	098050ef          	jal	193a4 <__adddf3>
   14310:	fffb4703          	lbu	a4,-1(s6)
   14314:	866a                	mv	a2,s10
   14316:	86ee                	mv	a3,s11
   14318:	c83a                	sw	a4,16(sp)
   1431a:	8aaa                	mv	s5,a0
   1431c:	8a2e                	mv	s4,a1
   1431e:	5cb050ef          	jal	1a0e8 <__gedf2>
   14322:	4742                	lw	a4,16(sp)
   14324:	4f52                	lw	t5,20(sp)
   14326:	92a042e3          	bgtz	a0,13c4a <__gdtoa+0x800>
   1432a:	8556                	mv	a0,s5
   1432c:	85d2                	mv	a1,s4
   1432e:	866a                	mv	a2,s10
   14330:	86ee                	mv	a3,s11
   14332:	54b050ef          	jal	1a07c <__eqdf2>
   14336:	4f52                	lw	t5,20(sp)
   14338:	1e051263          	bnez	a0,1451c <__gdtoa+0x10d2>
   1433c:	0019f993          	and	s3,s3,1
   14340:	1c098e63          	beqz	s3,1451c <__gdtoa+0x10d2>
   14344:	4742                	lw	a4,16(sp)
   14346:	b211                	j	13c4a <__gdtoa+0x800>
   14348:	03100693          	li	a3,49
   1434c:	0405                	add	s0,s0,1
   1434e:	ba31                	j	13c6a <__gdtoa+0x820>
   14350:	855a                	mv	a0,s6
   14352:	85d2                	mv	a1,s4
   14354:	d69a                	sw	t1,108(sp)
   14356:	d0fa                	sw	t5,96(sp)
   14358:	711050ef          	jal	1a268 <__muldf3>
   1435c:	4626                	lw	a2,72(sp)
   1435e:	4686                	lw	a3,64(sp)
   14360:	5f06                	lw	t5,96(sp)
   14362:	5336                	lw	t1,108(sp)
   14364:	8ab2                	mv	s5,a2
   14366:	ceae                	sw	a1,92(sp)
   14368:	c0b2                	sw	a2,64(sp)
   1436a:	4585                	li	a1,1
   1436c:	4601                	li	a2,0
   1436e:	d2ce                	sw	s3,100(sp)
   14370:	d4ca                	sw	s2,104(sp)
   14372:	ccaa                	sw	a0,88(sp)
   14374:	4946                	lw	s2,80(sp)
   14376:	deae                	sw	a1,124(sp)
   14378:	c4b6                	sw	a3,72(sp)
   1437a:	8a36                	mv	s4,a3
   1437c:	8b7a                	mv	s6,t5
   1437e:	0000a497          	auipc	s1,0xa
   14382:	36a48493          	add	s1,s1,874 # 1e6e8 <__TMC_END__+0x38>
   14386:	8432                	mv	s0,a2
   14388:	c89a                	sw	t1,80(sp)
   1438a:	89d6                	mv	s3,s5
   1438c:	a809                	j	1439e <__gdtoa+0xf54>
   1438e:	4090                	lw	a2,0(s1)
   14390:	40d4                	lw	a3,4(s1)
   14392:	de9a                	sw	t1,124(sp)
   14394:	4405                	li	s0,1
   14396:	6d3050ef          	jal	1a268 <__muldf3>
   1439a:	89aa                	mv	s3,a0
   1439c:	8a2e                	mv	s4,a1
   1439e:	854e                	mv	a0,s3
   143a0:	85d2                	mv	a1,s4
   143a2:	333060ef          	jal	1aed4 <__fixdfsi>
   143a6:	8aaa                	mv	s5,a0
   143a8:	cd01                	beqz	a0,143c0 <__gdtoa+0xf76>
   143aa:	391060ef          	jal	1af3a <__floatsidf>
   143ae:	862a                	mv	a2,a0
   143b0:	86ae                	mv	a3,a1
   143b2:	854e                	mv	a0,s3
   143b4:	85d2                	mv	a1,s4
   143b6:	3d0060ef          	jal	1a786 <__subdf3>
   143ba:	89aa                	mv	s3,a0
   143bc:	8a2e                	mv	s4,a1
   143be:	4405                	li	s0,1
   143c0:	030a8793          	add	a5,s5,48
   143c4:	0ff7f713          	zext.b	a4,a5
   143c8:	00eb0023          	sb	a4,0(s6)
   143cc:	57f6                	lw	a5,124(sp)
   143ce:	0b05                	add	s6,s6,1
   143d0:	854e                	mv	a0,s3
   143d2:	85d2                	mv	a1,s4
   143d4:	00178313          	add	t1,a5,1
   143d8:	fb279be3          	bne	a5,s2,1438e <__gdtoa+0xf44>
   143dc:	5f06                	lw	t5,96(sp)
   143de:	5926                	lw	s2,104(sp)
   143e0:	4346                	lw	t1,80(sp)
   143e2:	5996                	lw	s3,100(sp)
   143e4:	c019                	beqz	s0,143ea <__gdtoa+0xfa0>
   143e6:	c0aa                	sw	a0,64(sp)
   143e8:	c4d2                	sw	s4,72(sp)
   143ea:	0000aa17          	auipc	s4,0xa
   143ee:	31ea0a13          	add	s4,s4,798 # 1e708 <__TMC_END__+0x58>
   143f2:	4af6                	lw	s5,92(sp)
   143f4:	000a2603          	lw	a2,0(s4)
   143f8:	004a2683          	lw	a3,4(s4)
   143fc:	4566                	lw	a0,88(sp)
   143fe:	85d6                	mv	a1,s5
   14400:	d0fa                	sw	t5,96(sp)
   14402:	c8ba                	sw	a4,80(sp)
   14404:	d29a                	sw	t1,100(sp)
   14406:	79f040ef          	jal	193a4 <__adddf3>
   1440a:	4486                	lw	s1,64(sp)
   1440c:	4426                	lw	s0,72(sp)
   1440e:	8626                	mv	a2,s1
   14410:	86a2                	mv	a3,s0
   14412:	595050ef          	jal	1a1a6 <__ledf2>
   14416:	4746                	lw	a4,80(sp)
   14418:	5f06                	lw	t5,96(sp)
   1441a:	16054963          	bltz	a0,1458c <__gdtoa+0x1142>
   1441e:	4666                	lw	a2,88(sp)
   14420:	000a2503          	lw	a0,0(s4)
   14424:	004a2583          	lw	a1,4(s4)
   14428:	86d6                	mv	a3,s5
   1442a:	c8fa                	sw	t5,80(sp)
   1442c:	35a060ef          	jal	1a786 <__subdf3>
   14430:	8626                	mv	a2,s1
   14432:	86a2                	mv	a3,s0
   14434:	4b5050ef          	jal	1a0e8 <__gedf2>
   14438:	4f46                	lw	t5,80(sp)
   1443a:	5316                	lw	t1,100(sp)
   1443c:	1ca04563          	bgtz	a0,14606 <__gdtoa+0x11bc>
   14440:	57a2                	lw	a5,40(sp)
   14442:	c4be                	sw	a5,72(sp)
   14444:	57e2                	lw	a5,56(sp)
   14446:	c0be                	sw	a5,64(sp)
   14448:	5782                	lw	a5,32(sp)
   1444a:	de07dee3          	bgez	a5,14246 <__gdtoa+0xdfc>
   1444e:	54b2                	lw	s1,44(sp)
   14450:	5a92                	lw	s5,36(sp)
   14452:	d402                	sw	zero,40(sp)
   14454:	4a01                	li	s4,0
   14456:	b08ff06f          	j	1375e <__gdtoa+0x314>
   1445a:	8452                	mv	s0,s4
   1445c:	4f42                	lw	t5,16(sp)
   1445e:	4952                	lw	s2,20(sp)
   14460:	c626                	sw	s1,12(sp)
   14462:	8362                	mv	t1,s8
   14464:	8a56                	mv	s4,s5
   14466:	bcf9                	j	13f44 <__gdtoa+0xafa>
   14468:	fffb4703          	lbu	a4,-1(s6)
   1446c:	fdeff06f          	j	13c4a <__gdtoa+0x800>
   14470:	d4048ae3          	beqz	s1,141c4 <__gdtoa+0xd7a>
   14474:	44b6                	lw	s1,76(sp)
   14476:	da905de3          	blez	s1,14230 <__gdtoa+0xde6>
   1447a:	0000a697          	auipc	a3,0xa
   1447e:	26e68693          	add	a3,a3,622 # 1e6e8 <__TMC_END__+0x38>
   14482:	4290                	lw	a2,0(a3)
   14484:	42d4                	lw	a3,4(a3)
   14486:	85d2                	mv	a1,s4
   14488:	8522                	mv	a0,s0
   1448a:	d0fa                	sw	t5,96(sp)
   1448c:	5dd050ef          	jal	1a268 <__muldf3>
   14490:	0000a697          	auipc	a3,0xa
   14494:	26068693          	add	a3,a3,608 # 1e6f0 <__TMC_END__+0x40>
   14498:	4290                	lw	a2,0(a3)
   1449a:	42d4                	lw	a3,4(a3)
   1449c:	c4aa                	sw	a0,72(sp)
   1449e:	ceaa                	sw	a0,92(sp)
   144a0:	c0ae                	sw	a1,64(sp)
   144a2:	ccae                	sw	a1,88(sp)
   144a4:	5c5050ef          	jal	1a268 <__muldf3>
   144a8:	0000a697          	auipc	a3,0xa
   144ac:	25068693          	add	a3,a3,592 # 1e6f8 <__TMC_END__+0x48>
   144b0:	4290                	lw	a2,0(a3)
   144b2:	42d4                	lw	a3,4(a3)
   144b4:	6f1040ef          	jal	193a4 <__adddf3>
   144b8:	fcc00737          	lui	a4,0xfcc00
   144bc:	57fd                	li	a5,-1
   144be:	4866                	lw	a6,88(sp)
   144c0:	4ef6                	lw	t4,92(sp)
   144c2:	5f06                	lw	t5,96(sp)
   144c4:	8b2a                	mv	s6,a0
   144c6:	00b70a33          	add	s4,a4,a1
   144ca:	c8a6                	sw	s1,80(sp)
   144cc:	cabe                	sw	a5,84(sp)
   144ce:	e32ff06f          	j	13b00 <__gdtoa+0x6b6>
   144d2:	5712                	lw	a4,36(sp)
   144d4:	debe                	sw	a5,124(sp)
   144d6:	9bbe                	add	s7,s7,a5
   144d8:	97ba                	add	a5,a5,a4
   144da:	8aba                	mv	s5,a4
   144dc:	d23e                	sw	a5,36(sp)
   144de:	a6eff06f          	j	1374c <__gdtoa+0x302>
   144e2:	4489                	li	s1,2
   144e4:	4581                	li	a1,0
   144e6:	4a01                	li	s4,0
   144e8:	b4f5                	j	13fd4 <__gdtoa+0xb8a>
   144ea:	c626                	sw	s1,12(sp)
   144ec:	03900693          	li	a3,57
   144f0:	4f42                	lw	t5,16(sp)
   144f2:	4952                	lw	s2,20(sp)
   144f4:	8362                	mv	t1,s8
   144f6:	c0dc83e3          	beq	s9,a3,140fc <__gdtoa+0xcb2>
   144fa:	001c8793          	add	a5,s9,1
   144fe:	8452                	mv	s0,s4
   14500:	001d8b13          	add	s6,s11,1
   14504:	00fd8023          	sb	a5,0(s11)
   14508:	8a56                	mv	s4,s5
   1450a:	02000c13          	li	s8,32
   1450e:	bab9                	j	13e6c <__gdtoa+0xa22>
   14510:	57c2                	lw	a5,48(sp)
   14512:	4581                	li	a1,0
   14514:	4a01                	li	s4,0
   14516:	00278493          	add	s1,a5,2
   1451a:	bc6d                	j	13fd4 <__gdtoa+0xb8a>
   1451c:	87da                	mv	a5,s6
   1451e:	4c41                	li	s8,16
   14520:	03000613          	li	a2,48
   14524:	fff7c703          	lbu	a4,-1(a5)
   14528:	8b3e                	mv	s6,a5
   1452a:	17fd                	add	a5,a5,-1
   1452c:	fec70ce3          	beq	a4,a2,14524 <__gdtoa+0x10da>
   14530:	84a2                	mv	s1,s0
   14532:	88bff06f          	j	13dbc <__gdtoa+0x972>
   14536:	4502                	lw	a0,0(sp)
   14538:	85d2                	mv	a1,s4
   1453a:	4681                	li	a3,0
   1453c:	4629                	li	a2,10
   1453e:	3d3010ef          	jal	16110 <__multadd>
   14542:	8a2a                	mv	s4,a0
   14544:	ca050063          	beqz	a0,139e4 <__gdtoa+0x59a>
   14548:	47b6                	lw	a5,76(sp)
   1454a:	4342                	lw	t1,16(sp)
   1454c:	4f72                	lw	t5,28(sp)
   1454e:	00f05563          	blez	a5,14558 <__gdtoa+0x110e>
   14552:	ce3e                	sw	a5,28(sp)
   14554:	a9cff06f          	j	137f0 <__gdtoa+0x3a6>
   14558:	4789                	li	a5,2
   1455a:	0fa7c763          	blt	a5,s10,14648 <__gdtoa+0x11fe>
   1455e:	47b6                	lw	a5,76(sp)
   14560:	ce3e                	sw	a5,28(sp)
   14562:	a8eff06f          	j	137f0 <__gdtoa+0x3a6>
   14566:	4f26                	lw	t5,72(sp)
   14568:	4946                	lw	s2,80(sp)
   1456a:	8526                	mv	a0,s1
   1456c:	85d2                	mv	a1,s4
   1456e:	4601                	li	a2,0
   14570:	4681                	li	a3,0
   14572:	c87a                	sw	t5,16(sp)
   14574:	309050ef          	jal	1a07c <__eqdf2>
   14578:	00a037b3          	snez	a5,a0
   1457c:	00479c13          	sll	s8,a5,0x4
   14580:	47d6                	lw	a5,84(sp)
   14582:	4f42                	lw	t5,16(sp)
   14584:	00178493          	add	s1,a5,1
   14588:	835ff06f          	j	13dbc <__gdtoa+0x972>
   1458c:	47d6                	lw	a5,84(sp)
   1458e:	00178413          	add	s0,a5,1
   14592:	eb8ff06f          	j	13c4a <__gdtoa+0x800>
   14596:	d402                	sw	zero,40(sp)
   14598:	962ff06f          	j	136fa <__gdtoa+0x2b0>
   1459c:	47f2                	lw	a5,28(sp)
   1459e:	5732                	lw	a4,44(sp)
   145a0:	fff78693          	add	a3,a5,-1
   145a4:	aed74ce3          	blt	a4,a3,1409c <__gdtoa+0xc52>
   145a8:	5612                	lw	a2,36(sp)
   145aa:	9bbe                	add	s7,s7,a5
   145ac:	debe                	sw	a5,124(sp)
   145ae:	97b2                	add	a5,a5,a2
   145b0:	8ab2                	mv	s5,a2
   145b2:	40d704b3          	sub	s1,a4,a3
   145b6:	d23e                	sw	a5,36(sp)
   145b8:	994ff06f          	j	1374c <__gdtoa+0x302>
   145bc:	57a2                	lw	a5,40(sp)
   145be:	4f26                	lw	t5,72(sp)
   145c0:	5b86                	lw	s7,96(sp)
   145c2:	c4be                	sw	a5,72(sp)
   145c4:	57e2                	lw	a5,56(sp)
   145c6:	5a96                	lw	s5,100(sp)
   145c8:	4946                	lw	s2,80(sp)
   145ca:	c0be                	sw	a5,64(sp)
   145cc:	5782                	lw	a5,32(sp)
   145ce:	5326                	lw	t1,104(sp)
   145d0:	c607dbe3          	bgez	a5,14246 <__gdtoa+0xdfc>
   145d4:	d402                	sw	zero,40(sp)
   145d6:	92aff06f          	j	13700 <__gdtoa+0x2b6>
   145da:	c626                	sw	s1,12(sp)
   145dc:	03900693          	li	a3,57
   145e0:	4f42                	lw	t5,16(sp)
   145e2:	4952                	lw	s2,20(sp)
   145e4:	8362                	mv	t1,s8
   145e6:	b0dc8be3          	beq	s9,a3,140fc <__gdtoa+0xcb2>
   145ea:	0b605363          	blez	s6,14690 <__gdtoa+0x1246>
   145ee:	031b8c93          	add	s9,s7,49
   145f2:	02000c13          	li	s8,32
   145f6:	8452                	mv	s0,s4
   145f8:	001d8b13          	add	s6,s11,1
   145fc:	019d8023          	sb	s9,0(s11)
   14600:	8a56                	mv	s4,s5
   14602:	86bff06f          	j	13e6c <__gdtoa+0xa22>
   14606:	85a2                	mv	a1,s0
   14608:	8526                	mv	a0,s1
   1460a:	4601                	li	a2,0
   1460c:	4681                	li	a3,0
   1460e:	c87a                	sw	t5,16(sp)
   14610:	26d050ef          	jal	1a07c <__eqdf2>
   14614:	4756                	lw	a4,84(sp)
   14616:	00a037b3          	snez	a5,a0
   1461a:	00479c13          	sll	s8,a5,0x4
   1461e:	4f42                	lw	t5,16(sp)
   14620:	87da                	mv	a5,s6
   14622:	00170413          	add	s0,a4,1 # fcc00001 <__BSS_END__+0xfcbe14dd>
   14626:	bded                	j	14520 <__gdtoa+0x10d6>
   14628:	4bd4                	lw	a3,20(a5)
   1462a:	82069ce3          	bnez	a3,13e62 <__gdtoa+0xa18>
   1462e:	5c22                	lw	s8,40(sp)
   14630:	833ff06f          	j	13e62 <__gdtoa+0xa18>
   14634:	e509                	bnez	a0,1463e <__gdtoa+0x11f4>
   14636:	001cf693          	and	a3,s9,1
   1463a:	ca069ce3          	bnez	a3,142f2 <__gdtoa+0xea8>
   1463e:	02000793          	li	a5,32
   14642:	d43e                	sw	a5,40(sp)
   14644:	80fff06f          	j	13e52 <__gdtoa+0xa08>
   14648:	47b6                	lw	a5,76(sp)
   1464a:	ce3e                	sw	a5,28(sp)
   1464c:	ba99                	j	13fa2 <__gdtoa+0xb58>
   1464e:	c626                	sw	s1,12(sp)
   14650:	03900693          	li	a3,57
   14654:	835a                	mv	t1,s6
   14656:	8f62                	mv	t5,s8
   14658:	00dc8c63          	beq	s9,a3,14670 <__gdtoa+0x1226>
   1465c:	0c85                	add	s9,s9,1
   1465e:	02000c13          	li	s8,32
   14662:	801ff06f          	j	13e62 <__gdtoa+0xa18>
   14666:	4c41                	li	s8,16
   14668:	001d8993          	add	s3,s11,1
   1466c:	ff6ff06f          	j	13e62 <__gdtoa+0xa18>
   14670:	8452                	mv	s0,s4
   14672:	87ee                	mv	a5,s11
   14674:	8a56                	mv	s4,s5
   14676:	bc41                	j	14106 <__gdtoa+0xcbc>
   14678:	4890                	lw	a2,16(s1)
   1467a:	4685                	li	a3,1
   1467c:	87a6                	mv	a5,s1
   1467e:	a6c6cb63          	blt	a3,a2,138f4 <__gdtoa+0x4aa>
   14682:	4bd4                	lw	a3,20(a5)
   14684:	a6069863          	bnez	a3,138f4 <__gdtoa+0x4aa>
   14688:	001d8993          	add	s3,s11,1
   1468c:	fd6ff06f          	j	13e62 <__gdtoa+0xa18>
   14690:	47b2                	lw	a5,12(sp)
   14692:	4685                	li	a3,1
   14694:	4c41                	li	s8,16
   14696:	4b90                	lw	a2,16(a5)
   14698:	f4c6cfe3          	blt	a3,a2,145f6 <__gdtoa+0x11ac>
   1469c:	4bd4                	lw	a3,20(a5)
   1469e:	00d036b3          	snez	a3,a3
   146a2:	00469c13          	sll	s8,a3,0x4
   146a6:	bf81                	j	145f6 <__gdtoa+0x11ac>
   146a8:	020b4063          	bltz	s6,146c8 <__gdtoa+0x127e>
   146ac:	016d6b33          	or	s6,s10,s6
   146b0:	000b1663          	bnez	s6,146bc <__gdtoa+0x1272>
   146b4:	0009a783          	lw	a5,0(s3)
   146b8:	8b85                	and	a5,a5,1
   146ba:	c799                	beqz	a5,146c8 <__gdtoa+0x127e>
   146bc:	00d04463          	bgtz	a3,146c4 <__gdtoa+0x127a>
   146c0:	974ff06f          	j	13834 <__gdtoa+0x3ea>
   146c4:	96aff06f          	j	1382e <__gdtoa+0x3e4>
   146c8:	5722                	lw	a4,40(sp)
   146ca:	c626                	sw	s1,12(sp)
   146cc:	4f42                	lw	t5,16(sp)
   146ce:	4952                	lw	s2,20(sp)
   146d0:	8362                	mv	t1,s8
   146d2:	cf19                	beqz	a4,146f0 <__gdtoa+0x12a6>
   146d4:	488c                	lw	a1,16(s1)
   146d6:	4605                	li	a2,1
   146d8:	a0b64e63          	blt	a2,a1,138f4 <__gdtoa+0x4aa>
   146dc:	48d0                	lw	a2,20(s1)
   146de:	a0061b63          	bnez	a2,138f4 <__gdtoa+0x4aa>
   146e2:	bed046e3          	bgtz	a3,142ce <__gdtoa+0xe84>
   146e6:	4c01                	li	s8,0
   146e8:	001d8993          	add	s3,s11,1
   146ec:	f76ff06f          	j	13e62 <__gdtoa+0xa18>
   146f0:	f6d05163          	blez	a3,13e52 <__gdtoa+0xa08>
   146f4:	bee9                	j	142ce <__gdtoa+0xe84>

000146f6 <__call_exitprocs>:
   146f6:	7179                	add	sp,sp,-48
   146f8:	cc52                	sw	s4,24(sp)
   146fa:	ff818a13          	add	s4,gp,-8 # 1e808 <__atexit>
   146fe:	d04a                	sw	s2,32(sp)
   14700:	000a2903          	lw	s2,0(s4)
   14704:	d606                	sw	ra,44(sp)
   14706:	06090c63          	beqz	s2,1477e <__call_exitprocs+0x88>
   1470a:	ce4e                	sw	s3,28(sp)
   1470c:	ca56                	sw	s5,20(sp)
   1470e:	c85a                	sw	s6,16(sp)
   14710:	c65e                	sw	s7,12(sp)
   14712:	d422                	sw	s0,40(sp)
   14714:	d226                	sw	s1,36(sp)
   14716:	c462                	sw	s8,8(sp)
   14718:	8b2a                	mv	s6,a0
   1471a:	8bae                	mv	s7,a1
   1471c:	59fd                	li	s3,-1
   1471e:	4a85                	li	s5,1
   14720:	00492483          	lw	s1,4(s2)
   14724:	fff48413          	add	s0,s1,-1
   14728:	04044463          	bltz	s0,14770 <__call_exitprocs+0x7a>
   1472c:	048a                	sll	s1,s1,0x2
   1472e:	94ca                	add	s1,s1,s2
   14730:	040b9c63          	bnez	s7,14788 <__call_exitprocs+0x92>
   14734:	00492783          	lw	a5,4(s2)
   14738:	40d4                	lw	a3,4(s1)
   1473a:	17fd                	add	a5,a5,-1
   1473c:	08878063          	beq	a5,s0,147bc <__call_exitprocs+0xc6>
   14740:	0004a223          	sw	zero,4(s1)
   14744:	c295                	beqz	a3,14768 <__call_exitprocs+0x72>
   14746:	18892783          	lw	a5,392(s2)
   1474a:	008a9733          	sll	a4,s5,s0
   1474e:	00492c03          	lw	s8,4(s2)
   14752:	8ff9                	and	a5,a5,a4
   14754:	e3b9                	bnez	a5,1479a <__call_exitprocs+0xa4>
   14756:	9682                	jalr	a3
   14758:	00492703          	lw	a4,4(s2)
   1475c:	000a2783          	lw	a5,0(s4)
   14760:	05871b63          	bne	a4,s8,147b6 <__call_exitprocs+0xc0>
   14764:	05279963          	bne	a5,s2,147b6 <__call_exitprocs+0xc0>
   14768:	147d                	add	s0,s0,-1
   1476a:	14f1                	add	s1,s1,-4
   1476c:	fd3412e3          	bne	s0,s3,14730 <__call_exitprocs+0x3a>
   14770:	5422                	lw	s0,40(sp)
   14772:	5492                	lw	s1,36(sp)
   14774:	49f2                	lw	s3,28(sp)
   14776:	4ad2                	lw	s5,20(sp)
   14778:	4b42                	lw	s6,16(sp)
   1477a:	4bb2                	lw	s7,12(sp)
   1477c:	4c22                	lw	s8,8(sp)
   1477e:	50b2                	lw	ra,44(sp)
   14780:	5902                	lw	s2,32(sp)
   14782:	4a62                	lw	s4,24(sp)
   14784:	6145                	add	sp,sp,48
   14786:	8082                	ret
   14788:	1044a783          	lw	a5,260(s1)
   1478c:	fb7784e3          	beq	a5,s7,14734 <__call_exitprocs+0x3e>
   14790:	147d                	add	s0,s0,-1
   14792:	14f1                	add	s1,s1,-4
   14794:	ff341ae3          	bne	s0,s3,14788 <__call_exitprocs+0x92>
   14798:	bfe1                	j	14770 <__call_exitprocs+0x7a>
   1479a:	18c92783          	lw	a5,396(s2)
   1479e:	0844a583          	lw	a1,132(s1)
   147a2:	8f7d                	and	a4,a4,a5
   147a4:	ef19                	bnez	a4,147c2 <__call_exitprocs+0xcc>
   147a6:	855a                	mv	a0,s6
   147a8:	9682                	jalr	a3
   147aa:	00492703          	lw	a4,4(s2)
   147ae:	000a2783          	lw	a5,0(s4)
   147b2:	fb8709e3          	beq	a4,s8,14764 <__call_exitprocs+0x6e>
   147b6:	dfcd                	beqz	a5,14770 <__call_exitprocs+0x7a>
   147b8:	893e                	mv	s2,a5
   147ba:	b79d                	j	14720 <__call_exitprocs+0x2a>
   147bc:	00892223          	sw	s0,4(s2)
   147c0:	b751                	j	14744 <__call_exitprocs+0x4e>
   147c2:	852e                	mv	a0,a1
   147c4:	9682                	jalr	a3
   147c6:	bf49                	j	14758 <__call_exitprocs+0x62>

000147c8 <strlen>:
   147c8:	00357793          	and	a5,a0,3
   147cc:	872a                	mv	a4,a0
   147ce:	ef9d                	bnez	a5,1480c <strlen+0x44>
   147d0:	7f7f86b7          	lui	a3,0x7f7f8
   147d4:	f7f68693          	add	a3,a3,-129 # 7f7f7f7f <__BSS_END__+0x7f7d945b>
   147d8:	55fd                	li	a1,-1
   147da:	4310                	lw	a2,0(a4)
   147dc:	0711                	add	a4,a4,4
   147de:	00d677b3          	and	a5,a2,a3
   147e2:	97b6                	add	a5,a5,a3
   147e4:	8fd1                	or	a5,a5,a2
   147e6:	8fd5                	or	a5,a5,a3
   147e8:	feb789e3          	beq	a5,a1,147da <strlen+0x12>
   147ec:	ffc74683          	lbu	a3,-4(a4)
   147f0:	40a707b3          	sub	a5,a4,a0
   147f4:	ca8d                	beqz	a3,14826 <strlen+0x5e>
   147f6:	ffd74683          	lbu	a3,-3(a4)
   147fa:	c29d                	beqz	a3,14820 <strlen+0x58>
   147fc:	ffe74503          	lbu	a0,-2(a4)
   14800:	00a03533          	snez	a0,a0
   14804:	953e                	add	a0,a0,a5
   14806:	1579                	add	a0,a0,-2
   14808:	8082                	ret
   1480a:	d2f9                	beqz	a3,147d0 <strlen+0x8>
   1480c:	00074783          	lbu	a5,0(a4)
   14810:	0705                	add	a4,a4,1
   14812:	00377693          	and	a3,a4,3
   14816:	fbf5                	bnez	a5,1480a <strlen+0x42>
   14818:	8f09                	sub	a4,a4,a0
   1481a:	fff70513          	add	a0,a4,-1
   1481e:	8082                	ret
   14820:	ffd78513          	add	a0,a5,-3
   14824:	8082                	ret
   14826:	ffc78513          	add	a0,a5,-4
   1482a:	8082                	ret

0001482c <__ssprint_r>:
   1482c:	461c                	lw	a5,8(a2)
   1482e:	7179                	add	sp,sp,-48
   14830:	ce4e                	sw	s3,28(sp)
   14832:	cc52                	sw	s4,24(sp)
   14834:	d606                	sw	ra,44(sp)
   14836:	00062983          	lw	s3,0(a2)
   1483a:	8a32                	mv	s4,a2
   1483c:	12078563          	beqz	a5,14966 <__ssprint_r+0x13a>
   14840:	d226                	sw	s1,36(sp)
   14842:	d04a                	sw	s2,32(sp)
   14844:	ca56                	sw	s5,20(sp)
   14846:	c65e                	sw	s7,12(sp)
   14848:	4598                	lw	a4,8(a1)
   1484a:	419c                	lw	a5,0(a1)
   1484c:	d422                	sw	s0,40(sp)
   1484e:	c85a                	sw	s6,16(sp)
   14850:	c462                	sw	s8,8(sp)
   14852:	8aaa                	mv	s5,a0
   14854:	84ae                	mv	s1,a1
   14856:	4b81                	li	s7,0
   14858:	4901                	li	s2,0
   1485a:	a055                	j	148fe <__ssprint_r+0xd2>
   1485c:	00c49703          	lh	a4,12(s1)
   14860:	48077693          	and	a3,a4,1152
   14864:	c6b5                	beqz	a3,148d0 <__ssprint_r+0xa4>
   14866:	48d0                	lw	a2,20(s1)
   14868:	488c                	lw	a1,16(s1)
   1486a:	00161693          	sll	a3,a2,0x1
   1486e:	96b2                	add	a3,a3,a2
   14870:	40b78433          	sub	s0,a5,a1
   14874:	01f6db13          	srl	s6,a3,0x1f
   14878:	9b36                	add	s6,s6,a3
   1487a:	00140793          	add	a5,s0,1
   1487e:	401b5b13          	sra	s6,s6,0x1
   14882:	97ca                	add	a5,a5,s2
   14884:	865a                	mv	a2,s6
   14886:	00fb7463          	bgeu	s6,a5,1488e <__ssprint_r+0x62>
   1488a:	8b3e                	mv	s6,a5
   1488c:	863e                	mv	a2,a5
   1488e:	40077713          	and	a4,a4,1024
   14892:	c341                	beqz	a4,14912 <__ssprint_r+0xe6>
   14894:	85b2                	mv	a1,a2
   14896:	8556                	mv	a0,s5
   14898:	b06fe0ef          	jal	12b9e <_malloc_r>
   1489c:	8c2a                	mv	s8,a0
   1489e:	c159                	beqz	a0,14924 <__ssprint_r+0xf8>
   148a0:	488c                	lw	a1,16(s1)
   148a2:	8622                	mv	a2,s0
   148a4:	5de020ef          	jal	16e82 <memcpy>
   148a8:	00c4d783          	lhu	a5,12(s1)
   148ac:	b7f7f793          	and	a5,a5,-1153
   148b0:	0807e793          	or	a5,a5,128
   148b4:	00f49623          	sh	a5,12(s1)
   148b8:	408b07b3          	sub	a5,s6,s0
   148bc:	008c0533          	add	a0,s8,s0
   148c0:	0164aa23          	sw	s6,20(s1)
   148c4:	0184a823          	sw	s8,16(s1)
   148c8:	c088                	sw	a0,0(s1)
   148ca:	8b4a                	mv	s6,s2
   148cc:	c49c                	sw	a5,8(s1)
   148ce:	844a                	mv	s0,s2
   148d0:	8622                	mv	a2,s0
   148d2:	85de                	mv	a1,s7
   148d4:	79e020ef          	jal	17072 <memmove>
   148d8:	4498                	lw	a4,8(s1)
   148da:	409c                	lw	a5,0(s1)
   148dc:	008a2683          	lw	a3,8(s4)
   148e0:	41670733          	sub	a4,a4,s6
   148e4:	97a2                	add	a5,a5,s0
   148e6:	c498                	sw	a4,8(s1)
   148e8:	c09c                	sw	a5,0(s1)
   148ea:	412686b3          	sub	a3,a3,s2
   148ee:	00da2423          	sw	a3,8(s4)
   148f2:	c2bd                	beqz	a3,14958 <__ssprint_r+0x12c>
   148f4:	0009ab83          	lw	s7,0(s3)
   148f8:	0049a903          	lw	s2,4(s3)
   148fc:	09a1                	add	s3,s3,8
   148fe:	8b3a                	mv	s6,a4
   14900:	853e                	mv	a0,a5
   14902:	fe0909e3          	beqz	s2,148f4 <__ssprint_r+0xc8>
   14906:	843a                	mv	s0,a4
   14908:	f4e97ae3          	bgeu	s2,a4,1485c <__ssprint_r+0x30>
   1490c:	8b4a                	mv	s6,s2
   1490e:	844a                	mv	s0,s2
   14910:	b7c1                	j	148d0 <__ssprint_r+0xa4>
   14912:	8556                	mv	a0,s5
   14914:	5f9000ef          	jal	1570c <_realloc_r>
   14918:	8c2a                	mv	s8,a0
   1491a:	fd59                	bnez	a0,148b8 <__ssprint_r+0x8c>
   1491c:	488c                	lw	a1,16(s1)
   1491e:	8556                	mv	a0,s5
   14920:	8fffe0ef          	jal	1321e <_free_r>
   14924:	00c4d783          	lhu	a5,12(s1)
   14928:	4731                	li	a4,12
   1492a:	00eaa023          	sw	a4,0(s5)
   1492e:	5422                	lw	s0,40(sp)
   14930:	50b2                	lw	ra,44(sp)
   14932:	0407e793          	or	a5,a5,64
   14936:	00f49623          	sh	a5,12(s1)
   1493a:	5902                	lw	s2,32(sp)
   1493c:	5492                	lw	s1,36(sp)
   1493e:	4ad2                	lw	s5,20(sp)
   14940:	4b42                	lw	s6,16(sp)
   14942:	4bb2                	lw	s7,12(sp)
   14944:	4c22                	lw	s8,8(sp)
   14946:	000a2423          	sw	zero,8(s4)
   1494a:	000a2223          	sw	zero,4(s4)
   1494e:	49f2                	lw	s3,28(sp)
   14950:	4a62                	lw	s4,24(sp)
   14952:	557d                	li	a0,-1
   14954:	6145                	add	sp,sp,48
   14956:	8082                	ret
   14958:	5422                	lw	s0,40(sp)
   1495a:	5492                	lw	s1,36(sp)
   1495c:	5902                	lw	s2,32(sp)
   1495e:	4ad2                	lw	s5,20(sp)
   14960:	4b42                	lw	s6,16(sp)
   14962:	4bb2                	lw	s7,12(sp)
   14964:	4c22                	lw	s8,8(sp)
   14966:	50b2                	lw	ra,44(sp)
   14968:	000a2223          	sw	zero,4(s4)
   1496c:	49f2                	lw	s3,28(sp)
   1496e:	4a62                	lw	s4,24(sp)
   14970:	4501                	li	a0,0
   14972:	6145                	add	sp,sp,48
   14974:	8082                	ret

00014976 <_svfiprintf_r>:
   14976:	00c5d783          	lhu	a5,12(a1)
   1497a:	7129                	add	sp,sp,-320
   1497c:	13412423          	sw	s4,296(sp)
   14980:	13612023          	sw	s6,288(sp)
   14984:	11812c23          	sw	s8,280(sp)
   14988:	12112e23          	sw	ra,316(sp)
   1498c:	11b12623          	sw	s11,268(sp)
   14990:	0807f793          	and	a5,a5,128
   14994:	c62a                	sw	a0,12(sp)
   14996:	8b2e                	mv	s6,a1
   14998:	8a32                	mv	s4,a2
   1499a:	8c36                	mv	s8,a3
   1499c:	c781                	beqz	a5,149a4 <_svfiprintf_r+0x2e>
   1499e:	499c                	lw	a5,16(a1)
   149a0:	2c078ce3          	beqz	a5,15478 <_svfiprintf_r+0xb02>
   149a4:	12812c23          	sw	s0,312(sp)
   149a8:	12912a23          	sw	s1,308(sp)
   149ac:	13212823          	sw	s2,304(sp)
   149b0:	13312623          	sw	s3,300(sp)
   149b4:	13512223          	sw	s5,292(sp)
   149b8:	11712e23          	sw	s7,284(sp)
   149bc:	11912a23          	sw	s9,276(sp)
   149c0:	11a12823          	sw	s10,272(sp)
   149c4:	05c10b93          	add	s7,sp,92
   149c8:	4d81                	li	s11,0
   149ca:	87da                	mv	a5,s6
   149cc:	c8de                	sw	s7,80(sp)
   149ce:	8b6e                	mv	s6,s11
   149d0:	cc82                	sw	zero,88(sp)
   149d2:	ca82                	sw	zero,84(sp)
   149d4:	4481                	li	s1,0
   149d6:	845e                	mv	s0,s7
   149d8:	c802                	sw	zero,16(sp)
   149da:	d002                	sw	zero,32(sp)
   149dc:	d202                	sw	zero,36(sp)
   149de:	d402                	sw	zero,40(sp)
   149e0:	00009d17          	auipc	s10,0x9
   149e4:	dc4d0d13          	add	s10,s10,-572 # 1d7a4 <zeroes.0+0x84>
   149e8:	4ac1                	li	s5,16
   149ea:	00009c97          	auipc	s9,0x9
   149ee:	f36c8c93          	add	s9,s9,-202 # 1d920 <zeroes.0>
   149f2:	88e2                	mv	a7,s8
   149f4:	8dbe                	mv	s11,a5
   149f6:	000a4783          	lbu	a5,0(s4)
   149fa:	14078263          	beqz	a5,14b3e <_svfiprintf_r+0x1c8>
   149fe:	8952                	mv	s2,s4
   14a00:	02500713          	li	a4,37
   14a04:	1ce78363          	beq	a5,a4,14bca <_svfiprintf_r+0x254>
   14a08:	00194783          	lbu	a5,1(s2)
   14a0c:	0905                	add	s2,s2,1
   14a0e:	fbfd                	bnez	a5,14a04 <_svfiprintf_r+0x8e>
   14a10:	414909b3          	sub	s3,s2,s4
   14a14:	13490563          	beq	s2,s4,14b3e <_svfiprintf_r+0x1c8>
   14a18:	47d6                	lw	a5,84(sp)
   14a1a:	94ce                	add	s1,s1,s3
   14a1c:	01442023          	sw	s4,0(s0)
   14a20:	0785                	add	a5,a5,1
   14a22:	01342223          	sw	s3,4(s0)
   14a26:	cca6                	sw	s1,88(sp)
   14a28:	cabe                	sw	a5,84(sp)
   14a2a:	471d                	li	a4,7
   14a2c:	0421                	add	s0,s0,8
   14a2e:	1af74563          	blt	a4,a5,14bd8 <_svfiprintf_r+0x262>
   14a32:	00094783          	lbu	a5,0(s2)
   14a36:	9b4e                	add	s6,s6,s3
   14a38:	10078363          	beqz	a5,14b3e <_svfiprintf_r+0x1c8>
   14a3c:	00194683          	lbu	a3,1(s2)
   14a40:	00190a13          	add	s4,s2,1
   14a44:	040105a3          	sb	zero,75(sp)
   14a48:	597d                	li	s2,-1
   14a4a:	4c01                	li	s8,0
   14a4c:	4781                	li	a5,0
   14a4e:	05a00993          	li	s3,90
   14a52:	0a05                	add	s4,s4,1
   14a54:	fe068713          	add	a4,a3,-32
   14a58:	02e9eb63          	bltu	s3,a4,14a8e <_svfiprintf_r+0x118>
   14a5c:	070a                	sll	a4,a4,0x2
   14a5e:	976a                	add	a4,a4,s10
   14a60:	4318                	lw	a4,0(a4)
   14a62:	976a                	add	a4,a4,s10
   14a64:	8702                	jr	a4
   14a66:	4c01                	li	s8,0
   14a68:	fd068713          	add	a4,a3,-48
   14a6c:	45a5                	li	a1,9
   14a6e:	000a4683          	lbu	a3,0(s4)
   14a72:	002c1613          	sll	a2,s8,0x2
   14a76:	9c32                	add	s8,s8,a2
   14a78:	0c06                	sll	s8,s8,0x1
   14a7a:	9c3a                	add	s8,s8,a4
   14a7c:	fd068713          	add	a4,a3,-48
   14a80:	0a05                	add	s4,s4,1
   14a82:	fee5f6e3          	bgeu	a1,a4,14a6e <_svfiprintf_r+0xf8>
   14a86:	fe068713          	add	a4,a3,-32
   14a8a:	fce9f9e3          	bgeu	s3,a4,14a5c <_svfiprintf_r+0xe6>
   14a8e:	cac5                	beqz	a3,14b3e <_svfiprintf_r+0x1c8>
   14a90:	08d10e23          	sb	a3,156(sp)
   14a94:	040105a3          	sb	zero,75(sp)
   14a98:	4685                	li	a3,1
   14a9a:	4805                	li	a6,1
   14a9c:	09c10993          	add	s3,sp,156
   14aa0:	4901                	li	s2,0
   14aa2:	4f01                	li	t5,0
   14aa4:	0847ff93          	and	t6,a5,132
   14aa8:	4656                	lw	a2,84(sp)
   14aaa:	000f9663          	bnez	t6,14ab6 <_svfiprintf_r+0x140>
   14aae:	40dc0733          	sub	a4,s8,a3
   14ab2:	70e04d63          	bgtz	a4,151cc <_svfiprintf_r+0x856>
   14ab6:	04b14703          	lbu	a4,75(sp)
   14aba:	cf11                	beqz	a4,14ad6 <_svfiprintf_r+0x160>
   14abc:	04b10713          	add	a4,sp,75
   14ac0:	c018                	sw	a4,0(s0)
   14ac2:	0605                	add	a2,a2,1
   14ac4:	4705                	li	a4,1
   14ac6:	0485                	add	s1,s1,1
   14ac8:	c058                	sw	a4,4(s0)
   14aca:	cca6                	sw	s1,88(sp)
   14acc:	cab2                	sw	a2,84(sp)
   14ace:	471d                	li	a4,7
   14ad0:	0421                	add	s0,s0,8
   14ad2:	16c74363          	blt	a4,a2,14c38 <_svfiprintf_r+0x2c2>
   14ad6:	000f0e63          	beqz	t5,14af2 <_svfiprintf_r+0x17c>
   14ada:	00f8                	add	a4,sp,76
   14adc:	c018                	sw	a4,0(s0)
   14ade:	0605                	add	a2,a2,1
   14ae0:	4709                	li	a4,2
   14ae2:	0489                	add	s1,s1,2
   14ae4:	c058                	sw	a4,4(s0)
   14ae6:	cca6                	sw	s1,88(sp)
   14ae8:	cab2                	sw	a2,84(sp)
   14aea:	471d                	li	a4,7
   14aec:	0421                	add	s0,s0,8
   14aee:	78c74c63          	blt	a4,a2,15286 <_svfiprintf_r+0x910>
   14af2:	08000713          	li	a4,128
   14af6:	50ef8363          	beq	t6,a4,14ffc <_svfiprintf_r+0x686>
   14afa:	41090933          	sub	s2,s2,a6
   14afe:	5b204a63          	bgtz	s2,150b2 <_svfiprintf_r+0x73c>
   14b02:	94c2                	add	s1,s1,a6
   14b04:	0605                	add	a2,a2,1
   14b06:	01342023          	sw	s3,0(s0)
   14b0a:	01042223          	sw	a6,4(s0)
   14b0e:	cca6                	sw	s1,88(sp)
   14b10:	cab2                	sw	a2,84(sp)
   14b12:	471d                	li	a4,7
   14b14:	0421                	add	s0,s0,8
   14b16:	64c74163          	blt	a4,a2,15158 <_svfiprintf_r+0x7e2>
   14b1a:	8b91                	and	a5,a5,4
   14b1c:	c789                	beqz	a5,14b26 <_svfiprintf_r+0x1b0>
   14b1e:	40dc0933          	sub	s2,s8,a3
   14b22:	15204063          	bgtz	s2,14c62 <_svfiprintf_r+0x2ec>
   14b26:	00dc5363          	bge	s8,a3,14b2c <_svfiprintf_r+0x1b6>
   14b2a:	8c36                	mv	s8,a3
   14b2c:	9b62                	add	s6,s6,s8
   14b2e:	64049563          	bnez	s1,15178 <_svfiprintf_r+0x802>
   14b32:	000a4783          	lbu	a5,0(s4)
   14b36:	ca82                	sw	zero,84(sp)
   14b38:	845e                	mv	s0,s7
   14b3a:	ec0792e3          	bnez	a5,149fe <_svfiprintf_r+0x88>
   14b3e:	87ee                	mv	a5,s11
   14b40:	8dda                	mv	s11,s6
   14b42:	8b3e                	mv	s6,a5
   14b44:	c4dd                	beqz	s1,14bf2 <_svfiprintf_r+0x27c>
   14b46:	4532                	lw	a0,12(sp)
   14b48:	0890                	add	a2,sp,80
   14b4a:	85be                	mv	a1,a5
   14b4c:	31c5                	jal	1482c <__ssprint_r>
   14b4e:	a055                	j	14bf2 <_svfiprintf_r+0x27c>
   14b50:	0008ac03          	lw	s8,0(a7) # 80000000 <__BSS_END__+0x7ffe14dc>
   14b54:	0891                	add	a7,a7,4
   14b56:	060c4363          	bltz	s8,14bbc <_svfiprintf_r+0x246>
   14b5a:	000a4683          	lbu	a3,0(s4)
   14b5e:	bdd5                	j	14a52 <_svfiprintf_r+0xdc>
   14b60:	000a4683          	lbu	a3,0(s4)
   14b64:	0207e793          	or	a5,a5,32
   14b68:	b5ed                	j	14a52 <_svfiprintf_r+0xdc>
   14b6a:	0107e793          	or	a5,a5,16
   14b6e:	0207f713          	and	a4,a5,32
   14b72:	16070f63          	beqz	a4,14cf0 <_svfiprintf_r+0x37a>
   14b76:	089d                	add	a7,a7,7
   14b78:	ff88f893          	and	a7,a7,-8
   14b7c:	0048a683          	lw	a3,4(a7)
   14b80:	0008a703          	lw	a4,0(a7)
   14b84:	08a1                	add	a7,a7,8
   14b86:	8336                	mv	t1,a3
   14b88:	1806c463          	bltz	a3,14d10 <_svfiprintf_r+0x39a>
   14b8c:	1a094263          	bltz	s2,14d30 <_svfiprintf_r+0x3ba>
   14b90:	006766b3          	or	a3,a4,t1
   14b94:	f7f7f793          	and	a5,a5,-129
   14b98:	18069c63          	bnez	a3,14d30 <_svfiprintf_r+0x3ba>
   14b9c:	240913e3          	bnez	s2,155e2 <_svfiprintf_r+0xc6c>
   14ba0:	04b14703          	lbu	a4,75(sp)
   14ba4:	4801                	li	a6,0
   14ba6:	10010993          	add	s3,sp,256
   14baa:	c311                	beqz	a4,14bae <_svfiprintf_r+0x238>
   14bac:	0685                	add	a3,a3,1
   14bae:	0027ff13          	and	t5,a5,2
   14bb2:	ee0f09e3          	beqz	t5,14aa4 <_svfiprintf_r+0x12e>
   14bb6:	0689                	add	a3,a3,2
   14bb8:	4f09                	li	t5,2
   14bba:	b5ed                	j	14aa4 <_svfiprintf_r+0x12e>
   14bbc:	41800c33          	neg	s8,s8
   14bc0:	000a4683          	lbu	a3,0(s4)
   14bc4:	0047e793          	or	a5,a5,4
   14bc8:	b569                	j	14a52 <_svfiprintf_r+0xdc>
   14bca:	414909b3          	sub	s3,s2,s4
   14bce:	e54915e3          	bne	s2,s4,14a18 <_svfiprintf_r+0xa2>
   14bd2:	00094783          	lbu	a5,0(s2)
   14bd6:	b58d                	j	14a38 <_svfiprintf_r+0xc2>
   14bd8:	4532                	lw	a0,12(sp)
   14bda:	0890                	add	a2,sp,80
   14bdc:	85ee                	mv	a1,s11
   14bde:	ca46                	sw	a7,20(sp)
   14be0:	31b1                	jal	1482c <__ssprint_r>
   14be2:	e509                	bnez	a0,14bec <_svfiprintf_r+0x276>
   14be4:	44e6                	lw	s1,88(sp)
   14be6:	48d2                	lw	a7,20(sp)
   14be8:	845e                	mv	s0,s7
   14bea:	b5a1                	j	14a32 <_svfiprintf_r+0xbc>
   14bec:	87ee                	mv	a5,s11
   14bee:	8dda                	mv	s11,s6
   14bf0:	8b3e                	mv	s6,a5
   14bf2:	00cb5783          	lhu	a5,12(s6)
   14bf6:	13812403          	lw	s0,312(sp)
   14bfa:	13412483          	lw	s1,308(sp)
   14bfe:	0407f793          	and	a5,a5,64
   14c02:	13012903          	lw	s2,304(sp)
   14c06:	12c12983          	lw	s3,300(sp)
   14c0a:	12412a83          	lw	s5,292(sp)
   14c0e:	11c12b83          	lw	s7,284(sp)
   14c12:	11412c83          	lw	s9,276(sp)
   14c16:	11012d03          	lw	s10,272(sp)
   14c1a:	1c079be3          	bnez	a5,155f0 <_svfiprintf_r+0xc7a>
   14c1e:	13c12083          	lw	ra,316(sp)
   14c22:	12812a03          	lw	s4,296(sp)
   14c26:	12012b03          	lw	s6,288(sp)
   14c2a:	11812c03          	lw	s8,280(sp)
   14c2e:	856e                	mv	a0,s11
   14c30:	10c12d83          	lw	s11,268(sp)
   14c34:	6131                	add	sp,sp,320
   14c36:	8082                	ret
   14c38:	4532                	lw	a0,12(sp)
   14c3a:	0890                	add	a2,sp,80
   14c3c:	85ee                	mv	a1,s11
   14c3e:	da46                	sw	a7,52(sp)
   14c40:	d836                	sw	a3,48(sp)
   14c42:	d642                	sw	a6,44(sp)
   14c44:	ce3e                	sw	a5,28(sp)
   14c46:	cc7e                	sw	t6,24(sp)
   14c48:	ca7a                	sw	t5,20(sp)
   14c4a:	36cd                	jal	1482c <__ssprint_r>
   14c4c:	f145                	bnez	a0,14bec <_svfiprintf_r+0x276>
   14c4e:	44e6                	lw	s1,88(sp)
   14c50:	4656                	lw	a2,84(sp)
   14c52:	58d2                	lw	a7,52(sp)
   14c54:	56c2                	lw	a3,48(sp)
   14c56:	5832                	lw	a6,44(sp)
   14c58:	47f2                	lw	a5,28(sp)
   14c5a:	4fe2                	lw	t6,24(sp)
   14c5c:	4f52                	lw	t5,20(sp)
   14c5e:	845e                	mv	s0,s7
   14c60:	bd9d                	j	14ad6 <_svfiprintf_r+0x160>
   14c62:	4741                	li	a4,16
   14c64:	47d6                	lw	a5,84(sp)
   14c66:	00009317          	auipc	t1,0x9
   14c6a:	caa30313          	add	t1,t1,-854 # 1d910 <blanks.1>
   14c6e:	05275a63          	bge	a4,s2,14cc2 <_svfiprintf_r+0x34c>
   14c72:	8626                	mv	a2,s1
   14c74:	ca36                	sw	a3,20(sp)
   14c76:	49c1                	li	s3,16
   14c78:	86a2                	mv	a3,s0
   14c7a:	471d                	li	a4,7
   14c7c:	844a                	mv	s0,s2
   14c7e:	849a                	mv	s1,t1
   14c80:	8946                	mv	s2,a7
   14c82:	a021                	j	14c8a <_svfiprintf_r+0x314>
   14c84:	1441                	add	s0,s0,-16
   14c86:	0289d863          	bge	s3,s0,14cb6 <_svfiprintf_r+0x340>
   14c8a:	0641                	add	a2,a2,16
   14c8c:	0785                	add	a5,a5,1
   14c8e:	c284                	sw	s1,0(a3)
   14c90:	0136a223          	sw	s3,4(a3)
   14c94:	ccb2                	sw	a2,88(sp)
   14c96:	cabe                	sw	a5,84(sp)
   14c98:	06a1                	add	a3,a3,8
   14c9a:	fef755e3          	bge	a4,a5,14c84 <_svfiprintf_r+0x30e>
   14c9e:	4532                	lw	a0,12(sp)
   14ca0:	0890                	add	a2,sp,80
   14ca2:	85ee                	mv	a1,s11
   14ca4:	3661                	jal	1482c <__ssprint_r>
   14ca6:	f139                	bnez	a0,14bec <_svfiprintf_r+0x276>
   14ca8:	1441                	add	s0,s0,-16
   14caa:	4666                	lw	a2,88(sp)
   14cac:	47d6                	lw	a5,84(sp)
   14cae:	86de                	mv	a3,s7
   14cb0:	471d                	li	a4,7
   14cb2:	fc89cce3          	blt	s3,s0,14c8a <_svfiprintf_r+0x314>
   14cb6:	88ca                	mv	a7,s2
   14cb8:	8922                	mv	s2,s0
   14cba:	8436                	mv	s0,a3
   14cbc:	46d2                	lw	a3,20(sp)
   14cbe:	8326                	mv	t1,s1
   14cc0:	84b2                	mv	s1,a2
   14cc2:	94ca                	add	s1,s1,s2
   14cc4:	0785                	add	a5,a5,1
   14cc6:	00642023          	sw	t1,0(s0)
   14cca:	01242223          	sw	s2,4(s0)
   14cce:	cca6                	sw	s1,88(sp)
   14cd0:	cabe                	sw	a5,84(sp)
   14cd2:	471d                	li	a4,7
   14cd4:	e4f759e3          	bge	a4,a5,14b26 <_svfiprintf_r+0x1b0>
   14cd8:	4532                	lw	a0,12(sp)
   14cda:	0890                	add	a2,sp,80
   14cdc:	85ee                	mv	a1,s11
   14cde:	cc46                	sw	a7,24(sp)
   14ce0:	ca36                	sw	a3,20(sp)
   14ce2:	36a9                	jal	1482c <__ssprint_r>
   14ce4:	f00514e3          	bnez	a0,14bec <_svfiprintf_r+0x276>
   14ce8:	44e6                	lw	s1,88(sp)
   14cea:	48e2                	lw	a7,24(sp)
   14cec:	46d2                	lw	a3,20(sp)
   14cee:	bd25                	j	14b26 <_svfiprintf_r+0x1b0>
   14cf0:	0107f693          	and	a3,a5,16
   14cf4:	0008a703          	lw	a4,0(a7)
   14cf8:	0891                	add	a7,a7,4
   14cfa:	e2e1                	bnez	a3,14dba <_svfiprintf_r+0x444>
   14cfc:	0407f693          	and	a3,a5,64
   14d00:	cacd                	beqz	a3,14db2 <_svfiprintf_r+0x43c>
   14d02:	0742                	sll	a4,a4,0x10
   14d04:	8741                	sra	a4,a4,0x10
   14d06:	41f75313          	sra	t1,a4,0x1f
   14d0a:	869a                	mv	a3,t1
   14d0c:	e806d0e3          	bgez	a3,14b8c <_svfiprintf_r+0x216>
   14d10:	02d00613          	li	a2,45
   14d14:	00e036b3          	snez	a3,a4
   14d18:	40600333          	neg	t1,t1
   14d1c:	04c105a3          	sb	a2,75(sp)
   14d20:	40d30333          	sub	t1,t1,a3
   14d24:	40e00733          	neg	a4,a4
   14d28:	00094463          	bltz	s2,14d30 <_svfiprintf_r+0x3ba>
   14d2c:	f7f7f793          	and	a5,a5,-129
   14d30:	5c031763          	bnez	t1,152fe <_svfiprintf_r+0x988>
   14d34:	46a5                	li	a3,9
   14d36:	5ce6e463          	bltu	a3,a4,152fe <_svfiprintf_r+0x988>
   14d3a:	03070713          	add	a4,a4,48
   14d3e:	0ff77713          	zext.b	a4,a4
   14d42:	0ee10fa3          	sb	a4,255(sp)
   14d46:	86ca                	mv	a3,s2
   14d48:	01204363          	bgtz	s2,14d4e <_svfiprintf_r+0x3d8>
   14d4c:	4685                	li	a3,1
   14d4e:	4805                	li	a6,1
   14d50:	0ff10993          	add	s3,sp,255
   14d54:	a0d9                	j	14e1a <_svfiprintf_r+0x4a4>
   14d56:	0008a983          	lw	s3,0(a7)
   14d5a:	040105a3          	sb	zero,75(sp)
   14d5e:	0891                	add	a7,a7,4
   14d60:	020980e3          	beqz	s3,15580 <_svfiprintf_r+0xc0a>
   14d64:	cc46                	sw	a7,24(sp)
   14d66:	ca3e                	sw	a5,20(sp)
   14d68:	70094163          	bltz	s2,1546a <_svfiprintf_r+0xaf4>
   14d6c:	864a                	mv	a2,s2
   14d6e:	4581                	li	a1,0
   14d70:	854e                	mv	a0,s3
   14d72:	09b000ef          	jal	1560c <memchr>
   14d76:	47d2                	lw	a5,20(sp)
   14d78:	48e2                	lw	a7,24(sp)
   14d7a:	884a                	mv	a6,s2
   14d7c:	c119                	beqz	a0,14d82 <_svfiprintf_r+0x40c>
   14d7e:	41350833          	sub	a6,a0,s3
   14d82:	04b14703          	lbu	a4,75(sp)
   14d86:	fff84693          	not	a3,a6
   14d8a:	86fd                	sra	a3,a3,0x1f
   14d8c:	00d876b3          	and	a3,a6,a3
   14d90:	4901                	li	s2,0
   14d92:	4f01                	li	t5,0
   14d94:	e0071ce3          	bnez	a4,14bac <_svfiprintf_r+0x236>
   14d98:	b331                	j	14aa4 <_svfiprintf_r+0x12e>
   14d9a:	0008a703          	lw	a4,0(a7)
   14d9e:	040105a3          	sb	zero,75(sp)
   14da2:	0891                	add	a7,a7,4
   14da4:	08e10e23          	sb	a4,156(sp)
   14da8:	4685                	li	a3,1
   14daa:	4805                	li	a6,1
   14dac:	09c10993          	add	s3,sp,156
   14db0:	b9c5                	j	14aa0 <_svfiprintf_r+0x12a>
   14db2:	2007f693          	and	a3,a5,512
   14db6:	00069fe3          	bnez	a3,155d4 <_svfiprintf_r+0xc5e>
   14dba:	41f75313          	sra	t1,a4,0x1f
   14dbe:	869a                	mv	a3,t1
   14dc0:	b3e1                	j	14b88 <_svfiprintf_r+0x212>
   14dc2:	66a1                	lui	a3,0x8
   14dc4:	83068693          	add	a3,a3,-2000 # 7830 <register_fini-0x8864>
   14dc8:	04d11623          	sh	a3,76(sp)
   14dcc:	00008697          	auipc	a3,0x8
   14dd0:	70c68693          	add	a3,a3,1804 # 1d4d8 <__clzsi2+0x9c>
   14dd4:	0008a703          	lw	a4,0(a7)
   14dd8:	4581                	li	a1,0
   14dda:	0027e793          	or	a5,a5,2
   14dde:	0891                	add	a7,a7,4
   14de0:	c836                	sw	a3,16(sp)
   14de2:	040105a3          	sb	zero,75(sp)
   14de6:	3a094863          	bltz	s2,15196 <_svfiprintf_r+0x820>
   14dea:	00b766b3          	or	a3,a4,a1
   14dee:	f7f7f613          	and	a2,a5,-129
   14df2:	38069e63          	bnez	a3,1518e <_svfiprintf_r+0x818>
   14df6:	883e                	mv	a6,a5
   14df8:	4709                	li	a4,2
   14dfa:	87b2                	mv	a5,a2
   14dfc:	06091063          	bnez	s2,14e5c <_svfiprintf_r+0x4e6>
   14e00:	4e071a63          	bnez	a4,152f4 <_svfiprintf_r+0x97e>
   14e04:	00187813          	and	a6,a6,1
   14e08:	5c080263          	beqz	a6,153cc <_svfiprintf_r+0xa56>
   14e0c:	03000713          	li	a4,48
   14e10:	0ee10fa3          	sb	a4,255(sp)
   14e14:	86c2                	mv	a3,a6
   14e16:	0ff10993          	add	s3,sp,255
   14e1a:	04b14703          	lbu	a4,75(sp)
   14e1e:	d80717e3          	bnez	a4,14bac <_svfiprintf_r+0x236>
   14e22:	b371                	j	14bae <_svfiprintf_r+0x238>
   14e24:	0107e813          	or	a6,a5,16
   14e28:	02087793          	and	a5,a6,32
   14e2c:	4a078663          	beqz	a5,152d8 <_svfiprintf_r+0x962>
   14e30:	089d                	add	a7,a7,7
   14e32:	ff88f893          	and	a7,a7,-8
   14e36:	0008a703          	lw	a4,0(a7)
   14e3a:	0048a303          	lw	t1,4(a7)
   14e3e:	08a1                	add	a7,a7,8
   14e40:	040105a3          	sb	zero,75(sp)
   14e44:	87c2                	mv	a5,a6
   14e46:	ee0945e3          	bltz	s2,14d30 <_svfiprintf_r+0x3ba>
   14e4a:	006766b3          	or	a3,a4,t1
   14e4e:	f7f87793          	and	a5,a6,-129
   14e52:	ec069fe3          	bnez	a3,14d30 <_svfiprintf_r+0x3ba>
   14e56:	4705                	li	a4,1
   14e58:	fa0904e3          	beqz	s2,14e00 <_svfiprintf_r+0x48a>
   14e5c:	4685                	li	a3,1
   14e5e:	78d70263          	beq	a4,a3,155e2 <_svfiprintf_r+0xc6c>
   14e62:	4689                	li	a3,2
   14e64:	74d70263          	beq	a4,a3,155a8 <_svfiprintf_r+0xc32>
   14e68:	4701                	li	a4,0
   14e6a:	4581                	li	a1,0
   14e6c:	10010993          	add	s3,sp,256
   14e70:	01d59613          	sll	a2,a1,0x1d
   14e74:	00777693          	and	a3,a4,7
   14e78:	830d                	srl	a4,a4,0x3
   14e7a:	03068693          	add	a3,a3,48
   14e7e:	8f51                	or	a4,a4,a2
   14e80:	818d                	srl	a1,a1,0x3
   14e82:	fed98fa3          	sb	a3,-1(s3)
   14e86:	00b76633          	or	a2,a4,a1
   14e8a:	854e                	mv	a0,s3
   14e8c:	19fd                	add	s3,s3,-1
   14e8e:	f26d                	bnez	a2,14e70 <_svfiprintf_r+0x4fa>
   14e90:	0017f713          	and	a4,a5,1
   14e94:	32070463          	beqz	a4,151bc <_svfiprintf_r+0x846>
   14e98:	03000713          	li	a4,48
   14e9c:	32e68063          	beq	a3,a4,151bc <_svfiprintf_r+0x846>
   14ea0:	1579                	add	a0,a0,-2
   14ea2:	fee98fa3          	sb	a4,-1(s3)
   14ea6:	0218                	add	a4,sp,256
   14ea8:	40a70833          	sub	a6,a4,a0
   14eac:	86ca                	mv	a3,s2
   14eae:	53094d63          	blt	s2,a6,153e8 <_svfiprintf_r+0xa72>
   14eb2:	89aa                	mv	s3,a0
   14eb4:	b79d                	j	14e1a <_svfiprintf_r+0x4a4>
   14eb6:	000a4683          	lbu	a3,0(s4)
   14eba:	0807e793          	or	a5,a5,128
   14ebe:	be51                	j	14a52 <_svfiprintf_r+0xdc>
   14ec0:	000a4683          	lbu	a3,0(s4)
   14ec4:	02a00713          	li	a4,42
   14ec8:	001a0593          	add	a1,s4,1
   14ecc:	72e68563          	beq	a3,a4,155f6 <_svfiprintf_r+0xc80>
   14ed0:	fd068713          	add	a4,a3,-48
   14ed4:	4625                	li	a2,9
   14ed6:	4901                	li	s2,0
   14ed8:	4525                	li	a0,9
   14eda:	02e66063          	bltu	a2,a4,14efa <_svfiprintf_r+0x584>
   14ede:	0005c683          	lbu	a3,0(a1)
   14ee2:	00291613          	sll	a2,s2,0x2
   14ee6:	9932                	add	s2,s2,a2
   14ee8:	0906                	sll	s2,s2,0x1
   14eea:	993a                	add	s2,s2,a4
   14eec:	fd068713          	add	a4,a3,-48
   14ef0:	0585                	add	a1,a1,1
   14ef2:	fee576e3          	bgeu	a0,a4,14ede <_svfiprintf_r+0x568>
   14ef6:	4e094c63          	bltz	s2,153ee <_svfiprintf_r+0xa78>
   14efa:	8a2e                	mv	s4,a1
   14efc:	bea1                	j	14a54 <_svfiprintf_r+0xde>
   14efe:	02b00713          	li	a4,43
   14f02:	000a4683          	lbu	a3,0(s4)
   14f06:	04e105a3          	sb	a4,75(sp)
   14f0a:	b6a1                	j	14a52 <_svfiprintf_r+0xdc>
   14f0c:	4532                	lw	a0,12(sp)
   14f0e:	cc46                	sw	a7,24(sp)
   14f10:	ca3e                	sw	a5,20(sp)
   14f12:	174010ef          	jal	16086 <_localeconv_r>
   14f16:	415c                	lw	a5,4(a0)
   14f18:	853e                	mv	a0,a5
   14f1a:	d43e                	sw	a5,40(sp)
   14f1c:	8adff0ef          	jal	147c8 <strlen>
   14f20:	872a                	mv	a4,a0
   14f22:	4532                	lw	a0,12(sp)
   14f24:	d23a                	sw	a4,36(sp)
   14f26:	160010ef          	jal	16086 <_localeconv_r>
   14f2a:	451c                	lw	a5,8(a0)
   14f2c:	5712                	lw	a4,36(sp)
   14f2e:	48e2                	lw	a7,24(sp)
   14f30:	d03e                	sw	a5,32(sp)
   14f32:	47d2                	lw	a5,20(sp)
   14f34:	c20703e3          	beqz	a4,14b5a <_svfiprintf_r+0x1e4>
   14f38:	5702                	lw	a4,32(sp)
   14f3a:	000a4683          	lbu	a3,0(s4)
   14f3e:	b0070ae3          	beqz	a4,14a52 <_svfiprintf_r+0xdc>
   14f42:	00074703          	lbu	a4,0(a4)
   14f46:	b00706e3          	beqz	a4,14a52 <_svfiprintf_r+0xdc>
   14f4a:	4007e793          	or	a5,a5,1024
   14f4e:	b611                	j	14a52 <_svfiprintf_r+0xdc>
   14f50:	000a4683          	lbu	a3,0(s4)
   14f54:	0017e793          	or	a5,a5,1
   14f58:	bced                	j	14a52 <_svfiprintf_r+0xdc>
   14f5a:	04b14703          	lbu	a4,75(sp)
   14f5e:	000a4683          	lbu	a3,0(s4)
   14f62:	ae0718e3          	bnez	a4,14a52 <_svfiprintf_r+0xdc>
   14f66:	02000713          	li	a4,32
   14f6a:	04e105a3          	sb	a4,75(sp)
   14f6e:	b4d5                	j	14a52 <_svfiprintf_r+0xdc>
   14f70:	0207f713          	and	a4,a5,32
   14f74:	46071063          	bnez	a4,153d4 <_svfiprintf_r+0xa5e>
   14f78:	0107f713          	and	a4,a5,16
   14f7c:	5e071b63          	bnez	a4,15572 <_svfiprintf_r+0xbfc>
   14f80:	0407f713          	and	a4,a5,64
   14f84:	62071963          	bnez	a4,155b6 <_svfiprintf_r+0xc40>
   14f88:	2007f793          	and	a5,a5,512
   14f8c:	5e078363          	beqz	a5,15572 <_svfiprintf_r+0xbfc>
   14f90:	0008a783          	lw	a5,0(a7)
   14f94:	0891                	add	a7,a7,4
   14f96:	01678023          	sb	s6,0(a5)
   14f9a:	bcb1                	j	149f6 <_svfiprintf_r+0x80>
   14f9c:	000a4683          	lbu	a3,0(s4)
   14fa0:	06c00713          	li	a4,108
   14fa4:	5ce68063          	beq	a3,a4,15564 <_svfiprintf_r+0xbee>
   14fa8:	0107e793          	or	a5,a5,16
   14fac:	b45d                	j	14a52 <_svfiprintf_r+0xdc>
   14fae:	000a4683          	lbu	a3,0(s4)
   14fb2:	06800713          	li	a4,104
   14fb6:	5ae68063          	beq	a3,a4,15556 <_svfiprintf_r+0xbe0>
   14fba:	0407e793          	or	a5,a5,64
   14fbe:	bc51                	j	14a52 <_svfiprintf_r+0xdc>
   14fc0:	0107e693          	or	a3,a5,16
   14fc4:	0206f793          	and	a5,a3,32
   14fc8:	2e078563          	beqz	a5,152b2 <_svfiprintf_r+0x93c>
   14fcc:	089d                	add	a7,a7,7
   14fce:	ff88f893          	and	a7,a7,-8
   14fd2:	0008a703          	lw	a4,0(a7)
   14fd6:	0048a583          	lw	a1,4(a7)
   14fda:	08a1                	add	a7,a7,8
   14fdc:	040105a3          	sb	zero,75(sp)
   14fe0:	bff6f793          	and	a5,a3,-1025
   14fe4:	e80944e3          	bltz	s2,14e6c <_svfiprintf_r+0x4f6>
   14fe8:	00b76633          	or	a2,a4,a1
   14fec:	b7f6f693          	and	a3,a3,-1153
   14ff0:	54061e63          	bnez	a2,1554c <_svfiprintf_r+0xbd6>
   14ff4:	883e                	mv	a6,a5
   14ff6:	4701                	li	a4,0
   14ff8:	87b6                	mv	a5,a3
   14ffa:	b509                	j	14dfc <_svfiprintf_r+0x486>
   14ffc:	40dc0733          	sub	a4,s8,a3
   15000:	aee05de3          	blez	a4,14afa <_svfiprintf_r+0x184>
   15004:	45c1                	li	a1,16
   15006:	00009e97          	auipc	t4,0x9
   1500a:	91ae8e93          	add	t4,t4,-1766 # 1d920 <zeroes.0>
   1500e:	06e5d163          	bge	a1,a4,15070 <_svfiprintf_r+0x6fa>
   15012:	ca3e                	sw	a5,20(sp)
   15014:	ce36                	sw	a3,28(sp)
   15016:	87a2                	mv	a5,s0
   15018:	86a6                	mv	a3,s1
   1501a:	4341                	li	t1,16
   1501c:	4f1d                	li	t5,7
   1501e:	cc42                	sw	a6,24(sp)
   15020:	843a                	mv	s0,a4
   15022:	d646                	sw	a7,44(sp)
   15024:	84f6                	mv	s1,t4
   15026:	a021                	j	1502e <_svfiprintf_r+0x6b8>
   15028:	1441                	add	s0,s0,-16
   1502a:	02835b63          	bge	t1,s0,15060 <_svfiprintf_r+0x6ea>
   1502e:	06c1                	add	a3,a3,16
   15030:	0605                	add	a2,a2,1
   15032:	c384                	sw	s1,0(a5)
   15034:	0067a223          	sw	t1,4(a5)
   15038:	ccb6                	sw	a3,88(sp)
   1503a:	cab2                	sw	a2,84(sp)
   1503c:	07a1                	add	a5,a5,8
   1503e:	fecf55e3          	bge	t5,a2,15028 <_svfiprintf_r+0x6b2>
   15042:	4532                	lw	a0,12(sp)
   15044:	0890                	add	a2,sp,80
   15046:	85ee                	mv	a1,s11
   15048:	fe4ff0ef          	jal	1482c <__ssprint_r>
   1504c:	ba0510e3          	bnez	a0,14bec <_svfiprintf_r+0x276>
   15050:	4341                	li	t1,16
   15052:	1441                	add	s0,s0,-16
   15054:	46e6                	lw	a3,88(sp)
   15056:	4656                	lw	a2,84(sp)
   15058:	87de                	mv	a5,s7
   1505a:	4f1d                	li	t5,7
   1505c:	fc8349e3          	blt	t1,s0,1502e <_svfiprintf_r+0x6b8>
   15060:	8722                	mv	a4,s0
   15062:	8ea6                	mv	t4,s1
   15064:	843e                	mv	s0,a5
   15066:	84b6                	mv	s1,a3
   15068:	4862                	lw	a6,24(sp)
   1506a:	47d2                	lw	a5,20(sp)
   1506c:	58b2                	lw	a7,44(sp)
   1506e:	46f2                	lw	a3,28(sp)
   15070:	94ba                	add	s1,s1,a4
   15072:	0605                	add	a2,a2,1
   15074:	c058                	sw	a4,4(s0)
   15076:	01d42023          	sw	t4,0(s0)
   1507a:	cca6                	sw	s1,88(sp)
   1507c:	cab2                	sw	a2,84(sp)
   1507e:	471d                	li	a4,7
   15080:	0421                	add	s0,s0,8
   15082:	a6c75ce3          	bge	a4,a2,14afa <_svfiprintf_r+0x184>
   15086:	4532                	lw	a0,12(sp)
   15088:	0890                	add	a2,sp,80
   1508a:	85ee                	mv	a1,s11
   1508c:	d646                	sw	a7,44(sp)
   1508e:	ce36                	sw	a3,28(sp)
   15090:	cc42                	sw	a6,24(sp)
   15092:	ca3e                	sw	a5,20(sp)
   15094:	f98ff0ef          	jal	1482c <__ssprint_r>
   15098:	b4051ae3          	bnez	a0,14bec <_svfiprintf_r+0x276>
   1509c:	4862                	lw	a6,24(sp)
   1509e:	44e6                	lw	s1,88(sp)
   150a0:	4656                	lw	a2,84(sp)
   150a2:	41090933          	sub	s2,s2,a6
   150a6:	58b2                	lw	a7,44(sp)
   150a8:	46f2                	lw	a3,28(sp)
   150aa:	47d2                	lw	a5,20(sp)
   150ac:	845e                	mv	s0,s7
   150ae:	a5205ae3          	blez	s2,14b02 <_svfiprintf_r+0x18c>
   150b2:	00009e97          	auipc	t4,0x9
   150b6:	86ee8e93          	add	t4,t4,-1938 # 1d920 <zeroes.0>
   150ba:	072ad063          	bge	s5,s2,1511a <_svfiprintf_r+0x7a4>
   150be:	ca3e                	sw	a5,20(sp)
   150c0:	ce36                	sw	a3,28(sp)
   150c2:	87a2                	mv	a5,s0
   150c4:	86a6                	mv	a3,s1
   150c6:	844a                	mv	s0,s2
   150c8:	471d                	li	a4,7
   150ca:	cc42                	sw	a6,24(sp)
   150cc:	84c6                	mv	s1,a7
   150ce:	8966                	mv	s2,s9
   150d0:	a021                	j	150d8 <_svfiprintf_r+0x762>
   150d2:	1441                	add	s0,s0,-16
   150d4:	028adb63          	bge	s5,s0,1510a <_svfiprintf_r+0x794>
   150d8:	06c1                	add	a3,a3,16
   150da:	0605                	add	a2,a2,1
   150dc:	0197a023          	sw	s9,0(a5)
   150e0:	0157a223          	sw	s5,4(a5)
   150e4:	ccb6                	sw	a3,88(sp)
   150e6:	cab2                	sw	a2,84(sp)
   150e8:	07a1                	add	a5,a5,8
   150ea:	fec754e3          	bge	a4,a2,150d2 <_svfiprintf_r+0x75c>
   150ee:	4532                	lw	a0,12(sp)
   150f0:	0890                	add	a2,sp,80
   150f2:	85ee                	mv	a1,s11
   150f4:	f38ff0ef          	jal	1482c <__ssprint_r>
   150f8:	ae051ae3          	bnez	a0,14bec <_svfiprintf_r+0x276>
   150fc:	1441                	add	s0,s0,-16
   150fe:	46e6                	lw	a3,88(sp)
   15100:	4656                	lw	a2,84(sp)
   15102:	87de                	mv	a5,s7
   15104:	471d                	li	a4,7
   15106:	fc8ac9e3          	blt	s5,s0,150d8 <_svfiprintf_r+0x762>
   1510a:	88a6                	mv	a7,s1
   1510c:	8eca                	mv	t4,s2
   1510e:	84b6                	mv	s1,a3
   15110:	8922                	mv	s2,s0
   15112:	4862                	lw	a6,24(sp)
   15114:	843e                	mv	s0,a5
   15116:	46f2                	lw	a3,28(sp)
   15118:	47d2                	lw	a5,20(sp)
   1511a:	94ca                	add	s1,s1,s2
   1511c:	0605                	add	a2,a2,1
   1511e:	01d42023          	sw	t4,0(s0)
   15122:	01242223          	sw	s2,4(s0)
   15126:	cca6                	sw	s1,88(sp)
   15128:	cab2                	sw	a2,84(sp)
   1512a:	471d                	li	a4,7
   1512c:	0421                	add	s0,s0,8
   1512e:	9cc75ae3          	bge	a4,a2,14b02 <_svfiprintf_r+0x18c>
   15132:	4532                	lw	a0,12(sp)
   15134:	0890                	add	a2,sp,80
   15136:	85ee                	mv	a1,s11
   15138:	d646                	sw	a7,44(sp)
   1513a:	ce36                	sw	a3,28(sp)
   1513c:	cc42                	sw	a6,24(sp)
   1513e:	ca3e                	sw	a5,20(sp)
   15140:	eecff0ef          	jal	1482c <__ssprint_r>
   15144:	aa0514e3          	bnez	a0,14bec <_svfiprintf_r+0x276>
   15148:	44e6                	lw	s1,88(sp)
   1514a:	4656                	lw	a2,84(sp)
   1514c:	58b2                	lw	a7,44(sp)
   1514e:	46f2                	lw	a3,28(sp)
   15150:	4862                	lw	a6,24(sp)
   15152:	47d2                	lw	a5,20(sp)
   15154:	845e                	mv	s0,s7
   15156:	b275                	j	14b02 <_svfiprintf_r+0x18c>
   15158:	4532                	lw	a0,12(sp)
   1515a:	0890                	add	a2,sp,80
   1515c:	85ee                	mv	a1,s11
   1515e:	ce46                	sw	a7,28(sp)
   15160:	cc36                	sw	a3,24(sp)
   15162:	ca3e                	sw	a5,20(sp)
   15164:	ec8ff0ef          	jal	1482c <__ssprint_r>
   15168:	a80512e3          	bnez	a0,14bec <_svfiprintf_r+0x276>
   1516c:	44e6                	lw	s1,88(sp)
   1516e:	48f2                	lw	a7,28(sp)
   15170:	46e2                	lw	a3,24(sp)
   15172:	47d2                	lw	a5,20(sp)
   15174:	845e                	mv	s0,s7
   15176:	b255                	j	14b1a <_svfiprintf_r+0x1a4>
   15178:	4532                	lw	a0,12(sp)
   1517a:	0890                	add	a2,sp,80
   1517c:	85ee                	mv	a1,s11
   1517e:	ca46                	sw	a7,20(sp)
   15180:	eacff0ef          	jal	1482c <__ssprint_r>
   15184:	a60514e3          	bnez	a0,14bec <_svfiprintf_r+0x276>
   15188:	44e6                	lw	s1,88(sp)
   1518a:	48d2                	lw	a7,20(sp)
   1518c:	b25d                	j	14b32 <_svfiprintf_r+0x1bc>
   1518e:	4689                	li	a3,2
   15190:	87b2                	mv	a5,a2
   15192:	cc068de3          	beqz	a3,14e6c <_svfiprintf_r+0x4f6>
   15196:	4542                	lw	a0,16(sp)
   15198:	10010993          	add	s3,sp,256
   1519c:	00f77693          	and	a3,a4,15
   151a0:	96aa                	add	a3,a3,a0
   151a2:	0006c603          	lbu	a2,0(a3)
   151a6:	8311                	srl	a4,a4,0x4
   151a8:	01c59693          	sll	a3,a1,0x1c
   151ac:	8f55                	or	a4,a4,a3
   151ae:	8191                	srl	a1,a1,0x4
   151b0:	fec98fa3          	sb	a2,-1(s3)
   151b4:	00b766b3          	or	a3,a4,a1
   151b8:	19fd                	add	s3,s3,-1
   151ba:	f2ed                	bnez	a3,1519c <_svfiprintf_r+0x826>
   151bc:	0218                	add	a4,sp,256
   151be:	41370833          	sub	a6,a4,s3
   151c2:	86ca                	mv	a3,s2
   151c4:	c5095be3          	bge	s2,a6,14e1a <_svfiprintf_r+0x4a4>
   151c8:	86c2                	mv	a3,a6
   151ca:	b981                	j	14e1a <_svfiprintf_r+0x4a4>
   151cc:	45c1                	li	a1,16
   151ce:	00008317          	auipc	t1,0x8
   151d2:	74230313          	add	t1,t1,1858 # 1d910 <blanks.1>
   151d6:	06e5d563          	bge	a1,a4,15240 <_svfiprintf_r+0x8ca>
   151da:	ce3e                	sw	a5,28(sp)
   151dc:	d836                	sw	a3,48(sp)
   151de:	87a2                	mv	a5,s0
   151e0:	86a6                	mv	a3,s1
   151e2:	4ec1                	li	t4,16
   151e4:	429d                	li	t0,7
   151e6:	ca7a                	sw	t5,20(sp)
   151e8:	cc7e                	sw	t6,24(sp)
   151ea:	d642                	sw	a6,44(sp)
   151ec:	843a                	mv	s0,a4
   151ee:	da46                	sw	a7,52(sp)
   151f0:	849a                	mv	s1,t1
   151f2:	a021                	j	151fa <_svfiprintf_r+0x884>
   151f4:	1441                	add	s0,s0,-16
   151f6:	028edb63          	bge	t4,s0,1522c <_svfiprintf_r+0x8b6>
   151fa:	06c1                	add	a3,a3,16
   151fc:	0605                	add	a2,a2,1
   151fe:	c384                	sw	s1,0(a5)
   15200:	01d7a223          	sw	t4,4(a5)
   15204:	ccb6                	sw	a3,88(sp)
   15206:	cab2                	sw	a2,84(sp)
   15208:	07a1                	add	a5,a5,8
   1520a:	fec2d5e3          	bge	t0,a2,151f4 <_svfiprintf_r+0x87e>
   1520e:	4532                	lw	a0,12(sp)
   15210:	0890                	add	a2,sp,80
   15212:	85ee                	mv	a1,s11
   15214:	e18ff0ef          	jal	1482c <__ssprint_r>
   15218:	9c051ae3          	bnez	a0,14bec <_svfiprintf_r+0x276>
   1521c:	4ec1                	li	t4,16
   1521e:	1441                	add	s0,s0,-16
   15220:	46e6                	lw	a3,88(sp)
   15222:	4656                	lw	a2,84(sp)
   15224:	87de                	mv	a5,s7
   15226:	429d                	li	t0,7
   15228:	fc8ec9e3          	blt	t4,s0,151fa <_svfiprintf_r+0x884>
   1522c:	8722                	mv	a4,s0
   1522e:	8326                	mv	t1,s1
   15230:	843e                	mv	s0,a5
   15232:	84b6                	mv	s1,a3
   15234:	4f52                	lw	t5,20(sp)
   15236:	4fe2                	lw	t6,24(sp)
   15238:	5832                	lw	a6,44(sp)
   1523a:	47f2                	lw	a5,28(sp)
   1523c:	58d2                	lw	a7,52(sp)
   1523e:	56c2                	lw	a3,48(sp)
   15240:	94ba                	add	s1,s1,a4
   15242:	0605                	add	a2,a2,1
   15244:	c058                	sw	a4,4(s0)
   15246:	00642023          	sw	t1,0(s0)
   1524a:	cca6                	sw	s1,88(sp)
   1524c:	cab2                	sw	a2,84(sp)
   1524e:	471d                	li	a4,7
   15250:	0421                	add	s0,s0,8
   15252:	86c752e3          	bge	a4,a2,14ab6 <_svfiprintf_r+0x140>
   15256:	4532                	lw	a0,12(sp)
   15258:	0890                	add	a2,sp,80
   1525a:	85ee                	mv	a1,s11
   1525c:	da46                	sw	a7,52(sp)
   1525e:	d836                	sw	a3,48(sp)
   15260:	d642                	sw	a6,44(sp)
   15262:	ce3e                	sw	a5,28(sp)
   15264:	cc7e                	sw	t6,24(sp)
   15266:	ca7a                	sw	t5,20(sp)
   15268:	dc4ff0ef          	jal	1482c <__ssprint_r>
   1526c:	980510e3          	bnez	a0,14bec <_svfiprintf_r+0x276>
   15270:	44e6                	lw	s1,88(sp)
   15272:	4656                	lw	a2,84(sp)
   15274:	58d2                	lw	a7,52(sp)
   15276:	56c2                	lw	a3,48(sp)
   15278:	5832                	lw	a6,44(sp)
   1527a:	47f2                	lw	a5,28(sp)
   1527c:	4fe2                	lw	t6,24(sp)
   1527e:	4f52                	lw	t5,20(sp)
   15280:	845e                	mv	s0,s7
   15282:	835ff06f          	j	14ab6 <_svfiprintf_r+0x140>
   15286:	4532                	lw	a0,12(sp)
   15288:	0890                	add	a2,sp,80
   1528a:	85ee                	mv	a1,s11
   1528c:	d846                	sw	a7,48(sp)
   1528e:	d636                	sw	a3,44(sp)
   15290:	ce42                	sw	a6,28(sp)
   15292:	cc3e                	sw	a5,24(sp)
   15294:	ca7e                	sw	t6,20(sp)
   15296:	d96ff0ef          	jal	1482c <__ssprint_r>
   1529a:	940519e3          	bnez	a0,14bec <_svfiprintf_r+0x276>
   1529e:	44e6                	lw	s1,88(sp)
   152a0:	4656                	lw	a2,84(sp)
   152a2:	58c2                	lw	a7,48(sp)
   152a4:	56b2                	lw	a3,44(sp)
   152a6:	4872                	lw	a6,28(sp)
   152a8:	47e2                	lw	a5,24(sp)
   152aa:	4fd2                	lw	t6,20(sp)
   152ac:	845e                	mv	s0,s7
   152ae:	845ff06f          	j	14af2 <_svfiprintf_r+0x17c>
   152b2:	0106f793          	and	a5,a3,16
   152b6:	0008a703          	lw	a4,0(a7)
   152ba:	0891                	add	a7,a7,4
   152bc:	ef81                	bnez	a5,152d4 <_svfiprintf_r+0x95e>
   152be:	0406f793          	and	a5,a3,64
   152c2:	c789                	beqz	a5,152cc <_svfiprintf_r+0x956>
   152c4:	0742                	sll	a4,a4,0x10
   152c6:	8341                	srl	a4,a4,0x10
   152c8:	4581                	li	a1,0
   152ca:	bb09                	j	14fdc <_svfiprintf_r+0x666>
   152cc:	2006f793          	and	a5,a3,512
   152d0:	2e079e63          	bnez	a5,155cc <_svfiprintf_r+0xc56>
   152d4:	4581                	li	a1,0
   152d6:	b319                	j	14fdc <_svfiprintf_r+0x666>
   152d8:	01087793          	and	a5,a6,16
   152dc:	0008a703          	lw	a4,0(a7)
   152e0:	0891                	add	a7,a7,4
   152e2:	e799                	bnez	a5,152f0 <_svfiprintf_r+0x97a>
   152e4:	04087793          	and	a5,a6,64
   152e8:	2a078863          	beqz	a5,15598 <_svfiprintf_r+0xc22>
   152ec:	0742                	sll	a4,a4,0x10
   152ee:	8341                	srl	a4,a4,0x10
   152f0:	4301                	li	t1,0
   152f2:	b6b9                	j	14e40 <_svfiprintf_r+0x4ca>
   152f4:	4681                	li	a3,0
   152f6:	4801                	li	a6,0
   152f8:	10010993          	add	s3,sp,256
   152fc:	be39                	j	14e1a <_svfiprintf_r+0x4a4>
   152fe:	ccccdeb7          	lui	t4,0xccccd
   15302:	ccccd3b7          	lui	t2,0xccccd
   15306:	5282                	lw	t0,32(sp)
   15308:	4007ff93          	and	t6,a5,1024
   1530c:	4501                	li	a0,0
   1530e:	020c                	add	a1,sp,256
   15310:	4f15                	li	t5,5
   15312:	ccde8e93          	add	t4,t4,-819 # cccccccd <__BSS_END__+0xcccae1a9>
   15316:	ccc38393          	add	t2,t2,-820 # cccccccc <__BSS_END__+0xcccae1a8>
   1531a:	0ff00e13          	li	t3,255
   1531e:	ca3e                	sw	a5,20(sp)
   15320:	a081                	j	15360 <_svfiprintf_r+0x9ea>
   15322:	00e9b7b3          	sltu	a5,s3,a4
   15326:	97ce                	add	a5,a5,s3
   15328:	03e7f7b3          	remu	a5,a5,t5
   1532c:	40f707b3          	sub	a5,a4,a5
   15330:	00f736b3          	sltu	a3,a4,a5
   15334:	40d306b3          	sub	a3,t1,a3
   15338:	027785b3          	mul	a1,a5,t2
   1533c:	03d686b3          	mul	a3,a3,t4
   15340:	03d7b633          	mulhu	a2,a5,t4
   15344:	96ae                	add	a3,a3,a1
   15346:	03d787b3          	mul	a5,a5,t4
   1534a:	96b2                	add	a3,a3,a2
   1534c:	01f69613          	sll	a2,a3,0x1f
   15350:	8285                	srl	a3,a3,0x1
   15352:	8385                	srl	a5,a5,0x1
   15354:	8fd1                	or	a5,a5,a2
   15356:	24030c63          	beqz	t1,155ae <_svfiprintf_r+0xc38>
   1535a:	873e                	mv	a4,a5
   1535c:	8336                	mv	t1,a3
   1535e:	85c2                	mv	a1,a6
   15360:	006709b3          	add	s3,a4,t1
   15364:	00e9b7b3          	sltu	a5,s3,a4
   15368:	97ce                	add	a5,a5,s3
   1536a:	03e7f7b3          	remu	a5,a5,t5
   1536e:	fff58813          	add	a6,a1,-1
   15372:	0505                	add	a0,a0,1
   15374:	40f707b3          	sub	a5,a4,a5
   15378:	00f736b3          	sltu	a3,a4,a5
   1537c:	40d306b3          	sub	a3,t1,a3
   15380:	03d7b633          	mulhu	a2,a5,t4
   15384:	03d686b3          	mul	a3,a3,t4
   15388:	03d787b3          	mul	a5,a5,t4
   1538c:	96b2                	add	a3,a3,a2
   1538e:	06fe                	sll	a3,a3,0x1f
   15390:	0017d613          	srl	a2,a5,0x1
   15394:	8e55                	or	a2,a2,a3
   15396:	00261793          	sll	a5,a2,0x2
   1539a:	97b2                	add	a5,a5,a2
   1539c:	0786                	sll	a5,a5,0x1
   1539e:	40f707b3          	sub	a5,a4,a5
   153a2:	03078793          	add	a5,a5,48
   153a6:	fef58fa3          	sb	a5,-1(a1)
   153aa:	f60f8ce3          	beqz	t6,15322 <_svfiprintf_r+0x9ac>
   153ae:	0002c783          	lbu	a5,0(t0) # 10924 <memset+0x8e>
   153b2:	f6a798e3          	bne	a5,a0,15322 <_svfiprintf_r+0x9ac>
   153b6:	f7c506e3          	beq	a0,t3,15322 <_svfiprintf_r+0x9ac>
   153ba:	0e031f63          	bnez	t1,154b8 <_svfiprintf_r+0xb42>
   153be:	47a5                	li	a5,9
   153c0:	0ee7ec63          	bltu	a5,a4,154b8 <_svfiprintf_r+0xb42>
   153c4:	47d2                	lw	a5,20(sp)
   153c6:	89c2                	mv	s3,a6
   153c8:	d016                	sw	t0,32(sp)
   153ca:	bbcd                	j	151bc <_svfiprintf_r+0x846>
   153cc:	4681                	li	a3,0
   153ce:	10010993          	add	s3,sp,256
   153d2:	b4a1                	j	14e1a <_svfiprintf_r+0x4a4>
   153d4:	0008a783          	lw	a5,0(a7)
   153d8:	41fb5713          	sra	a4,s6,0x1f
   153dc:	0891                	add	a7,a7,4
   153de:	0167a023          	sw	s6,0(a5)
   153e2:	c3d8                	sw	a4,4(a5)
   153e4:	e12ff06f          	j	149f6 <_svfiprintf_r+0x80>
   153e8:	86c2                	mv	a3,a6
   153ea:	89aa                	mv	s3,a0
   153ec:	b43d                	j	14e1a <_svfiprintf_r+0x4a4>
   153ee:	597d                	li	s2,-1
   153f0:	8a2e                	mv	s4,a1
   153f2:	e62ff06f          	j	14a54 <_svfiprintf_r+0xde>
   153f6:	883e                	mv	a6,a5
   153f8:	bc05                	j	14e28 <_svfiprintf_r+0x4b2>
   153fa:	86be                	mv	a3,a5
   153fc:	b6e1                	j	14fc4 <_svfiprintf_r+0x64e>
   153fe:	00008717          	auipc	a4,0x8
   15402:	0ee70713          	add	a4,a4,238 # 1d4ec <__clzsi2+0xb0>
   15406:	c83a                	sw	a4,16(sp)
   15408:	0207f713          	and	a4,a5,32
   1540c:	c331                	beqz	a4,15450 <_svfiprintf_r+0xada>
   1540e:	089d                	add	a7,a7,7
   15410:	ff88f893          	and	a7,a7,-8
   15414:	0008a703          	lw	a4,0(a7)
   15418:	0048a583          	lw	a1,4(a7)
   1541c:	08a1                	add	a7,a7,8
   1541e:	0017f613          	and	a2,a5,1
   15422:	ce01                	beqz	a2,1543a <_svfiprintf_r+0xac4>
   15424:	00b76633          	or	a2,a4,a1
   15428:	ca09                	beqz	a2,1543a <_svfiprintf_r+0xac4>
   1542a:	03000613          	li	a2,48
   1542e:	04c10623          	sb	a2,76(sp)
   15432:	04d106a3          	sb	a3,77(sp)
   15436:	0027e793          	or	a5,a5,2
   1543a:	bff7f793          	and	a5,a5,-1025
   1543e:	b255                	j	14de2 <_svfiprintf_r+0x46c>
   15440:	00008717          	auipc	a4,0x8
   15444:	09870713          	add	a4,a4,152 # 1d4d8 <__clzsi2+0x9c>
   15448:	c83a                	sw	a4,16(sp)
   1544a:	0207f713          	and	a4,a5,32
   1544e:	f361                	bnez	a4,1540e <_svfiprintf_r+0xa98>
   15450:	0107f613          	and	a2,a5,16
   15454:	0008a703          	lw	a4,0(a7)
   15458:	0891                	add	a7,a7,4
   1545a:	e67d                	bnez	a2,15548 <_svfiprintf_r+0xbd2>
   1545c:	0407f613          	and	a2,a5,64
   15460:	c26d                	beqz	a2,15542 <_svfiprintf_r+0xbcc>
   15462:	0742                	sll	a4,a4,0x10
   15464:	8341                	srl	a4,a4,0x10
   15466:	4581                	li	a1,0
   15468:	bf5d                	j	1541e <_svfiprintf_r+0xaa8>
   1546a:	854e                	mv	a0,s3
   1546c:	b5cff0ef          	jal	147c8 <strlen>
   15470:	47d2                	lw	a5,20(sp)
   15472:	48e2                	lw	a7,24(sp)
   15474:	882a                	mv	a6,a0
   15476:	b231                	j	14d82 <_svfiprintf_r+0x40c>
   15478:	04000593          	li	a1,64
   1547c:	f22fd0ef          	jal	12b9e <_malloc_r>
   15480:	00ab2023          	sw	a0,0(s6)
   15484:	00ab2823          	sw	a0,16(s6)
   15488:	16050163          	beqz	a0,155ea <_svfiprintf_r+0xc74>
   1548c:	12812c23          	sw	s0,312(sp)
   15490:	12912a23          	sw	s1,308(sp)
   15494:	13212823          	sw	s2,304(sp)
   15498:	13312623          	sw	s3,300(sp)
   1549c:	13512223          	sw	s5,292(sp)
   154a0:	11712e23          	sw	s7,284(sp)
   154a4:	11912a23          	sw	s9,276(sp)
   154a8:	11a12823          	sw	s10,272(sp)
   154ac:	04000793          	li	a5,64
   154b0:	00fb2a23          	sw	a5,20(s6)
   154b4:	d10ff06f          	j	149c4 <_svfiprintf_r+0x4e>
   154b8:	5792                	lw	a5,36(sp)
   154ba:	55a2                	lw	a1,40(sp)
   154bc:	de1a                	sw	t1,60(sp)
   154be:	40f80833          	sub	a6,a6,a5
   154c2:	863e                	mv	a2,a5
   154c4:	8542                	mv	a0,a6
   154c6:	dc3a                	sw	a4,56(sp)
   154c8:	da1e                	sw	t2,52(sp)
   154ca:	d876                	sw	t4,48(sp)
   154cc:	d646                	sw	a7,44(sp)
   154ce:	d07e                	sw	t6,32(sp)
   154d0:	ce16                	sw	t0,28(sp)
   154d2:	cc42                	sw	a6,24(sp)
   154d4:	025000ef          	jal	15cf8 <strncpy>
   154d8:	5762                	lw	a4,56(sp)
   154da:	4695                	li	a3,5
   154dc:	42f2                	lw	t0,28(sp)
   154de:	00e9b7b3          	sltu	a5,s3,a4
   154e2:	97ce                	add	a5,a5,s3
   154e4:	02d7f7b3          	remu	a5,a5,a3
   154e8:	0012c683          	lbu	a3,1(t0)
   154ec:	5372                	lw	t1,60(sp)
   154ee:	ccccd637          	lui	a2,0xccccd
   154f2:	00d036b3          	snez	a3,a3
   154f6:	ccccd5b7          	lui	a1,0xccccd
   154fa:	92b6                	add	t0,t0,a3
   154fc:	ccd60613          	add	a2,a2,-819 # cccccccd <__BSS_END__+0xcccae1a9>
   15500:	ccc58593          	add	a1,a1,-820 # cccccccc <__BSS_END__+0xcccae1a8>
   15504:	4862                	lw	a6,24(sp)
   15506:	5f82                	lw	t6,32(sp)
   15508:	58b2                	lw	a7,44(sp)
   1550a:	5ec2                	lw	t4,48(sp)
   1550c:	53d2                	lw	t2,52(sp)
   1550e:	4501                	li	a0,0
   15510:	4f15                	li	t5,5
   15512:	0ff00e13          	li	t3,255
   15516:	40f707b3          	sub	a5,a4,a5
   1551a:	00f736b3          	sltu	a3,a4,a5
   1551e:	40d306b3          	sub	a3,t1,a3
   15522:	02b785b3          	mul	a1,a5,a1
   15526:	02c686b3          	mul	a3,a3,a2
   1552a:	02c7b333          	mulhu	t1,a5,a2
   1552e:	96ae                	add	a3,a3,a1
   15530:	02c78733          	mul	a4,a5,a2
   15534:	969a                	add	a3,a3,t1
   15536:	01f69793          	sll	a5,a3,0x1f
   1553a:	8285                	srl	a3,a3,0x1
   1553c:	8305                	srl	a4,a4,0x1
   1553e:	8fd9                	or	a5,a5,a4
   15540:	bd29                	j	1535a <_svfiprintf_r+0x9e4>
   15542:	2007f613          	and	a2,a5,512
   15546:	ee3d                	bnez	a2,155c4 <_svfiprintf_r+0xc4e>
   15548:	4581                	li	a1,0
   1554a:	bdd1                	j	1541e <_svfiprintf_r+0xaa8>
   1554c:	87b6                	mv	a5,a3
   1554e:	4681                	li	a3,0
   15550:	90068ee3          	beqz	a3,14e6c <_svfiprintf_r+0x4f6>
   15554:	b189                	j	15196 <_svfiprintf_r+0x820>
   15556:	001a4683          	lbu	a3,1(s4)
   1555a:	2007e793          	or	a5,a5,512
   1555e:	0a05                	add	s4,s4,1
   15560:	cf2ff06f          	j	14a52 <_svfiprintf_r+0xdc>
   15564:	001a4683          	lbu	a3,1(s4)
   15568:	0207e793          	or	a5,a5,32
   1556c:	0a05                	add	s4,s4,1
   1556e:	ce4ff06f          	j	14a52 <_svfiprintf_r+0xdc>
   15572:	0008a783          	lw	a5,0(a7)
   15576:	0891                	add	a7,a7,4
   15578:	0167a023          	sw	s6,0(a5)
   1557c:	c7aff06f          	j	149f6 <_svfiprintf_r+0x80>
   15580:	4719                	li	a4,6
   15582:	884a                	mv	a6,s2
   15584:	01277363          	bgeu	a4,s2,1558a <_svfiprintf_r+0xc14>
   15588:	4819                	li	a6,6
   1558a:	86c2                	mv	a3,a6
   1558c:	00008997          	auipc	s3,0x8
   15590:	f7498993          	add	s3,s3,-140 # 1d500 <__clzsi2+0xc4>
   15594:	d0cff06f          	j	14aa0 <_svfiprintf_r+0x12a>
   15598:	20087793          	and	a5,a6,512
   1559c:	d4078ae3          	beqz	a5,152f0 <_svfiprintf_r+0x97a>
   155a0:	0ff77713          	zext.b	a4,a4
   155a4:	4301                	li	t1,0
   155a6:	b869                	j	14e40 <_svfiprintf_r+0x4ca>
   155a8:	4701                	li	a4,0
   155aa:	4581                	li	a1,0
   155ac:	b6ed                	j	15196 <_svfiprintf_r+0x820>
   155ae:	4625                	li	a2,9
   155b0:	dae665e3          	bltu	a2,a4,1535a <_svfiprintf_r+0x9e4>
   155b4:	bd01                	j	153c4 <_svfiprintf_r+0xa4e>
   155b6:	0008a783          	lw	a5,0(a7)
   155ba:	0891                	add	a7,a7,4
   155bc:	01679023          	sh	s6,0(a5)
   155c0:	c36ff06f          	j	149f6 <_svfiprintf_r+0x80>
   155c4:	0ff77713          	zext.b	a4,a4
   155c8:	4581                	li	a1,0
   155ca:	bd91                	j	1541e <_svfiprintf_r+0xaa8>
   155cc:	0ff77713          	zext.b	a4,a4
   155d0:	4581                	li	a1,0
   155d2:	b429                	j	14fdc <_svfiprintf_r+0x666>
   155d4:	0762                	sll	a4,a4,0x18
   155d6:	8761                	sra	a4,a4,0x18
   155d8:	41f75313          	sra	t1,a4,0x1f
   155dc:	869a                	mv	a3,t1
   155de:	daaff06f          	j	14b88 <_svfiprintf_r+0x212>
   155e2:	03000713          	li	a4,48
   155e6:	f5cff06f          	j	14d42 <_svfiprintf_r+0x3cc>
   155ea:	4732                	lw	a4,12(sp)
   155ec:	47b1                	li	a5,12
   155ee:	c31c                	sw	a5,0(a4)
   155f0:	5dfd                	li	s11,-1
   155f2:	e2cff06f          	j	14c1e <_svfiprintf_r+0x2a8>
   155f6:	0008a903          	lw	s2,0(a7)
   155fa:	0891                	add	a7,a7,4
   155fc:	00095363          	bgez	s2,15602 <_svfiprintf_r+0xc8c>
   15600:	597d                	li	s2,-1
   15602:	001a4683          	lbu	a3,1(s4)
   15606:	8a2e                	mv	s4,a1
   15608:	c4aff06f          	j	14a52 <_svfiprintf_r+0xdc>

0001560c <memchr>:
   1560c:	00357793          	and	a5,a0,3
   15610:	0ff5f693          	zext.b	a3,a1
   15614:	c395                	beqz	a5,15638 <memchr+0x2c>
   15616:	fff60793          	add	a5,a2,-1
   1561a:	c605                	beqz	a2,15642 <memchr+0x36>
   1561c:	567d                	li	a2,-1
   1561e:	a801                	j	1562e <memchr+0x22>
   15620:	0505                	add	a0,a0,1
   15622:	00357713          	and	a4,a0,3
   15626:	cb11                	beqz	a4,1563a <memchr+0x2e>
   15628:	17fd                	add	a5,a5,-1
   1562a:	00c78c63          	beq	a5,a2,15642 <memchr+0x36>
   1562e:	00054703          	lbu	a4,0(a0)
   15632:	fed717e3          	bne	a4,a3,15620 <memchr+0x14>
   15636:	8082                	ret
   15638:	87b2                	mv	a5,a2
   1563a:	470d                	li	a4,3
   1563c:	00f76563          	bltu	a4,a5,15646 <memchr+0x3a>
   15640:	e3b9                	bnez	a5,15686 <memchr+0x7a>
   15642:	4501                	li	a0,0
   15644:	8082                	ret
   15646:	0ff5f593          	zext.b	a1,a1
   1564a:	00859713          	sll	a4,a1,0x8
   1564e:	95ba                	add	a1,a1,a4
   15650:	01059713          	sll	a4,a1,0x10
   15654:	feff08b7          	lui	a7,0xfeff0
   15658:	80808837          	lui	a6,0x80808
   1565c:	95ba                	add	a1,a1,a4
   1565e:	eff88893          	add	a7,a7,-257 # fefefeff <__BSS_END__+0xfefd13db>
   15662:	08080813          	add	a6,a6,128 # 80808080 <__BSS_END__+0x807e955c>
   15666:	430d                	li	t1,3
   15668:	a029                	j	15672 <memchr+0x66>
   1566a:	17f1                	add	a5,a5,-4
   1566c:	0511                	add	a0,a0,4
   1566e:	fcf379e3          	bgeu	t1,a5,15640 <memchr+0x34>
   15672:	4118                	lw	a4,0(a0)
   15674:	8f2d                	xor	a4,a4,a1
   15676:	01170633          	add	a2,a4,a7
   1567a:	fff74713          	not	a4,a4
   1567e:	8f71                	and	a4,a4,a2
   15680:	01077733          	and	a4,a4,a6
   15684:	d37d                	beqz	a4,1566a <memchr+0x5e>
   15686:	97aa                	add	a5,a5,a0
   15688:	a021                	j	15690 <memchr+0x84>
   1568a:	0505                	add	a0,a0,1
   1568c:	faa78be3          	beq	a5,a0,15642 <memchr+0x36>
   15690:	00054703          	lbu	a4,0(a0)
   15694:	fed71be3          	bne	a4,a3,1568a <memchr+0x7e>
   15698:	8082                	ret

0001569a <_fwalk_sglue>:
   1569a:	7179                	add	sp,sp,-48
   1569c:	d04a                	sw	s2,32(sp)
   1569e:	ce4e                	sw	s3,28(sp)
   156a0:	cc52                	sw	s4,24(sp)
   156a2:	ca56                	sw	s5,20(sp)
   156a4:	c85a                	sw	s6,16(sp)
   156a6:	c65e                	sw	s7,12(sp)
   156a8:	d606                	sw	ra,44(sp)
   156aa:	d422                	sw	s0,40(sp)
   156ac:	d226                	sw	s1,36(sp)
   156ae:	8b2a                	mv	s6,a0
   156b0:	8bae                	mv	s7,a1
   156b2:	8ab2                	mv	s5,a2
   156b4:	4a01                	li	s4,0
   156b6:	4985                	li	s3,1
   156b8:	597d                	li	s2,-1
   156ba:	004aa483          	lw	s1,4(s5)
   156be:	008aa403          	lw	s0,8(s5)
   156c2:	14fd                	add	s1,s1,-1
   156c4:	0204c463          	bltz	s1,156ec <_fwalk_sglue+0x52>
   156c8:	00c45783          	lhu	a5,12(s0)
   156cc:	00f9fb63          	bgeu	s3,a5,156e2 <_fwalk_sglue+0x48>
   156d0:	00e41783          	lh	a5,14(s0)
   156d4:	85a2                	mv	a1,s0
   156d6:	855a                	mv	a0,s6
   156d8:	01278563          	beq	a5,s2,156e2 <_fwalk_sglue+0x48>
   156dc:	9b82                	jalr	s7
   156de:	00aa6a33          	or	s4,s4,a0
   156e2:	14fd                	add	s1,s1,-1
   156e4:	06840413          	add	s0,s0,104
   156e8:	ff2490e3          	bne	s1,s2,156c8 <_fwalk_sglue+0x2e>
   156ec:	000aaa83          	lw	s5,0(s5)
   156f0:	fc0a95e3          	bnez	s5,156ba <_fwalk_sglue+0x20>
   156f4:	50b2                	lw	ra,44(sp)
   156f6:	5422                	lw	s0,40(sp)
   156f8:	5492                	lw	s1,36(sp)
   156fa:	5902                	lw	s2,32(sp)
   156fc:	49f2                	lw	s3,28(sp)
   156fe:	4ad2                	lw	s5,20(sp)
   15700:	4b42                	lw	s6,16(sp)
   15702:	4bb2                	lw	s7,12(sp)
   15704:	8552                	mv	a0,s4
   15706:	4a62                	lw	s4,24(sp)
   15708:	6145                	add	sp,sp,48
   1570a:	8082                	ret

0001570c <_realloc_r>:
   1570c:	7179                	add	sp,sp,-48
   1570e:	d226                	sw	s1,36(sp)
   15710:	d606                	sw	ra,44(sp)
   15712:	84b2                	mv	s1,a2
   15714:	14058b63          	beqz	a1,1586a <_realloc_r+0x15e>
   15718:	d422                	sw	s0,40(sp)
   1571a:	d04a                	sw	s2,32(sp)
   1571c:	842e                	mv	s0,a1
   1571e:	ce4e                	sw	s3,28(sp)
   15720:	ca56                	sw	s5,20(sp)
   15722:	cc52                	sw	s4,24(sp)
   15724:	892a                	mv	s2,a0
   15726:	25b1                	jal	15d72 <__malloc_lock>
   15728:	ffc42703          	lw	a4,-4(s0)
   1572c:	00b48793          	add	a5,s1,11
   15730:	46d9                	li	a3,22
   15732:	ff840a93          	add	s5,s0,-8
   15736:	ffc77993          	and	s3,a4,-4
   1573a:	0af6ff63          	bgeu	a3,a5,157f8 <_realloc_r+0xec>
   1573e:	ff87fa13          	and	s4,a5,-8
   15742:	0a07ce63          	bltz	a5,157fe <_realloc_r+0xf2>
   15746:	0a9a6c63          	bltu	s4,s1,157fe <_realloc_r+0xf2>
   1574a:	0d49d563          	bge	s3,s4,15814 <_realloc_r+0x108>
   1574e:	c462                	sw	s8,8(sp)
   15750:	00009c17          	auipc	s8,0x9
   15754:	9ecc0c13          	add	s8,s8,-1556 # 1e13c <__malloc_av_>
   15758:	008c2603          	lw	a2,8(s8)
   1575c:	013a86b3          	add	a3,s5,s3
   15760:	42dc                	lw	a5,4(a3)
   15762:	12d60c63          	beq	a2,a3,1589a <_realloc_r+0x18e>
   15766:	ffe7f613          	and	a2,a5,-2
   1576a:	9636                	add	a2,a2,a3
   1576c:	4250                	lw	a2,4(a2)
   1576e:	8a05                	and	a2,a2,1
   15770:	e26d                	bnez	a2,15852 <_realloc_r+0x146>
   15772:	9bf1                	and	a5,a5,-4
   15774:	00f98633          	add	a2,s3,a5
   15778:	09465863          	bge	a2,s4,15808 <_realloc_r+0xfc>
   1577c:	8b05                	and	a4,a4,1
   1577e:	e70d                	bnez	a4,157a8 <_realloc_r+0x9c>
   15780:	c65e                	sw	s7,12(sp)
   15782:	ff842b83          	lw	s7,-8(s0)
   15786:	c85a                	sw	s6,16(sp)
   15788:	417a8bb3          	sub	s7,s5,s7
   1578c:	004ba703          	lw	a4,4(s7)
   15790:	9b71                	and	a4,a4,-4
   15792:	97ba                	add	a5,a5,a4
   15794:	01378b33          	add	s6,a5,s3
   15798:	234b5c63          	bge	s6,s4,159d0 <_realloc_r+0x2c4>
   1579c:	00e98b33          	add	s6,s3,a4
   157a0:	1d4b5163          	bge	s6,s4,15962 <_realloc_r+0x256>
   157a4:	4b42                	lw	s6,16(sp)
   157a6:	4bb2                	lw	s7,12(sp)
   157a8:	85a6                	mv	a1,s1
   157aa:	854a                	mv	a0,s2
   157ac:	bf2fd0ef          	jal	12b9e <_malloc_r>
   157b0:	84aa                	mv	s1,a0
   157b2:	2c050c63          	beqz	a0,15a8a <_realloc_r+0x37e>
   157b6:	ffc42783          	lw	a5,-4(s0)
   157ba:	ff850713          	add	a4,a0,-8
   157be:	9bf9                	and	a5,a5,-2
   157c0:	97d6                	add	a5,a5,s5
   157c2:	18e78a63          	beq	a5,a4,15956 <_realloc_r+0x24a>
   157c6:	ffc98613          	add	a2,s3,-4
   157ca:	02400793          	li	a5,36
   157ce:	1ec7ed63          	bltu	a5,a2,159c8 <_realloc_r+0x2bc>
   157d2:	474d                	li	a4,19
   157d4:	16c76563          	bltu	a4,a2,1593e <_realloc_r+0x232>
   157d8:	87aa                	mv	a5,a0
   157da:	8722                	mv	a4,s0
   157dc:	4314                	lw	a3,0(a4)
   157de:	c394                	sw	a3,0(a5)
   157e0:	4354                	lw	a3,4(a4)
   157e2:	c3d4                	sw	a3,4(a5)
   157e4:	4718                	lw	a4,8(a4)
   157e6:	c798                	sw	a4,8(a5)
   157e8:	85a2                	mv	a1,s0
   157ea:	854a                	mv	a0,s2
   157ec:	a33fd0ef          	jal	1321e <_free_r>
   157f0:	854a                	mv	a0,s2
   157f2:	2349                	jal	15d74 <__malloc_unlock>
   157f4:	4c22                	lw	s8,8(sp)
   157f6:	a0a1                	j	1583e <_realloc_r+0x132>
   157f8:	4a41                	li	s4,16
   157fa:	f49a78e3          	bgeu	s4,s1,1574a <_realloc_r+0x3e>
   157fe:	47b1                	li	a5,12
   15800:	00f92023          	sw	a5,0(s2)
   15804:	4481                	li	s1,0
   15806:	a825                	j	1583e <_realloc_r+0x132>
   15808:	46dc                	lw	a5,12(a3)
   1580a:	4698                	lw	a4,8(a3)
   1580c:	4c22                	lw	s8,8(sp)
   1580e:	89b2                	mv	s3,a2
   15810:	c75c                	sw	a5,12(a4)
   15812:	c798                	sw	a4,8(a5)
   15814:	004aa783          	lw	a5,4(s5)
   15818:	414986b3          	sub	a3,s3,s4
   1581c:	463d                	li	a2,15
   1581e:	8b85                	and	a5,a5,1
   15820:	013a8733          	add	a4,s5,s3
   15824:	04d66963          	bltu	a2,a3,15876 <_realloc_r+0x16a>
   15828:	0137e7b3          	or	a5,a5,s3
   1582c:	00faa223          	sw	a5,4(s5)
   15830:	435c                	lw	a5,4(a4)
   15832:	0017e793          	or	a5,a5,1
   15836:	c35c                	sw	a5,4(a4)
   15838:	854a                	mv	a0,s2
   1583a:	2b2d                	jal	15d74 <__malloc_unlock>
   1583c:	84a2                	mv	s1,s0
   1583e:	5422                	lw	s0,40(sp)
   15840:	50b2                	lw	ra,44(sp)
   15842:	5902                	lw	s2,32(sp)
   15844:	49f2                	lw	s3,28(sp)
   15846:	4a62                	lw	s4,24(sp)
   15848:	4ad2                	lw	s5,20(sp)
   1584a:	8526                	mv	a0,s1
   1584c:	5492                	lw	s1,36(sp)
   1584e:	6145                	add	sp,sp,48
   15850:	8082                	ret
   15852:	8b05                	and	a4,a4,1
   15854:	fb31                	bnez	a4,157a8 <_realloc_r+0x9c>
   15856:	c65e                	sw	s7,12(sp)
   15858:	ff842b83          	lw	s7,-8(s0)
   1585c:	c85a                	sw	s6,16(sp)
   1585e:	417a8bb3          	sub	s7,s5,s7
   15862:	004ba703          	lw	a4,4(s7)
   15866:	9b71                	and	a4,a4,-4
   15868:	bf15                	j	1579c <_realloc_r+0x90>
   1586a:	50b2                	lw	ra,44(sp)
   1586c:	5492                	lw	s1,36(sp)
   1586e:	85b2                	mv	a1,a2
   15870:	6145                	add	sp,sp,48
   15872:	b2cfd06f          	j	12b9e <_malloc_r>
   15876:	0147e7b3          	or	a5,a5,s4
   1587a:	00faa223          	sw	a5,4(s5)
   1587e:	014a85b3          	add	a1,s5,s4
   15882:	0016e693          	or	a3,a3,1
   15886:	c1d4                	sw	a3,4(a1)
   15888:	435c                	lw	a5,4(a4)
   1588a:	05a1                	add	a1,a1,8
   1588c:	854a                	mv	a0,s2
   1588e:	0017e793          	or	a5,a5,1
   15892:	c35c                	sw	a5,4(a4)
   15894:	98bfd0ef          	jal	1321e <_free_r>
   15898:	b745                	j	15838 <_realloc_r+0x12c>
   1589a:	9bf1                	and	a5,a5,-4
   1589c:	013786b3          	add	a3,a5,s3
   158a0:	010a0613          	add	a2,s4,16
   158a4:	1ac6da63          	bge	a3,a2,15a58 <_realloc_r+0x34c>
   158a8:	8b05                	and	a4,a4,1
   158aa:	ee071fe3          	bnez	a4,157a8 <_realloc_r+0x9c>
   158ae:	c65e                	sw	s7,12(sp)
   158b0:	ff842b83          	lw	s7,-8(s0)
   158b4:	c85a                	sw	s6,16(sp)
   158b6:	417a8bb3          	sub	s7,s5,s7
   158ba:	004ba703          	lw	a4,4(s7)
   158be:	9b71                	and	a4,a4,-4
   158c0:	97ba                	add	a5,a5,a4
   158c2:	01378b33          	add	s6,a5,s3
   158c6:	eccb4be3          	blt	s6,a2,1579c <_realloc_r+0x90>
   158ca:	00cba783          	lw	a5,12(s7)
   158ce:	008ba703          	lw	a4,8(s7)
   158d2:	ffc98613          	add	a2,s3,-4
   158d6:	02400693          	li	a3,36
   158da:	c75c                	sw	a5,12(a4)
   158dc:	c798                	sw	a4,8(a5)
   158de:	008b8493          	add	s1,s7,8
   158e2:	1cc6e263          	bltu	a3,a2,15aa6 <_realloc_r+0x39a>
   158e6:	474d                	li	a4,19
   158e8:	87a6                	mv	a5,s1
   158ea:	00c77e63          	bgeu	a4,a2,15906 <_realloc_r+0x1fa>
   158ee:	4018                	lw	a4,0(s0)
   158f0:	47ed                	li	a5,27
   158f2:	00eba423          	sw	a4,8(s7)
   158f6:	4058                	lw	a4,4(s0)
   158f8:	00eba623          	sw	a4,12(s7)
   158fc:	1ac7ea63          	bltu	a5,a2,15ab0 <_realloc_r+0x3a4>
   15900:	0421                	add	s0,s0,8
   15902:	010b8793          	add	a5,s7,16
   15906:	4018                	lw	a4,0(s0)
   15908:	c398                	sw	a4,0(a5)
   1590a:	4058                	lw	a4,4(s0)
   1590c:	c3d8                	sw	a4,4(a5)
   1590e:	4418                	lw	a4,8(s0)
   15910:	c798                	sw	a4,8(a5)
   15912:	014b8733          	add	a4,s7,s4
   15916:	414b07b3          	sub	a5,s6,s4
   1591a:	00ec2423          	sw	a4,8(s8)
   1591e:	0017e793          	or	a5,a5,1
   15922:	c35c                	sw	a5,4(a4)
   15924:	004ba783          	lw	a5,4(s7)
   15928:	854a                	mv	a0,s2
   1592a:	8b85                	and	a5,a5,1
   1592c:	0147e7b3          	or	a5,a5,s4
   15930:	00fba223          	sw	a5,4(s7)
   15934:	2181                	jal	15d74 <__malloc_unlock>
   15936:	4b42                	lw	s6,16(sp)
   15938:	4bb2                	lw	s7,12(sp)
   1593a:	4c22                	lw	s8,8(sp)
   1593c:	b709                	j	1583e <_realloc_r+0x132>
   1593e:	4014                	lw	a3,0(s0)
   15940:	476d                	li	a4,27
   15942:	c114                	sw	a3,0(a0)
   15944:	4054                	lw	a3,4(s0)
   15946:	c154                	sw	a3,4(a0)
   15948:	0ec76d63          	bltu	a4,a2,15a42 <_realloc_r+0x336>
   1594c:	00840713          	add	a4,s0,8
   15950:	00850793          	add	a5,a0,8
   15954:	b561                	j	157dc <_realloc_r+0xd0>
   15956:	ffc52783          	lw	a5,-4(a0)
   1595a:	4c22                	lw	s8,8(sp)
   1595c:	9bf1                	and	a5,a5,-4
   1595e:	99be                	add	s3,s3,a5
   15960:	bd55                	j	15814 <_realloc_r+0x108>
   15962:	00cba783          	lw	a5,12(s7)
   15966:	008ba703          	lw	a4,8(s7)
   1596a:	ffc98613          	add	a2,s3,-4
   1596e:	02400693          	li	a3,36
   15972:	c75c                	sw	a5,12(a4)
   15974:	c798                	sw	a4,8(a5)
   15976:	008b8493          	add	s1,s7,8
   1597a:	0ac6ef63          	bltu	a3,a2,15a38 <_realloc_r+0x32c>
   1597e:	474d                	li	a4,19
   15980:	87a6                	mv	a5,s1
   15982:	02c77663          	bgeu	a4,a2,159ae <_realloc_r+0x2a2>
   15986:	4018                	lw	a4,0(s0)
   15988:	47ed                	li	a5,27
   1598a:	00eba423          	sw	a4,8(s7)
   1598e:	4058                	lw	a4,4(s0)
   15990:	00eba623          	sw	a4,12(s7)
   15994:	0ec7f763          	bgeu	a5,a2,15a82 <_realloc_r+0x376>
   15998:	441c                	lw	a5,8(s0)
   1599a:	00fba823          	sw	a5,16(s7)
   1599e:	445c                	lw	a5,12(s0)
   159a0:	00fbaa23          	sw	a5,20(s7)
   159a4:	06d60f63          	beq	a2,a3,15a22 <_realloc_r+0x316>
   159a8:	0441                	add	s0,s0,16
   159aa:	018b8793          	add	a5,s7,24
   159ae:	4018                	lw	a4,0(s0)
   159b0:	c398                	sw	a4,0(a5)
   159b2:	4058                	lw	a4,4(s0)
   159b4:	c3d8                	sw	a4,4(a5)
   159b6:	4418                	lw	a4,8(s0)
   159b8:	c798                	sw	a4,8(a5)
   159ba:	89da                	mv	s3,s6
   159bc:	8ade                	mv	s5,s7
   159be:	4b42                	lw	s6,16(sp)
   159c0:	4bb2                	lw	s7,12(sp)
   159c2:	4c22                	lw	s8,8(sp)
   159c4:	8426                	mv	s0,s1
   159c6:	b5b9                	j	15814 <_realloc_r+0x108>
   159c8:	85a2                	mv	a1,s0
   159ca:	6a8010ef          	jal	17072 <memmove>
   159ce:	bd29                	j	157e8 <_realloc_r+0xdc>
   159d0:	46dc                	lw	a5,12(a3)
   159d2:	4698                	lw	a4,8(a3)
   159d4:	ffc98613          	add	a2,s3,-4
   159d8:	02400693          	li	a3,36
   159dc:	c75c                	sw	a5,12(a4)
   159de:	c798                	sw	a4,8(a5)
   159e0:	008ba703          	lw	a4,8(s7)
   159e4:	00cba783          	lw	a5,12(s7)
   159e8:	008b8493          	add	s1,s7,8
   159ec:	c75c                	sw	a5,12(a4)
   159ee:	c798                	sw	a4,8(a5)
   159f0:	04c6e463          	bltu	a3,a2,15a38 <_realloc_r+0x32c>
   159f4:	474d                	li	a4,19
   159f6:	87a6                	mv	a5,s1
   159f8:	fac77be3          	bgeu	a4,a2,159ae <_realloc_r+0x2a2>
   159fc:	4018                	lw	a4,0(s0)
   159fe:	47ed                	li	a5,27
   15a00:	00eba423          	sw	a4,8(s7)
   15a04:	4058                	lw	a4,4(s0)
   15a06:	00eba623          	sw	a4,12(s7)
   15a0a:	06c7fc63          	bgeu	a5,a2,15a82 <_realloc_r+0x376>
   15a0e:	4418                	lw	a4,8(s0)
   15a10:	02400793          	li	a5,36
   15a14:	00eba823          	sw	a4,16(s7)
   15a18:	4458                	lw	a4,12(s0)
   15a1a:	00ebaa23          	sw	a4,20(s7)
   15a1e:	f8f615e3          	bne	a2,a5,159a8 <_realloc_r+0x29c>
   15a22:	4818                	lw	a4,16(s0)
   15a24:	020b8793          	add	a5,s7,32
   15a28:	0461                	add	s0,s0,24
   15a2a:	00ebac23          	sw	a4,24(s7)
   15a2e:	ffc42703          	lw	a4,-4(s0)
   15a32:	00ebae23          	sw	a4,28(s7)
   15a36:	bfa5                	j	159ae <_realloc_r+0x2a2>
   15a38:	85a2                	mv	a1,s0
   15a3a:	8526                	mv	a0,s1
   15a3c:	636010ef          	jal	17072 <memmove>
   15a40:	bfad                	j	159ba <_realloc_r+0x2ae>
   15a42:	4418                	lw	a4,8(s0)
   15a44:	c518                	sw	a4,8(a0)
   15a46:	4458                	lw	a4,12(s0)
   15a48:	c558                	sw	a4,12(a0)
   15a4a:	04f60563          	beq	a2,a5,15a94 <_realloc_r+0x388>
   15a4e:	01040713          	add	a4,s0,16
   15a52:	01050793          	add	a5,a0,16
   15a56:	b359                	j	157dc <_realloc_r+0xd0>
   15a58:	9ad2                	add	s5,s5,s4
   15a5a:	414687b3          	sub	a5,a3,s4
   15a5e:	015c2423          	sw	s5,8(s8)
   15a62:	0017e793          	or	a5,a5,1
   15a66:	00faa223          	sw	a5,4(s5)
   15a6a:	ffc42783          	lw	a5,-4(s0)
   15a6e:	854a                	mv	a0,s2
   15a70:	84a2                	mv	s1,s0
   15a72:	8b85                	and	a5,a5,1
   15a74:	0147e7b3          	or	a5,a5,s4
   15a78:	fef42e23          	sw	a5,-4(s0)
   15a7c:	2ce5                	jal	15d74 <__malloc_unlock>
   15a7e:	4c22                	lw	s8,8(sp)
   15a80:	bb7d                	j	1583e <_realloc_r+0x132>
   15a82:	0421                	add	s0,s0,8
   15a84:	010b8793          	add	a5,s7,16
   15a88:	b71d                	j	159ae <_realloc_r+0x2a2>
   15a8a:	854a                	mv	a0,s2
   15a8c:	24e5                	jal	15d74 <__malloc_unlock>
   15a8e:	4481                	li	s1,0
   15a90:	4c22                	lw	s8,8(sp)
   15a92:	b375                	j	1583e <_realloc_r+0x132>
   15a94:	4814                	lw	a3,16(s0)
   15a96:	01840713          	add	a4,s0,24
   15a9a:	01850793          	add	a5,a0,24
   15a9e:	c914                	sw	a3,16(a0)
   15aa0:	4854                	lw	a3,20(s0)
   15aa2:	c954                	sw	a3,20(a0)
   15aa4:	bb25                	j	157dc <_realloc_r+0xd0>
   15aa6:	85a2                	mv	a1,s0
   15aa8:	8526                	mv	a0,s1
   15aaa:	5c8010ef          	jal	17072 <memmove>
   15aae:	b595                	j	15912 <_realloc_r+0x206>
   15ab0:	441c                	lw	a5,8(s0)
   15ab2:	00fba823          	sw	a5,16(s7)
   15ab6:	445c                	lw	a5,12(s0)
   15ab8:	00fbaa23          	sw	a5,20(s7)
   15abc:	00d60663          	beq	a2,a3,15ac8 <_realloc_r+0x3bc>
   15ac0:	0441                	add	s0,s0,16
   15ac2:	018b8793          	add	a5,s7,24
   15ac6:	b581                	j	15906 <_realloc_r+0x1fa>
   15ac8:	4818                	lw	a4,16(s0)
   15aca:	020b8793          	add	a5,s7,32
   15ace:	00ebac23          	sw	a4,24(s7)
   15ad2:	4858                	lw	a4,20(s0)
   15ad4:	0461                	add	s0,s0,24
   15ad6:	00ebae23          	sw	a4,28(s7)
   15ada:	b535                	j	15906 <_realloc_r+0x1fa>

00015adc <__sflush_r>:
   15adc:	00c59703          	lh	a4,12(a1)
   15ae0:	1101                	add	sp,sp,-32
   15ae2:	cc22                	sw	s0,24(sp)
   15ae4:	c64e                	sw	s3,12(sp)
   15ae6:	ce06                	sw	ra,28(sp)
   15ae8:	00877793          	and	a5,a4,8
   15aec:	842e                	mv	s0,a1
   15aee:	89aa                	mv	s3,a0
   15af0:	e7e1                	bnez	a5,15bb8 <__sflush_r+0xdc>
   15af2:	6785                	lui	a5,0x1
   15af4:	80078793          	add	a5,a5,-2048 # 800 <register_fini-0xf894>
   15af8:	41d4                	lw	a3,4(a1)
   15afa:	8fd9                	or	a5,a5,a4
   15afc:	00f59623          	sh	a5,12(a1)
   15b00:	10d05563          	blez	a3,15c0a <__sflush_r+0x12e>
   15b04:	02842803          	lw	a6,40(s0)
   15b08:	0a080263          	beqz	a6,15bac <__sflush_r+0xd0>
   15b0c:	ca26                	sw	s1,20(sp)
   15b0e:	01371693          	sll	a3,a4,0x13
   15b12:	0009a483          	lw	s1,0(s3)
   15b16:	0009a023          	sw	zero,0(s3)
   15b1a:	4c4c                	lw	a1,28(s0)
   15b1c:	0e06ce63          	bltz	a3,15c18 <__sflush_r+0x13c>
   15b20:	4601                	li	a2,0
   15b22:	4685                	li	a3,1
   15b24:	854e                	mv	a0,s3
   15b26:	9802                	jalr	a6
   15b28:	57fd                	li	a5,-1
   15b2a:	862a                	mv	a2,a0
   15b2c:	10f50f63          	beq	a0,a5,15c4a <__sflush_r+0x16e>
   15b30:	00c41783          	lh	a5,12(s0)
   15b34:	02842803          	lw	a6,40(s0)
   15b38:	4c4c                	lw	a1,28(s0)
   15b3a:	8b91                	and	a5,a5,4
   15b3c:	c799                	beqz	a5,15b4a <__sflush_r+0x6e>
   15b3e:	4058                	lw	a4,4(s0)
   15b40:	581c                	lw	a5,48(s0)
   15b42:	8e19                	sub	a2,a2,a4
   15b44:	c399                	beqz	a5,15b4a <__sflush_r+0x6e>
   15b46:	5c5c                	lw	a5,60(s0)
   15b48:	8e1d                	sub	a2,a2,a5
   15b4a:	4681                	li	a3,0
   15b4c:	854e                	mv	a0,s3
   15b4e:	9802                	jalr	a6
   15b50:	57fd                	li	a5,-1
   15b52:	0cf51563          	bne	a0,a5,15c1c <__sflush_r+0x140>
   15b56:	0009a683          	lw	a3,0(s3)
   15b5a:	47f5                	li	a5,29
   15b5c:	00c41703          	lh	a4,12(s0)
   15b60:	10d7e163          	bltu	a5,a3,15c62 <__sflush_r+0x186>
   15b64:	204007b7          	lui	a5,0x20400
   15b68:	0785                	add	a5,a5,1 # 20400001 <__BSS_END__+0x203e14dd>
   15b6a:	00d7d7b3          	srl	a5,a5,a3
   15b6e:	8b85                	and	a5,a5,1
   15b70:	cbed                	beqz	a5,15c62 <__sflush_r+0x186>
   15b72:	4810                	lw	a2,16(s0)
   15b74:	77fd                	lui	a5,0xfffff
   15b76:	7ff78793          	add	a5,a5,2047 # fffff7ff <__BSS_END__+0xfffe0cdb>
   15b7a:	8ff9                	and	a5,a5,a4
   15b7c:	00f41623          	sh	a5,12(s0)
   15b80:	00042223          	sw	zero,4(s0)
   15b84:	c010                	sw	a2,0(s0)
   15b86:	01371793          	sll	a5,a4,0x13
   15b8a:	0007d363          	bgez	a5,15b90 <__sflush_r+0xb4>
   15b8e:	c6dd                	beqz	a3,15c3c <__sflush_r+0x160>
   15b90:	580c                	lw	a1,48(s0)
   15b92:	0099a023          	sw	s1,0(s3)
   15b96:	c9c5                	beqz	a1,15c46 <__sflush_r+0x16a>
   15b98:	04040793          	add	a5,s0,64
   15b9c:	00f58563          	beq	a1,a5,15ba6 <__sflush_r+0xca>
   15ba0:	854e                	mv	a0,s3
   15ba2:	e7cfd0ef          	jal	1321e <_free_r>
   15ba6:	44d2                	lw	s1,20(sp)
   15ba8:	02042823          	sw	zero,48(s0)
   15bac:	4501                	li	a0,0
   15bae:	40f2                	lw	ra,28(sp)
   15bb0:	4462                	lw	s0,24(sp)
   15bb2:	49b2                	lw	s3,12(sp)
   15bb4:	6105                	add	sp,sp,32
   15bb6:	8082                	ret
   15bb8:	c84a                	sw	s2,16(sp)
   15bba:	0105a903          	lw	s2,16(a1)
   15bbe:	04090b63          	beqz	s2,15c14 <__sflush_r+0x138>
   15bc2:	ca26                	sw	s1,20(sp)
   15bc4:	4184                	lw	s1,0(a1)
   15bc6:	8b0d                	and	a4,a4,3
   15bc8:	0125a023          	sw	s2,0(a1)
   15bcc:	412484b3          	sub	s1,s1,s2
   15bd0:	4781                	li	a5,0
   15bd2:	e311                	bnez	a4,15bd6 <__sflush_r+0xfa>
   15bd4:	49dc                	lw	a5,20(a1)
   15bd6:	c41c                	sw	a5,8(s0)
   15bd8:	00904663          	bgtz	s1,15be4 <__sflush_r+0x108>
   15bdc:	a81d                	j	15c12 <__sflush_r+0x136>
   15bde:	992a                	add	s2,s2,a0
   15be0:	02905963          	blez	s1,15c12 <__sflush_r+0x136>
   15be4:	505c                	lw	a5,36(s0)
   15be6:	4c4c                	lw	a1,28(s0)
   15be8:	86a6                	mv	a3,s1
   15bea:	864a                	mv	a2,s2
   15bec:	854e                	mv	a0,s3
   15bee:	9782                	jalr	a5
   15bf0:	8c89                	sub	s1,s1,a0
   15bf2:	fea046e3          	bgtz	a0,15bde <__sflush_r+0x102>
   15bf6:	00c41703          	lh	a4,12(s0)
   15bfa:	4942                	lw	s2,16(sp)
   15bfc:	04076713          	or	a4,a4,64
   15c00:	44d2                	lw	s1,20(sp)
   15c02:	00e41623          	sh	a4,12(s0)
   15c06:	557d                	li	a0,-1
   15c08:	b75d                	j	15bae <__sflush_r+0xd2>
   15c0a:	5dd4                	lw	a3,60(a1)
   15c0c:	eed04ce3          	bgtz	a3,15b04 <__sflush_r+0x28>
   15c10:	bf71                	j	15bac <__sflush_r+0xd0>
   15c12:	44d2                	lw	s1,20(sp)
   15c14:	4942                	lw	s2,16(sp)
   15c16:	bf59                	j	15bac <__sflush_r+0xd0>
   15c18:	4830                	lw	a2,80(s0)
   15c1a:	b705                	j	15b3a <__sflush_r+0x5e>
   15c1c:	00c41703          	lh	a4,12(s0)
   15c20:	4814                	lw	a3,16(s0)
   15c22:	77fd                	lui	a5,0xfffff
   15c24:	7ff78793          	add	a5,a5,2047 # fffff7ff <__BSS_END__+0xfffe0cdb>
   15c28:	8ff9                	and	a5,a5,a4
   15c2a:	00f41623          	sh	a5,12(s0)
   15c2e:	00042223          	sw	zero,4(s0)
   15c32:	c014                	sw	a3,0(s0)
   15c34:	01371793          	sll	a5,a4,0x13
   15c38:	f407dce3          	bgez	a5,15b90 <__sflush_r+0xb4>
   15c3c:	580c                	lw	a1,48(s0)
   15c3e:	c828                	sw	a0,80(s0)
   15c40:	0099a023          	sw	s1,0(s3)
   15c44:	f9b1                	bnez	a1,15b98 <__sflush_r+0xbc>
   15c46:	44d2                	lw	s1,20(sp)
   15c48:	b795                	j	15bac <__sflush_r+0xd0>
   15c4a:	0009a783          	lw	a5,0(s3)
   15c4e:	ee0781e3          	beqz	a5,15b30 <__sflush_r+0x54>
   15c52:	4775                	li	a4,29
   15c54:	00e78a63          	beq	a5,a4,15c68 <__sflush_r+0x18c>
   15c58:	4759                	li	a4,22
   15c5a:	00e78763          	beq	a5,a4,15c68 <__sflush_r+0x18c>
   15c5e:	00c41703          	lh	a4,12(s0)
   15c62:	04076713          	or	a4,a4,64
   15c66:	bf69                	j	15c00 <__sflush_r+0x124>
   15c68:	0099a023          	sw	s1,0(s3)
   15c6c:	44d2                	lw	s1,20(sp)
   15c6e:	bf3d                	j	15bac <__sflush_r+0xd0>

00015c70 <_fflush_r>:
   15c70:	1101                	add	sp,sp,-32
   15c72:	cc22                	sw	s0,24(sp)
   15c74:	ce06                	sw	ra,28(sp)
   15c76:	842a                	mv	s0,a0
   15c78:	c119                	beqz	a0,15c7e <_fflush_r+0xe>
   15c7a:	595c                	lw	a5,52(a0)
   15c7c:	cf91                	beqz	a5,15c98 <_fflush_r+0x28>
   15c7e:	00c59783          	lh	a5,12(a1)
   15c82:	e791                	bnez	a5,15c8e <_fflush_r+0x1e>
   15c84:	40f2                	lw	ra,28(sp)
   15c86:	4462                	lw	s0,24(sp)
   15c88:	4501                	li	a0,0
   15c8a:	6105                	add	sp,sp,32
   15c8c:	8082                	ret
   15c8e:	8522                	mv	a0,s0
   15c90:	4462                	lw	s0,24(sp)
   15c92:	40f2                	lw	ra,28(sp)
   15c94:	6105                	add	sp,sp,32
   15c96:	b599                	j	15adc <__sflush_r>
   15c98:	c62e                	sw	a1,12(sp)
   15c9a:	e21fc0ef          	jal	12aba <__sinit>
   15c9e:	45b2                	lw	a1,12(sp)
   15ca0:	bff9                	j	15c7e <_fflush_r+0xe>

00015ca2 <fflush>:
   15ca2:	cd05                	beqz	a0,15cda <fflush+0x38>
   15ca4:	85aa                	mv	a1,a0
   15ca6:	fdc1a503          	lw	a0,-36(gp) # 1e7ec <_impure_ptr>
   15caa:	c119                	beqz	a0,15cb0 <fflush+0xe>
   15cac:	595c                	lw	a5,52(a0)
   15cae:	c799                	beqz	a5,15cbc <fflush+0x1a>
   15cb0:	00c59783          	lh	a5,12(a1)
   15cb4:	e399                	bnez	a5,15cba <fflush+0x18>
   15cb6:	4501                	li	a0,0
   15cb8:	8082                	ret
   15cba:	b50d                	j	15adc <__sflush_r>
   15cbc:	1101                	add	sp,sp,-32
   15cbe:	c62e                	sw	a1,12(sp)
   15cc0:	c42a                	sw	a0,8(sp)
   15cc2:	ce06                	sw	ra,28(sp)
   15cc4:	df7fc0ef          	jal	12aba <__sinit>
   15cc8:	45b2                	lw	a1,12(sp)
   15cca:	4522                	lw	a0,8(sp)
   15ccc:	00c59783          	lh	a5,12(a1)
   15cd0:	e38d                	bnez	a5,15cf2 <fflush+0x50>
   15cd2:	40f2                	lw	ra,28(sp)
   15cd4:	4501                	li	a0,0
   15cd6:	6105                	add	sp,sp,32
   15cd8:	8082                	ret
   15cda:	92018613          	add	a2,gp,-1760 # 1e130 <__sglue>
   15cde:	00000597          	auipc	a1,0x0
   15ce2:	f9258593          	add	a1,a1,-110 # 15c70 <_fflush_r>
   15ce6:	00008517          	auipc	a0,0x8
   15cea:	32a50513          	add	a0,a0,810 # 1e010 <_impure_data>
   15cee:	9adff06f          	j	1569a <_fwalk_sglue>
   15cf2:	40f2                	lw	ra,28(sp)
   15cf4:	6105                	add	sp,sp,32
   15cf6:	b3dd                	j	15adc <__sflush_r>

00015cf8 <strncpy>:
   15cf8:	00a5e7b3          	or	a5,a1,a0
   15cfc:	8b8d                	and	a5,a5,3
   15cfe:	e781                	bnez	a5,15d06 <strncpy+0xe>
   15d00:	478d                	li	a5,3
   15d02:	02c7eb63          	bltu	a5,a2,15d38 <strncpy+0x40>
   15d06:	872a                	mv	a4,a0
   15d08:	a811                	j	15d1c <strncpy+0x24>
   15d0a:	fff5c683          	lbu	a3,-1(a1)
   15d0e:	fff60813          	add	a6,a2,-1
   15d12:	fed78fa3          	sb	a3,-1(a5)
   15d16:	ca81                	beqz	a3,15d26 <strncpy+0x2e>
   15d18:	873e                	mv	a4,a5
   15d1a:	8642                	mv	a2,a6
   15d1c:	0585                	add	a1,a1,1
   15d1e:	00170793          	add	a5,a4,1
   15d22:	f665                	bnez	a2,15d0a <strncpy+0x12>
   15d24:	8082                	ret
   15d26:	9732                	add	a4,a4,a2
   15d28:	04080463          	beqz	a6,15d70 <strncpy+0x78>
   15d2c:	0785                	add	a5,a5,1
   15d2e:	fe078fa3          	sb	zero,-1(a5)
   15d32:	fee79de3          	bne	a5,a4,15d2c <strncpy+0x34>
   15d36:	8082                	ret
   15d38:	feff0337          	lui	t1,0xfeff0
   15d3c:	808088b7          	lui	a7,0x80808
   15d40:	872a                	mv	a4,a0
   15d42:	eff30313          	add	t1,t1,-257 # fefefeff <__BSS_END__+0xfefd13db>
   15d46:	08088893          	add	a7,a7,128 # 80808080 <__BSS_END__+0x807e955c>
   15d4a:	4e0d                	li	t3,3
   15d4c:	a039                	j	15d5a <strncpy+0x62>
   15d4e:	c314                	sw	a3,0(a4)
   15d50:	1671                	add	a2,a2,-4
   15d52:	0711                	add	a4,a4,4
   15d54:	0591                	add	a1,a1,4
   15d56:	fcce73e3          	bgeu	t3,a2,15d1c <strncpy+0x24>
   15d5a:	4194                	lw	a3,0(a1)
   15d5c:	006687b3          	add	a5,a3,t1
   15d60:	fff6c813          	not	a6,a3
   15d64:	0107f7b3          	and	a5,a5,a6
   15d68:	0117f7b3          	and	a5,a5,a7
   15d6c:	d3ed                	beqz	a5,15d4e <strncpy+0x56>
   15d6e:	b77d                	j	15d1c <strncpy+0x24>
   15d70:	8082                	ret

00015d72 <__malloc_lock>:
   15d72:	8082                	ret

00015d74 <__malloc_unlock>:
   15d74:	8082                	ret

00015d76 <atexit>:
   15d76:	85aa                	mv	a1,a0
   15d78:	4681                	li	a3,0
   15d7a:	4601                	li	a2,0
   15d7c:	4501                	li	a0,0
   15d7e:	5300106f          	j	172ae <__register_exitproc>

00015d82 <__rv_alloc_D2A>:
   15d82:	1141                	add	sp,sp,-16
   15d84:	c422                	sw	s0,8(sp)
   15d86:	c606                	sw	ra,12(sp)
   15d88:	47cd                	li	a5,19
   15d8a:	4401                	li	s0,0
   15d8c:	00b7f963          	bgeu	a5,a1,15d9e <__rv_alloc_D2A+0x1c>
   15d90:	4791                	li	a5,4
   15d92:	0786                	sll	a5,a5,0x1
   15d94:	01078713          	add	a4,a5,16
   15d98:	0405                	add	s0,s0,1
   15d9a:	fee5fce3          	bgeu	a1,a4,15d92 <__rv_alloc_D2A+0x10>
   15d9e:	85a2                	mv	a1,s0
   15da0:	2ccd                	jal	16092 <_Balloc>
   15da2:	c119                	beqz	a0,15da8 <__rv_alloc_D2A+0x26>
   15da4:	c100                	sw	s0,0(a0)
   15da6:	0511                	add	a0,a0,4
   15da8:	40b2                	lw	ra,12(sp)
   15daa:	4422                	lw	s0,8(sp)
   15dac:	0141                	add	sp,sp,16
   15dae:	8082                	ret

00015db0 <__nrv_alloc_D2A>:
   15db0:	1141                	add	sp,sp,-16
   15db2:	c422                	sw	s0,8(sp)
   15db4:	c04a                	sw	s2,0(sp)
   15db6:	c606                	sw	ra,12(sp)
   15db8:	c226                	sw	s1,4(sp)
   15dba:	47cd                	li	a5,19
   15dbc:	842e                	mv	s0,a1
   15dbe:	8932                	mv	s2,a2
   15dc0:	04d7f963          	bgeu	a5,a3,15e12 <__nrv_alloc_D2A+0x62>
   15dc4:	4791                	li	a5,4
   15dc6:	4481                	li	s1,0
   15dc8:	0786                	sll	a5,a5,0x1
   15dca:	01078713          	add	a4,a5,16
   15dce:	0485                	add	s1,s1,1
   15dd0:	fee6fce3          	bgeu	a3,a4,15dc8 <__nrv_alloc_D2A+0x18>
   15dd4:	85a6                	mv	a1,s1
   15dd6:	2c75                	jal	16092 <_Balloc>
   15dd8:	87aa                	mv	a5,a0
   15dda:	cd15                	beqz	a0,15e16 <__nrv_alloc_D2A+0x66>
   15ddc:	c104                	sw	s1,0(a0)
   15dde:	00044703          	lbu	a4,0(s0)
   15de2:	0511                	add	a0,a0,4
   15de4:	00140593          	add	a1,s0,1
   15de8:	00e78223          	sb	a4,4(a5)
   15dec:	87aa                	mv	a5,a0
   15dee:	cb01                	beqz	a4,15dfe <__nrv_alloc_D2A+0x4e>
   15df0:	0005c703          	lbu	a4,0(a1)
   15df4:	0785                	add	a5,a5,1
   15df6:	0585                	add	a1,a1,1
   15df8:	00e78023          	sb	a4,0(a5)
   15dfc:	fb75                	bnez	a4,15df0 <__nrv_alloc_D2A+0x40>
   15dfe:	00090463          	beqz	s2,15e06 <__nrv_alloc_D2A+0x56>
   15e02:	00f92023          	sw	a5,0(s2)
   15e06:	40b2                	lw	ra,12(sp)
   15e08:	4422                	lw	s0,8(sp)
   15e0a:	4492                	lw	s1,4(sp)
   15e0c:	4902                	lw	s2,0(sp)
   15e0e:	0141                	add	sp,sp,16
   15e10:	8082                	ret
   15e12:	4481                	li	s1,0
   15e14:	b7c1                	j	15dd4 <__nrv_alloc_D2A+0x24>
   15e16:	4501                	li	a0,0
   15e18:	b7fd                	j	15e06 <__nrv_alloc_D2A+0x56>

00015e1a <__freedtoa>:
   15e1a:	ffc5a683          	lw	a3,-4(a1)
   15e1e:	4705                	li	a4,1
   15e20:	87ae                	mv	a5,a1
   15e22:	00d71733          	sll	a4,a4,a3
   15e26:	15f1                	add	a1,a1,-4
   15e28:	c394                	sw	a3,0(a5)
   15e2a:	c3d8                	sw	a4,4(a5)
   15e2c:	acc9                	j	160fe <_Bfree>

00015e2e <__quorem_D2A>:
   15e2e:	1101                	add	sp,sp,-32
   15e30:	ca26                	sw	s1,20(sp)
   15e32:	491c                	lw	a5,16(a0)
   15e34:	4984                	lw	s1,16(a1)
   15e36:	ce06                	sw	ra,28(sp)
   15e38:	1497c163          	blt	a5,s1,15f7a <__quorem_D2A+0x14c>
   15e3c:	14fd                	add	s1,s1,-1
   15e3e:	00249313          	sll	t1,s1,0x2
   15e42:	cc22                	sw	s0,24(sp)
   15e44:	01458413          	add	s0,a1,20
   15e48:	c64e                	sw	s3,12(sp)
   15e4a:	c452                	sw	s4,8(sp)
   15e4c:	006409b3          	add	s3,s0,t1
   15e50:	01450a13          	add	s4,a0,20
   15e54:	0009a783          	lw	a5,0(s3)
   15e58:	9352                	add	t1,t1,s4
   15e5a:	00032703          	lw	a4,0(t1)
   15e5e:	c84a                	sw	s2,16(sp)
   15e60:	c256                	sw	s5,4(sp)
   15e62:	0785                	add	a5,a5,1
   15e64:	02f75933          	divu	s2,a4,a5
   15e68:	8aaa                	mv	s5,a0
   15e6a:	08f76663          	bltu	a4,a5,15ef6 <__quorem_D2A+0xc8>
   15e6e:	6541                	lui	a0,0x10
   15e70:	88a2                	mv	a7,s0
   15e72:	8852                	mv	a6,s4
   15e74:	4f01                	li	t5,0
   15e76:	4e81                	li	t4,0
   15e78:	157d                	add	a0,a0,-1 # ffff <register_fini-0x95>
   15e7a:	0008a783          	lw	a5,0(a7)
   15e7e:	00082603          	lw	a2,0(a6)
   15e82:	0811                	add	a6,a6,4
   15e84:	00a7f6b3          	and	a3,a5,a0
   15e88:	83c1                	srl	a5,a5,0x10
   15e8a:	00a67733          	and	a4,a2,a0
   15e8e:	01065e13          	srl	t3,a2,0x10
   15e92:	0891                	add	a7,a7,4
   15e94:	032686b3          	mul	a3,a3,s2
   15e98:	032787b3          	mul	a5,a5,s2
   15e9c:	96fa                	add	a3,a3,t5
   15e9e:	00a6f633          	and	a2,a3,a0
   15ea2:	8f11                	sub	a4,a4,a2
   15ea4:	41d70733          	sub	a4,a4,t4
   15ea8:	82c1                	srl	a3,a3,0x10
   15eaa:	01075613          	srl	a2,a4,0x10
   15eae:	8a05                	and	a2,a2,1
   15eb0:	8f69                	and	a4,a4,a0
   15eb2:	97b6                	add	a5,a5,a3
   15eb4:	00a7f6b3          	and	a3,a5,a0
   15eb8:	9636                	add	a2,a2,a3
   15eba:	40ce06b3          	sub	a3,t3,a2
   15ebe:	01069613          	sll	a2,a3,0x10
   15ec2:	8f51                	or	a4,a4,a2
   15ec4:	82c1                	srl	a3,a3,0x10
   15ec6:	fee82e23          	sw	a4,-4(a6)
   15eca:	0107df13          	srl	t5,a5,0x10
   15ece:	0016fe93          	and	t4,a3,1
   15ed2:	fb19f4e3          	bgeu	s3,a7,15e7a <__quorem_D2A+0x4c>
   15ed6:	00032783          	lw	a5,0(t1)
   15eda:	ef91                	bnez	a5,15ef6 <__quorem_D2A+0xc8>
   15edc:	1371                	add	t1,t1,-4
   15ede:	006a6663          	bltu	s4,t1,15eea <__quorem_D2A+0xbc>
   15ee2:	a801                	j	15ef2 <__quorem_D2A+0xc4>
   15ee4:	14fd                	add	s1,s1,-1
   15ee6:	006a7663          	bgeu	s4,t1,15ef2 <__quorem_D2A+0xc4>
   15eea:	00032783          	lw	a5,0(t1)
   15eee:	1371                	add	t1,t1,-4
   15ef0:	dbf5                	beqz	a5,15ee4 <__quorem_D2A+0xb6>
   15ef2:	009aa823          	sw	s1,16(s5)
   15ef6:	8556                	mv	a0,s5
   15ef8:	089000ef          	jal	16780 <__mcmp>
   15efc:	06054563          	bltz	a0,15f66 <__quorem_D2A+0x138>
   15f00:	6541                	lui	a0,0x10
   15f02:	85d2                	mv	a1,s4
   15f04:	4681                	li	a3,0
   15f06:	157d                	add	a0,a0,-1 # ffff <register_fini-0x95>
   15f08:	419c                	lw	a5,0(a1)
   15f0a:	4010                	lw	a2,0(s0)
   15f0c:	0591                	add	a1,a1,4
   15f0e:	00a7f733          	and	a4,a5,a0
   15f12:	00a67833          	and	a6,a2,a0
   15f16:	41070733          	sub	a4,a4,a6
   15f1a:	8f15                	sub	a4,a4,a3
   15f1c:	01075693          	srl	a3,a4,0x10
   15f20:	8a85                	and	a3,a3,1
   15f22:	8241                	srl	a2,a2,0x10
   15f24:	96b2                	add	a3,a3,a2
   15f26:	83c1                	srl	a5,a5,0x10
   15f28:	8f95                	sub	a5,a5,a3
   15f2a:	01079693          	sll	a3,a5,0x10
   15f2e:	8f69                	and	a4,a4,a0
   15f30:	8f55                	or	a4,a4,a3
   15f32:	83c1                	srl	a5,a5,0x10
   15f34:	0411                	add	s0,s0,4
   15f36:	fee5ae23          	sw	a4,-4(a1)
   15f3a:	0017f693          	and	a3,a5,1
   15f3e:	fc89f5e3          	bgeu	s3,s0,15f08 <__quorem_D2A+0xda>
   15f42:	00249793          	sll	a5,s1,0x2
   15f46:	97d2                	add	a5,a5,s4
   15f48:	4398                	lw	a4,0(a5)
   15f4a:	ef09                	bnez	a4,15f64 <__quorem_D2A+0x136>
   15f4c:	17f1                	add	a5,a5,-4
   15f4e:	00fa6663          	bltu	s4,a5,15f5a <__quorem_D2A+0x12c>
   15f52:	a039                	j	15f60 <__quorem_D2A+0x132>
   15f54:	14fd                	add	s1,s1,-1
   15f56:	00fa7563          	bgeu	s4,a5,15f60 <__quorem_D2A+0x132>
   15f5a:	4398                	lw	a4,0(a5)
   15f5c:	17f1                	add	a5,a5,-4
   15f5e:	db7d                	beqz	a4,15f54 <__quorem_D2A+0x126>
   15f60:	009aa823          	sw	s1,16(s5)
   15f64:	0905                	add	s2,s2,1
   15f66:	4462                	lw	s0,24(sp)
   15f68:	40f2                	lw	ra,28(sp)
   15f6a:	49b2                	lw	s3,12(sp)
   15f6c:	4a22                	lw	s4,8(sp)
   15f6e:	4a92                	lw	s5,4(sp)
   15f70:	44d2                	lw	s1,20(sp)
   15f72:	854a                	mv	a0,s2
   15f74:	4942                	lw	s2,16(sp)
   15f76:	6105                	add	sp,sp,32
   15f78:	8082                	ret
   15f7a:	40f2                	lw	ra,28(sp)
   15f7c:	44d2                	lw	s1,20(sp)
   15f7e:	4501                	li	a0,0
   15f80:	6105                	add	sp,sp,32
   15f82:	8082                	ret

00015f84 <frexpl>:
   15f84:	7159                	add	sp,sp,-112
   15f86:	d0ca                	sw	s2,96(sp)
   15f88:	00c5a903          	lw	s2,12(a1)
   15f8c:	ccd2                	sw	s4,88(sp)
   15f8e:	cad6                	sw	s5,84(sp)
   15f90:	c8da                	sw	s6,80(sp)
   15f92:	0045aa83          	lw	s5,4(a1)
   15f96:	0005ab03          	lw	s6,0(a1)
   15f9a:	0085aa03          	lw	s4,8(a1)
   15f9e:	cece                	sw	s3,92(sp)
   15fa0:	69a1                	lui	s3,0x8
   15fa2:	d4a2                	sw	s0,104(sp)
   15fa4:	d2a6                	sw	s1,100(sp)
   15fa6:	d686                	sw	ra,108(sp)
   15fa8:	01095493          	srl	s1,s2,0x10
   15fac:	19fd                	add	s3,s3,-1 # 7fff <register_fini-0x8095>
   15fae:	d85a                	sw	s6,48(sp)
   15fb0:	da56                	sw	s5,52(sp)
   15fb2:	dc52                	sw	s4,56(sp)
   15fb4:	de4a                	sw	s2,60(sp)
   15fb6:	0134f4b3          	and	s1,s1,s3
   15fba:	00062023          	sw	zero,0(a2)
   15fbe:	842a                	mv	s0,a0
   15fc0:	05348763          	beq	s1,s3,1600e <frexpl+0x8a>
   15fc4:	080c                	add	a1,sp,16
   15fc6:	1008                	add	a0,sp,32
   15fc8:	c6de                	sw	s7,76(sp)
   15fca:	d05a                	sw	s6,32(sp)
   15fcc:	8bb2                	mv	s7,a2
   15fce:	d256                	sw	s5,36(sp)
   15fd0:	d452                	sw	s4,40(sp)
   15fd2:	d64a                	sw	s2,44(sp)
   15fd4:	c802                	sw	zero,16(sp)
   15fd6:	ca02                	sw	zero,20(sp)
   15fd8:	cc02                	sw	zero,24(sp)
   15fda:	ce02                	sw	zero,28(sp)
   15fdc:	7cf040ef          	jal	1afaa <__eqtf2>
   15fe0:	cd51                	beqz	a0,1607c <frexpl+0xf8>
   15fe2:	4681                	li	a3,0
   15fe4:	c8a1                	beqz	s1,16034 <frexpl+0xb0>
   15fe6:	7771                	lui	a4,0xffffc
   15fe8:	0709                	add	a4,a4,2 # ffffc002 <__BSS_END__+0xfffdd4de>
   15fea:	5972                	lw	s2,60(sp)
   15fec:	94ba                	add	s1,s1,a4
   15fee:	800107b7          	lui	a5,0x80010
   15ff2:	94b6                	add	s1,s1,a3
   15ff4:	17fd                	add	a5,a5,-1 # 8000ffff <__BSS_END__+0x7fff14db>
   15ff6:	009ba023          	sw	s1,0(s7)
   15ffa:	5b42                	lw	s6,48(sp)
   15ffc:	5ad2                	lw	s5,52(sp)
   15ffe:	5a62                	lw	s4,56(sp)
   16000:	4bb6                	lw	s7,76(sp)
   16002:	00f97933          	and	s2,s2,a5
   16006:	3ffe07b7          	lui	a5,0x3ffe0
   1600a:	00f96933          	or	s2,s2,a5
   1600e:	01642023          	sw	s6,0(s0)
   16012:	01542223          	sw	s5,4(s0)
   16016:	01442423          	sw	s4,8(s0)
   1601a:	01242623          	sw	s2,12(s0)
   1601e:	50b6                	lw	ra,108(sp)
   16020:	8522                	mv	a0,s0
   16022:	5426                	lw	s0,104(sp)
   16024:	5496                	lw	s1,100(sp)
   16026:	5906                	lw	s2,96(sp)
   16028:	49f6                	lw	s3,92(sp)
   1602a:	4a66                	lw	s4,88(sp)
   1602c:	4ad6                	lw	s5,84(sp)
   1602e:	4b46                	lw	s6,80(sp)
   16030:	6165                	add	sp,sp,112
   16032:	8082                	ret
   16034:	00008797          	auipc	a5,0x8
   16038:	8fc78793          	add	a5,a5,-1796 # 1d930 <zeroes.0+0x10>
   1603c:	4390                	lw	a2,0(a5)
   1603e:	43d4                	lw	a3,4(a5)
   16040:	4798                	lw	a4,8(a5)
   16042:	47dc                	lw	a5,12(a5)
   16044:	c032                	sw	a2,0(sp)
   16046:	080c                	add	a1,sp,16
   16048:	860a                	mv	a2,sp
   1604a:	1008                	add	a0,sp,32
   1604c:	c236                	sw	a3,4(sp)
   1604e:	c43a                	sw	a4,8(sp)
   16050:	c63e                	sw	a5,12(sp)
   16052:	c85a                	sw	s6,16(sp)
   16054:	ca56                	sw	s5,20(sp)
   16056:	cc52                	sw	s4,24(sp)
   16058:	ce4a                	sw	s2,28(sp)
   1605a:	230050ef          	jal	1b28a <__multf3>
   1605e:	5702                	lw	a4,32(sp)
   16060:	57b2                	lw	a5,44(sp)
   16062:	f8e00693          	li	a3,-114
   16066:	d83a                	sw	a4,48(sp)
   16068:	5712                	lw	a4,36(sp)
   1606a:	0107d493          	srl	s1,a5,0x10
   1606e:	de3e                	sw	a5,60(sp)
   16070:	da3a                	sw	a4,52(sp)
   16072:	5722                	lw	a4,40(sp)
   16074:	0134f4b3          	and	s1,s1,s3
   16078:	dc3a                	sw	a4,56(sp)
   1607a:	b7b5                	j	15fe6 <frexpl+0x62>
   1607c:	4bb6                	lw	s7,76(sp)
   1607e:	bf41                	j	1600e <frexpl+0x8a>

00016080 <__localeconv_l>:
   16080:	0f050513          	add	a0,a0,240
   16084:	8082                	ret

00016086 <_localeconv_r>:
   16086:	e2418513          	add	a0,gp,-476 # 1e634 <__global_locale+0xf0>
   1608a:	8082                	ret

0001608c <localeconv>:
   1608c:	e2418513          	add	a0,gp,-476 # 1e634 <__global_locale+0xf0>
   16090:	8082                	ret

00016092 <_Balloc>:
   16092:	417c                	lw	a5,68(a0)
   16094:	1141                	add	sp,sp,-16
   16096:	c422                	sw	s0,8(sp)
   16098:	c226                	sw	s1,4(sp)
   1609a:	c606                	sw	ra,12(sp)
   1609c:	842a                	mv	s0,a0
   1609e:	84ae                	mv	s1,a1
   160a0:	c38d                	beqz	a5,160c2 <_Balloc+0x30>
   160a2:	00249713          	sll	a4,s1,0x2
   160a6:	97ba                	add	a5,a5,a4
   160a8:	4388                	lw	a0,0(a5)
   160aa:	c515                	beqz	a0,160d6 <_Balloc+0x44>
   160ac:	4118                	lw	a4,0(a0)
   160ae:	c398                	sw	a4,0(a5)
   160b0:	00052823          	sw	zero,16(a0)
   160b4:	00052623          	sw	zero,12(a0)
   160b8:	40b2                	lw	ra,12(sp)
   160ba:	4422                	lw	s0,8(sp)
   160bc:	4492                	lw	s1,4(sp)
   160be:	0141                	add	sp,sp,16
   160c0:	8082                	ret
   160c2:	02100613          	li	a2,33
   160c6:	4591                	li	a1,4
   160c8:	076010ef          	jal	1713e <_calloc_r>
   160cc:	c068                	sw	a0,68(s0)
   160ce:	87aa                	mv	a5,a0
   160d0:	f969                	bnez	a0,160a2 <_Balloc+0x10>
   160d2:	4501                	li	a0,0
   160d4:	b7d5                	j	160b8 <_Balloc+0x26>
   160d6:	c04a                	sw	s2,0(sp)
   160d8:	4905                	li	s2,1
   160da:	00991933          	sll	s2,s2,s1
   160de:	00590613          	add	a2,s2,5
   160e2:	060a                	sll	a2,a2,0x2
   160e4:	4585                	li	a1,1
   160e6:	8522                	mv	a0,s0
   160e8:	056010ef          	jal	1713e <_calloc_r>
   160ec:	c511                	beqz	a0,160f8 <_Balloc+0x66>
   160ee:	01252423          	sw	s2,8(a0)
   160f2:	c144                	sw	s1,4(a0)
   160f4:	4902                	lw	s2,0(sp)
   160f6:	bf6d                	j	160b0 <_Balloc+0x1e>
   160f8:	4902                	lw	s2,0(sp)
   160fa:	4501                	li	a0,0
   160fc:	bf75                	j	160b8 <_Balloc+0x26>

000160fe <_Bfree>:
   160fe:	c981                	beqz	a1,1610e <_Bfree+0x10>
   16100:	41d8                	lw	a4,4(a1)
   16102:	417c                	lw	a5,68(a0)
   16104:	070a                	sll	a4,a4,0x2
   16106:	97ba                	add	a5,a5,a4
   16108:	4398                	lw	a4,0(a5)
   1610a:	c198                	sw	a4,0(a1)
   1610c:	c38c                	sw	a1,0(a5)
   1610e:	8082                	ret

00016110 <__multadd>:
   16110:	1101                	add	sp,sp,-32
   16112:	ca26                	sw	s1,20(sp)
   16114:	4984                	lw	s1,16(a1)
   16116:	6341                	lui	t1,0x10
   16118:	cc22                	sw	s0,24(sp)
   1611a:	c84a                	sw	s2,16(sp)
   1611c:	c64e                	sw	s3,12(sp)
   1611e:	ce06                	sw	ra,28(sp)
   16120:	892e                	mv	s2,a1
   16122:	89aa                	mv	s3,a0
   16124:	8436                	mv	s0,a3
   16126:	01458813          	add	a6,a1,20
   1612a:	4881                	li	a7,0
   1612c:	137d                	add	t1,t1,-1 # ffff <register_fini-0x95>
   1612e:	00082783          	lw	a5,0(a6)
   16132:	0811                	add	a6,a6,4
   16134:	0885                	add	a7,a7,1
   16136:	0067f733          	and	a4,a5,t1
   1613a:	02c70733          	mul	a4,a4,a2
   1613e:	0107d693          	srl	a3,a5,0x10
   16142:	02c686b3          	mul	a3,a3,a2
   16146:	008707b3          	add	a5,a4,s0
   1614a:	0107d713          	srl	a4,a5,0x10
   1614e:	0067f7b3          	and	a5,a5,t1
   16152:	96ba                	add	a3,a3,a4
   16154:	01069713          	sll	a4,a3,0x10
   16158:	97ba                	add	a5,a5,a4
   1615a:	fef82e23          	sw	a5,-4(a6)
   1615e:	0106d413          	srl	s0,a3,0x10
   16162:	fc98c6e3          	blt	a7,s1,1612e <__multadd+0x1e>
   16166:	cc09                	beqz	s0,16180 <__multadd+0x70>
   16168:	00892783          	lw	a5,8(s2)
   1616c:	02f4d263          	bge	s1,a5,16190 <__multadd+0x80>
   16170:	00448793          	add	a5,s1,4
   16174:	078a                	sll	a5,a5,0x2
   16176:	97ca                	add	a5,a5,s2
   16178:	c3c0                	sw	s0,4(a5)
   1617a:	0485                	add	s1,s1,1
   1617c:	00992823          	sw	s1,16(s2)
   16180:	40f2                	lw	ra,28(sp)
   16182:	4462                	lw	s0,24(sp)
   16184:	44d2                	lw	s1,20(sp)
   16186:	49b2                	lw	s3,12(sp)
   16188:	854a                	mv	a0,s2
   1618a:	4942                	lw	s2,16(sp)
   1618c:	6105                	add	sp,sp,32
   1618e:	8082                	ret
   16190:	00492583          	lw	a1,4(s2)
   16194:	854e                	mv	a0,s3
   16196:	c452                	sw	s4,8(sp)
   16198:	0585                	add	a1,a1,1
   1619a:	3de5                	jal	16092 <_Balloc>
   1619c:	8a2a                	mv	s4,a0
   1619e:	c121                	beqz	a0,161de <__multadd+0xce>
   161a0:	01092603          	lw	a2,16(s2)
   161a4:	00c90593          	add	a1,s2,12
   161a8:	0531                	add	a0,a0,12
   161aa:	0609                	add	a2,a2,2
   161ac:	060a                	sll	a2,a2,0x2
   161ae:	4d5000ef          	jal	16e82 <memcpy>
   161b2:	00492703          	lw	a4,4(s2)
   161b6:	0449a783          	lw	a5,68(s3)
   161ba:	070a                	sll	a4,a4,0x2
   161bc:	97ba                	add	a5,a5,a4
   161be:	4398                	lw	a4,0(a5)
   161c0:	00e92023          	sw	a4,0(s2)
   161c4:	0127a023          	sw	s2,0(a5)
   161c8:	00448793          	add	a5,s1,4
   161cc:	8952                	mv	s2,s4
   161ce:	078a                	sll	a5,a5,0x2
   161d0:	97ca                	add	a5,a5,s2
   161d2:	4a22                	lw	s4,8(sp)
   161d4:	0485                	add	s1,s1,1
   161d6:	c3c0                	sw	s0,4(a5)
   161d8:	00992823          	sw	s1,16(s2)
   161dc:	b755                	j	16180 <__multadd+0x70>
   161de:	00007697          	auipc	a3,0x7
   161e2:	76268693          	add	a3,a3,1890 # 1d940 <zeroes.0+0x20>
   161e6:	4601                	li	a2,0
   161e8:	0ba00593          	li	a1,186
   161ec:	00007517          	auipc	a0,0x7
   161f0:	76850513          	add	a0,a0,1896 # 1d954 <zeroes.0+0x34>
   161f4:	1fc010ef          	jal	173f0 <__assert_func>

000161f8 <__s2b>:
   161f8:	1101                	add	sp,sp,-32
   161fa:	cc22                	sw	s0,24(sp)
   161fc:	ca26                	sw	s1,20(sp)
   161fe:	c84a                	sw	s2,16(sp)
   16200:	c64e                	sw	s3,12(sp)
   16202:	c452                	sw	s4,8(sp)
   16204:	89b6                	mv	s3,a3
   16206:	47a5                	li	a5,9
   16208:	06a1                	add	a3,a3,8
   1620a:	ce06                	sw	ra,28(sp)
   1620c:	02f6c6b3          	div	a3,a3,a5
   16210:	892a                	mv	s2,a0
   16212:	842e                	mv	s0,a1
   16214:	8a32                	mv	s4,a2
   16216:	84ba                	mv	s1,a4
   16218:	0937d263          	bge	a5,s3,1629c <__s2b+0xa4>
   1621c:	4785                	li	a5,1
   1621e:	4581                	li	a1,0
   16220:	0786                	sll	a5,a5,0x1
   16222:	0585                	add	a1,a1,1
   16224:	fed7cee3          	blt	a5,a3,16220 <__s2b+0x28>
   16228:	854a                	mv	a0,s2
   1622a:	35a5                	jal	16092 <_Balloc>
   1622c:	85aa                	mv	a1,a0
   1622e:	c92d                	beqz	a0,162a0 <__s2b+0xa8>
   16230:	4785                	li	a5,1
   16232:	c91c                	sw	a5,16(a0)
   16234:	c944                	sw	s1,20(a0)
   16236:	47a5                	li	a5,9
   16238:	0547df63          	bge	a5,s4,16296 <__s2b+0x9e>
   1623c:	c256                	sw	s5,4(sp)
   1623e:	00940a93          	add	s5,s0,9
   16242:	84d6                	mv	s1,s5
   16244:	9452                	add	s0,s0,s4
   16246:	0004c683          	lbu	a3,0(s1)
   1624a:	4629                	li	a2,10
   1624c:	854a                	mv	a0,s2
   1624e:	fd068693          	add	a3,a3,-48
   16252:	3d7d                	jal	16110 <__multadd>
   16254:	0485                	add	s1,s1,1
   16256:	85aa                	mv	a1,a0
   16258:	fe8497e3          	bne	s1,s0,16246 <__s2b+0x4e>
   1625c:	ff8a0413          	add	s0,s4,-8
   16260:	9456                	add	s0,s0,s5
   16262:	4a92                	lw	s5,4(sp)
   16264:	033a5063          	bge	s4,s3,16284 <__s2b+0x8c>
   16268:	414989b3          	sub	s3,s3,s4
   1626c:	99a2                	add	s3,s3,s0
   1626e:	00044683          	lbu	a3,0(s0)
   16272:	4629                	li	a2,10
   16274:	854a                	mv	a0,s2
   16276:	fd068693          	add	a3,a3,-48
   1627a:	3d59                	jal	16110 <__multadd>
   1627c:	0405                	add	s0,s0,1
   1627e:	85aa                	mv	a1,a0
   16280:	ff3417e3          	bne	s0,s3,1626e <__s2b+0x76>
   16284:	40f2                	lw	ra,28(sp)
   16286:	4462                	lw	s0,24(sp)
   16288:	44d2                	lw	s1,20(sp)
   1628a:	4942                	lw	s2,16(sp)
   1628c:	49b2                	lw	s3,12(sp)
   1628e:	4a22                	lw	s4,8(sp)
   16290:	852e                	mv	a0,a1
   16292:	6105                	add	sp,sp,32
   16294:	8082                	ret
   16296:	0429                	add	s0,s0,10
   16298:	4a25                	li	s4,9
   1629a:	b7e9                	j	16264 <__s2b+0x6c>
   1629c:	4581                	li	a1,0
   1629e:	b769                	j	16228 <__s2b+0x30>
   162a0:	00007697          	auipc	a3,0x7
   162a4:	6a068693          	add	a3,a3,1696 # 1d940 <zeroes.0+0x20>
   162a8:	4601                	li	a2,0
   162aa:	0d300593          	li	a1,211
   162ae:	00007517          	auipc	a0,0x7
   162b2:	6a650513          	add	a0,a0,1702 # 1d954 <zeroes.0+0x34>
   162b6:	c256                	sw	s5,4(sp)
   162b8:	138010ef          	jal	173f0 <__assert_func>

000162bc <__hi0bits>:
   162bc:	87aa                	mv	a5,a0
   162be:	6741                	lui	a4,0x10
   162c0:	4501                	li	a0,0
   162c2:	00e7f463          	bgeu	a5,a4,162ca <__hi0bits+0xe>
   162c6:	07c2                	sll	a5,a5,0x10
   162c8:	4541                	li	a0,16
   162ca:	01000737          	lui	a4,0x1000
   162ce:	00e7f463          	bgeu	a5,a4,162d6 <__hi0bits+0x1a>
   162d2:	0521                	add	a0,a0,8
   162d4:	07a2                	sll	a5,a5,0x8
   162d6:	10000737          	lui	a4,0x10000
   162da:	00e7f463          	bgeu	a5,a4,162e2 <__hi0bits+0x26>
   162de:	0511                	add	a0,a0,4
   162e0:	0792                	sll	a5,a5,0x4
   162e2:	40000737          	lui	a4,0x40000
   162e6:	00e7e763          	bltu	a5,a4,162f4 <__hi0bits+0x38>
   162ea:	fff7c793          	not	a5,a5
   162ee:	83fd                	srl	a5,a5,0x1f
   162f0:	953e                	add	a0,a0,a5
   162f2:	8082                	ret
   162f4:	078a                	sll	a5,a5,0x2
   162f6:	0007c963          	bltz	a5,16308 <__hi0bits+0x4c>
   162fa:	00179713          	sll	a4,a5,0x1
   162fe:	00074763          	bltz	a4,1630c <__hi0bits+0x50>
   16302:	02000513          	li	a0,32
   16306:	8082                	ret
   16308:	0509                	add	a0,a0,2
   1630a:	8082                	ret
   1630c:	050d                	add	a0,a0,3
   1630e:	8082                	ret

00016310 <__lo0bits>:
   16310:	411c                	lw	a5,0(a0)
   16312:	872a                	mv	a4,a0
   16314:	0077f693          	and	a3,a5,7
   16318:	ce81                	beqz	a3,16330 <__lo0bits+0x20>
   1631a:	0017f693          	and	a3,a5,1
   1631e:	4501                	li	a0,0
   16320:	ee95                	bnez	a3,1635c <__lo0bits+0x4c>
   16322:	0027f693          	and	a3,a5,2
   16326:	c6b5                	beqz	a3,16392 <__lo0bits+0x82>
   16328:	8385                	srl	a5,a5,0x1
   1632a:	c31c                	sw	a5,0(a4)
   1632c:	4505                	li	a0,1
   1632e:	8082                	ret
   16330:	01079693          	sll	a3,a5,0x10
   16334:	82c1                	srl	a3,a3,0x10
   16336:	4501                	li	a0,0
   16338:	c6b9                	beqz	a3,16386 <__lo0bits+0x76>
   1633a:	0ff7f693          	zext.b	a3,a5
   1633e:	ce95                	beqz	a3,1637a <__lo0bits+0x6a>
   16340:	00f7f693          	and	a3,a5,15
   16344:	c68d                	beqz	a3,1636e <__lo0bits+0x5e>
   16346:	0037f693          	and	a3,a5,3
   1634a:	ce81                	beqz	a3,16362 <__lo0bits+0x52>
   1634c:	0017f693          	and	a3,a5,1
   16350:	e699                	bnez	a3,1635e <__lo0bits+0x4e>
   16352:	8385                	srl	a5,a5,0x1
   16354:	0505                	add	a0,a0,1
   16356:	e781                	bnez	a5,1635e <__lo0bits+0x4e>
   16358:	02000513          	li	a0,32
   1635c:	8082                	ret
   1635e:	c31c                	sw	a5,0(a4)
   16360:	8082                	ret
   16362:	8389                	srl	a5,a5,0x2
   16364:	0017f693          	and	a3,a5,1
   16368:	0509                	add	a0,a0,2
   1636a:	faf5                	bnez	a3,1635e <__lo0bits+0x4e>
   1636c:	b7dd                	j	16352 <__lo0bits+0x42>
   1636e:	8391                	srl	a5,a5,0x4
   16370:	0037f693          	and	a3,a5,3
   16374:	0511                	add	a0,a0,4
   16376:	faf9                	bnez	a3,1634c <__lo0bits+0x3c>
   16378:	b7ed                	j	16362 <__lo0bits+0x52>
   1637a:	83a1                	srl	a5,a5,0x8
   1637c:	00f7f693          	and	a3,a5,15
   16380:	0521                	add	a0,a0,8
   16382:	f2f1                	bnez	a3,16346 <__lo0bits+0x36>
   16384:	b7ed                	j	1636e <__lo0bits+0x5e>
   16386:	83c1                	srl	a5,a5,0x10
   16388:	0ff7f693          	zext.b	a3,a5
   1638c:	4541                	li	a0,16
   1638e:	facd                	bnez	a3,16340 <__lo0bits+0x30>
   16390:	b7ed                	j	1637a <__lo0bits+0x6a>
   16392:	8389                	srl	a5,a5,0x2
   16394:	c31c                	sw	a5,0(a4)
   16396:	4509                	li	a0,2
   16398:	8082                	ret

0001639a <__i2b>:
   1639a:	417c                	lw	a5,68(a0)
   1639c:	1141                	add	sp,sp,-16
   1639e:	c422                	sw	s0,8(sp)
   163a0:	c226                	sw	s1,4(sp)
   163a2:	c606                	sw	ra,12(sp)
   163a4:	842a                	mv	s0,a0
   163a6:	84ae                	mv	s1,a1
   163a8:	cf99                	beqz	a5,163c6 <__i2b+0x2c>
   163aa:	43c8                	lw	a0,4(a5)
   163ac:	c131                	beqz	a0,163f0 <__i2b+0x56>
   163ae:	4118                	lw	a4,0(a0)
   163b0:	c3d8                	sw	a4,4(a5)
   163b2:	40b2                	lw	ra,12(sp)
   163b4:	4422                	lw	s0,8(sp)
   163b6:	4785                	li	a5,1
   163b8:	c944                	sw	s1,20(a0)
   163ba:	00052623          	sw	zero,12(a0)
   163be:	c91c                	sw	a5,16(a0)
   163c0:	4492                	lw	s1,4(sp)
   163c2:	0141                	add	sp,sp,16
   163c4:	8082                	ret
   163c6:	02100613          	li	a2,33
   163ca:	4591                	li	a1,4
   163cc:	573000ef          	jal	1713e <_calloc_r>
   163d0:	c068                	sw	a0,68(s0)
   163d2:	87aa                	mv	a5,a0
   163d4:	f979                	bnez	a0,163aa <__i2b+0x10>
   163d6:	00007697          	auipc	a3,0x7
   163da:	56a68693          	add	a3,a3,1386 # 1d940 <zeroes.0+0x20>
   163de:	4601                	li	a2,0
   163e0:	14500593          	li	a1,325
   163e4:	00007517          	auipc	a0,0x7
   163e8:	57050513          	add	a0,a0,1392 # 1d954 <zeroes.0+0x34>
   163ec:	004010ef          	jal	173f0 <__assert_func>
   163f0:	4671                	li	a2,28
   163f2:	4585                	li	a1,1
   163f4:	8522                	mv	a0,s0
   163f6:	549000ef          	jal	1713e <_calloc_r>
   163fa:	dd71                	beqz	a0,163d6 <__i2b+0x3c>
   163fc:	4785                	li	a5,1
   163fe:	c15c                	sw	a5,4(a0)
   16400:	4789                	li	a5,2
   16402:	c51c                	sw	a5,8(a0)
   16404:	b77d                	j	163b2 <__i2b+0x18>

00016406 <__multiply>:
   16406:	1101                	add	sp,sp,-32
   16408:	c84a                	sw	s2,16(sp)
   1640a:	c64e                	sw	s3,12(sp)
   1640c:	0105a903          	lw	s2,16(a1)
   16410:	01062983          	lw	s3,16(a2)
   16414:	ca26                	sw	s1,20(sp)
   16416:	c452                	sw	s4,8(sp)
   16418:	ce06                	sw	ra,28(sp)
   1641a:	cc22                	sw	s0,24(sp)
   1641c:	8a2e                	mv	s4,a1
   1641e:	84b2                	mv	s1,a2
   16420:	01394763          	blt	s2,s3,1642e <__multiply+0x28>
   16424:	874e                	mv	a4,s3
   16426:	84ae                	mv	s1,a1
   16428:	89ca                	mv	s3,s2
   1642a:	8a32                	mv	s4,a2
   1642c:	893a                	mv	s2,a4
   1642e:	449c                	lw	a5,8(s1)
   16430:	40cc                	lw	a1,4(s1)
   16432:	01298433          	add	s0,s3,s2
   16436:	0087a7b3          	slt	a5,a5,s0
   1643a:	95be                	add	a1,a1,a5
   1643c:	3999                	jal	16092 <_Balloc>
   1643e:	14050363          	beqz	a0,16584 <__multiply+0x17e>
   16442:	01450313          	add	t1,a0,20
   16446:	00241893          	sll	a7,s0,0x2
   1644a:	989a                	add	a7,a7,t1
   1644c:	879a                	mv	a5,t1
   1644e:	01137763          	bgeu	t1,a7,1645c <__multiply+0x56>
   16452:	0007a023          	sw	zero,0(a5)
   16456:	0791                	add	a5,a5,4
   16458:	ff17ede3          	bltu	a5,a7,16452 <__multiply+0x4c>
   1645c:	014a0813          	add	a6,s4,20
   16460:	00291e13          	sll	t3,s2,0x2
   16464:	01448e93          	add	t4,s1,20
   16468:	00299593          	sll	a1,s3,0x2
   1646c:	9e42                	add	t3,t3,a6
   1646e:	95f6                	add	a1,a1,t4
   16470:	0fc87163          	bgeu	a6,t3,16552 <__multiply+0x14c>
   16474:	01548793          	add	a5,s1,21
   16478:	4f11                	li	t5,4
   1647a:	0ef5fe63          	bgeu	a1,a5,16576 <__multiply+0x170>
   1647e:	66c1                	lui	a3,0x10
   16480:	16fd                	add	a3,a3,-1 # ffff <register_fini-0x95>
   16482:	a809                	j	16494 <__multiply+0x8e>
   16484:	010fdf93          	srl	t6,t6,0x10
   16488:	060f9863          	bnez	t6,164f8 <__multiply+0xf2>
   1648c:	0811                	add	a6,a6,4
   1648e:	0311                	add	t1,t1,4
   16490:	0dc87163          	bgeu	a6,t3,16552 <__multiply+0x14c>
   16494:	00082f83          	lw	t6,0(a6)
   16498:	00dff3b3          	and	t2,t6,a3
   1649c:	fe0384e3          	beqz	t2,16484 <__multiply+0x7e>
   164a0:	829a                	mv	t0,t1
   164a2:	8ff6                	mv	t6,t4
   164a4:	4481                	li	s1,0
   164a6:	000fa783          	lw	a5,0(t6)
   164aa:	0002a603          	lw	a2,0(t0)
   164ae:	0291                	add	t0,t0,4
   164b0:	00d7f733          	and	a4,a5,a3
   164b4:	02770733          	mul	a4,a4,t2
   164b8:	83c1                	srl	a5,a5,0x10
   164ba:	00d67933          	and	s2,a2,a3
   164be:	8241                	srl	a2,a2,0x10
   164c0:	0f91                	add	t6,t6,4
   164c2:	027787b3          	mul	a5,a5,t2
   164c6:	974a                	add	a4,a4,s2
   164c8:	9726                	add	a4,a4,s1
   164ca:	01075493          	srl	s1,a4,0x10
   164ce:	8f75                	and	a4,a4,a3
   164d0:	97b2                	add	a5,a5,a2
   164d2:	97a6                	add	a5,a5,s1
   164d4:	01079613          	sll	a2,a5,0x10
   164d8:	8f51                	or	a4,a4,a2
   164da:	fee2ae23          	sw	a4,-4(t0)
   164de:	0107d493          	srl	s1,a5,0x10
   164e2:	fcbfe2e3          	bltu	t6,a1,164a6 <__multiply+0xa0>
   164e6:	01e307b3          	add	a5,t1,t5
   164ea:	c384                	sw	s1,0(a5)
   164ec:	00082f83          	lw	t6,0(a6)
   164f0:	010fdf93          	srl	t6,t6,0x10
   164f4:	f80f8ce3          	beqz	t6,1648c <__multiply+0x86>
   164f8:	00032703          	lw	a4,0(t1)
   164fc:	829a                	mv	t0,t1
   164fe:	8676                	mv	a2,t4
   16500:	84ba                	mv	s1,a4
   16502:	4381                	li	t2,0
   16504:	421c                	lw	a5,0(a2)
   16506:	0104d993          	srl	s3,s1,0x10
   1650a:	8f75                	and	a4,a4,a3
   1650c:	8ff5                	and	a5,a5,a3
   1650e:	03f787b3          	mul	a5,a5,t6
   16512:	0042a483          	lw	s1,4(t0)
   16516:	0291                	add	t0,t0,4
   16518:	0611                	add	a2,a2,4
   1651a:	00d4f933          	and	s2,s1,a3
   1651e:	979e                	add	a5,a5,t2
   16520:	97ce                	add	a5,a5,s3
   16522:	01079393          	sll	t2,a5,0x10
   16526:	00e3e733          	or	a4,t2,a4
   1652a:	fee2ae23          	sw	a4,-4(t0)
   1652e:	ffe65703          	lhu	a4,-2(a2)
   16532:	83c1                	srl	a5,a5,0x10
   16534:	03f70733          	mul	a4,a4,t6
   16538:	974a                	add	a4,a4,s2
   1653a:	973e                	add	a4,a4,a5
   1653c:	01075393          	srl	t2,a4,0x10
   16540:	fcb662e3          	bltu	a2,a1,16504 <__multiply+0xfe>
   16544:	01e307b3          	add	a5,t1,t5
   16548:	c398                	sw	a4,0(a5)
   1654a:	0811                	add	a6,a6,4
   1654c:	0311                	add	t1,t1,4
   1654e:	f5c863e3          	bltu	a6,t3,16494 <__multiply+0x8e>
   16552:	00804563          	bgtz	s0,1655c <__multiply+0x156>
   16556:	a039                	j	16564 <__multiply+0x15e>
   16558:	147d                	add	s0,s0,-1
   1655a:	c409                	beqz	s0,16564 <__multiply+0x15e>
   1655c:	ffc8a783          	lw	a5,-4(a7)
   16560:	18f1                	add	a7,a7,-4
   16562:	dbfd                	beqz	a5,16558 <__multiply+0x152>
   16564:	40f2                	lw	ra,28(sp)
   16566:	c900                	sw	s0,16(a0)
   16568:	4462                	lw	s0,24(sp)
   1656a:	44d2                	lw	s1,20(sp)
   1656c:	4942                	lw	s2,16(sp)
   1656e:	49b2                	lw	s3,12(sp)
   16570:	4a22                	lw	s4,8(sp)
   16572:	6105                	add	sp,sp,32
   16574:	8082                	ret
   16576:	409587b3          	sub	a5,a1,s1
   1657a:	17ad                	add	a5,a5,-21
   1657c:	9bf1                	and	a5,a5,-4
   1657e:	00478f13          	add	t5,a5,4
   16582:	bdf5                	j	1647e <__multiply+0x78>
   16584:	00007697          	auipc	a3,0x7
   16588:	3bc68693          	add	a3,a3,956 # 1d940 <zeroes.0+0x20>
   1658c:	4601                	li	a2,0
   1658e:	16200593          	li	a1,354
   16592:	00007517          	auipc	a0,0x7
   16596:	3c250513          	add	a0,a0,962 # 1d954 <zeroes.0+0x34>
   1659a:	657000ef          	jal	173f0 <__assert_func>

0001659e <__pow5mult>:
   1659e:	1101                	add	sp,sp,-32
   165a0:	cc22                	sw	s0,24(sp)
   165a2:	c84a                	sw	s2,16(sp)
   165a4:	c64e                	sw	s3,12(sp)
   165a6:	ce06                	sw	ra,28(sp)
   165a8:	00367793          	and	a5,a2,3
   165ac:	8432                	mv	s0,a2
   165ae:	89aa                	mv	s3,a0
   165b0:	892e                	mv	s2,a1
   165b2:	e7bd                	bnez	a5,16620 <__pow5mult+0x82>
   165b4:	8409                	sra	s0,s0,0x2
   165b6:	c429                	beqz	s0,16600 <__pow5mult+0x62>
   165b8:	ca26                	sw	s1,20(sp)
   165ba:	0409a483          	lw	s1,64(s3)
   165be:	ccad                	beqz	s1,16638 <__pow5mult+0x9a>
   165c0:	00147793          	and	a5,s0,1
   165c4:	eb89                	bnez	a5,165d6 <__pow5mult+0x38>
   165c6:	8405                	sra	s0,s0,0x1
   165c8:	c81d                	beqz	s0,165fe <__pow5mult+0x60>
   165ca:	4088                	lw	a0,0(s1)
   165cc:	c129                	beqz	a0,1660e <__pow5mult+0x70>
   165ce:	84aa                	mv	s1,a0
   165d0:	00147793          	and	a5,s0,1
   165d4:	dbed                	beqz	a5,165c6 <__pow5mult+0x28>
   165d6:	8626                	mv	a2,s1
   165d8:	85ca                	mv	a1,s2
   165da:	854e                	mv	a0,s3
   165dc:	352d                	jal	16406 <__multiply>
   165de:	00090d63          	beqz	s2,165f8 <__pow5mult+0x5a>
   165e2:	00492703          	lw	a4,4(s2)
   165e6:	0449a783          	lw	a5,68(s3)
   165ea:	070a                	sll	a4,a4,0x2
   165ec:	97ba                	add	a5,a5,a4
   165ee:	4398                	lw	a4,0(a5)
   165f0:	00e92023          	sw	a4,0(s2)
   165f4:	0127a023          	sw	s2,0(a5)
   165f8:	8405                	sra	s0,s0,0x1
   165fa:	892a                	mv	s2,a0
   165fc:	f479                	bnez	s0,165ca <__pow5mult+0x2c>
   165fe:	44d2                	lw	s1,20(sp)
   16600:	40f2                	lw	ra,28(sp)
   16602:	4462                	lw	s0,24(sp)
   16604:	49b2                	lw	s3,12(sp)
   16606:	854a                	mv	a0,s2
   16608:	4942                	lw	s2,16(sp)
   1660a:	6105                	add	sp,sp,32
   1660c:	8082                	ret
   1660e:	8626                	mv	a2,s1
   16610:	85a6                	mv	a1,s1
   16612:	854e                	mv	a0,s3
   16614:	3bcd                	jal	16406 <__multiply>
   16616:	c088                	sw	a0,0(s1)
   16618:	00052023          	sw	zero,0(a0)
   1661c:	84aa                	mv	s1,a0
   1661e:	bf4d                	j	165d0 <__pow5mult+0x32>
   16620:	17fd                	add	a5,a5,-1
   16622:	00007717          	auipc	a4,0x7
   16626:	36670713          	add	a4,a4,870 # 1d988 <p05.0>
   1662a:	078a                	sll	a5,a5,0x2
   1662c:	97ba                	add	a5,a5,a4
   1662e:	4390                	lw	a2,0(a5)
   16630:	4681                	li	a3,0
   16632:	3cf9                	jal	16110 <__multadd>
   16634:	892a                	mv	s2,a0
   16636:	bfbd                	j	165b4 <__pow5mult+0x16>
   16638:	4585                	li	a1,1
   1663a:	854e                	mv	a0,s3
   1663c:	3c99                	jal	16092 <_Balloc>
   1663e:	84aa                	mv	s1,a0
   16640:	c919                	beqz	a0,16656 <__pow5mult+0xb8>
   16642:	27100793          	li	a5,625
   16646:	c95c                	sw	a5,20(a0)
   16648:	4785                	li	a5,1
   1664a:	c91c                	sw	a5,16(a0)
   1664c:	04a9a023          	sw	a0,64(s3)
   16650:	00052023          	sw	zero,0(a0)
   16654:	b7b5                	j	165c0 <__pow5mult+0x22>
   16656:	00007697          	auipc	a3,0x7
   1665a:	2ea68693          	add	a3,a3,746 # 1d940 <zeroes.0+0x20>
   1665e:	4601                	li	a2,0
   16660:	14500593          	li	a1,325
   16664:	00007517          	auipc	a0,0x7
   16668:	2f050513          	add	a0,a0,752 # 1d954 <zeroes.0+0x34>
   1666c:	585000ef          	jal	173f0 <__assert_func>

00016670 <__lshift>:
   16670:	1101                	add	sp,sp,-32
   16672:	c256                	sw	s5,4(sp)
   16674:	0105aa83          	lw	s5,16(a1)
   16678:	459c                	lw	a5,8(a1)
   1667a:	c64e                	sw	s3,12(sp)
   1667c:	40565993          	sra	s3,a2,0x5
   16680:	9ace                	add	s5,s5,s3
   16682:	cc22                	sw	s0,24(sp)
   16684:	ca26                	sw	s1,20(sp)
   16686:	c84a                	sw	s2,16(sp)
   16688:	c452                	sw	s4,8(sp)
   1668a:	ce06                	sw	ra,28(sp)
   1668c:	001a8913          	add	s2,s5,1
   16690:	84ae                	mv	s1,a1
   16692:	8432                	mv	s0,a2
   16694:	41cc                	lw	a1,4(a1)
   16696:	8a2a                	mv	s4,a0
   16698:	0127d663          	bge	a5,s2,166a4 <__lshift+0x34>
   1669c:	0786                	sll	a5,a5,0x1
   1669e:	0585                	add	a1,a1,1
   166a0:	ff27cee3          	blt	a5,s2,1669c <__lshift+0x2c>
   166a4:	8552                	mv	a0,s4
   166a6:	32f5                	jal	16092 <_Balloc>
   166a8:	cd5d                	beqz	a0,16766 <__lshift+0xf6>
   166aa:	01450813          	add	a6,a0,20
   166ae:	01305e63          	blez	s3,166ca <__lshift+0x5a>
   166b2:	0995                	add	s3,s3,5
   166b4:	098a                	sll	s3,s3,0x2
   166b6:	01350733          	add	a4,a0,s3
   166ba:	87c2                	mv	a5,a6
   166bc:	0791                	add	a5,a5,4
   166be:	fe07ae23          	sw	zero,-4(a5)
   166c2:	fee79de3          	bne	a5,a4,166bc <__lshift+0x4c>
   166c6:	19b1                	add	s3,s3,-20
   166c8:	984e                	add	a6,a6,s3
   166ca:	0104a883          	lw	a7,16(s1)
   166ce:	01448793          	add	a5,s1,20
   166d2:	01f47613          	and	a2,s0,31
   166d6:	088a                	sll	a7,a7,0x2
   166d8:	98be                	add	a7,a7,a5
   166da:	c63d                	beqz	a2,16748 <__lshift+0xd8>
   166dc:	02000593          	li	a1,32
   166e0:	8d91                	sub	a1,a1,a2
   166e2:	8342                	mv	t1,a6
   166e4:	4681                	li	a3,0
   166e6:	4398                	lw	a4,0(a5)
   166e8:	0311                	add	t1,t1,4
   166ea:	0791                	add	a5,a5,4
   166ec:	00c71733          	sll	a4,a4,a2
   166f0:	8f55                	or	a4,a4,a3
   166f2:	fee32e23          	sw	a4,-4(t1)
   166f6:	ffc7a683          	lw	a3,-4(a5)
   166fa:	00b6d6b3          	srl	a3,a3,a1
   166fe:	ff17e4e3          	bltu	a5,a7,166e6 <__lshift+0x76>
   16702:	01548793          	add	a5,s1,21
   16706:	4711                	li	a4,4
   16708:	00f8e863          	bltu	a7,a5,16718 <__lshift+0xa8>
   1670c:	409887b3          	sub	a5,a7,s1
   16710:	17ad                	add	a5,a5,-21
   16712:	9bf1                	and	a5,a5,-4
   16714:	00478713          	add	a4,a5,4
   16718:	983a                	add	a6,a6,a4
   1671a:	00d82023          	sw	a3,0(a6)
   1671e:	e291                	bnez	a3,16722 <__lshift+0xb2>
   16720:	8956                	mv	s2,s5
   16722:	40d8                	lw	a4,4(s1)
   16724:	044a2783          	lw	a5,68(s4)
   16728:	40f2                	lw	ra,28(sp)
   1672a:	070a                	sll	a4,a4,0x2
   1672c:	97ba                	add	a5,a5,a4
   1672e:	4398                	lw	a4,0(a5)
   16730:	01252823          	sw	s2,16(a0)
   16734:	4462                	lw	s0,24(sp)
   16736:	c098                	sw	a4,0(s1)
   16738:	c384                	sw	s1,0(a5)
   1673a:	4942                	lw	s2,16(sp)
   1673c:	44d2                	lw	s1,20(sp)
   1673e:	49b2                	lw	s3,12(sp)
   16740:	4a22                	lw	s4,8(sp)
   16742:	4a92                	lw	s5,4(sp)
   16744:	6105                	add	sp,sp,32
   16746:	8082                	ret
   16748:	4398                	lw	a4,0(a5)
   1674a:	0791                	add	a5,a5,4
   1674c:	0811                	add	a6,a6,4
   1674e:	fee82e23          	sw	a4,-4(a6)
   16752:	fd17f7e3          	bgeu	a5,a7,16720 <__lshift+0xb0>
   16756:	4398                	lw	a4,0(a5)
   16758:	0791                	add	a5,a5,4
   1675a:	0811                	add	a6,a6,4
   1675c:	fee82e23          	sw	a4,-4(a6)
   16760:	ff17e4e3          	bltu	a5,a7,16748 <__lshift+0xd8>
   16764:	bf75                	j	16720 <__lshift+0xb0>
   16766:	00007697          	auipc	a3,0x7
   1676a:	1da68693          	add	a3,a3,474 # 1d940 <zeroes.0+0x20>
   1676e:	4601                	li	a2,0
   16770:	1de00593          	li	a1,478
   16774:	00007517          	auipc	a0,0x7
   16778:	1e050513          	add	a0,a0,480 # 1d954 <zeroes.0+0x34>
   1677c:	475000ef          	jal	173f0 <__assert_func>

00016780 <__mcmp>:
   16780:	4918                	lw	a4,16(a0)
   16782:	499c                	lw	a5,16(a1)
   16784:	882a                	mv	a6,a0
   16786:	40f70533          	sub	a0,a4,a5
   1678a:	02f71863          	bne	a4,a5,167ba <__mcmp+0x3a>
   1678e:	078a                	sll	a5,a5,0x2
   16790:	0851                	add	a6,a6,20
   16792:	05d1                	add	a1,a1,20
   16794:	00f80733          	add	a4,a6,a5
   16798:	97ae                	add	a5,a5,a1
   1679a:	a019                	j	167a0 <__mcmp+0x20>
   1679c:	00e87f63          	bgeu	a6,a4,167ba <__mcmp+0x3a>
   167a0:	ffc72603          	lw	a2,-4(a4)
   167a4:	ffc7a683          	lw	a3,-4(a5)
   167a8:	1771                	add	a4,a4,-4
   167aa:	17f1                	add	a5,a5,-4
   167ac:	fed608e3          	beq	a2,a3,1679c <__mcmp+0x1c>
   167b0:	4505                	li	a0,1
   167b2:	00d67463          	bgeu	a2,a3,167ba <__mcmp+0x3a>
   167b6:	557d                	li	a0,-1
   167b8:	8082                	ret
   167ba:	8082                	ret

000167bc <__mdiff>:
   167bc:	4998                	lw	a4,16(a1)
   167be:	4a1c                	lw	a5,16(a2)
   167c0:	1141                	add	sp,sp,-16
   167c2:	c422                	sw	s0,8(sp)
   167c4:	c226                	sw	s1,4(sp)
   167c6:	c606                	sw	ra,12(sp)
   167c8:	c04a                	sw	s2,0(sp)
   167ca:	842e                	mv	s0,a1
   167cc:	84b2                	mv	s1,a2
   167ce:	40f706b3          	sub	a3,a4,a5
   167d2:	12f71763          	bne	a4,a5,16900 <__mdiff+0x144>
   167d6:	00279693          	sll	a3,a5,0x2
   167da:	01458613          	add	a2,a1,20
   167de:	01448713          	add	a4,s1,20
   167e2:	00d607b3          	add	a5,a2,a3
   167e6:	9736                	add	a4,a4,a3
   167e8:	a019                	j	167ee <__mdiff+0x32>
   167ea:	12f67363          	bgeu	a2,a5,16910 <__mdiff+0x154>
   167ee:	ffc7a583          	lw	a1,-4(a5)
   167f2:	ffc72683          	lw	a3,-4(a4)
   167f6:	17f1                	add	a5,a5,-4
   167f8:	1771                	add	a4,a4,-4
   167fa:	fed588e3          	beq	a1,a3,167ea <__mdiff+0x2e>
   167fe:	4905                	li	s2,1
   16800:	00d5e663          	bltu	a1,a3,1680c <__mdiff+0x50>
   16804:	87a6                	mv	a5,s1
   16806:	4901                	li	s2,0
   16808:	84a2                	mv	s1,s0
   1680a:	843e                	mv	s0,a5
   1680c:	40cc                	lw	a1,4(s1)
   1680e:	3051                	jal	16092 <_Balloc>
   16810:	12050763          	beqz	a0,1693e <__mdiff+0x182>
   16814:	0104a883          	lw	a7,16(s1)
   16818:	01042283          	lw	t0,16(s0)
   1681c:	01448f93          	add	t6,s1,20
   16820:	00289313          	sll	t1,a7,0x2
   16824:	01440813          	add	a6,s0,20
   16828:	028a                	sll	t0,t0,0x2
   1682a:	01450593          	add	a1,a0,20
   1682e:	6e41                	lui	t3,0x10
   16830:	01252623          	sw	s2,12(a0)
   16834:	937e                	add	t1,t1,t6
   16836:	92c2                	add	t0,t0,a6
   16838:	8f2e                	mv	t5,a1
   1683a:	8efe                	mv	t4,t6
   1683c:	4681                	li	a3,0
   1683e:	1e7d                	add	t3,t3,-1 # ffff <register_fini-0x95>
   16840:	000ea703          	lw	a4,0(t4)
   16844:	00082603          	lw	a2,0(a6)
   16848:	0f11                	add	t5,t5,4
   1684a:	01c777b3          	and	a5,a4,t3
   1684e:	01c673b3          	and	t2,a2,t3
   16852:	407787b3          	sub	a5,a5,t2
   16856:	97b6                	add	a5,a5,a3
   16858:	8341                	srl	a4,a4,0x10
   1685a:	8241                	srl	a2,a2,0x10
   1685c:	4107d693          	sra	a3,a5,0x10
   16860:	8f11                	sub	a4,a4,a2
   16862:	9736                	add	a4,a4,a3
   16864:	01071693          	sll	a3,a4,0x10
   16868:	01c7f7b3          	and	a5,a5,t3
   1686c:	8fd5                	or	a5,a5,a3
   1686e:	0811                	add	a6,a6,4
   16870:	feff2e23          	sw	a5,-4(t5)
   16874:	0e91                	add	t4,t4,4
   16876:	41075693          	sra	a3,a4,0x10
   1687a:	fc5863e3          	bltu	a6,t0,16840 <__mdiff+0x84>
   1687e:	01540713          	add	a4,s0,21
   16882:	40828433          	sub	s0,t0,s0
   16886:	142d                	add	s0,s0,-21
   16888:	00e2b2b3          	sltu	t0,t0,a4
   1688c:	0012cf13          	xor	t5,t0,1
   16890:	8009                	srl	s0,s0,0x2
   16892:	4711                	li	a4,4
   16894:	06028a63          	beqz	t0,16908 <__mdiff+0x14c>
   16898:	9fba                	add	t6,t6,a4
   1689a:	00e58833          	add	a6,a1,a4
   1689e:	6ec1                	lui	t4,0x10
   168a0:	8e42                	mv	t3,a6
   168a2:	867e                	mv	a2,t6
   168a4:	1efd                	add	t4,t4,-1 # ffff <register_fini-0x95>
   168a6:	086ff363          	bgeu	t6,t1,1692c <__mdiff+0x170>
   168aa:	421c                	lw	a5,0(a2)
   168ac:	0e11                	add	t3,t3,4
   168ae:	0611                	add	a2,a2,4
   168b0:	01d7f733          	and	a4,a5,t4
   168b4:	9736                	add	a4,a4,a3
   168b6:	0107d593          	srl	a1,a5,0x10
   168ba:	8741                	sra	a4,a4,0x10
   168bc:	972e                	add	a4,a4,a1
   168be:	97b6                	add	a5,a5,a3
   168c0:	01d7f7b3          	and	a5,a5,t4
   168c4:	01071693          	sll	a3,a4,0x10
   168c8:	8fd5                	or	a5,a5,a3
   168ca:	fefe2e23          	sw	a5,-4(t3)
   168ce:	41075693          	sra	a3,a4,0x10
   168d2:	fc666ce3          	bltu	a2,t1,168aa <__mdiff+0xee>
   168d6:	137d                	add	t1,t1,-1
   168d8:	41f30333          	sub	t1,t1,t6
   168dc:	ffc37313          	and	t1,t1,-4
   168e0:	00680733          	add	a4,a6,t1
   168e4:	e791                	bnez	a5,168f0 <__mdiff+0x134>
   168e6:	ffc72783          	lw	a5,-4(a4)
   168ea:	18fd                	add	a7,a7,-1
   168ec:	1771                	add	a4,a4,-4
   168ee:	dfe5                	beqz	a5,168e6 <__mdiff+0x12a>
   168f0:	40b2                	lw	ra,12(sp)
   168f2:	4422                	lw	s0,8(sp)
   168f4:	01152823          	sw	a7,16(a0)
   168f8:	4492                	lw	s1,4(sp)
   168fa:	4902                	lw	s2,0(sp)
   168fc:	0141                	add	sp,sp,16
   168fe:	8082                	ret
   16900:	4905                	li	s2,1
   16902:	f006d1e3          	bgez	a3,16804 <__mdiff+0x48>
   16906:	b719                	j	1680c <__mdiff+0x50>
   16908:	00140713          	add	a4,s0,1
   1690c:	070a                	sll	a4,a4,0x2
   1690e:	b769                	j	16898 <__mdiff+0xdc>
   16910:	4581                	li	a1,0
   16912:	f80ff0ef          	jal	16092 <_Balloc>
   16916:	c129                	beqz	a0,16958 <__mdiff+0x19c>
   16918:	40b2                	lw	ra,12(sp)
   1691a:	4422                	lw	s0,8(sp)
   1691c:	4785                	li	a5,1
   1691e:	c91c                	sw	a5,16(a0)
   16920:	00052a23          	sw	zero,20(a0)
   16924:	4492                	lw	s1,4(sp)
   16926:	4902                	lw	s2,0(sp)
   16928:	0141                	add	sp,sp,16
   1692a:	8082                	ret
   1692c:	4701                	li	a4,0
   1692e:	000f1463          	bnez	t5,16936 <__mdiff+0x17a>
   16932:	972e                	add	a4,a4,a1
   16934:	bf45                	j	168e4 <__mdiff+0x128>
   16936:	00241713          	sll	a4,s0,0x2
   1693a:	972e                	add	a4,a4,a1
   1693c:	b765                	j	168e4 <__mdiff+0x128>
   1693e:	00007697          	auipc	a3,0x7
   16942:	00268693          	add	a3,a3,2 # 1d940 <zeroes.0+0x20>
   16946:	4601                	li	a2,0
   16948:	24500593          	li	a1,581
   1694c:	00007517          	auipc	a0,0x7
   16950:	00850513          	add	a0,a0,8 # 1d954 <zeroes.0+0x34>
   16954:	29d000ef          	jal	173f0 <__assert_func>
   16958:	00007697          	auipc	a3,0x7
   1695c:	fe868693          	add	a3,a3,-24 # 1d940 <zeroes.0+0x20>
   16960:	4601                	li	a2,0
   16962:	23700593          	li	a1,567
   16966:	00007517          	auipc	a0,0x7
   1696a:	fee50513          	add	a0,a0,-18 # 1d954 <zeroes.0+0x34>
   1696e:	283000ef          	jal	173f0 <__assert_func>

00016972 <__ulp>:
   16972:	7ff007b7          	lui	a5,0x7ff00
   16976:	8dfd                	and	a1,a1,a5
   16978:	fcc007b7          	lui	a5,0xfcc00
   1697c:	95be                	add	a1,a1,a5
   1697e:	4781                	li	a5,0
   16980:	00b05463          	blez	a1,16988 <__ulp+0x16>
   16984:	853e                	mv	a0,a5
   16986:	8082                	ret
   16988:	40b005b3          	neg	a1,a1
   1698c:	85d1                	sra	a1,a1,0x14
   1698e:	47cd                	li	a5,19
   16990:	00b7c963          	blt	a5,a1,169a2 <__ulp+0x30>
   16994:	000807b7          	lui	a5,0x80
   16998:	40b7d5b3          	sra	a1,a5,a1
   1699c:	4781                	li	a5,0
   1699e:	853e                	mv	a0,a5
   169a0:	8082                	ret
   169a2:	15b1                	add	a1,a1,-20
   169a4:	4779                	li	a4,30
   169a6:	4785                	li	a5,1
   169a8:	00b74663          	blt	a4,a1,169b4 <__ulp+0x42>
   169ac:	800007b7          	lui	a5,0x80000
   169b0:	00b7d7b3          	srl	a5,a5,a1
   169b4:	4581                	li	a1,0
   169b6:	853e                	mv	a0,a5
   169b8:	8082                	ret

000169ba <__b2d>:
   169ba:	1101                	add	sp,sp,-32
   169bc:	ca26                	sw	s1,20(sp)
   169be:	4904                	lw	s1,16(a0)
   169c0:	cc22                	sw	s0,24(sp)
   169c2:	01450413          	add	s0,a0,20
   169c6:	048a                	sll	s1,s1,0x2
   169c8:	94a2                	add	s1,s1,s0
   169ca:	c84a                	sw	s2,16(sp)
   169cc:	ffc4a903          	lw	s2,-4(s1)
   169d0:	c64e                	sw	s3,12(sp)
   169d2:	c452                	sw	s4,8(sp)
   169d4:	854a                	mv	a0,s2
   169d6:	89ae                	mv	s3,a1
   169d8:	ce06                	sw	ra,28(sp)
   169da:	30cd                	jal	162bc <__hi0bits>
   169dc:	02000713          	li	a4,32
   169e0:	40a707b3          	sub	a5,a4,a0
   169e4:	00f9a023          	sw	a5,0(s3)
   169e8:	47a9                	li	a5,10
   169ea:	ffc48a13          	add	s4,s1,-4
   169ee:	06a7db63          	bge	a5,a0,16a64 <__b2d+0xaa>
   169f2:	ff550613          	add	a2,a0,-11
   169f6:	03447d63          	bgeu	s0,s4,16a30 <__b2d+0x76>
   169fa:	ff84a783          	lw	a5,-8(s1)
   169fe:	c629                	beqz	a2,16a48 <__b2d+0x8e>
   16a00:	40c706b3          	sub	a3,a4,a2
   16a04:	00d7d733          	srl	a4,a5,a3
   16a08:	00c91933          	sll	s2,s2,a2
   16a0c:	00e96933          	or	s2,s2,a4
   16a10:	ff848593          	add	a1,s1,-8
   16a14:	3ff00737          	lui	a4,0x3ff00
   16a18:	00e96733          	or	a4,s2,a4
   16a1c:	00c797b3          	sll	a5,a5,a2
   16a20:	02b47863          	bgeu	s0,a1,16a50 <__b2d+0x96>
   16a24:	ff44a603          	lw	a2,-12(s1)
   16a28:	00d656b3          	srl	a3,a2,a3
   16a2c:	8fd5                	or	a5,a5,a3
   16a2e:	a00d                	j	16a50 <__b2d+0x96>
   16a30:	47ad                	li	a5,11
   16a32:	00f50a63          	beq	a0,a5,16a46 <__b2d+0x8c>
   16a36:	00c91933          	sll	s2,s2,a2
   16a3a:	3ff00737          	lui	a4,0x3ff00
   16a3e:	00e96733          	or	a4,s2,a4
   16a42:	4781                	li	a5,0
   16a44:	a031                	j	16a50 <__b2d+0x96>
   16a46:	4781                	li	a5,0
   16a48:	3ff00737          	lui	a4,0x3ff00
   16a4c:	00e96733          	or	a4,s2,a4
   16a50:	40f2                	lw	ra,28(sp)
   16a52:	4462                	lw	s0,24(sp)
   16a54:	44d2                	lw	s1,20(sp)
   16a56:	4942                	lw	s2,16(sp)
   16a58:	49b2                	lw	s3,12(sp)
   16a5a:	4a22                	lw	s4,8(sp)
   16a5c:	853e                	mv	a0,a5
   16a5e:	85ba                	mv	a1,a4
   16a60:	6105                	add	sp,sp,32
   16a62:	8082                	ret
   16a64:	46ad                	li	a3,11
   16a66:	8e89                	sub	a3,a3,a0
   16a68:	3ff007b7          	lui	a5,0x3ff00
   16a6c:	00d95733          	srl	a4,s2,a3
   16a70:	8f5d                	or	a4,a4,a5
   16a72:	4781                	li	a5,0
   16a74:	01447663          	bgeu	s0,s4,16a80 <__b2d+0xc6>
   16a78:	ff84a783          	lw	a5,-8(s1)
   16a7c:	00d7d7b3          	srl	a5,a5,a3
   16a80:	0555                	add	a0,a0,21
   16a82:	00a91933          	sll	s2,s2,a0
   16a86:	00f967b3          	or	a5,s2,a5
   16a8a:	b7d9                	j	16a50 <__b2d+0x96>

00016a8c <__d2b>:
   16a8c:	7179                	add	sp,sp,-48
   16a8e:	ca56                	sw	s5,20(sp)
   16a90:	8aae                	mv	s5,a1
   16a92:	4585                	li	a1,1
   16a94:	d226                	sw	s1,36(sp)
   16a96:	ce4e                	sw	s3,28(sp)
   16a98:	cc52                	sw	s4,24(sp)
   16a9a:	d606                	sw	ra,44(sp)
   16a9c:	d422                	sw	s0,40(sp)
   16a9e:	d04a                	sw	s2,32(sp)
   16aa0:	84b2                	mv	s1,a2
   16aa2:	8a36                	mv	s4,a3
   16aa4:	89ba                	mv	s3,a4
   16aa6:	decff0ef          	jal	16092 <_Balloc>
   16aaa:	c955                	beqz	a0,16b5e <__d2b+0xd2>
   16aac:	00100737          	lui	a4,0x100
   16ab0:	0144d913          	srl	s2,s1,0x14
   16ab4:	fff70793          	add	a5,a4,-1 # fffff <__BSS_END__+0xe14db>
   16ab8:	7ff97913          	and	s2,s2,2047
   16abc:	842a                	mv	s0,a0
   16abe:	8fe5                	and	a5,a5,s1
   16ac0:	00090363          	beqz	s2,16ac6 <__d2b+0x3a>
   16ac4:	8fd9                	or	a5,a5,a4
   16ac6:	c63e                	sw	a5,12(sp)
   16ac8:	040a9263          	bnez	s5,16b0c <__d2b+0x80>
   16acc:	0068                	add	a0,sp,12
   16ace:	843ff0ef          	jal	16310 <__lo0bits>
   16ad2:	4732                	lw	a4,12(sp)
   16ad4:	4485                	li	s1,1
   16ad6:	c804                	sw	s1,16(s0)
   16ad8:	c858                	sw	a4,20(s0)
   16ada:	02050793          	add	a5,a0,32
   16ade:	06090063          	beqz	s2,16b3e <__d2b+0xb2>
   16ae2:	bcd90913          	add	s2,s2,-1075
   16ae6:	993e                	add	s2,s2,a5
   16ae8:	03500493          	li	s1,53
   16aec:	012a2023          	sw	s2,0(s4)
   16af0:	40f48533          	sub	a0,s1,a5
   16af4:	00a9a023          	sw	a0,0(s3)
   16af8:	50b2                	lw	ra,44(sp)
   16afa:	8522                	mv	a0,s0
   16afc:	5422                	lw	s0,40(sp)
   16afe:	5492                	lw	s1,36(sp)
   16b00:	5902                	lw	s2,32(sp)
   16b02:	49f2                	lw	s3,28(sp)
   16b04:	4a62                	lw	s4,24(sp)
   16b06:	4ad2                	lw	s5,20(sp)
   16b08:	6145                	add	sp,sp,48
   16b0a:	8082                	ret
   16b0c:	0028                	add	a0,sp,8
   16b0e:	c456                	sw	s5,8(sp)
   16b10:	801ff0ef          	jal	16310 <__lo0bits>
   16b14:	4732                	lw	a4,12(sp)
   16b16:	87aa                	mv	a5,a0
   16b18:	c129                	beqz	a0,16b5a <__d2b+0xce>
   16b1a:	4622                	lw	a2,8(sp)
   16b1c:	02000693          	li	a3,32
   16b20:	8e89                	sub	a3,a3,a0
   16b22:	00d716b3          	sll	a3,a4,a3
   16b26:	00a75733          	srl	a4,a4,a0
   16b2a:	8ed1                	or	a3,a3,a2
   16b2c:	c63a                	sw	a4,12(sp)
   16b2e:	00e034b3          	snez	s1,a4
   16b32:	0485                	add	s1,s1,1
   16b34:	c854                	sw	a3,20(s0)
   16b36:	cc18                	sw	a4,24(s0)
   16b38:	c804                	sw	s1,16(s0)
   16b3a:	fa0914e3          	bnez	s2,16ae2 <__d2b+0x56>
   16b3e:	00249713          	sll	a4,s1,0x2
   16b42:	9722                	add	a4,a4,s0
   16b44:	4b08                	lw	a0,16(a4)
   16b46:	bce78793          	add	a5,a5,-1074 # 3feffbce <__BSS_END__+0x3fee10aa>
   16b4a:	00fa2023          	sw	a5,0(s4)
   16b4e:	f6eff0ef          	jal	162bc <__hi0bits>
   16b52:	0496                	sll	s1,s1,0x5
   16b54:	40a48533          	sub	a0,s1,a0
   16b58:	bf71                	j	16af4 <__d2b+0x68>
   16b5a:	46a2                	lw	a3,8(sp)
   16b5c:	bfc9                	j	16b2e <__d2b+0xa2>
   16b5e:	00007697          	auipc	a3,0x7
   16b62:	de268693          	add	a3,a3,-542 # 1d940 <zeroes.0+0x20>
   16b66:	4601                	li	a2,0
   16b68:	30f00593          	li	a1,783
   16b6c:	00007517          	auipc	a0,0x7
   16b70:	de850513          	add	a0,a0,-536 # 1d954 <zeroes.0+0x34>
   16b74:	07d000ef          	jal	173f0 <__assert_func>

00016b78 <__ratio>:
   16b78:	7179                	add	sp,sp,-48
   16b7a:	d04a                	sw	s2,32(sp)
   16b7c:	892e                	mv	s2,a1
   16b7e:	002c                	add	a1,sp,8
   16b80:	d606                	sw	ra,44(sp)
   16b82:	d422                	sw	s0,40(sp)
   16b84:	d226                	sw	s1,36(sp)
   16b86:	ce4e                	sw	s3,28(sp)
   16b88:	89aa                	mv	s3,a0
   16b8a:	3d05                	jal	169ba <__b2d>
   16b8c:	84aa                	mv	s1,a0
   16b8e:	842e                	mv	s0,a1
   16b90:	854a                	mv	a0,s2
   16b92:	006c                	add	a1,sp,12
   16b94:	351d                	jal	169ba <__b2d>
   16b96:	01092703          	lw	a4,16(s2)
   16b9a:	0109a783          	lw	a5,16(s3)
   16b9e:	46b2                	lw	a3,12(sp)
   16ba0:	8f99                	sub	a5,a5,a4
   16ba2:	4722                	lw	a4,8(sp)
   16ba4:	0796                	sll	a5,a5,0x5
   16ba6:	8f15                	sub	a4,a4,a3
   16ba8:	97ba                	add	a5,a5,a4
   16baa:	872a                	mv	a4,a0
   16bac:	02f05163          	blez	a5,16bce <__ratio+0x56>
   16bb0:	07d2                	sll	a5,a5,0x14
   16bb2:	943e                	add	s0,s0,a5
   16bb4:	86ae                	mv	a3,a1
   16bb6:	8526                	mv	a0,s1
   16bb8:	85a2                	mv	a1,s0
   16bba:	863a                	mv	a2,a4
   16bbc:	705020ef          	jal	19ac0 <__divdf3>
   16bc0:	50b2                	lw	ra,44(sp)
   16bc2:	5422                	lw	s0,40(sp)
   16bc4:	5492                	lw	s1,36(sp)
   16bc6:	5902                	lw	s2,32(sp)
   16bc8:	49f2                	lw	s3,28(sp)
   16bca:	6145                	add	sp,sp,48
   16bcc:	8082                	ret
   16bce:	07d2                	sll	a5,a5,0x14
   16bd0:	8d9d                	sub	a1,a1,a5
   16bd2:	b7cd                	j	16bb4 <__ratio+0x3c>

00016bd4 <_mprec_log10>:
   16bd4:	1141                	add	sp,sp,-16
   16bd6:	c04a                	sw	s2,0(sp)
   16bd8:	c606                	sw	ra,12(sp)
   16bda:	47dd                	li	a5,23
   16bdc:	892a                	mv	s2,a0
   16bde:	04a7d063          	bge	a5,a0,16c1e <_mprec_log10+0x4a>
   16be2:	00008717          	auipc	a4,0x8
   16be6:	afe70713          	add	a4,a4,-1282 # 1e6e0 <__TMC_END__+0x30>
   16bea:	431c                	lw	a5,0(a4)
   16bec:	434c                	lw	a1,4(a4)
   16bee:	00008717          	auipc	a4,0x8
   16bf2:	afa70713          	add	a4,a4,-1286 # 1e6e8 <__TMC_END__+0x38>
   16bf6:	c422                	sw	s0,8(sp)
   16bf8:	c226                	sw	s1,4(sp)
   16bfa:	4300                	lw	s0,0(a4)
   16bfc:	4344                	lw	s1,4(a4)
   16bfe:	853e                	mv	a0,a5
   16c00:	8622                	mv	a2,s0
   16c02:	86a6                	mv	a3,s1
   16c04:	664030ef          	jal	1a268 <__muldf3>
   16c08:	197d                	add	s2,s2,-1
   16c0a:	87aa                	mv	a5,a0
   16c0c:	fe0919e3          	bnez	s2,16bfe <_mprec_log10+0x2a>
   16c10:	4422                	lw	s0,8(sp)
   16c12:	40b2                	lw	ra,12(sp)
   16c14:	4492                	lw	s1,4(sp)
   16c16:	4902                	lw	s2,0(sp)
   16c18:	853e                	mv	a0,a5
   16c1a:	0141                	add	sp,sp,16
   16c1c:	8082                	ret
   16c1e:	00351913          	sll	s2,a0,0x3
   16c22:	00007717          	auipc	a4,0x7
   16c26:	d6670713          	add	a4,a4,-666 # 1d988 <p05.0>
   16c2a:	974a                	add	a4,a4,s2
   16c2c:	4b1c                	lw	a5,16(a4)
   16c2e:	40b2                	lw	ra,12(sp)
   16c30:	4b4c                	lw	a1,20(a4)
   16c32:	4902                	lw	s2,0(sp)
   16c34:	853e                	mv	a0,a5
   16c36:	0141                	add	sp,sp,16
   16c38:	8082                	ret

00016c3a <__copybits>:
   16c3a:	4a14                	lw	a3,16(a2)
   16c3c:	15fd                	add	a1,a1,-1
   16c3e:	8595                	sra	a1,a1,0x5
   16c40:	0585                	add	a1,a1,1
   16c42:	01460793          	add	a5,a2,20
   16c46:	068a                	sll	a3,a3,0x2
   16c48:	058a                	sll	a1,a1,0x2
   16c4a:	96be                	add	a3,a3,a5
   16c4c:	95aa                	add	a1,a1,a0
   16c4e:	02d7f163          	bgeu	a5,a3,16c70 <__copybits+0x36>
   16c52:	872a                	mv	a4,a0
   16c54:	0007a803          	lw	a6,0(a5)
   16c58:	0791                	add	a5,a5,4
   16c5a:	0711                	add	a4,a4,4
   16c5c:	ff072e23          	sw	a6,-4(a4)
   16c60:	fed7eae3          	bltu	a5,a3,16c54 <__copybits+0x1a>
   16c64:	40c687b3          	sub	a5,a3,a2
   16c68:	17ad                	add	a5,a5,-21
   16c6a:	9bf1                	and	a5,a5,-4
   16c6c:	0791                	add	a5,a5,4
   16c6e:	953e                	add	a0,a0,a5
   16c70:	00b57763          	bgeu	a0,a1,16c7e <__copybits+0x44>
   16c74:	0511                	add	a0,a0,4
   16c76:	fe052e23          	sw	zero,-4(a0)
   16c7a:	feb56de3          	bltu	a0,a1,16c74 <__copybits+0x3a>
   16c7e:	8082                	ret

00016c80 <__any_on>:
   16c80:	4918                	lw	a4,16(a0)
   16c82:	4055d613          	sra	a2,a1,0x5
   16c86:	01450693          	add	a3,a0,20
   16c8a:	00c75d63          	bge	a4,a2,16ca4 <__any_on+0x24>
   16c8e:	070a                	sll	a4,a4,0x2
   16c90:	00e687b3          	add	a5,a3,a4
   16c94:	02f6f863          	bgeu	a3,a5,16cc4 <__any_on+0x44>
   16c98:	ffc7a703          	lw	a4,-4(a5)
   16c9c:	17f1                	add	a5,a5,-4
   16c9e:	db7d                	beqz	a4,16c94 <__any_on+0x14>
   16ca0:	4505                	li	a0,1
   16ca2:	8082                	ret
   16ca4:	00261793          	sll	a5,a2,0x2
   16ca8:	97b6                	add	a5,a5,a3
   16caa:	fee655e3          	bge	a2,a4,16c94 <__any_on+0x14>
   16cae:	89fd                	and	a1,a1,31
   16cb0:	d1f5                	beqz	a1,16c94 <__any_on+0x14>
   16cb2:	4390                	lw	a2,0(a5)
   16cb4:	4505                	li	a0,1
   16cb6:	00b65733          	srl	a4,a2,a1
   16cba:	00b71733          	sll	a4,a4,a1
   16cbe:	fce60be3          	beq	a2,a4,16c94 <__any_on+0x14>
   16cc2:	8082                	ret
   16cc4:	4501                	li	a0,0
   16cc6:	8082                	ret

00016cc8 <__sread>:
   16cc8:	1141                	add	sp,sp,-16
   16cca:	c422                	sw	s0,8(sp)
   16ccc:	842e                	mv	s0,a1
   16cce:	00e59583          	lh	a1,14(a1)
   16cd2:	c606                	sw	ra,12(sp)
   16cd4:	762000ef          	jal	17436 <_read_r>
   16cd8:	00054963          	bltz	a0,16cea <__sread+0x22>
   16cdc:	483c                	lw	a5,80(s0)
   16cde:	40b2                	lw	ra,12(sp)
   16ce0:	97aa                	add	a5,a5,a0
   16ce2:	c83c                	sw	a5,80(s0)
   16ce4:	4422                	lw	s0,8(sp)
   16ce6:	0141                	add	sp,sp,16
   16ce8:	8082                	ret
   16cea:	00c45783          	lhu	a5,12(s0)
   16cee:	777d                	lui	a4,0xfffff
   16cf0:	177d                	add	a4,a4,-1 # ffffefff <__BSS_END__+0xfffe04db>
   16cf2:	8ff9                	and	a5,a5,a4
   16cf4:	40b2                	lw	ra,12(sp)
   16cf6:	00f41623          	sh	a5,12(s0)
   16cfa:	4422                	lw	s0,8(sp)
   16cfc:	0141                	add	sp,sp,16
   16cfe:	8082                	ret

00016d00 <__seofread>:
   16d00:	4501                	li	a0,0
   16d02:	8082                	ret

00016d04 <__swrite>:
   16d04:	00c59783          	lh	a5,12(a1)
   16d08:	1101                	add	sp,sp,-32
   16d0a:	cc22                	sw	s0,24(sp)
   16d0c:	ca26                	sw	s1,20(sp)
   16d0e:	c84a                	sw	s2,16(sp)
   16d10:	c64e                	sw	s3,12(sp)
   16d12:	ce06                	sw	ra,28(sp)
   16d14:	1007f713          	and	a4,a5,256
   16d18:	842e                	mv	s0,a1
   16d1a:	84aa                	mv	s1,a0
   16d1c:	8932                	mv	s2,a2
   16d1e:	89b6                	mv	s3,a3
   16d20:	e315                	bnez	a4,16d44 <__swrite+0x40>
   16d22:	777d                	lui	a4,0xfffff
   16d24:	177d                	add	a4,a4,-1 # ffffefff <__BSS_END__+0xfffe04db>
   16d26:	8ff9                	and	a5,a5,a4
   16d28:	00e41583          	lh	a1,14(s0)
   16d2c:	00f41623          	sh	a5,12(s0)
   16d30:	4462                	lw	s0,24(sp)
   16d32:	40f2                	lw	ra,28(sp)
   16d34:	86ce                	mv	a3,s3
   16d36:	864a                	mv	a2,s2
   16d38:	49b2                	lw	s3,12(sp)
   16d3a:	4942                	lw	s2,16(sp)
   16d3c:	8526                	mv	a0,s1
   16d3e:	44d2                	lw	s1,20(sp)
   16d40:	6105                	add	sp,sp,32
   16d42:	ab1d                	j	17278 <_write_r>
   16d44:	00e59583          	lh	a1,14(a1)
   16d48:	4689                	li	a3,2
   16d4a:	4601                	li	a2,0
   16d4c:	2bed                	jal	17346 <_lseek_r>
   16d4e:	00c41783          	lh	a5,12(s0)
   16d52:	bfc1                	j	16d22 <__swrite+0x1e>

00016d54 <__sseek>:
   16d54:	1141                	add	sp,sp,-16
   16d56:	c422                	sw	s0,8(sp)
   16d58:	842e                	mv	s0,a1
   16d5a:	00e59583          	lh	a1,14(a1)
   16d5e:	c606                	sw	ra,12(sp)
   16d60:	23dd                	jal	17346 <_lseek_r>
   16d62:	57fd                	li	a5,-1
   16d64:	00f50f63          	beq	a0,a5,16d82 <__sseek+0x2e>
   16d68:	00c45783          	lhu	a5,12(s0)
   16d6c:	6705                	lui	a4,0x1
   16d6e:	40b2                	lw	ra,12(sp)
   16d70:	8fd9                	or	a5,a5,a4
   16d72:	07c2                	sll	a5,a5,0x10
   16d74:	87c1                	sra	a5,a5,0x10
   16d76:	c828                	sw	a0,80(s0)
   16d78:	00f41623          	sh	a5,12(s0)
   16d7c:	4422                	lw	s0,8(sp)
   16d7e:	0141                	add	sp,sp,16
   16d80:	8082                	ret
   16d82:	00c45783          	lhu	a5,12(s0)
   16d86:	777d                	lui	a4,0xfffff
   16d88:	177d                	add	a4,a4,-1 # ffffefff <__BSS_END__+0xfffe04db>
   16d8a:	8ff9                	and	a5,a5,a4
   16d8c:	07c2                	sll	a5,a5,0x10
   16d8e:	87c1                	sra	a5,a5,0x10
   16d90:	40b2                	lw	ra,12(sp)
   16d92:	00f41623          	sh	a5,12(s0)
   16d96:	4422                	lw	s0,8(sp)
   16d98:	0141                	add	sp,sp,16
   16d9a:	8082                	ret

00016d9c <__sclose>:
   16d9c:	00e59583          	lh	a1,14(a1)
   16da0:	ab9d                	j	17316 <_close_r>

00016da2 <__rshift_D2A>:
   16da2:	01052803          	lw	a6,16(a0)
   16da6:	4055de13          	sra	t3,a1,0x5
   16daa:	010e4763          	blt	t3,a6,16db8 <__rshift_D2A+0x16>
   16dae:	00052823          	sw	zero,16(a0)
   16db2:	00052a23          	sw	zero,20(a0)
   16db6:	8082                	ret
   16db8:	01450313          	add	t1,a0,20
   16dbc:	00281613          	sll	a2,a6,0x2
   16dc0:	002e1793          	sll	a5,t3,0x2
   16dc4:	89fd                	and	a1,a1,31
   16dc6:	961a                	add	a2,a2,t1
   16dc8:	979a                	add	a5,a5,t1
   16dca:	c5a1                	beqz	a1,16e12 <__rshift_D2A+0x70>
   16dcc:	4394                	lw	a3,0(a5)
   16dce:	02000e93          	li	t4,32
   16dd2:	0791                	add	a5,a5,4
   16dd4:	40be8eb3          	sub	t4,t4,a1
   16dd8:	00b6d6b3          	srl	a3,a3,a1
   16ddc:	06c7f063          	bgeu	a5,a2,16e3c <__rshift_D2A+0x9a>
   16de0:	889a                	mv	a7,t1
   16de2:	4398                	lw	a4,0(a5)
   16de4:	0891                	add	a7,a7,4
   16de6:	0791                	add	a5,a5,4
   16de8:	01d71733          	sll	a4,a4,t4
   16dec:	8f55                	or	a4,a4,a3
   16dee:	fee8ae23          	sw	a4,-4(a7)
   16df2:	ffc7a683          	lw	a3,-4(a5)
   16df6:	00b6d6b3          	srl	a3,a3,a1
   16dfa:	fec7e4e3          	bltu	a5,a2,16de2 <__rshift_D2A+0x40>
   16dfe:	41c80833          	sub	a6,a6,t3
   16e02:	080a                	sll	a6,a6,0x2
   16e04:	1871                	add	a6,a6,-4
   16e06:	981a                	add	a6,a6,t1
   16e08:	00d82023          	sw	a3,0(a6)
   16e0c:	c28d                	beqz	a3,16e2e <__rshift_D2A+0x8c>
   16e0e:	0811                	add	a6,a6,4
   16e10:	a839                	j	16e2e <__rshift_D2A+0x8c>
   16e12:	871a                	mv	a4,t1
   16e14:	f8c7fde3          	bgeu	a5,a2,16dae <__rshift_D2A+0xc>
   16e18:	4394                	lw	a3,0(a5)
   16e1a:	0791                	add	a5,a5,4
   16e1c:	0711                	add	a4,a4,4
   16e1e:	fed72e23          	sw	a3,-4(a4)
   16e22:	fec7ebe3          	bltu	a5,a2,16e18 <__rshift_D2A+0x76>
   16e26:	41c80833          	sub	a6,a6,t3
   16e2a:	080a                	sll	a6,a6,0x2
   16e2c:	981a                	add	a6,a6,t1
   16e2e:	406807b3          	sub	a5,a6,t1
   16e32:	8789                	sra	a5,a5,0x2
   16e34:	c91c                	sw	a5,16(a0)
   16e36:	f6680ee3          	beq	a6,t1,16db2 <__rshift_D2A+0x10>
   16e3a:	8082                	ret
   16e3c:	c954                	sw	a3,20(a0)
   16e3e:	daa5                	beqz	a3,16dae <__rshift_D2A+0xc>
   16e40:	881a                	mv	a6,t1
   16e42:	0811                	add	a6,a6,4
   16e44:	b7ed                	j	16e2e <__rshift_D2A+0x8c>

00016e46 <__trailz_D2A>:
   16e46:	4918                	lw	a4,16(a0)
   16e48:	1101                	add	sp,sp,-32
   16e4a:	0551                	add	a0,a0,20
   16e4c:	070a                	sll	a4,a4,0x2
   16e4e:	cc22                	sw	s0,24(sp)
   16e50:	ce06                	sw	ra,28(sp)
   16e52:	972a                	add	a4,a4,a0
   16e54:	4401                	li	s0,0
   16e56:	00e56863          	bltu	a0,a4,16e66 <__trailz_D2A+0x20>
   16e5a:	a839                	j	16e78 <__trailz_D2A+0x32>
   16e5c:	0511                	add	a0,a0,4
   16e5e:	02040413          	add	s0,s0,32
   16e62:	00e57b63          	bgeu	a0,a4,16e78 <__trailz_D2A+0x32>
   16e66:	411c                	lw	a5,0(a0)
   16e68:	dbf5                	beqz	a5,16e5c <__trailz_D2A+0x16>
   16e6a:	00e57763          	bgeu	a0,a4,16e78 <__trailz_D2A+0x32>
   16e6e:	0068                	add	a0,sp,12
   16e70:	c63e                	sw	a5,12(sp)
   16e72:	c9eff0ef          	jal	16310 <__lo0bits>
   16e76:	942a                	add	s0,s0,a0
   16e78:	40f2                	lw	ra,28(sp)
   16e7a:	8522                	mv	a0,s0
   16e7c:	4462                	lw	s0,24(sp)
   16e7e:	6105                	add	sp,sp,32
   16e80:	8082                	ret

00016e82 <memcpy>:
   16e82:	00a5c7b3          	xor	a5,a1,a0
   16e86:	8b8d                	and	a5,a5,3
   16e88:	00c508b3          	add	a7,a0,a2
   16e8c:	e7b1                	bnez	a5,16ed8 <memcpy+0x56>
   16e8e:	478d                	li	a5,3
   16e90:	04c7f463          	bgeu	a5,a2,16ed8 <memcpy+0x56>
   16e94:	00357793          	and	a5,a0,3
   16e98:	872a                	mv	a4,a0
   16e9a:	ebb9                	bnez	a5,16ef0 <memcpy+0x6e>
   16e9c:	ffc8f613          	and	a2,a7,-4
   16ea0:	40e606b3          	sub	a3,a2,a4
   16ea4:	02000793          	li	a5,32
   16ea8:	06d7c863          	blt	a5,a3,16f18 <memcpy+0x96>
   16eac:	86ae                	mv	a3,a1
   16eae:	87ba                	mv	a5,a4
   16eb0:	02c77163          	bgeu	a4,a2,16ed2 <memcpy+0x50>
   16eb4:	0006a803          	lw	a6,0(a3)
   16eb8:	0791                	add	a5,a5,4
   16eba:	0691                	add	a3,a3,4
   16ebc:	ff07ae23          	sw	a6,-4(a5)
   16ec0:	fec7eae3          	bltu	a5,a2,16eb4 <memcpy+0x32>
   16ec4:	fff60793          	add	a5,a2,-1
   16ec8:	8f99                	sub	a5,a5,a4
   16eca:	9bf1                	and	a5,a5,-4
   16ecc:	0791                	add	a5,a5,4
   16ece:	973e                	add	a4,a4,a5
   16ed0:	95be                	add	a1,a1,a5
   16ed2:	01176663          	bltu	a4,a7,16ede <memcpy+0x5c>
   16ed6:	8082                	ret
   16ed8:	872a                	mv	a4,a0
   16eda:	03157e63          	bgeu	a0,a7,16f16 <memcpy+0x94>
   16ede:	0005c783          	lbu	a5,0(a1)
   16ee2:	0705                	add	a4,a4,1
   16ee4:	0585                	add	a1,a1,1
   16ee6:	fef70fa3          	sb	a5,-1(a4)
   16eea:	fee89ae3          	bne	a7,a4,16ede <memcpy+0x5c>
   16eee:	8082                	ret
   16ef0:	0005c683          	lbu	a3,0(a1)
   16ef4:	0705                	add	a4,a4,1
   16ef6:	00377793          	and	a5,a4,3
   16efa:	fed70fa3          	sb	a3,-1(a4)
   16efe:	0585                	add	a1,a1,1
   16f00:	dfd1                	beqz	a5,16e9c <memcpy+0x1a>
   16f02:	0005c683          	lbu	a3,0(a1)
   16f06:	0705                	add	a4,a4,1
   16f08:	00377793          	and	a5,a4,3
   16f0c:	fed70fa3          	sb	a3,-1(a4)
   16f10:	0585                	add	a1,a1,1
   16f12:	fff9                	bnez	a5,16ef0 <memcpy+0x6e>
   16f14:	b761                	j	16e9c <memcpy+0x1a>
   16f16:	8082                	ret
   16f18:	1141                	add	sp,sp,-16
   16f1a:	c622                	sw	s0,12(sp)
   16f1c:	02000413          	li	s0,32
   16f20:	0005a383          	lw	t2,0(a1)
   16f24:	0045a283          	lw	t0,4(a1)
   16f28:	0085af83          	lw	t6,8(a1)
   16f2c:	00c5af03          	lw	t5,12(a1)
   16f30:	0105ae83          	lw	t4,16(a1)
   16f34:	0145ae03          	lw	t3,20(a1)
   16f38:	0185a303          	lw	t1,24(a1)
   16f3c:	01c5a803          	lw	a6,28(a1)
   16f40:	5194                	lw	a3,32(a1)
   16f42:	02470713          	add	a4,a4,36
   16f46:	40e607b3          	sub	a5,a2,a4
   16f4a:	fc772e23          	sw	t2,-36(a4)
   16f4e:	fe572023          	sw	t0,-32(a4)
   16f52:	fff72223          	sw	t6,-28(a4)
   16f56:	ffe72423          	sw	t5,-24(a4)
   16f5a:	ffd72623          	sw	t4,-20(a4)
   16f5e:	ffc72823          	sw	t3,-16(a4)
   16f62:	fe672a23          	sw	t1,-12(a4)
   16f66:	ff072c23          	sw	a6,-8(a4)
   16f6a:	fed72e23          	sw	a3,-4(a4)
   16f6e:	02458593          	add	a1,a1,36
   16f72:	faf447e3          	blt	s0,a5,16f20 <memcpy+0x9e>
   16f76:	86ae                	mv	a3,a1
   16f78:	87ba                	mv	a5,a4
   16f7a:	02c77163          	bgeu	a4,a2,16f9c <memcpy+0x11a>
   16f7e:	0006a803          	lw	a6,0(a3)
   16f82:	0791                	add	a5,a5,4
   16f84:	0691                	add	a3,a3,4
   16f86:	ff07ae23          	sw	a6,-4(a5)
   16f8a:	fec7eae3          	bltu	a5,a2,16f7e <memcpy+0xfc>
   16f8e:	fff60793          	add	a5,a2,-1
   16f92:	8f99                	sub	a5,a5,a4
   16f94:	9bf1                	and	a5,a5,-4
   16f96:	0791                	add	a5,a5,4
   16f98:	973e                	add	a4,a4,a5
   16f9a:	95be                	add	a1,a1,a5
   16f9c:	01176563          	bltu	a4,a7,16fa6 <memcpy+0x124>
   16fa0:	4432                	lw	s0,12(sp)
   16fa2:	0141                	add	sp,sp,16
   16fa4:	8082                	ret
   16fa6:	0005c783          	lbu	a5,0(a1)
   16faa:	0705                	add	a4,a4,1
   16fac:	0585                	add	a1,a1,1
   16fae:	fef70fa3          	sb	a5,-1(a4)
   16fb2:	fee887e3          	beq	a7,a4,16fa0 <memcpy+0x11e>
   16fb6:	0005c783          	lbu	a5,0(a1)
   16fba:	0705                	add	a4,a4,1
   16fbc:	0585                	add	a1,a1,1
   16fbe:	fef70fa3          	sb	a5,-1(a4)
   16fc2:	fee892e3          	bne	a7,a4,16fa6 <memcpy+0x124>
   16fc6:	bfe9                	j	16fa0 <memcpy+0x11e>

00016fc8 <_setlocale_r>:
   16fc8:	c605                	beqz	a2,16ff0 <_setlocale_r+0x28>
   16fca:	1141                	add	sp,sp,-16
   16fcc:	00007597          	auipc	a1,0x7
   16fd0:	ae858593          	add	a1,a1,-1304 # 1dab4 <__mprec_bigtens+0x2c>
   16fd4:	8532                	mv	a0,a2
   16fd6:	c422                	sw	s0,8(sp)
   16fd8:	c606                	sw	ra,12(sp)
   16fda:	8432                	mv	s0,a2
   16fdc:	2941                	jal	1746c <strcmp>
   16fde:	ed11                	bnez	a0,16ffa <_setlocale_r+0x32>
   16fe0:	00007517          	auipc	a0,0x7
   16fe4:	ad050513          	add	a0,a0,-1328 # 1dab0 <__mprec_bigtens+0x28>
   16fe8:	40b2                	lw	ra,12(sp)
   16fea:	4422                	lw	s0,8(sp)
   16fec:	0141                	add	sp,sp,16
   16fee:	8082                	ret
   16ff0:	00007517          	auipc	a0,0x7
   16ff4:	ac050513          	add	a0,a0,-1344 # 1dab0 <__mprec_bigtens+0x28>
   16ff8:	8082                	ret
   16ffa:	00007597          	auipc	a1,0x7
   16ffe:	ab658593          	add	a1,a1,-1354 # 1dab0 <__mprec_bigtens+0x28>
   17002:	8522                	mv	a0,s0
   17004:	21a5                	jal	1746c <strcmp>
   17006:	dd69                	beqz	a0,16fe0 <_setlocale_r+0x18>
   17008:	00007597          	auipc	a1,0x7
   1700c:	bc858593          	add	a1,a1,-1080 # 1dbd0 <_ctype_+0x110>
   17010:	8522                	mv	a0,s0
   17012:	29a9                	jal	1746c <strcmp>
   17014:	d571                	beqz	a0,16fe0 <_setlocale_r+0x18>
   17016:	4501                	li	a0,0
   17018:	bfc1                	j	16fe8 <_setlocale_r+0x20>

0001701a <__locale_mb_cur_max>:
   1701a:	e5c1c503          	lbu	a0,-420(gp) # 1e66c <__global_locale+0x128>
   1701e:	8082                	ret

00017020 <setlocale>:
   17020:	c585                	beqz	a1,17048 <setlocale+0x28>
   17022:	1141                	add	sp,sp,-16
   17024:	c422                	sw	s0,8(sp)
   17026:	842e                	mv	s0,a1
   17028:	8522                	mv	a0,s0
   1702a:	00007597          	auipc	a1,0x7
   1702e:	a8a58593          	add	a1,a1,-1398 # 1dab4 <__mprec_bigtens+0x2c>
   17032:	c606                	sw	ra,12(sp)
   17034:	2925                	jal	1746c <strcmp>
   17036:	ed11                	bnez	a0,17052 <setlocale+0x32>
   17038:	00007517          	auipc	a0,0x7
   1703c:	a7850513          	add	a0,a0,-1416 # 1dab0 <__mprec_bigtens+0x28>
   17040:	40b2                	lw	ra,12(sp)
   17042:	4422                	lw	s0,8(sp)
   17044:	0141                	add	sp,sp,16
   17046:	8082                	ret
   17048:	00007517          	auipc	a0,0x7
   1704c:	a6850513          	add	a0,a0,-1432 # 1dab0 <__mprec_bigtens+0x28>
   17050:	8082                	ret
   17052:	00007597          	auipc	a1,0x7
   17056:	a5e58593          	add	a1,a1,-1442 # 1dab0 <__mprec_bigtens+0x28>
   1705a:	8522                	mv	a0,s0
   1705c:	2901                	jal	1746c <strcmp>
   1705e:	dd69                	beqz	a0,17038 <setlocale+0x18>
   17060:	00007597          	auipc	a1,0x7
   17064:	b7058593          	add	a1,a1,-1168 # 1dbd0 <_ctype_+0x110>
   17068:	8522                	mv	a0,s0
   1706a:	2109                	jal	1746c <strcmp>
   1706c:	d571                	beqz	a0,17038 <setlocale+0x18>
   1706e:	4501                	li	a0,0
   17070:	bfc1                	j	17040 <setlocale+0x20>

00017072 <memmove>:
   17072:	02a5f263          	bgeu	a1,a0,17096 <memmove+0x24>
   17076:	00c58733          	add	a4,a1,a2
   1707a:	00e57e63          	bgeu	a0,a4,17096 <memmove+0x24>
   1707e:	00c507b3          	add	a5,a0,a2
   17082:	ca1d                	beqz	a2,170b8 <memmove+0x46>
   17084:	fff74683          	lbu	a3,-1(a4)
   17088:	17fd                	add	a5,a5,-1
   1708a:	177d                	add	a4,a4,-1
   1708c:	00d78023          	sb	a3,0(a5)
   17090:	fef51ae3          	bne	a0,a5,17084 <memmove+0x12>
   17094:	8082                	ret
   17096:	47bd                	li	a5,15
   17098:	02c7e163          	bltu	a5,a2,170ba <memmove+0x48>
   1709c:	87aa                	mv	a5,a0
   1709e:	fff60693          	add	a3,a2,-1
   170a2:	ca59                	beqz	a2,17138 <memmove+0xc6>
   170a4:	0685                	add	a3,a3,1
   170a6:	96be                	add	a3,a3,a5
   170a8:	0005c703          	lbu	a4,0(a1)
   170ac:	0785                	add	a5,a5,1
   170ae:	0585                	add	a1,a1,1
   170b0:	fee78fa3          	sb	a4,-1(a5)
   170b4:	fed79ae3          	bne	a5,a3,170a8 <memmove+0x36>
   170b8:	8082                	ret
   170ba:	00b567b3          	or	a5,a0,a1
   170be:	8b8d                	and	a5,a5,3
   170c0:	eba5                	bnez	a5,17130 <memmove+0xbe>
   170c2:	ff060893          	add	a7,a2,-16
   170c6:	ff08f893          	and	a7,a7,-16
   170ca:	08c1                	add	a7,a7,16
   170cc:	011506b3          	add	a3,a0,a7
   170d0:	872e                	mv	a4,a1
   170d2:	87aa                	mv	a5,a0
   170d4:	00072803          	lw	a6,0(a4)
   170d8:	0741                	add	a4,a4,16
   170da:	07c1                	add	a5,a5,16
   170dc:	ff07a823          	sw	a6,-16(a5)
   170e0:	ff472803          	lw	a6,-12(a4)
   170e4:	ff07aa23          	sw	a6,-12(a5)
   170e8:	ff872803          	lw	a6,-8(a4)
   170ec:	ff07ac23          	sw	a6,-8(a5)
   170f0:	ffc72803          	lw	a6,-4(a4)
   170f4:	ff07ae23          	sw	a6,-4(a5)
   170f8:	fcd79ee3          	bne	a5,a3,170d4 <memmove+0x62>
   170fc:	00c67813          	and	a6,a2,12
   17100:	95c6                	add	a1,a1,a7
   17102:	00f67713          	and	a4,a2,15
   17106:	02080a63          	beqz	a6,1713a <memmove+0xc8>
   1710a:	ffc70813          	add	a6,a4,-4
   1710e:	ffc87813          	and	a6,a6,-4
   17112:	0811                	add	a6,a6,4
   17114:	010687b3          	add	a5,a3,a6
   17118:	872e                	mv	a4,a1
   1711a:	00072883          	lw	a7,0(a4)
   1711e:	0691                	add	a3,a3,4
   17120:	0711                	add	a4,a4,4
   17122:	ff16ae23          	sw	a7,-4(a3)
   17126:	fef69ae3          	bne	a3,a5,1711a <memmove+0xa8>
   1712a:	8a0d                	and	a2,a2,3
   1712c:	95c2                	add	a1,a1,a6
   1712e:	bf85                	j	1709e <memmove+0x2c>
   17130:	fff60693          	add	a3,a2,-1
   17134:	87aa                	mv	a5,a0
   17136:	b7bd                	j	170a4 <memmove+0x32>
   17138:	8082                	ret
   1713a:	863a                	mv	a2,a4
   1713c:	b78d                	j	1709e <memmove+0x2c>

0001713e <_calloc_r>:
   1713e:	02c5b7b3          	mulhu	a5,a1,a2
   17142:	1141                	add	sp,sp,-16
   17144:	c606                	sw	ra,12(sp)
   17146:	c422                	sw	s0,8(sp)
   17148:	02c585b3          	mul	a1,a1,a2
   1714c:	efa5                	bnez	a5,171c4 <_calloc_r+0x86>
   1714e:	a51fb0ef          	jal	12b9e <_malloc_r>
   17152:	842a                	mv	s0,a0
   17154:	c93d                	beqz	a0,171ca <_calloc_r+0x8c>
   17156:	ffc52603          	lw	a2,-4(a0)
   1715a:	02400713          	li	a4,36
   1715e:	9a71                	and	a2,a2,-4
   17160:	1671                	add	a2,a2,-4
   17162:	04c76063          	bltu	a4,a2,171a2 <_calloc_r+0x64>
   17166:	46cd                	li	a3,19
   17168:	87aa                	mv	a5,a0
   1716a:	02c6f163          	bgeu	a3,a2,1718c <_calloc_r+0x4e>
   1716e:	00052023          	sw	zero,0(a0)
   17172:	00052223          	sw	zero,4(a0)
   17176:	47ed                	li	a5,27
   17178:	02c7fd63          	bgeu	a5,a2,171b2 <_calloc_r+0x74>
   1717c:	00052423          	sw	zero,8(a0)
   17180:	00052623          	sw	zero,12(a0)
   17184:	01050793          	add	a5,a0,16
   17188:	04e60763          	beq	a2,a4,171d6 <_calloc_r+0x98>
   1718c:	0007a023          	sw	zero,0(a5)
   17190:	0007a223          	sw	zero,4(a5)
   17194:	0007a423          	sw	zero,8(a5)
   17198:	40b2                	lw	ra,12(sp)
   1719a:	8522                	mv	a0,s0
   1719c:	4422                	lw	s0,8(sp)
   1719e:	0141                	add	sp,sp,16
   171a0:	8082                	ret
   171a2:	4581                	li	a1,0
   171a4:	ef2f90ef          	jal	10896 <memset>
   171a8:	40b2                	lw	ra,12(sp)
   171aa:	8522                	mv	a0,s0
   171ac:	4422                	lw	s0,8(sp)
   171ae:	0141                	add	sp,sp,16
   171b0:	8082                	ret
   171b2:	00850793          	add	a5,a0,8
   171b6:	0007a023          	sw	zero,0(a5)
   171ba:	0007a223          	sw	zero,4(a5)
   171be:	0007a423          	sw	zero,8(a5)
   171c2:	bfd9                	j	17198 <_calloc_r+0x5a>
   171c4:	2005                	jal	171e4 <__errno>
   171c6:	47b1                	li	a5,12
   171c8:	c11c                	sw	a5,0(a0)
   171ca:	4401                	li	s0,0
   171cc:	40b2                	lw	ra,12(sp)
   171ce:	8522                	mv	a0,s0
   171d0:	4422                	lw	s0,8(sp)
   171d2:	0141                	add	sp,sp,16
   171d4:	8082                	ret
   171d6:	00052823          	sw	zero,16(a0)
   171da:	01850793          	add	a5,a0,24
   171de:	00052a23          	sw	zero,20(a0)
   171e2:	b76d                	j	1718c <_calloc_r+0x4e>

000171e4 <__errno>:
   171e4:	fdc1a503          	lw	a0,-36(gp) # 1e7ec <_impure_ptr>
   171e8:	8082                	ret

000171ea <_sbrk_r>:
   171ea:	1141                	add	sp,sp,-16
   171ec:	c422                	sw	s0,8(sp)
   171ee:	842a                	mv	s0,a0
   171f0:	852e                	mv	a0,a1
   171f2:	0001a023          	sw	zero,0(gp) # 1e810 <errno>
   171f6:	c606                	sw	ra,12(sp)
   171f8:	0ae020ef          	jal	192a6 <_sbrk>
   171fc:	57fd                	li	a5,-1
   171fe:	00f50663          	beq	a0,a5,1720a <_sbrk_r+0x20>
   17202:	40b2                	lw	ra,12(sp)
   17204:	4422                	lw	s0,8(sp)
   17206:	0141                	add	sp,sp,16
   17208:	8082                	ret
   1720a:	0001a783          	lw	a5,0(gp) # 1e810 <errno>
   1720e:	dbf5                	beqz	a5,17202 <_sbrk_r+0x18>
   17210:	40b2                	lw	ra,12(sp)
   17212:	c01c                	sw	a5,0(s0)
   17214:	4422                	lw	s0,8(sp)
   17216:	0141                	add	sp,sp,16
   17218:	8082                	ret

0001721a <__libc_fini_array>:
   1721a:	1141                	add	sp,sp,-16
   1721c:	c422                	sw	s0,8(sp)
   1721e:	00007797          	auipc	a5,0x7
   17222:	dee78793          	add	a5,a5,-530 # 1e00c <__do_global_dtors_aux_fini_array_entry>
   17226:	00007417          	auipc	s0,0x7
   1722a:	dea40413          	add	s0,s0,-534 # 1e010 <_impure_data>
   1722e:	8c1d                	sub	s0,s0,a5
   17230:	c226                	sw	s1,4(sp)
   17232:	c606                	sw	ra,12(sp)
   17234:	40245493          	sra	s1,s0,0x2
   17238:	c881                	beqz	s1,17248 <__libc_fini_array+0x2e>
   1723a:	1471                	add	s0,s0,-4
   1723c:	943e                	add	s0,s0,a5
   1723e:	401c                	lw	a5,0(s0)
   17240:	14fd                	add	s1,s1,-1
   17242:	1471                	add	s0,s0,-4
   17244:	9782                	jalr	a5
   17246:	fce5                	bnez	s1,1723e <__libc_fini_array+0x24>
   17248:	40b2                	lw	ra,12(sp)
   1724a:	4422                	lw	s0,8(sp)
   1724c:	4492                	lw	s1,4(sp)
   1724e:	0141                	add	sp,sp,16
   17250:	8082                	ret

00017252 <_wctomb_r>:
   17252:	e141a783          	lw	a5,-492(gp) # 1e624 <__global_locale+0xe0>
   17256:	8782                	jr	a5

00017258 <__ascii_wctomb>:
   17258:	cd91                	beqz	a1,17274 <__ascii_wctomb+0x1c>
   1725a:	0ff00793          	li	a5,255
   1725e:	00c7e663          	bltu	a5,a2,1726a <__ascii_wctomb+0x12>
   17262:	00c58023          	sb	a2,0(a1)
   17266:	4505                	li	a0,1
   17268:	8082                	ret
   1726a:	08a00793          	li	a5,138
   1726e:	c11c                	sw	a5,0(a0)
   17270:	557d                	li	a0,-1
   17272:	8082                	ret
   17274:	4501                	li	a0,0
   17276:	8082                	ret

00017278 <_write_r>:
   17278:	1141                	add	sp,sp,-16
   1727a:	872e                	mv	a4,a1
   1727c:	c422                	sw	s0,8(sp)
   1727e:	85b2                	mv	a1,a2
   17280:	842a                	mv	s0,a0
   17282:	8636                	mv	a2,a3
   17284:	853a                	mv	a0,a4
   17286:	0001a023          	sw	zero,0(gp) # 1e810 <errno>
   1728a:	c606                	sw	ra,12(sp)
   1728c:	06a020ef          	jal	192f6 <_write>
   17290:	57fd                	li	a5,-1
   17292:	00f50663          	beq	a0,a5,1729e <_write_r+0x26>
   17296:	40b2                	lw	ra,12(sp)
   17298:	4422                	lw	s0,8(sp)
   1729a:	0141                	add	sp,sp,16
   1729c:	8082                	ret
   1729e:	0001a783          	lw	a5,0(gp) # 1e810 <errno>
   172a2:	dbf5                	beqz	a5,17296 <_write_r+0x1e>
   172a4:	40b2                	lw	ra,12(sp)
   172a6:	c01c                	sw	a5,0(s0)
   172a8:	4422                	lw	s0,8(sp)
   172aa:	0141                	add	sp,sp,16
   172ac:	8082                	ret

000172ae <__register_exitproc>:
   172ae:	ff818713          	add	a4,gp,-8 # 1e808 <__atexit>
   172b2:	431c                	lw	a5,0(a4)
   172b4:	c3a1                	beqz	a5,172f4 <__register_exitproc+0x46>
   172b6:	43d8                	lw	a4,4(a5)
   172b8:	487d                	li	a6,31
   172ba:	04e84c63          	blt	a6,a4,17312 <__register_exitproc+0x64>
   172be:	00271813          	sll	a6,a4,0x2
   172c2:	c11d                	beqz	a0,172e8 <__register_exitproc+0x3a>
   172c4:	01078333          	add	t1,a5,a6
   172c8:	08c32423          	sw	a2,136(t1)
   172cc:	1887a883          	lw	a7,392(a5)
   172d0:	4605                	li	a2,1
   172d2:	00e61633          	sll	a2,a2,a4
   172d6:	00c8e8b3          	or	a7,a7,a2
   172da:	1917a423          	sw	a7,392(a5)
   172de:	10d32423          	sw	a3,264(t1)
   172e2:	4689                	li	a3,2
   172e4:	00d50c63          	beq	a0,a3,172fc <__register_exitproc+0x4e>
   172e8:	0705                	add	a4,a4,1
   172ea:	c3d8                	sw	a4,4(a5)
   172ec:	97c2                	add	a5,a5,a6
   172ee:	c78c                	sw	a1,8(a5)
   172f0:	4501                	li	a0,0
   172f2:	8082                	ret
   172f4:	18418793          	add	a5,gp,388 # 1e994 <__atexit0>
   172f8:	c31c                	sw	a5,0(a4)
   172fa:	bf75                	j	172b6 <__register_exitproc+0x8>
   172fc:	18c7a683          	lw	a3,396(a5)
   17300:	0705                	add	a4,a4,1
   17302:	c3d8                	sw	a4,4(a5)
   17304:	8ed1                	or	a3,a3,a2
   17306:	18d7a623          	sw	a3,396(a5)
   1730a:	97c2                	add	a5,a5,a6
   1730c:	c78c                	sw	a1,8(a5)
   1730e:	4501                	li	a0,0
   17310:	8082                	ret
   17312:	557d                	li	a0,-1
   17314:	8082                	ret

00017316 <_close_r>:
   17316:	1141                	add	sp,sp,-16
   17318:	c422                	sw	s0,8(sp)
   1731a:	842a                	mv	s0,a0
   1731c:	852e                	mv	a0,a1
   1731e:	0001a023          	sw	zero,0(gp) # 1e810 <errno>
   17322:	c606                	sw	ra,12(sp)
   17324:	667010ef          	jal	1918a <_close>
   17328:	57fd                	li	a5,-1
   1732a:	00f50663          	beq	a0,a5,17336 <_close_r+0x20>
   1732e:	40b2                	lw	ra,12(sp)
   17330:	4422                	lw	s0,8(sp)
   17332:	0141                	add	sp,sp,16
   17334:	8082                	ret
   17336:	0001a783          	lw	a5,0(gp) # 1e810 <errno>
   1733a:	dbf5                	beqz	a5,1732e <_close_r+0x18>
   1733c:	40b2                	lw	ra,12(sp)
   1733e:	c01c                	sw	a5,0(s0)
   17340:	4422                	lw	s0,8(sp)
   17342:	0141                	add	sp,sp,16
   17344:	8082                	ret

00017346 <_lseek_r>:
   17346:	1141                	add	sp,sp,-16
   17348:	872e                	mv	a4,a1
   1734a:	c422                	sw	s0,8(sp)
   1734c:	85b2                	mv	a1,a2
   1734e:	842a                	mv	s0,a0
   17350:	8636                	mv	a2,a3
   17352:	853a                	mv	a0,a4
   17354:	0001a023          	sw	zero,0(gp) # 1e810 <errno>
   17358:	c606                	sw	ra,12(sp)
   1735a:	6f5010ef          	jal	1924e <_lseek>
   1735e:	57fd                	li	a5,-1
   17360:	00f50663          	beq	a0,a5,1736c <_lseek_r+0x26>
   17364:	40b2                	lw	ra,12(sp)
   17366:	4422                	lw	s0,8(sp)
   17368:	0141                	add	sp,sp,16
   1736a:	8082                	ret
   1736c:	0001a783          	lw	a5,0(gp) # 1e810 <errno>
   17370:	dbf5                	beqz	a5,17364 <_lseek_r+0x1e>
   17372:	40b2                	lw	ra,12(sp)
   17374:	c01c                	sw	a5,0(s0)
   17376:	4422                	lw	s0,8(sp)
   17378:	0141                	add	sp,sp,16
   1737a:	8082                	ret

0001737c <_reclaim_reent>:
   1737c:	fdc1a783          	lw	a5,-36(gp) # 1e7ec <_impure_ptr>
   17380:	06a78763          	beq	a5,a0,173ee <_reclaim_reent+0x72>
   17384:	416c                	lw	a1,68(a0)
   17386:	1101                	add	sp,sp,-32
   17388:	ca26                	sw	s1,20(sp)
   1738a:	ce06                	sw	ra,28(sp)
   1738c:	84aa                	mv	s1,a0
   1738e:	c99d                	beqz	a1,173c4 <_reclaim_reent+0x48>
   17390:	c84a                	sw	s2,16(sp)
   17392:	c64e                	sw	s3,12(sp)
   17394:	cc22                	sw	s0,24(sp)
   17396:	4901                	li	s2,0
   17398:	08000993          	li	s3,128
   1739c:	012587b3          	add	a5,a1,s2
   173a0:	4380                	lw	s0,0(a5)
   173a2:	c801                	beqz	s0,173b2 <_reclaim_reent+0x36>
   173a4:	85a2                	mv	a1,s0
   173a6:	4000                	lw	s0,0(s0)
   173a8:	8526                	mv	a0,s1
   173aa:	e75fb0ef          	jal	1321e <_free_r>
   173ae:	f87d                	bnez	s0,173a4 <_reclaim_reent+0x28>
   173b0:	40ec                	lw	a1,68(s1)
   173b2:	0911                	add	s2,s2,4
   173b4:	ff3914e3          	bne	s2,s3,1739c <_reclaim_reent+0x20>
   173b8:	8526                	mv	a0,s1
   173ba:	e65fb0ef          	jal	1321e <_free_r>
   173be:	4462                	lw	s0,24(sp)
   173c0:	4942                	lw	s2,16(sp)
   173c2:	49b2                	lw	s3,12(sp)
   173c4:	5c8c                	lw	a1,56(s1)
   173c6:	c581                	beqz	a1,173ce <_reclaim_reent+0x52>
   173c8:	8526                	mv	a0,s1
   173ca:	e55fb0ef          	jal	1321e <_free_r>
   173ce:	44ec                	lw	a1,76(s1)
   173d0:	c581                	beqz	a1,173d8 <_reclaim_reent+0x5c>
   173d2:	8526                	mv	a0,s1
   173d4:	e4bfb0ef          	jal	1321e <_free_r>
   173d8:	58dc                	lw	a5,52(s1)
   173da:	c791                	beqz	a5,173e6 <_reclaim_reent+0x6a>
   173dc:	40f2                	lw	ra,28(sp)
   173de:	8526                	mv	a0,s1
   173e0:	44d2                	lw	s1,20(sp)
   173e2:	6105                	add	sp,sp,32
   173e4:	8782                	jr	a5
   173e6:	40f2                	lw	ra,28(sp)
   173e8:	44d2                	lw	s1,20(sp)
   173ea:	6105                	add	sp,sp,32
   173ec:	8082                	ret
   173ee:	8082                	ret

000173f0 <__assert_func>:
   173f0:	1141                	add	sp,sp,-16
   173f2:	87b6                	mv	a5,a3
   173f4:	fdc1a703          	lw	a4,-36(gp) # 1e7ec <_impure_ptr>
   173f8:	8832                	mv	a6,a2
   173fa:	c606                	sw	ra,12(sp)
   173fc:	00c72883          	lw	a7,12(a4)
   17400:	863e                	mv	a2,a5
   17402:	86aa                	mv	a3,a0
   17404:	872e                	mv	a4,a1
   17406:	00006797          	auipc	a5,0x6
   1740a:	7be78793          	add	a5,a5,1982 # 1dbc4 <_ctype_+0x104>
   1740e:	00080963          	beqz	a6,17420 <__assert_func+0x30>
   17412:	00006597          	auipc	a1,0x6
   17416:	7c258593          	add	a1,a1,1986 # 1dbd4 <_ctype_+0x114>
   1741a:	8546                	mv	a0,a7
   1741c:	22c5                	jal	175fc <fiprintf>
   1741e:	2a4d                	jal	175d0 <abort>
   17420:	00006797          	auipc	a5,0x6
   17424:	7b078793          	add	a5,a5,1968 # 1dbd0 <_ctype_+0x110>
   17428:	883e                	mv	a6,a5
   1742a:	b7e5                	j	17412 <__assert_func+0x22>

0001742c <__assert>:
   1742c:	1141                	add	sp,sp,-16
   1742e:	86b2                	mv	a3,a2
   17430:	4601                	li	a2,0
   17432:	c606                	sw	ra,12(sp)
   17434:	3f75                	jal	173f0 <__assert_func>

00017436 <_read_r>:
   17436:	1141                	add	sp,sp,-16
   17438:	872e                	mv	a4,a1
   1743a:	c422                	sw	s0,8(sp)
   1743c:	85b2                	mv	a1,a2
   1743e:	842a                	mv	s0,a0
   17440:	8636                	mv	a2,a3
   17442:	853a                	mv	a0,a4
   17444:	0001a023          	sw	zero,0(gp) # 1e810 <errno>
   17448:	c606                	sw	ra,12(sp)
   1744a:	631010ef          	jal	1927a <_read>
   1744e:	57fd                	li	a5,-1
   17450:	00f50663          	beq	a0,a5,1745c <_read_r+0x26>
   17454:	40b2                	lw	ra,12(sp)
   17456:	4422                	lw	s0,8(sp)
   17458:	0141                	add	sp,sp,16
   1745a:	8082                	ret
   1745c:	0001a783          	lw	a5,0(gp) # 1e810 <errno>
   17460:	dbf5                	beqz	a5,17454 <_read_r+0x1e>
   17462:	40b2                	lw	ra,12(sp)
   17464:	c01c                	sw	a5,0(s0)
   17466:	4422                	lw	s0,8(sp)
   17468:	0141                	add	sp,sp,16
   1746a:	8082                	ret

0001746c <strcmp>:
   1746c:	00b56733          	or	a4,a0,a1
   17470:	53fd                	li	t2,-1
   17472:	8b0d                	and	a4,a4,3
   17474:	e779                	bnez	a4,17542 <strcmp+0xd6>
   17476:	7f7f87b7          	lui	a5,0x7f7f8
   1747a:	f7f78793          	add	a5,a5,-129 # 7f7f7f7f <__BSS_END__+0x7f7d945b>
   1747e:	4110                	lw	a2,0(a0)
   17480:	4194                	lw	a3,0(a1)
   17482:	00f672b3          	and	t0,a2,a5
   17486:	00f66333          	or	t1,a2,a5
   1748a:	92be                	add	t0,t0,a5
   1748c:	0062e2b3          	or	t0,t0,t1
   17490:	0c729763          	bne	t0,t2,1755e <strcmp+0xf2>
   17494:	06d61863          	bne	a2,a3,17504 <strcmp+0x98>
   17498:	4150                	lw	a2,4(a0)
   1749a:	41d4                	lw	a3,4(a1)
   1749c:	00f672b3          	and	t0,a2,a5
   174a0:	00f66333          	or	t1,a2,a5
   174a4:	92be                	add	t0,t0,a5
   174a6:	0062e2b3          	or	t0,t0,t1
   174aa:	0a729863          	bne	t0,t2,1755a <strcmp+0xee>
   174ae:	04d61b63          	bne	a2,a3,17504 <strcmp+0x98>
   174b2:	4510                	lw	a2,8(a0)
   174b4:	4594                	lw	a3,8(a1)
   174b6:	00f672b3          	and	t0,a2,a5
   174ba:	00f66333          	or	t1,a2,a5
   174be:	92be                	add	t0,t0,a5
   174c0:	0062e2b3          	or	t0,t0,t1
   174c4:	0a729163          	bne	t0,t2,17566 <strcmp+0xfa>
   174c8:	02d61e63          	bne	a2,a3,17504 <strcmp+0x98>
   174cc:	4550                	lw	a2,12(a0)
   174ce:	45d4                	lw	a3,12(a1)
   174d0:	00f672b3          	and	t0,a2,a5
   174d4:	00f66333          	or	t1,a2,a5
   174d8:	92be                	add	t0,t0,a5
   174da:	0062e2b3          	or	t0,t0,t1
   174de:	08729a63          	bne	t0,t2,17572 <strcmp+0x106>
   174e2:	02d61163          	bne	a2,a3,17504 <strcmp+0x98>
   174e6:	4910                	lw	a2,16(a0)
   174e8:	4994                	lw	a3,16(a1)
   174ea:	00f672b3          	and	t0,a2,a5
   174ee:	00f66333          	or	t1,a2,a5
   174f2:	92be                	add	t0,t0,a5
   174f4:	0062e2b3          	or	t0,t0,t1
   174f8:	08729363          	bne	t0,t2,1757e <strcmp+0x112>
   174fc:	0551                	add	a0,a0,20
   174fe:	05d1                	add	a1,a1,20
   17500:	f6d60fe3          	beq	a2,a3,1747e <strcmp+0x12>
   17504:	01061713          	sll	a4,a2,0x10
   17508:	01069793          	sll	a5,a3,0x10
   1750c:	00f71c63          	bne	a4,a5,17524 <strcmp+0xb8>
   17510:	01065713          	srl	a4,a2,0x10
   17514:	0106d793          	srl	a5,a3,0x10
   17518:	40f70533          	sub	a0,a4,a5
   1751c:	0ff57593          	zext.b	a1,a0
   17520:	e991                	bnez	a1,17534 <strcmp+0xc8>
   17522:	8082                	ret
   17524:	8341                	srl	a4,a4,0x10
   17526:	83c1                	srl	a5,a5,0x10
   17528:	40f70533          	sub	a0,a4,a5
   1752c:	0ff57593          	zext.b	a1,a0
   17530:	e191                	bnez	a1,17534 <strcmp+0xc8>
   17532:	8082                	ret
   17534:	0ff77713          	zext.b	a4,a4
   17538:	0ff7f793          	zext.b	a5,a5
   1753c:	40f70533          	sub	a0,a4,a5
   17540:	8082                	ret
   17542:	00054603          	lbu	a2,0(a0)
   17546:	0005c683          	lbu	a3,0(a1)
   1754a:	0505                	add	a0,a0,1
   1754c:	0585                	add	a1,a1,1
   1754e:	00d61363          	bne	a2,a3,17554 <strcmp+0xe8>
   17552:	fa65                	bnez	a2,17542 <strcmp+0xd6>
   17554:	40d60533          	sub	a0,a2,a3
   17558:	8082                	ret
   1755a:	0511                	add	a0,a0,4
   1755c:	0591                	add	a1,a1,4
   1755e:	fed612e3          	bne	a2,a3,17542 <strcmp+0xd6>
   17562:	4501                	li	a0,0
   17564:	8082                	ret
   17566:	0521                	add	a0,a0,8
   17568:	05a1                	add	a1,a1,8
   1756a:	fcd61ce3          	bne	a2,a3,17542 <strcmp+0xd6>
   1756e:	4501                	li	a0,0
   17570:	8082                	ret
   17572:	0531                	add	a0,a0,12
   17574:	05b1                	add	a1,a1,12
   17576:	fcd616e3          	bne	a2,a3,17542 <strcmp+0xd6>
   1757a:	4501                	li	a0,0
   1757c:	8082                	ret
   1757e:	0541                	add	a0,a0,16
   17580:	05c1                	add	a1,a1,16
   17582:	fcd610e3          	bne	a2,a3,17542 <strcmp+0xd6>
   17586:	4501                	li	a0,0
   17588:	8082                	ret

0001758a <_mbtowc_r>:
   1758a:	e181a783          	lw	a5,-488(gp) # 1e628 <__global_locale+0xe4>
   1758e:	8782                	jr	a5

00017590 <__ascii_mbtowc>:
   17590:	c999                	beqz	a1,175a6 <__ascii_mbtowc+0x16>
   17592:	c61d                	beqz	a2,175c0 <__ascii_mbtowc+0x30>
   17594:	ca95                	beqz	a3,175c8 <__ascii_mbtowc+0x38>
   17596:	00064783          	lbu	a5,0(a2)
   1759a:	c19c                	sw	a5,0(a1)
   1759c:	00064503          	lbu	a0,0(a2)
   175a0:	00a03533          	snez	a0,a0
   175a4:	8082                	ret
   175a6:	1141                	add	sp,sp,-16
   175a8:	006c                	add	a1,sp,12
   175aa:	ce09                	beqz	a2,175c4 <__ascii_mbtowc+0x34>
   175ac:	c285                	beqz	a3,175cc <__ascii_mbtowc+0x3c>
   175ae:	00064783          	lbu	a5,0(a2)
   175b2:	c19c                	sw	a5,0(a1)
   175b4:	00064503          	lbu	a0,0(a2)
   175b8:	00a03533          	snez	a0,a0
   175bc:	0141                	add	sp,sp,16
   175be:	8082                	ret
   175c0:	4501                	li	a0,0
   175c2:	8082                	ret
   175c4:	4501                	li	a0,0
   175c6:	bfdd                	j	175bc <__ascii_mbtowc+0x2c>
   175c8:	5579                	li	a0,-2
   175ca:	8082                	ret
   175cc:	5579                	li	a0,-2
   175ce:	b7fd                	j	175bc <__ascii_mbtowc+0x2c>

000175d0 <abort>:
   175d0:	1141                	add	sp,sp,-16
   175d2:	4519                	li	a0,6
   175d4:	c606                	sw	ra,12(sp)
   175d6:	2af9                	jal	177b4 <raise>
   175d8:	4505                	li	a0,1
   175da:	3dd010ef          	jal	191b6 <_exit>

000175de <_fiprintf_r>:
   175de:	7139                	add	sp,sp,-64
   175e0:	02c10313          	add	t1,sp,44
   175e4:	d636                	sw	a3,44(sp)
   175e6:	869a                	mv	a3,t1
   175e8:	ce06                	sw	ra,28(sp)
   175ea:	d83a                	sw	a4,48(sp)
   175ec:	da3e                	sw	a5,52(sp)
   175ee:	dc42                	sw	a6,56(sp)
   175f0:	de46                	sw	a7,60(sp)
   175f2:	c61a                	sw	t1,12(sp)
   175f4:	29b9                	jal	17a52 <_vfiprintf_r>
   175f6:	40f2                	lw	ra,28(sp)
   175f8:	6121                	add	sp,sp,64
   175fa:	8082                	ret

000175fc <fiprintf>:
   175fc:	7139                	add	sp,sp,-64
   175fe:	02810313          	add	t1,sp,40
   17602:	d432                	sw	a2,40(sp)
   17604:	d636                	sw	a3,44(sp)
   17606:	862e                	mv	a2,a1
   17608:	869a                	mv	a3,t1
   1760a:	85aa                	mv	a1,a0
   1760c:	fdc1a503          	lw	a0,-36(gp) # 1e7ec <_impure_ptr>
   17610:	ce06                	sw	ra,28(sp)
   17612:	d83a                	sw	a4,48(sp)
   17614:	da3e                	sw	a5,52(sp)
   17616:	dc42                	sw	a6,56(sp)
   17618:	de46                	sw	a7,60(sp)
   1761a:	c61a                	sw	t1,12(sp)
   1761c:	291d                	jal	17a52 <_vfiprintf_r>
   1761e:	40f2                	lw	ra,28(sp)
   17620:	6121                	add	sp,sp,64
   17622:	8082                	ret

00017624 <_init_signal_r>:
   17624:	11852783          	lw	a5,280(a0)
   17628:	c399                	beqz	a5,1762e <_init_signal_r+0xa>
   1762a:	4501                	li	a0,0
   1762c:	8082                	ret
   1762e:	1141                	add	sp,sp,-16
   17630:	08000593          	li	a1,128
   17634:	c422                	sw	s0,8(sp)
   17636:	c606                	sw	ra,12(sp)
   17638:	842a                	mv	s0,a0
   1763a:	d64fb0ef          	jal	12b9e <_malloc_r>
   1763e:	10a42c23          	sw	a0,280(s0)
   17642:	cd09                	beqz	a0,1765c <_init_signal_r+0x38>
   17644:	08050793          	add	a5,a0,128
   17648:	00052023          	sw	zero,0(a0)
   1764c:	0511                	add	a0,a0,4
   1764e:	fef51de3          	bne	a0,a5,17648 <_init_signal_r+0x24>
   17652:	4501                	li	a0,0
   17654:	40b2                	lw	ra,12(sp)
   17656:	4422                	lw	s0,8(sp)
   17658:	0141                	add	sp,sp,16
   1765a:	8082                	ret
   1765c:	557d                	li	a0,-1
   1765e:	bfdd                	j	17654 <_init_signal_r+0x30>

00017660 <_signal_r>:
   17660:	1101                	add	sp,sp,-32
   17662:	ca26                	sw	s1,20(sp)
   17664:	ce06                	sw	ra,28(sp)
   17666:	47fd                	li	a5,31
   17668:	84aa                	mv	s1,a0
   1766a:	02b7e063          	bltu	a5,a1,1768a <_signal_r+0x2a>
   1766e:	11852783          	lw	a5,280(a0)
   17672:	cc22                	sw	s0,24(sp)
   17674:	842e                	mv	s0,a1
   17676:	cf91                	beqz	a5,17692 <_signal_r+0x32>
   17678:	040a                	sll	s0,s0,0x2
   1767a:	97a2                	add	a5,a5,s0
   1767c:	4462                	lw	s0,24(sp)
   1767e:	4388                	lw	a0,0(a5)
   17680:	c390                	sw	a2,0(a5)
   17682:	40f2                	lw	ra,28(sp)
   17684:	44d2                	lw	s1,20(sp)
   17686:	6105                	add	sp,sp,32
   17688:	8082                	ret
   1768a:	47d9                	li	a5,22
   1768c:	c11c                	sw	a5,0(a0)
   1768e:	557d                	li	a0,-1
   17690:	bfcd                	j	17682 <_signal_r+0x22>
   17692:	08000593          	li	a1,128
   17696:	c632                	sw	a2,12(sp)
   17698:	d06fb0ef          	jal	12b9e <_malloc_r>
   1769c:	10a4ac23          	sw	a0,280(s1)
   176a0:	4632                	lw	a2,12(sp)
   176a2:	87aa                	mv	a5,a0
   176a4:	872a                	mv	a4,a0
   176a6:	08050693          	add	a3,a0,128
   176aa:	c519                	beqz	a0,176b8 <_signal_r+0x58>
   176ac:	00072023          	sw	zero,0(a4)
   176b0:	0711                	add	a4,a4,4
   176b2:	fed71de3          	bne	a4,a3,176ac <_signal_r+0x4c>
   176b6:	b7c9                	j	17678 <_signal_r+0x18>
   176b8:	4462                	lw	s0,24(sp)
   176ba:	557d                	li	a0,-1
   176bc:	b7d9                	j	17682 <_signal_r+0x22>

000176be <_raise_r>:
   176be:	1141                	add	sp,sp,-16
   176c0:	c226                	sw	s1,4(sp)
   176c2:	c606                	sw	ra,12(sp)
   176c4:	47fd                	li	a5,31
   176c6:	84aa                	mv	s1,a0
   176c8:	04b7ee63          	bltu	a5,a1,17724 <_raise_r+0x66>
   176cc:	11852783          	lw	a5,280(a0)
   176d0:	c422                	sw	s0,8(sp)
   176d2:	842e                	mv	s0,a1
   176d4:	c795                	beqz	a5,17700 <_raise_r+0x42>
   176d6:	00259713          	sll	a4,a1,0x2
   176da:	97ba                	add	a5,a5,a4
   176dc:	4398                	lw	a4,0(a5)
   176de:	c30d                	beqz	a4,17700 <_raise_r+0x42>
   176e0:	4685                	li	a3,1
   176e2:	00d70963          	beq	a4,a3,176f4 <_raise_r+0x36>
   176e6:	56fd                	li	a3,-1
   176e8:	02d70663          	beq	a4,a3,17714 <_raise_r+0x56>
   176ec:	0007a023          	sw	zero,0(a5)
   176f0:	852e                	mv	a0,a1
   176f2:	9702                	jalr	a4
   176f4:	4422                	lw	s0,8(sp)
   176f6:	4501                	li	a0,0
   176f8:	40b2                	lw	ra,12(sp)
   176fa:	4492                	lw	s1,4(sp)
   176fc:	0141                	add	sp,sp,16
   176fe:	8082                	ret
   17700:	8526                	mv	a0,s1
   17702:	2459                	jal	17988 <_getpid_r>
   17704:	8622                	mv	a2,s0
   17706:	4422                	lw	s0,8(sp)
   17708:	40b2                	lw	ra,12(sp)
   1770a:	85aa                	mv	a1,a0
   1770c:	8526                	mv	a0,s1
   1770e:	4492                	lw	s1,4(sp)
   17710:	0141                	add	sp,sp,16
   17712:	a489                	j	17954 <_kill_r>
   17714:	4422                	lw	s0,8(sp)
   17716:	40b2                	lw	ra,12(sp)
   17718:	47d9                	li	a5,22
   1771a:	c11c                	sw	a5,0(a0)
   1771c:	4492                	lw	s1,4(sp)
   1771e:	4505                	li	a0,1
   17720:	0141                	add	sp,sp,16
   17722:	8082                	ret
   17724:	47d9                	li	a5,22
   17726:	c11c                	sw	a5,0(a0)
   17728:	557d                	li	a0,-1
   1772a:	b7f9                	j	176f8 <_raise_r+0x3a>

0001772c <__sigtramp_r>:
   1772c:	47fd                	li	a5,31
   1772e:	08b7e163          	bltu	a5,a1,177b0 <__sigtramp_r+0x84>
   17732:	11852783          	lw	a5,280(a0)
   17736:	1141                	add	sp,sp,-16
   17738:	c422                	sw	s0,8(sp)
   1773a:	c226                	sw	s1,4(sp)
   1773c:	c606                	sw	ra,12(sp)
   1773e:	842e                	mv	s0,a1
   17740:	84aa                	mv	s1,a0
   17742:	c7a1                	beqz	a5,1778a <__sigtramp_r+0x5e>
   17744:	00241713          	sll	a4,s0,0x2
   17748:	97ba                	add	a5,a5,a4
   1774a:	4398                	lw	a4,0(a5)
   1774c:	c30d                	beqz	a4,1776e <__sigtramp_r+0x42>
   1774e:	56fd                	li	a3,-1
   17750:	02d70b63          	beq	a4,a3,17786 <__sigtramp_r+0x5a>
   17754:	4685                	li	a3,1
   17756:	02d70263          	beq	a4,a3,1777a <__sigtramp_r+0x4e>
   1775a:	8522                	mv	a0,s0
   1775c:	0007a023          	sw	zero,0(a5)
   17760:	9702                	jalr	a4
   17762:	4501                	li	a0,0
   17764:	40b2                	lw	ra,12(sp)
   17766:	4422                	lw	s0,8(sp)
   17768:	4492                	lw	s1,4(sp)
   1776a:	0141                	add	sp,sp,16
   1776c:	8082                	ret
   1776e:	40b2                	lw	ra,12(sp)
   17770:	4422                	lw	s0,8(sp)
   17772:	4492                	lw	s1,4(sp)
   17774:	4505                	li	a0,1
   17776:	0141                	add	sp,sp,16
   17778:	8082                	ret
   1777a:	40b2                	lw	ra,12(sp)
   1777c:	4422                	lw	s0,8(sp)
   1777e:	4492                	lw	s1,4(sp)
   17780:	450d                	li	a0,3
   17782:	0141                	add	sp,sp,16
   17784:	8082                	ret
   17786:	4509                	li	a0,2
   17788:	bff1                	j	17764 <__sigtramp_r+0x38>
   1778a:	08000593          	li	a1,128
   1778e:	c10fb0ef          	jal	12b9e <_malloc_r>
   17792:	10a4ac23          	sw	a0,280(s1)
   17796:	87aa                	mv	a5,a0
   17798:	c911                	beqz	a0,177ac <__sigtramp_r+0x80>
   1779a:	872a                	mv	a4,a0
   1779c:	08050693          	add	a3,a0,128
   177a0:	00072023          	sw	zero,0(a4)
   177a4:	0711                	add	a4,a4,4
   177a6:	fed71de3          	bne	a4,a3,177a0 <__sigtramp_r+0x74>
   177aa:	bf69                	j	17744 <__sigtramp_r+0x18>
   177ac:	557d                	li	a0,-1
   177ae:	bf5d                	j	17764 <__sigtramp_r+0x38>
   177b0:	557d                	li	a0,-1
   177b2:	8082                	ret

000177b4 <raise>:
   177b4:	1141                	add	sp,sp,-16
   177b6:	c226                	sw	s1,4(sp)
   177b8:	c606                	sw	ra,12(sp)
   177ba:	47fd                	li	a5,31
   177bc:	fdc1a483          	lw	s1,-36(gp) # 1e7ec <_impure_ptr>
   177c0:	04a7ed63          	bltu	a5,a0,1781a <raise+0x66>
   177c4:	1184a783          	lw	a5,280(s1)
   177c8:	c422                	sw	s0,8(sp)
   177ca:	842a                	mv	s0,a0
   177cc:	c78d                	beqz	a5,177f6 <raise+0x42>
   177ce:	00251713          	sll	a4,a0,0x2
   177d2:	97ba                	add	a5,a5,a4
   177d4:	4398                	lw	a4,0(a5)
   177d6:	c305                	beqz	a4,177f6 <raise+0x42>
   177d8:	4685                	li	a3,1
   177da:	00d70863          	beq	a4,a3,177ea <raise+0x36>
   177de:	56fd                	li	a3,-1
   177e0:	02d70563          	beq	a4,a3,1780a <raise+0x56>
   177e4:	0007a023          	sw	zero,0(a5)
   177e8:	9702                	jalr	a4
   177ea:	4422                	lw	s0,8(sp)
   177ec:	4501                	li	a0,0
   177ee:	40b2                	lw	ra,12(sp)
   177f0:	4492                	lw	s1,4(sp)
   177f2:	0141                	add	sp,sp,16
   177f4:	8082                	ret
   177f6:	8526                	mv	a0,s1
   177f8:	2a41                	jal	17988 <_getpid_r>
   177fa:	8622                	mv	a2,s0
   177fc:	4422                	lw	s0,8(sp)
   177fe:	40b2                	lw	ra,12(sp)
   17800:	85aa                	mv	a1,a0
   17802:	8526                	mv	a0,s1
   17804:	4492                	lw	s1,4(sp)
   17806:	0141                	add	sp,sp,16
   17808:	a2b1                	j	17954 <_kill_r>
   1780a:	4422                	lw	s0,8(sp)
   1780c:	40b2                	lw	ra,12(sp)
   1780e:	47d9                	li	a5,22
   17810:	c09c                	sw	a5,0(s1)
   17812:	4505                	li	a0,1
   17814:	4492                	lw	s1,4(sp)
   17816:	0141                	add	sp,sp,16
   17818:	8082                	ret
   1781a:	47d9                	li	a5,22
   1781c:	c09c                	sw	a5,0(s1)
   1781e:	557d                	li	a0,-1
   17820:	b7f9                	j	177ee <raise+0x3a>

00017822 <signal>:
   17822:	1141                	add	sp,sp,-16
   17824:	c04a                	sw	s2,0(sp)
   17826:	c606                	sw	ra,12(sp)
   17828:	47fd                	li	a5,31
   1782a:	fdc1a903          	lw	s2,-36(gp) # 1e7ec <_impure_ptr>
   1782e:	02a7e463          	bltu	a5,a0,17856 <signal+0x34>
   17832:	c422                	sw	s0,8(sp)
   17834:	842a                	mv	s0,a0
   17836:	11892503          	lw	a0,280(s2)
   1783a:	c226                	sw	s1,4(sp)
   1783c:	84ae                	mv	s1,a1
   1783e:	c10d                	beqz	a0,17860 <signal+0x3e>
   17840:	040a                	sll	s0,s0,0x2
   17842:	008507b3          	add	a5,a0,s0
   17846:	4388                	lw	a0,0(a5)
   17848:	4422                	lw	s0,8(sp)
   1784a:	c384                	sw	s1,0(a5)
   1784c:	4492                	lw	s1,4(sp)
   1784e:	40b2                	lw	ra,12(sp)
   17850:	4902                	lw	s2,0(sp)
   17852:	0141                	add	sp,sp,16
   17854:	8082                	ret
   17856:	47d9                	li	a5,22
   17858:	00f92023          	sw	a5,0(s2)
   1785c:	557d                	li	a0,-1
   1785e:	bfc5                	j	1784e <signal+0x2c>
   17860:	08000593          	li	a1,128
   17864:	854a                	mv	a0,s2
   17866:	b38fb0ef          	jal	12b9e <_malloc_r>
   1786a:	10a92c23          	sw	a0,280(s2)
   1786e:	87aa                	mv	a5,a0
   17870:	08050713          	add	a4,a0,128
   17874:	c519                	beqz	a0,17882 <signal+0x60>
   17876:	0007a023          	sw	zero,0(a5)
   1787a:	0791                	add	a5,a5,4
   1787c:	fef71de3          	bne	a4,a5,17876 <signal+0x54>
   17880:	b7c1                	j	17840 <signal+0x1e>
   17882:	4422                	lw	s0,8(sp)
   17884:	4492                	lw	s1,4(sp)
   17886:	557d                	li	a0,-1
   17888:	b7d9                	j	1784e <signal+0x2c>

0001788a <_init_signal>:
   1788a:	1141                	add	sp,sp,-16
   1788c:	c422                	sw	s0,8(sp)
   1788e:	fdc1a403          	lw	s0,-36(gp) # 1e7ec <_impure_ptr>
   17892:	11842783          	lw	a5,280(s0)
   17896:	c606                	sw	ra,12(sp)
   17898:	c791                	beqz	a5,178a4 <_init_signal+0x1a>
   1789a:	4501                	li	a0,0
   1789c:	40b2                	lw	ra,12(sp)
   1789e:	4422                	lw	s0,8(sp)
   178a0:	0141                	add	sp,sp,16
   178a2:	8082                	ret
   178a4:	08000593          	li	a1,128
   178a8:	8522                	mv	a0,s0
   178aa:	af4fb0ef          	jal	12b9e <_malloc_r>
   178ae:	10a42c23          	sw	a0,280(s0)
   178b2:	c909                	beqz	a0,178c4 <_init_signal+0x3a>
   178b4:	08050793          	add	a5,a0,128
   178b8:	00052023          	sw	zero,0(a0)
   178bc:	0511                	add	a0,a0,4
   178be:	fef51de3          	bne	a0,a5,178b8 <_init_signal+0x2e>
   178c2:	bfe1                	j	1789a <_init_signal+0x10>
   178c4:	557d                	li	a0,-1
   178c6:	bfd9                	j	1789c <_init_signal+0x12>

000178c8 <__sigtramp>:
   178c8:	1141                	add	sp,sp,-16
   178ca:	c226                	sw	s1,4(sp)
   178cc:	c606                	sw	ra,12(sp)
   178ce:	47fd                	li	a5,31
   178d0:	fdc1a483          	lw	s1,-36(gp) # 1e7ec <_impure_ptr>
   178d4:	06a7ee63          	bltu	a5,a0,17950 <__sigtramp+0x88>
   178d8:	1184a783          	lw	a5,280(s1)
   178dc:	c422                	sw	s0,8(sp)
   178de:	842a                	mv	s0,a0
   178e0:	c7a9                	beqz	a5,1792a <__sigtramp+0x62>
   178e2:	00241713          	sll	a4,s0,0x2
   178e6:	97ba                	add	a5,a5,a4
   178e8:	4398                	lw	a4,0(a5)
   178ea:	c30d                	beqz	a4,1790c <__sigtramp+0x44>
   178ec:	56fd                	li	a3,-1
   178ee:	02d70b63          	beq	a4,a3,17924 <__sigtramp+0x5c>
   178f2:	4685                	li	a3,1
   178f4:	02d70263          	beq	a4,a3,17918 <__sigtramp+0x50>
   178f8:	8522                	mv	a0,s0
   178fa:	0007a023          	sw	zero,0(a5)
   178fe:	9702                	jalr	a4
   17900:	4422                	lw	s0,8(sp)
   17902:	4501                	li	a0,0
   17904:	40b2                	lw	ra,12(sp)
   17906:	4492                	lw	s1,4(sp)
   17908:	0141                	add	sp,sp,16
   1790a:	8082                	ret
   1790c:	4422                	lw	s0,8(sp)
   1790e:	40b2                	lw	ra,12(sp)
   17910:	4492                	lw	s1,4(sp)
   17912:	4505                	li	a0,1
   17914:	0141                	add	sp,sp,16
   17916:	8082                	ret
   17918:	4422                	lw	s0,8(sp)
   1791a:	40b2                	lw	ra,12(sp)
   1791c:	4492                	lw	s1,4(sp)
   1791e:	450d                	li	a0,3
   17920:	0141                	add	sp,sp,16
   17922:	8082                	ret
   17924:	4422                	lw	s0,8(sp)
   17926:	4509                	li	a0,2
   17928:	bff1                	j	17904 <__sigtramp+0x3c>
   1792a:	08000593          	li	a1,128
   1792e:	8526                	mv	a0,s1
   17930:	a6efb0ef          	jal	12b9e <_malloc_r>
   17934:	10a4ac23          	sw	a0,280(s1)
   17938:	87aa                	mv	a5,a0
   1793a:	c911                	beqz	a0,1794e <__sigtramp+0x86>
   1793c:	872a                	mv	a4,a0
   1793e:	08050693          	add	a3,a0,128
   17942:	00072023          	sw	zero,0(a4)
   17946:	0711                	add	a4,a4,4
   17948:	fee69de3          	bne	a3,a4,17942 <__sigtramp+0x7a>
   1794c:	bf59                	j	178e2 <__sigtramp+0x1a>
   1794e:	4422                	lw	s0,8(sp)
   17950:	557d                	li	a0,-1
   17952:	bf4d                	j	17904 <__sigtramp+0x3c>

00017954 <_kill_r>:
   17954:	1141                	add	sp,sp,-16
   17956:	872e                	mv	a4,a1
   17958:	c422                	sw	s0,8(sp)
   1795a:	85b2                	mv	a1,a2
   1795c:	842a                	mv	s0,a0
   1795e:	853a                	mv	a0,a4
   17960:	0001a023          	sw	zero,0(gp) # 1e810 <errno>
   17964:	c606                	sw	ra,12(sp)
   17966:	0d5010ef          	jal	1923a <_kill>
   1796a:	57fd                	li	a5,-1
   1796c:	00f50663          	beq	a0,a5,17978 <_kill_r+0x24>
   17970:	40b2                	lw	ra,12(sp)
   17972:	4422                	lw	s0,8(sp)
   17974:	0141                	add	sp,sp,16
   17976:	8082                	ret
   17978:	0001a783          	lw	a5,0(gp) # 1e810 <errno>
   1797c:	dbf5                	beqz	a5,17970 <_kill_r+0x1c>
   1797e:	40b2                	lw	ra,12(sp)
   17980:	c01c                	sw	a5,0(s0)
   17982:	4422                	lw	s0,8(sp)
   17984:	0141                	add	sp,sp,16
   17986:	8082                	ret

00017988 <_getpid_r>:
   17988:	08b0106f          	j	19212 <_getpid>

0001798c <__sprint_r.part.0>:
   1798c:	51fc                	lw	a5,100(a1)
   1798e:	7179                	add	sp,sp,-48
   17990:	c85a                	sw	s6,16(sp)
   17992:	d606                	sw	ra,44(sp)
   17994:	01279713          	sll	a4,a5,0x12
   17998:	8b32                	mv	s6,a2
   1799a:	08075b63          	bgez	a4,17a30 <__sprint_r.part.0+0xa4>
   1799e:	461c                	lw	a5,8(a2)
   179a0:	d04a                	sw	s2,32(sp)
   179a2:	ce4e                	sw	s3,28(sp)
   179a4:	ca56                	sw	s5,20(sp)
   179a6:	c65e                	sw	s7,12(sp)
   179a8:	892e                	mv	s2,a1
   179aa:	00062b83          	lw	s7,0(a2)
   179ae:	89aa                	mv	s3,a0
   179b0:	5afd                	li	s5,-1
   179b2:	cbad                	beqz	a5,17a24 <__sprint_r.part.0+0x98>
   179b4:	d422                	sw	s0,40(sp)
   179b6:	d226                	sw	s1,36(sp)
   179b8:	cc52                	sw	s4,24(sp)
   179ba:	c462                	sw	s8,8(sp)
   179bc:	004bac03          	lw	s8,4(s7)
   179c0:	000ba403          	lw	s0,0(s7)
   179c4:	002c5a13          	srl	s4,s8,0x2
   179c8:	040a0263          	beqz	s4,17a0c <__sprint_r.part.0+0x80>
   179cc:	4481                	li	s1,0
   179ce:	a021                	j	179d6 <__sprint_r.part.0+0x4a>
   179d0:	0411                	add	s0,s0,4
   179d2:	029a0b63          	beq	s4,s1,17a08 <__sprint_r.part.0+0x7c>
   179d6:	400c                	lw	a1,0(s0)
   179d8:	864a                	mv	a2,s2
   179da:	854e                	mv	a0,s3
   179dc:	3b2010ef          	jal	18d8e <_fputwc_r>
   179e0:	0485                	add	s1,s1,1
   179e2:	ff5517e3          	bne	a0,s5,179d0 <__sprint_r.part.0+0x44>
   179e6:	5422                	lw	s0,40(sp)
   179e8:	5492                	lw	s1,36(sp)
   179ea:	5902                	lw	s2,32(sp)
   179ec:	49f2                	lw	s3,28(sp)
   179ee:	4a62                	lw	s4,24(sp)
   179f0:	4ad2                	lw	s5,20(sp)
   179f2:	4bb2                	lw	s7,12(sp)
   179f4:	4c22                	lw	s8,8(sp)
   179f6:	557d                	li	a0,-1
   179f8:	50b2                	lw	ra,44(sp)
   179fa:	000b2423          	sw	zero,8(s6)
   179fe:	000b2223          	sw	zero,4(s6)
   17a02:	4b42                	lw	s6,16(sp)
   17a04:	6145                	add	sp,sp,48
   17a06:	8082                	ret
   17a08:	008b2783          	lw	a5,8(s6)
   17a0c:	ffcc7c13          	and	s8,s8,-4
   17a10:	418787b3          	sub	a5,a5,s8
   17a14:	00fb2423          	sw	a5,8(s6)
   17a18:	0ba1                	add	s7,s7,8
   17a1a:	f3cd                	bnez	a5,179bc <__sprint_r.part.0+0x30>
   17a1c:	5422                	lw	s0,40(sp)
   17a1e:	5492                	lw	s1,36(sp)
   17a20:	4a62                	lw	s4,24(sp)
   17a22:	4c22                	lw	s8,8(sp)
   17a24:	5902                	lw	s2,32(sp)
   17a26:	49f2                	lw	s3,28(sp)
   17a28:	4ad2                	lw	s5,20(sp)
   17a2a:	4bb2                	lw	s7,12(sp)
   17a2c:	4501                	li	a0,0
   17a2e:	b7e9                	j	179f8 <__sprint_r.part.0+0x6c>
   17a30:	68f000ef          	jal	188be <__sfvwrite_r>
   17a34:	50b2                	lw	ra,44(sp)
   17a36:	000b2423          	sw	zero,8(s6)
   17a3a:	000b2223          	sw	zero,4(s6)
   17a3e:	4b42                	lw	s6,16(sp)
   17a40:	6145                	add	sp,sp,48
   17a42:	8082                	ret

00017a44 <__sprint_r>:
   17a44:	4618                	lw	a4,8(a2)
   17a46:	c311                	beqz	a4,17a4a <__sprint_r+0x6>
   17a48:	b791                	j	1798c <__sprint_r.part.0>
   17a4a:	00062223          	sw	zero,4(a2)
   17a4e:	4501                	li	a0,0
   17a50:	8082                	ret

00017a52 <_vfiprintf_r>:
   17a52:	7169                	add	sp,sp,-304
   17a54:	11312e23          	sw	s3,284(sp)
   17a58:	11612823          	sw	s6,272(sp)
   17a5c:	11712623          	sw	s7,268(sp)
   17a60:	11812423          	sw	s8,264(sp)
   17a64:	12112623          	sw	ra,300(sp)
   17a68:	dfee                	sw	s11,252(sp)
   17a6a:	8c2a                	mv	s8,a0
   17a6c:	8b2e                	mv	s6,a1
   17a6e:	89b2                	mv	s3,a2
   17a70:	8bb6                	mv	s7,a3
   17a72:	c501                	beqz	a0,17a7a <_vfiprintf_r+0x28>
   17a74:	595c                	lw	a5,52(a0)
   17a76:	4a0787e3          	beqz	a5,18724 <_vfiprintf_r+0xcd2>
   17a7a:	00cb1783          	lh	a5,12(s6)
   17a7e:	01279713          	sll	a4,a5,0x12
   17a82:	00074f63          	bltz	a4,17aa0 <_vfiprintf_r+0x4e>
   17a86:	064b2703          	lw	a4,100(s6)
   17a8a:	6609                	lui	a2,0x2
   17a8c:	76f9                	lui	a3,0xffffe
   17a8e:	8fd1                	or	a5,a5,a2
   17a90:	16fd                	add	a3,a3,-1 # ffffdfff <__BSS_END__+0xfffdf4db>
   17a92:	07c2                	sll	a5,a5,0x10
   17a94:	87c1                	sra	a5,a5,0x10
   17a96:	8f75                	and	a4,a4,a3
   17a98:	00fb1623          	sh	a5,12(s6)
   17a9c:	06eb2223          	sw	a4,100(s6)
   17aa0:	0087f713          	and	a4,a5,8
   17aa4:	c365                	beqz	a4,17b84 <_vfiprintf_r+0x132>
   17aa6:	010b2703          	lw	a4,16(s6)
   17aaa:	cf69                	beqz	a4,17b84 <_vfiprintf_r+0x132>
   17aac:	8be9                	and	a5,a5,26
   17aae:	4729                	li	a4,10
   17ab0:	0ee78663          	beq	a5,a4,17b9c <_vfiprintf_r+0x14a>
   17ab4:	11512a23          	sw	s5,276(sp)
   17ab8:	4d81                	li	s11,0
   17aba:	04c10a93          	add	s5,sp,76
   17abe:	12812423          	sw	s0,296(sp)
   17ac2:	11412c23          	sw	s4,280(sp)
   17ac6:	11912223          	sw	s9,260(sp)
   17aca:	11a12023          	sw	s10,256(sp)
   17ace:	c062                	sw	s8,0(sp)
   17ad0:	12912223          	sw	s1,292(sp)
   17ad4:	13212023          	sw	s2,288(sp)
   17ad8:	c0d6                	sw	s5,64(sp)
   17ada:	c482                	sw	zero,72(sp)
   17adc:	c282                	sw	zero,68(sp)
   17ade:	8456                	mv	s0,s5
   17ae0:	c202                	sw	zero,4(sp)
   17ae2:	ca02                	sw	zero,20(sp)
   17ae4:	cc02                	sw	zero,24(sp)
   17ae6:	ce02                	sw	zero,28(sp)
   17ae8:	00006d17          	auipc	s10,0x6
   17aec:	11cd0d13          	add	s10,s10,284 # 1dc04 <_ctype_+0x144>
   17af0:	4a41                	li	s4,16
   17af2:	00006c97          	auipc	s9,0x6
   17af6:	28ec8c93          	add	s9,s9,654 # 1dd80 <zeroes.0>
   17afa:	8c6e                	mv	s8,s11
   17afc:	885e                	mv	a6,s7
   17afe:	0009c783          	lbu	a5,0(s3)
   17b02:	22078f63          	beqz	a5,17d40 <_vfiprintf_r+0x2ee>
   17b06:	84ce                	mv	s1,s3
   17b08:	02500713          	li	a4,37
   17b0c:	2ae78b63          	beq	a5,a4,17dc2 <_vfiprintf_r+0x370>
   17b10:	0014c783          	lbu	a5,1(s1)
   17b14:	0485                	add	s1,s1,1
   17b16:	fbfd                	bnez	a5,17b0c <_vfiprintf_r+0xba>
   17b18:	41348933          	sub	s2,s1,s3
   17b1c:	23348263          	beq	s1,s3,17d40 <_vfiprintf_r+0x2ee>
   17b20:	4726                	lw	a4,72(sp)
   17b22:	4796                	lw	a5,68(sp)
   17b24:	01342023          	sw	s3,0(s0)
   17b28:	974a                	add	a4,a4,s2
   17b2a:	0785                	add	a5,a5,1
   17b2c:	01242223          	sw	s2,4(s0)
   17b30:	c4ba                	sw	a4,72(sp)
   17b32:	c2be                	sw	a5,68(sp)
   17b34:	469d                	li	a3,7
   17b36:	0421                	add	s0,s0,8
   17b38:	00f6dc63          	bge	a3,a5,17b50 <_vfiprintf_r+0xfe>
   17b3c:	10070fe3          	beqz	a4,1845a <_vfiprintf_r+0xa08>
   17b40:	4502                	lw	a0,0(sp)
   17b42:	0090                	add	a2,sp,64
   17b44:	85da                	mv	a1,s6
   17b46:	c442                	sw	a6,8(sp)
   17b48:	3591                	jal	1798c <__sprint_r.part.0>
   17b4a:	4822                	lw	a6,8(sp)
   17b4c:	e551                	bnez	a0,17bd8 <_vfiprintf_r+0x186>
   17b4e:	8456                	mv	s0,s5
   17b50:	0004c783          	lbu	a5,0(s1)
   17b54:	9c4a                	add	s8,s8,s2
   17b56:	1e078563          	beqz	a5,17d40 <_vfiprintf_r+0x2ee>
   17b5a:	0014c703          	lbu	a4,1(s1)
   17b5e:	00148993          	add	s3,s1,1
   17b62:	02010da3          	sb	zero,59(sp)
   17b66:	54fd                	li	s1,-1
   17b68:	4b81                	li	s7,0
   17b6a:	4d81                	li	s11,0
   17b6c:	05a00913          	li	s2,90
   17b70:	0985                	add	s3,s3,1
   17b72:	fe070793          	add	a5,a4,-32
   17b76:	0cf96863          	bltu	s2,a5,17c46 <_vfiprintf_r+0x1f4>
   17b7a:	078a                	sll	a5,a5,0x2
   17b7c:	97ea                	add	a5,a5,s10
   17b7e:	439c                	lw	a5,0(a5)
   17b80:	97ea                	add	a5,a5,s10
   17b82:	8782                	jr	a5
   17b84:	85da                	mv	a1,s6
   17b86:	8562                	mv	a0,s8
   17b88:	090010ef          	jal	18c18 <__swsetup_r>
   17b8c:	460513e3          	bnez	a0,187f2 <_vfiprintf_r+0xda0>
   17b90:	00cb1783          	lh	a5,12(s6)
   17b94:	4729                	li	a4,10
   17b96:	8be9                	and	a5,a5,26
   17b98:	f0e79ee3          	bne	a5,a4,17ab4 <_vfiprintf_r+0x62>
   17b9c:	00eb1783          	lh	a5,14(s6)
   17ba0:	f007cae3          	bltz	a5,17ab4 <_vfiprintf_r+0x62>
   17ba4:	12c12083          	lw	ra,300(sp)
   17ba8:	5dfe                	lw	s11,252(sp)
   17baa:	86de                	mv	a3,s7
   17bac:	864e                	mv	a2,s3
   17bae:	10c12b83          	lw	s7,268(sp)
   17bb2:	11c12983          	lw	s3,284(sp)
   17bb6:	85da                	mv	a1,s6
   17bb8:	8562                	mv	a0,s8
   17bba:	11012b03          	lw	s6,272(sp)
   17bbe:	10812c03          	lw	s8,264(sp)
   17bc2:	6155                	add	sp,sp,304
   17bc4:	4650006f          	j	18828 <__sbprintf>
   17bc8:	4502                	lw	a0,0(sp)
   17bca:	0090                	add	a2,sp,64
   17bcc:	85da                	mv	a1,s6
   17bce:	c442                	sw	a6,8(sp)
   17bd0:	3b75                	jal	1798c <__sprint_r.part.0>
   17bd2:	4822                	lw	a6,8(sp)
   17bd4:	16050063          	beqz	a0,17d34 <_vfiprintf_r+0x2e2>
   17bd8:	8de2                	mv	s11,s8
   17bda:	00cb5783          	lhu	a5,12(s6)
   17bde:	12812403          	lw	s0,296(sp)
   17be2:	12412483          	lw	s1,292(sp)
   17be6:	0407f793          	and	a5,a5,64
   17bea:	12012903          	lw	s2,288(sp)
   17bee:	11812a03          	lw	s4,280(sp)
   17bf2:	11412a83          	lw	s5,276(sp)
   17bf6:	10412c83          	lw	s9,260(sp)
   17bfa:	10012d03          	lw	s10,256(sp)
   17bfe:	3e079ae3          	bnez	a5,187f2 <_vfiprintf_r+0xda0>
   17c02:	12c12083          	lw	ra,300(sp)
   17c06:	11c12983          	lw	s3,284(sp)
   17c0a:	11012b03          	lw	s6,272(sp)
   17c0e:	10c12b83          	lw	s7,268(sp)
   17c12:	10812c03          	lw	s8,264(sp)
   17c16:	856e                	mv	a0,s11
   17c18:	5dfe                	lw	s11,252(sp)
   17c1a:	6155                	add	sp,sp,304
   17c1c:	8082                	ret
   17c1e:	4b81                	li	s7,0
   17c20:	fd070793          	add	a5,a4,-48
   17c24:	4625                	li	a2,9
   17c26:	0009c703          	lbu	a4,0(s3)
   17c2a:	002b9693          	sll	a3,s7,0x2
   17c2e:	9bb6                	add	s7,s7,a3
   17c30:	0b86                	sll	s7,s7,0x1
   17c32:	9bbe                	add	s7,s7,a5
   17c34:	fd070793          	add	a5,a4,-48
   17c38:	0985                	add	s3,s3,1
   17c3a:	fef676e3          	bgeu	a2,a5,17c26 <_vfiprintf_r+0x1d4>
   17c3e:	fe070793          	add	a5,a4,-32
   17c42:	f2f97ce3          	bgeu	s2,a5,17b7a <_vfiprintf_r+0x128>
   17c46:	0e070d63          	beqz	a4,17d40 <_vfiprintf_r+0x2ee>
   17c4a:	08e10623          	sb	a4,140(sp)
   17c4e:	02010da3          	sb	zero,59(sp)
   17c52:	4685                	li	a3,1
   17c54:	4885                	li	a7,1
   17c56:	08c10913          	add	s2,sp,140
   17c5a:	4481                	li	s1,0
   17c5c:	4f01                	li	t5,0
   17c5e:	4616                	lw	a2,68(sp)
   17c60:	084dff93          	and	t6,s11,132
   17c64:	47a6                	lw	a5,72(sp)
   17c66:	00160593          	add	a1,a2,1 # 2001 <register_fini-0xe093>
   17c6a:	8e2e                	mv	t3,a1
   17c6c:	000f9663          	bnez	t6,17c78 <_vfiprintf_r+0x226>
   17c70:	40db8733          	sub	a4,s7,a3
   17c74:	70e04963          	bgtz	a4,18386 <_vfiprintf_r+0x934>
   17c78:	03b14703          	lbu	a4,59(sp)
   17c7c:	cf19                	beqz	a4,17c9a <_vfiprintf_r+0x248>
   17c7e:	03b10713          	add	a4,sp,59
   17c82:	0785                	add	a5,a5,1
   17c84:	c018                	sw	a4,0(s0)
   17c86:	4705                	li	a4,1
   17c88:	c058                	sw	a4,4(s0)
   17c8a:	c4be                	sw	a5,72(sp)
   17c8c:	c2f2                	sw	t3,68(sp)
   17c8e:	471d                	li	a4,7
   17c90:	67c74863          	blt	a4,t3,18300 <_vfiprintf_r+0x8ae>
   17c94:	8672                	mv	a2,t3
   17c96:	0421                	add	s0,s0,8
   17c98:	0e05                	add	t3,t3,1
   17c9a:	040f0063          	beqz	t5,17cda <_vfiprintf_r+0x288>
   17c9e:	1878                	add	a4,sp,60
   17ca0:	0789                	add	a5,a5,2
   17ca2:	c018                	sw	a4,0(s0)
   17ca4:	4709                	li	a4,2
   17ca6:	c058                	sw	a4,4(s0)
   17ca8:	c4be                	sw	a5,72(sp)
   17caa:	c2f2                	sw	t3,68(sp)
   17cac:	471d                	li	a4,7
   17cae:	69c75963          	bge	a4,t3,18340 <_vfiprintf_r+0x8ee>
   17cb2:	7e078963          	beqz	a5,184a4 <_vfiprintf_r+0xa52>
   17cb6:	4502                	lw	a0,0(sp)
   17cb8:	0090                	add	a2,sp,64
   17cba:	85da                	mv	a1,s6
   17cbc:	d042                	sw	a6,32(sp)
   17cbe:	c836                	sw	a3,16(sp)
   17cc0:	c646                	sw	a7,12(sp)
   17cc2:	c47e                	sw	t6,8(sp)
   17cc4:	31e1                	jal	1798c <__sprint_r.part.0>
   17cc6:	f909                	bnez	a0,17bd8 <_vfiprintf_r+0x186>
   17cc8:	4616                	lw	a2,68(sp)
   17cca:	47a6                	lw	a5,72(sp)
   17ccc:	5802                	lw	a6,32(sp)
   17cce:	46c2                	lw	a3,16(sp)
   17cd0:	48b2                	lw	a7,12(sp)
   17cd2:	4fa2                	lw	t6,8(sp)
   17cd4:	8456                	mv	s0,s5
   17cd6:	00160e13          	add	t3,a2,1
   17cda:	08000713          	li	a4,128
   17cde:	4cef8463          	beq	t6,a4,181a6 <_vfiprintf_r+0x754>
   17ce2:	411484b3          	sub	s1,s1,a7
   17ce6:	58904263          	bgtz	s1,1826a <_vfiprintf_r+0x818>
   17cea:	97c6                	add	a5,a5,a7
   17cec:	01242023          	sw	s2,0(s0)
   17cf0:	01142223          	sw	a7,4(s0)
   17cf4:	c4be                	sw	a5,72(sp)
   17cf6:	c2f2                	sw	t3,68(sp)
   17cf8:	471d                	li	a4,7
   17cfa:	4bc75063          	bge	a4,t3,1819a <_vfiprintf_r+0x748>
   17cfe:	cbe9                	beqz	a5,17dd0 <_vfiprintf_r+0x37e>
   17d00:	4502                	lw	a0,0(sp)
   17d02:	0090                	add	a2,sp,64
   17d04:	85da                	mv	a1,s6
   17d06:	c642                	sw	a6,12(sp)
   17d08:	c436                	sw	a3,8(sp)
   17d0a:	3149                	jal	1798c <__sprint_r.part.0>
   17d0c:	ec0516e3          	bnez	a0,17bd8 <_vfiprintf_r+0x186>
   17d10:	47a6                	lw	a5,72(sp)
   17d12:	4832                	lw	a6,12(sp)
   17d14:	46a2                	lw	a3,8(sp)
   17d16:	8456                	mv	s0,s5
   17d18:	004dfd93          	and	s11,s11,4
   17d1c:	000d8663          	beqz	s11,17d28 <_vfiprintf_r+0x2d6>
   17d20:	40db84b3          	sub	s1,s7,a3
   17d24:	0c904063          	bgtz	s1,17de4 <_vfiprintf_r+0x392>
   17d28:	00dbd363          	bge	s7,a3,17d2e <_vfiprintf_r+0x2dc>
   17d2c:	8bb6                	mv	s7,a3
   17d2e:	9c5e                	add	s8,s8,s7
   17d30:	e8079ce3          	bnez	a5,17bc8 <_vfiprintf_r+0x176>
   17d34:	0009c783          	lbu	a5,0(s3)
   17d38:	c282                	sw	zero,68(sp)
   17d3a:	8456                	mv	s0,s5
   17d3c:	dc0795e3          	bnez	a5,17b06 <_vfiprintf_r+0xb4>
   17d40:	47a6                	lw	a5,72(sp)
   17d42:	8de2                	mv	s11,s8
   17d44:	4c02                	lw	s8,0(sp)
   17d46:	e8078ae3          	beqz	a5,17bda <_vfiprintf_r+0x188>
   17d4a:	0090                	add	a2,sp,64
   17d4c:	85da                	mv	a1,s6
   17d4e:	8562                	mv	a0,s8
   17d50:	3935                	jal	1798c <__sprint_r.part.0>
   17d52:	b561                	j	17bda <_vfiprintf_r+0x188>
   17d54:	00082b83          	lw	s7,0(a6)
   17d58:	0811                	add	a6,a6,4
   17d5a:	1e0bcd63          	bltz	s7,17f54 <_vfiprintf_r+0x502>
   17d5e:	0009c703          	lbu	a4,0(s3)
   17d62:	b539                	j	17b70 <_vfiprintf_r+0x11e>
   17d64:	0009c703          	lbu	a4,0(s3)
   17d68:	020ded93          	or	s11,s11,32
   17d6c:	b511                	j	17b70 <_vfiprintf_r+0x11e>
   17d6e:	010ded93          	or	s11,s11,16
   17d72:	020df793          	and	a5,s11,32
   17d76:	10078463          	beqz	a5,17e7e <_vfiprintf_r+0x42c>
   17d7a:	081d                	add	a6,a6,7
   17d7c:	ff887813          	and	a6,a6,-8
   17d80:	00482703          	lw	a4,4(a6)
   17d84:	00082783          	lw	a5,0(a6)
   17d88:	0821                	add	a6,a6,8
   17d8a:	88ba                	mv	a7,a4
   17d8c:	10074963          	bltz	a4,17e9e <_vfiprintf_r+0x44c>
   17d90:	1204c763          	bltz	s1,17ebe <_vfiprintf_r+0x46c>
   17d94:	0117e733          	or	a4,a5,a7
   17d98:	f7fdfd93          	and	s11,s11,-129
   17d9c:	12071163          	bnez	a4,17ebe <_vfiprintf_r+0x46c>
   17da0:	220497e3          	bnez	s1,187ce <_vfiprintf_r+0xd7c>
   17da4:	03b14783          	lbu	a5,59(sp)
   17da8:	4681                	li	a3,0
   17daa:	4881                	li	a7,0
   17dac:	0f010913          	add	s2,sp,240
   17db0:	c391                	beqz	a5,17db4 <_vfiprintf_r+0x362>
   17db2:	0685                	add	a3,a3,1
   17db4:	002dff13          	and	t5,s11,2
   17db8:	ea0f03e3          	beqz	t5,17c5e <_vfiprintf_r+0x20c>
   17dbc:	0689                	add	a3,a3,2
   17dbe:	4f09                	li	t5,2
   17dc0:	bd79                	j	17c5e <_vfiprintf_r+0x20c>
   17dc2:	41348933          	sub	s2,s1,s3
   17dc6:	d5349de3          	bne	s1,s3,17b20 <_vfiprintf_r+0xce>
   17dca:	0004c783          	lbu	a5,0(s1)
   17dce:	b361                	j	17b56 <_vfiprintf_r+0x104>
   17dd0:	c282                	sw	zero,68(sp)
   17dd2:	004dfd93          	and	s11,s11,4
   17dd6:	640d8963          	beqz	s11,18428 <_vfiprintf_r+0x9d6>
   17dda:	40db84b3          	sub	s1,s7,a3
   17dde:	64905563          	blez	s1,18428 <_vfiprintf_r+0x9d6>
   17de2:	8456                	mv	s0,s5
   17de4:	4741                	li	a4,16
   17de6:	4616                	lw	a2,68(sp)
   17de8:	1e975de3          	bge	a4,s1,187e2 <_vfiprintf_r+0xd90>
   17dec:	00006e17          	auipc	t3,0x6
   17df0:	f84e0e13          	add	t3,t3,-124 # 1dd70 <blanks.1>
   17df4:	c436                	sw	a3,8(sp)
   17df6:	4941                	li	s2,16
   17df8:	86a2                	mv	a3,s0
   17dfa:	4d9d                	li	s11,7
   17dfc:	8426                	mv	s0,s1
   17dfe:	c642                	sw	a6,12(sp)
   17e00:	84f2                	mv	s1,t3
   17e02:	a801                	j	17e12 <_vfiprintf_r+0x3c0>
   17e04:	00260593          	add	a1,a2,2
   17e08:	06a1                	add	a3,a3,8
   17e0a:	863a                	mv	a2,a4
   17e0c:	1441                	add	s0,s0,-16
   17e0e:	02895c63          	bge	s2,s0,17e46 <_vfiprintf_r+0x3f4>
   17e12:	07c1                	add	a5,a5,16
   17e14:	00160713          	add	a4,a2,1
   17e18:	c284                	sw	s1,0(a3)
   17e1a:	0126a223          	sw	s2,4(a3)
   17e1e:	c4be                	sw	a5,72(sp)
   17e20:	c2ba                	sw	a4,68(sp)
   17e22:	feedd1e3          	bge	s11,a4,17e04 <_vfiprintf_r+0x3b2>
   17e26:	36078c63          	beqz	a5,1819e <_vfiprintf_r+0x74c>
   17e2a:	4502                	lw	a0,0(sp)
   17e2c:	0090                	add	a2,sp,64
   17e2e:	85da                	mv	a1,s6
   17e30:	3eb1                	jal	1798c <__sprint_r.part.0>
   17e32:	da0513e3          	bnez	a0,17bd8 <_vfiprintf_r+0x186>
   17e36:	4616                	lw	a2,68(sp)
   17e38:	1441                	add	s0,s0,-16
   17e3a:	47a6                	lw	a5,72(sp)
   17e3c:	86d6                	mv	a3,s5
   17e3e:	00160593          	add	a1,a2,1
   17e42:	fc8948e3          	blt	s2,s0,17e12 <_vfiprintf_r+0x3c0>
   17e46:	8e26                	mv	t3,s1
   17e48:	4832                	lw	a6,12(sp)
   17e4a:	84a2                	mv	s1,s0
   17e4c:	8436                	mv	s0,a3
   17e4e:	46a2                	lw	a3,8(sp)
   17e50:	97a6                	add	a5,a5,s1
   17e52:	01c42023          	sw	t3,0(s0)
   17e56:	c044                	sw	s1,4(s0)
   17e58:	c4be                	sw	a5,72(sp)
   17e5a:	c2ae                	sw	a1,68(sp)
   17e5c:	471d                	li	a4,7
   17e5e:	ecb755e3          	bge	a4,a1,17d28 <_vfiprintf_r+0x2d6>
   17e62:	5c078363          	beqz	a5,18428 <_vfiprintf_r+0x9d6>
   17e66:	4502                	lw	a0,0(sp)
   17e68:	0090                	add	a2,sp,64
   17e6a:	85da                	mv	a1,s6
   17e6c:	c642                	sw	a6,12(sp)
   17e6e:	c436                	sw	a3,8(sp)
   17e70:	3e31                	jal	1798c <__sprint_r.part.0>
   17e72:	d60513e3          	bnez	a0,17bd8 <_vfiprintf_r+0x186>
   17e76:	47a6                	lw	a5,72(sp)
   17e78:	4832                	lw	a6,12(sp)
   17e7a:	46a2                	lw	a3,8(sp)
   17e7c:	b575                	j	17d28 <_vfiprintf_r+0x2d6>
   17e7e:	010df713          	and	a4,s11,16
   17e82:	00082783          	lw	a5,0(a6)
   17e86:	0811                	add	a6,a6,4
   17e88:	e371                	bnez	a4,17f4c <_vfiprintf_r+0x4fa>
   17e8a:	040df713          	and	a4,s11,64
   17e8e:	cb5d                	beqz	a4,17f44 <_vfiprintf_r+0x4f2>
   17e90:	07c2                	sll	a5,a5,0x10
   17e92:	87c1                	sra	a5,a5,0x10
   17e94:	41f7d893          	sra	a7,a5,0x1f
   17e98:	8746                	mv	a4,a7
   17e9a:	ee075be3          	bgez	a4,17d90 <_vfiprintf_r+0x33e>
   17e9e:	02d00693          	li	a3,45
   17ea2:	00f03733          	snez	a4,a5
   17ea6:	411008b3          	neg	a7,a7
   17eaa:	02d10da3          	sb	a3,59(sp)
   17eae:	40e888b3          	sub	a7,a7,a4
   17eb2:	40f007b3          	neg	a5,a5
   17eb6:	0004c463          	bltz	s1,17ebe <_vfiprintf_r+0x46c>
   17eba:	f7fdfd93          	and	s11,s11,-129
   17ebe:	62089263          	bnez	a7,184e2 <_vfiprintf_r+0xa90>
   17ec2:	4725                	li	a4,9
   17ec4:	60f76f63          	bltu	a4,a5,184e2 <_vfiprintf_r+0xa90>
   17ec8:	03078793          	add	a5,a5,48
   17ecc:	0ff7f793          	zext.b	a5,a5
   17ed0:	0ef107a3          	sb	a5,239(sp)
   17ed4:	86a6                	mv	a3,s1
   17ed6:	00904363          	bgtz	s1,17edc <_vfiprintf_r+0x48a>
   17eda:	4685                	li	a3,1
   17edc:	4885                	li	a7,1
   17ede:	0ef10913          	add	s2,sp,239
   17ee2:	03b14783          	lbu	a5,59(sp)
   17ee6:	ec0796e3          	bnez	a5,17db2 <_vfiprintf_r+0x360>
   17eea:	b5e9                	j	17db4 <_vfiprintf_r+0x362>
   17eec:	00082903          	lw	s2,0(a6)
   17ef0:	02010da3          	sb	zero,59(sp)
   17ef4:	0811                	add	a6,a6,4
   17ef6:	060900e3          	beqz	s2,18756 <_vfiprintf_r+0xd04>
   17efa:	c442                	sw	a6,8(sp)
   17efc:	7604c363          	bltz	s1,18662 <_vfiprintf_r+0xc10>
   17f00:	8626                	mv	a2,s1
   17f02:	4581                	li	a1,0
   17f04:	854a                	mv	a0,s2
   17f06:	f06fd0ef          	jal	1560c <memchr>
   17f0a:	4822                	lw	a6,8(sp)
   17f0c:	88a6                	mv	a7,s1
   17f0e:	c119                	beqz	a0,17f14 <_vfiprintf_r+0x4c2>
   17f10:	412508b3          	sub	a7,a0,s2
   17f14:	03b14783          	lbu	a5,59(sp)
   17f18:	fff8c693          	not	a3,a7
   17f1c:	86fd                	sra	a3,a3,0x1f
   17f1e:	00d8f6b3          	and	a3,a7,a3
   17f22:	4481                	li	s1,0
   17f24:	4f01                	li	t5,0
   17f26:	e80796e3          	bnez	a5,17db2 <_vfiprintf_r+0x360>
   17f2a:	bb15                	j	17c5e <_vfiprintf_r+0x20c>
   17f2c:	00082783          	lw	a5,0(a6)
   17f30:	02010da3          	sb	zero,59(sp)
   17f34:	0811                	add	a6,a6,4
   17f36:	08f10623          	sb	a5,140(sp)
   17f3a:	4685                	li	a3,1
   17f3c:	4885                	li	a7,1
   17f3e:	08c10913          	add	s2,sp,140
   17f42:	bb21                	j	17c5a <_vfiprintf_r+0x208>
   17f44:	200df713          	and	a4,s11,512
   17f48:	060714e3          	bnez	a4,187b0 <_vfiprintf_r+0xd5e>
   17f4c:	41f7d893          	sra	a7,a5,0x1f
   17f50:	8746                	mv	a4,a7
   17f52:	bd2d                	j	17d8c <_vfiprintf_r+0x33a>
   17f54:	41700bb3          	neg	s7,s7
   17f58:	0009c703          	lbu	a4,0(s3)
   17f5c:	004ded93          	or	s11,s11,4
   17f60:	b901                	j	17b70 <_vfiprintf_r+0x11e>
   17f62:	02b00793          	li	a5,43
   17f66:	0009c703          	lbu	a4,0(s3)
   17f6a:	02f10da3          	sb	a5,59(sp)
   17f6e:	b109                	j	17b70 <_vfiprintf_r+0x11e>
   17f70:	0009c703          	lbu	a4,0(s3)
   17f74:	080ded93          	or	s11,s11,128
   17f78:	bee5                	j	17b70 <_vfiprintf_r+0x11e>
   17f7a:	0009c703          	lbu	a4,0(s3)
   17f7e:	02a00793          	li	a5,42
   17f82:	00198613          	add	a2,s3,1
   17f86:	06f70fe3          	beq	a4,a5,18804 <_vfiprintf_r+0xdb2>
   17f8a:	fd070793          	add	a5,a4,-48
   17f8e:	46a5                	li	a3,9
   17f90:	4481                	li	s1,0
   17f92:	45a5                	li	a1,9
   17f94:	02f6e063          	bltu	a3,a5,17fb4 <_vfiprintf_r+0x562>
   17f98:	00064703          	lbu	a4,0(a2)
   17f9c:	00249693          	sll	a3,s1,0x2
   17fa0:	94b6                	add	s1,s1,a3
   17fa2:	0486                	sll	s1,s1,0x1
   17fa4:	94be                	add	s1,s1,a5
   17fa6:	fd070793          	add	a5,a4,-48
   17faa:	0605                	add	a2,a2,1
   17fac:	fef5f6e3          	bgeu	a1,a5,17f98 <_vfiprintf_r+0x546>
   17fb0:	6204cb63          	bltz	s1,185e6 <_vfiprintf_r+0xb94>
   17fb4:	89b2                	mv	s3,a2
   17fb6:	be75                	j	17b72 <_vfiprintf_r+0x120>
   17fb8:	4502                	lw	a0,0(sp)
   17fba:	c442                	sw	a6,8(sp)
   17fbc:	8cafe0ef          	jal	16086 <_localeconv_r>
   17fc0:	415c                	lw	a5,4(a0)
   17fc2:	853e                	mv	a0,a5
   17fc4:	ce3e                	sw	a5,28(sp)
   17fc6:	803fc0ef          	jal	147c8 <strlen>
   17fca:	87aa                	mv	a5,a0
   17fcc:	4502                	lw	a0,0(sp)
   17fce:	cc3e                	sw	a5,24(sp)
   17fd0:	8b6fe0ef          	jal	16086 <_localeconv_r>
   17fd4:	4518                	lw	a4,8(a0)
   17fd6:	47e2                	lw	a5,24(sp)
   17fd8:	4822                	lw	a6,8(sp)
   17fda:	ca3a                	sw	a4,20(sp)
   17fdc:	d80781e3          	beqz	a5,17d5e <_vfiprintf_r+0x30c>
   17fe0:	47d2                	lw	a5,20(sp)
   17fe2:	0009c703          	lbu	a4,0(s3)
   17fe6:	b80785e3          	beqz	a5,17b70 <_vfiprintf_r+0x11e>
   17fea:	0007c783          	lbu	a5,0(a5)
   17fee:	b80781e3          	beqz	a5,17b70 <_vfiprintf_r+0x11e>
   17ff2:	400ded93          	or	s11,s11,1024
   17ff6:	bead                	j	17b70 <_vfiprintf_r+0x11e>
   17ff8:	0009c703          	lbu	a4,0(s3)
   17ffc:	001ded93          	or	s11,s11,1
   18000:	be85                	j	17b70 <_vfiprintf_r+0x11e>
   18002:	03b14783          	lbu	a5,59(sp)
   18006:	0009c703          	lbu	a4,0(s3)
   1800a:	b60793e3          	bnez	a5,17b70 <_vfiprintf_r+0x11e>
   1800e:	02000793          	li	a5,32
   18012:	02f10da3          	sb	a5,59(sp)
   18016:	bea9                	j	17b70 <_vfiprintf_r+0x11e>
   18018:	010de713          	or	a4,s11,16
   1801c:	02077793          	and	a5,a4,32
   18020:	44078f63          	beqz	a5,1847e <_vfiprintf_r+0xa2c>
   18024:	081d                	add	a6,a6,7
   18026:	ff887813          	and	a6,a6,-8
   1802a:	00082783          	lw	a5,0(a6)
   1802e:	00482603          	lw	a2,4(a6)
   18032:	0821                	add	a6,a6,8
   18034:	02010da3          	sb	zero,59(sp)
   18038:	bff77d93          	and	s11,a4,-1025
   1803c:	0804cf63          	bltz	s1,180da <_vfiprintf_r+0x688>
   18040:	00c7e6b3          	or	a3,a5,a2
   18044:	b7f77713          	and	a4,a4,-1153
   18048:	6c069963          	bnez	a3,1871a <_vfiprintf_r+0xcc8>
   1804c:	86ee                	mv	a3,s11
   1804e:	4781                	li	a5,0
   18050:	8dba                	mv	s11,a4
   18052:	eca5                	bnez	s1,180ca <_vfiprintf_r+0x678>
   18054:	d40798e3          	bnez	a5,17da4 <_vfiprintf_r+0x352>
   18058:	0016f893          	and	a7,a3,1
   1805c:	54088963          	beqz	a7,185ae <_vfiprintf_r+0xb5c>
   18060:	03000793          	li	a5,48
   18064:	0ef107a3          	sb	a5,239(sp)
   18068:	86c6                	mv	a3,a7
   1806a:	0ef10913          	add	s2,sp,239
   1806e:	bd95                	j	17ee2 <_vfiprintf_r+0x490>
   18070:	0009c703          	lbu	a4,0(s3)
   18074:	06c00793          	li	a5,108
   18078:	6cf70163          	beq	a4,a5,1873a <_vfiprintf_r+0xce8>
   1807c:	010ded93          	or	s11,s11,16
   18080:	bcc5                	j	17b70 <_vfiprintf_r+0x11e>
   18082:	0009c703          	lbu	a4,0(s3)
   18086:	06800793          	li	a5,104
   1808a:	6af70163          	beq	a4,a5,1872c <_vfiprintf_r+0xcda>
   1808e:	040ded93          	or	s11,s11,64
   18092:	bcf9                	j	17b70 <_vfiprintf_r+0x11e>
   18094:	010de693          	or	a3,s11,16
   18098:	0206f793          	and	a5,a3,32
   1809c:	3c078363          	beqz	a5,18462 <_vfiprintf_r+0xa10>
   180a0:	081d                	add	a6,a6,7
   180a2:	ff887813          	and	a6,a6,-8
   180a6:	00082783          	lw	a5,0(a6)
   180aa:	00482883          	lw	a7,4(a6)
   180ae:	0821                	add	a6,a6,8
   180b0:	02010da3          	sb	zero,59(sp)
   180b4:	8db6                	mv	s11,a3
   180b6:	e004c4e3          	bltz	s1,17ebe <_vfiprintf_r+0x46c>
   180ba:	0117e733          	or	a4,a5,a7
   180be:	f7f6fd93          	and	s11,a3,-129
   180c2:	de071ee3          	bnez	a4,17ebe <_vfiprintf_r+0x46c>
   180c6:	4785                	li	a5,1
   180c8:	d4d1                	beqz	s1,18054 <_vfiprintf_r+0x602>
   180ca:	4705                	li	a4,1
   180cc:	70e78163          	beq	a5,a4,187ce <_vfiprintf_r+0xd7c>
   180d0:	4709                	li	a4,2
   180d2:	6ae78563          	beq	a5,a4,1877c <_vfiprintf_r+0xd2a>
   180d6:	4781                	li	a5,0
   180d8:	4601                	li	a2,0
   180da:	0f010913          	add	s2,sp,240
   180de:	01d61693          	sll	a3,a2,0x1d
   180e2:	0077f713          	and	a4,a5,7
   180e6:	838d                	srl	a5,a5,0x3
   180e8:	03070713          	add	a4,a4,48
   180ec:	8fd5                	or	a5,a5,a3
   180ee:	820d                	srl	a2,a2,0x3
   180f0:	fee90fa3          	sb	a4,-1(s2)
   180f4:	00c7e6b3          	or	a3,a5,a2
   180f8:	85ca                	mv	a1,s2
   180fa:	197d                	add	s2,s2,-1
   180fc:	f2ed                	bnez	a3,180de <_vfiprintf_r+0x68c>
   180fe:	001df793          	and	a5,s11,1
   18102:	26078a63          	beqz	a5,18376 <_vfiprintf_r+0x924>
   18106:	03000793          	li	a5,48
   1810a:	26f70663          	beq	a4,a5,18376 <_vfiprintf_r+0x924>
   1810e:	15f9                	add	a1,a1,-2
   18110:	fef90fa3          	sb	a5,-1(s2)
   18114:	199c                	add	a5,sp,240
   18116:	40b788b3          	sub	a7,a5,a1
   1811a:	86a6                	mv	a3,s1
   1811c:	4d14c263          	blt	s1,a7,185e0 <_vfiprintf_r+0xb8e>
   18120:	892e                	mv	s2,a1
   18122:	b3c1                	j	17ee2 <_vfiprintf_r+0x490>
   18124:	6721                	lui	a4,0x8
   18126:	83070713          	add	a4,a4,-2000 # 7830 <register_fini-0x8864>
   1812a:	02e11e23          	sh	a4,60(sp)
   1812e:	00005717          	auipc	a4,0x5
   18132:	3aa70713          	add	a4,a4,938 # 1d4d8 <__clzsi2+0x9c>
   18136:	00082783          	lw	a5,0(a6)
   1813a:	4601                	li	a2,0
   1813c:	002ded93          	or	s11,s11,2
   18140:	0811                	add	a6,a6,4
   18142:	c23a                	sw	a4,4(sp)
   18144:	02010da3          	sb	zero,59(sp)
   18148:	2004c463          	bltz	s1,18350 <_vfiprintf_r+0x8fe>
   1814c:	00c7e733          	or	a4,a5,a2
   18150:	f7fdf593          	and	a1,s11,-129
   18154:	1e071a63          	bnez	a4,18348 <_vfiprintf_r+0x8f6>
   18158:	86ee                	mv	a3,s11
   1815a:	4789                	li	a5,2
   1815c:	8dae                	mv	s11,a1
   1815e:	bdd5                	j	18052 <_vfiprintf_r+0x600>
   18160:	020df793          	and	a5,s11,32
   18164:	44079f63          	bnez	a5,185c2 <_vfiprintf_r+0xb70>
   18168:	010df793          	and	a5,s11,16
   1816c:	5c079e63          	bnez	a5,18748 <_vfiprintf_r+0xcf6>
   18170:	040df793          	and	a5,s11,64
   18174:	62079763          	bnez	a5,187a2 <_vfiprintf_r+0xd50>
   18178:	200dfd93          	and	s11,s11,512
   1817c:	5c0d8663          	beqz	s11,18748 <_vfiprintf_r+0xcf6>
   18180:	00082783          	lw	a5,0(a6)
   18184:	0811                	add	a6,a6,4
   18186:	01878023          	sb	s8,0(a5)
   1818a:	ba95                	j	17afe <_vfiprintf_r+0xac>
   1818c:	4705                	li	a4,1
   1818e:	87c6                	mv	a5,a7
   18190:	c6ca                	sw	s2,76(sp)
   18192:	c8c6                	sw	a7,80(sp)
   18194:	c4c6                	sw	a7,72(sp)
   18196:	c2ba                	sw	a4,68(sp)
   18198:	8456                	mv	s0,s5
   1819a:	0421                	add	s0,s0,8
   1819c:	beb5                	j	17d18 <_vfiprintf_r+0x2c6>
   1819e:	4585                	li	a1,1
   181a0:	4601                	li	a2,0
   181a2:	86d6                	mv	a3,s5
   181a4:	b1a5                	j	17e0c <_vfiprintf_r+0x3ba>
   181a6:	40db8f33          	sub	t5,s7,a3
   181aa:	b3e05ce3          	blez	t5,17ce2 <_vfiprintf_r+0x290>
   181ae:	4741                	li	a4,16
   181b0:	65e75463          	bge	a4,t5,187f8 <_vfiprintf_r+0xda6>
   181b4:	00006e97          	auipc	t4,0x6
   181b8:	bcce8e93          	add	t4,t4,-1076 # 1dd80 <zeroes.0>
   181bc:	c626                	sw	s1,12(sp)
   181be:	c836                	sw	a3,16(sp)
   181c0:	4e41                	li	t3,16
   181c2:	86a2                	mv	a3,s0
   181c4:	4f9d                	li	t6,7
   181c6:	c446                	sw	a7,8(sp)
   181c8:	847a                	mv	s0,t5
   181ca:	d042                	sw	a6,32(sp)
   181cc:	84f6                	mv	s1,t4
   181ce:	a801                	j	181de <_vfiprintf_r+0x78c>
   181d0:	00260593          	add	a1,a2,2
   181d4:	06a1                	add	a3,a3,8
   181d6:	863a                	mv	a2,a4
   181d8:	1441                	add	s0,s0,-16
   181da:	028e5f63          	bge	t3,s0,18218 <_vfiprintf_r+0x7c6>
   181de:	07c1                	add	a5,a5,16
   181e0:	00160713          	add	a4,a2,1
   181e4:	c284                	sw	s1,0(a3)
   181e6:	01c6a223          	sw	t3,4(a3)
   181ea:	c4be                	sw	a5,72(sp)
   181ec:	c2ba                	sw	a4,68(sp)
   181ee:	feefd1e3          	bge	t6,a4,181d0 <_vfiprintf_r+0x77e>
   181f2:	10078363          	beqz	a5,182f8 <_vfiprintf_r+0x8a6>
   181f6:	4502                	lw	a0,0(sp)
   181f8:	0090                	add	a2,sp,64
   181fa:	85da                	mv	a1,s6
   181fc:	f90ff0ef          	jal	1798c <__sprint_r.part.0>
   18200:	9c051ce3          	bnez	a0,17bd8 <_vfiprintf_r+0x186>
   18204:	4616                	lw	a2,68(sp)
   18206:	4e41                	li	t3,16
   18208:	1441                	add	s0,s0,-16
   1820a:	47a6                	lw	a5,72(sp)
   1820c:	86d6                	mv	a3,s5
   1820e:	00160593          	add	a1,a2,1
   18212:	4f9d                	li	t6,7
   18214:	fc8e45e3          	blt	t3,s0,181de <_vfiprintf_r+0x78c>
   18218:	8f22                	mv	t5,s0
   1821a:	8ea6                	mv	t4,s1
   1821c:	8436                	mv	s0,a3
   1821e:	48a2                	lw	a7,8(sp)
   18220:	46c2                	lw	a3,16(sp)
   18222:	5802                	lw	a6,32(sp)
   18224:	44b2                	lw	s1,12(sp)
   18226:	97fa                	add	a5,a5,t5
   18228:	01d42023          	sw	t4,0(s0)
   1822c:	01e42223          	sw	t5,4(s0)
   18230:	c4be                	sw	a5,72(sp)
   18232:	c2ae                	sw	a1,68(sp)
   18234:	471d                	li	a4,7
   18236:	38b75063          	bge	a4,a1,185b6 <_vfiprintf_r+0xb64>
   1823a:	54078463          	beqz	a5,18782 <_vfiprintf_r+0xd30>
   1823e:	4502                	lw	a0,0(sp)
   18240:	0090                	add	a2,sp,64
   18242:	85da                	mv	a1,s6
   18244:	c842                	sw	a6,16(sp)
   18246:	c636                	sw	a3,12(sp)
   18248:	c446                	sw	a7,8(sp)
   1824a:	f42ff0ef          	jal	1798c <__sprint_r.part.0>
   1824e:	980515e3          	bnez	a0,17bd8 <_vfiprintf_r+0x186>
   18252:	48a2                	lw	a7,8(sp)
   18254:	4616                	lw	a2,68(sp)
   18256:	47a6                	lw	a5,72(sp)
   18258:	411484b3          	sub	s1,s1,a7
   1825c:	4842                	lw	a6,16(sp)
   1825e:	46b2                	lw	a3,12(sp)
   18260:	8456                	mv	s0,s5
   18262:	00160e13          	add	t3,a2,1
   18266:	a89052e3          	blez	s1,17cea <_vfiprintf_r+0x298>
   1826a:	00006e97          	auipc	t4,0x6
   1826e:	b16e8e93          	add	t4,t4,-1258 # 1dd80 <zeroes.0>
   18272:	069a5363          	bge	s4,s1,182d8 <_vfiprintf_r+0x886>
   18276:	c636                	sw	a3,12(sp)
   18278:	4f1d                	li	t5,7
   1827a:	86a2                	mv	a3,s0
   1827c:	c446                	sw	a7,8(sp)
   1827e:	8426                	mv	s0,s1
   18280:	c842                	sw	a6,16(sp)
   18282:	84e6                	mv	s1,s9
   18284:	a801                	j	18294 <_vfiprintf_r+0x842>
   18286:	00260e13          	add	t3,a2,2
   1828a:	06a1                	add	a3,a3,8
   1828c:	863a                	mv	a2,a4
   1828e:	1441                	add	s0,s0,-16
   18290:	028a5e63          	bge	s4,s0,182cc <_vfiprintf_r+0x87a>
   18294:	07c1                	add	a5,a5,16
   18296:	00160713          	add	a4,a2,1
   1829a:	0196a023          	sw	s9,0(a3)
   1829e:	0146a223          	sw	s4,4(a3)
   182a2:	c4be                	sw	a5,72(sp)
   182a4:	c2ba                	sw	a4,68(sp)
   182a6:	feef50e3          	bge	t5,a4,18286 <_vfiprintf_r+0x834>
   182aa:	c3b9                	beqz	a5,182f0 <_vfiprintf_r+0x89e>
   182ac:	4502                	lw	a0,0(sp)
   182ae:	0090                	add	a2,sp,64
   182b0:	85da                	mv	a1,s6
   182b2:	edaff0ef          	jal	1798c <__sprint_r.part.0>
   182b6:	920511e3          	bnez	a0,17bd8 <_vfiprintf_r+0x186>
   182ba:	4616                	lw	a2,68(sp)
   182bc:	1441                	add	s0,s0,-16
   182be:	47a6                	lw	a5,72(sp)
   182c0:	86d6                	mv	a3,s5
   182c2:	00160e13          	add	t3,a2,1
   182c6:	4f1d                	li	t5,7
   182c8:	fc8a46e3          	blt	s4,s0,18294 <_vfiprintf_r+0x842>
   182cc:	8ea6                	mv	t4,s1
   182ce:	48a2                	lw	a7,8(sp)
   182d0:	84a2                	mv	s1,s0
   182d2:	4842                	lw	a6,16(sp)
   182d4:	8436                	mv	s0,a3
   182d6:	46b2                	lw	a3,12(sp)
   182d8:	97a6                	add	a5,a5,s1
   182da:	01d42023          	sw	t4,0(s0)
   182de:	c044                	sw	s1,4(s0)
   182e0:	c4be                	sw	a5,72(sp)
   182e2:	c2f2                	sw	t3,68(sp)
   182e4:	471d                	li	a4,7
   182e6:	15c74663          	blt	a4,t3,18432 <_vfiprintf_r+0x9e0>
   182ea:	0421                	add	s0,s0,8
   182ec:	0e05                	add	t3,t3,1
   182ee:	baf5                	j	17cea <_vfiprintf_r+0x298>
   182f0:	4e05                	li	t3,1
   182f2:	4601                	li	a2,0
   182f4:	86d6                	mv	a3,s5
   182f6:	bf61                	j	1828e <_vfiprintf_r+0x83c>
   182f8:	4585                	li	a1,1
   182fa:	4601                	li	a2,0
   182fc:	86d6                	mv	a3,s5
   182fe:	bde9                	j	181d8 <_vfiprintf_r+0x786>
   18300:	cb85                	beqz	a5,18330 <_vfiprintf_r+0x8de>
   18302:	4502                	lw	a0,0(sp)
   18304:	0090                	add	a2,sp,64
   18306:	85da                	mv	a1,s6
   18308:	d242                	sw	a6,36(sp)
   1830a:	d036                	sw	a3,32(sp)
   1830c:	c846                	sw	a7,16(sp)
   1830e:	c67e                	sw	t6,12(sp)
   18310:	c47a                	sw	t5,8(sp)
   18312:	e7aff0ef          	jal	1798c <__sprint_r.part.0>
   18316:	8c0511e3          	bnez	a0,17bd8 <_vfiprintf_r+0x186>
   1831a:	4616                	lw	a2,68(sp)
   1831c:	47a6                	lw	a5,72(sp)
   1831e:	5812                	lw	a6,36(sp)
   18320:	5682                	lw	a3,32(sp)
   18322:	48c2                	lw	a7,16(sp)
   18324:	4fb2                	lw	t6,12(sp)
   18326:	4f22                	lw	t5,8(sp)
   18328:	8456                	mv	s0,s5
   1832a:	00160e13          	add	t3,a2,1
   1832e:	b2b5                	j	17c9a <_vfiprintf_r+0x248>
   18330:	2a0f0363          	beqz	t5,185d6 <_vfiprintf_r+0xb84>
   18334:	187c                	add	a5,sp,60
   18336:	c6be                	sw	a5,76(sp)
   18338:	4789                	li	a5,2
   1833a:	c8be                	sw	a5,80(sp)
   1833c:	4e05                	li	t3,1
   1833e:	8456                	mv	s0,s5
   18340:	8672                	mv	a2,t3
   18342:	0421                	add	s0,s0,8
   18344:	0e05                	add	t3,t3,1
   18346:	ba51                	j	17cda <_vfiprintf_r+0x288>
   18348:	4709                	li	a4,2
   1834a:	8dae                	mv	s11,a1
   1834c:	d80707e3          	beqz	a4,180da <_vfiprintf_r+0x688>
   18350:	4592                	lw	a1,4(sp)
   18352:	0f010913          	add	s2,sp,240
   18356:	00f7f713          	and	a4,a5,15
   1835a:	972e                	add	a4,a4,a1
   1835c:	00074683          	lbu	a3,0(a4)
   18360:	8391                	srl	a5,a5,0x4
   18362:	01c61713          	sll	a4,a2,0x1c
   18366:	8fd9                	or	a5,a5,a4
   18368:	8211                	srl	a2,a2,0x4
   1836a:	fed90fa3          	sb	a3,-1(s2)
   1836e:	00c7e733          	or	a4,a5,a2
   18372:	197d                	add	s2,s2,-1
   18374:	f36d                	bnez	a4,18356 <_vfiprintf_r+0x904>
   18376:	199c                	add	a5,sp,240
   18378:	412788b3          	sub	a7,a5,s2
   1837c:	86a6                	mv	a3,s1
   1837e:	b714d2e3          	bge	s1,a7,17ee2 <_vfiprintf_r+0x490>
   18382:	86c6                	mv	a3,a7
   18384:	beb9                	j	17ee2 <_vfiprintf_r+0x490>
   18386:	4541                	li	a0,16
   18388:	44e55763          	bge	a0,a4,187d6 <_vfiprintf_r+0xd84>
   1838c:	00006e17          	auipc	t3,0x6
   18390:	9e4e0e13          	add	t3,t3,-1564 # 1dd70 <blanks.1>
   18394:	d026                	sw	s1,32(sp)
   18396:	d236                	sw	a3,36(sp)
   18398:	4ec1                	li	t4,16
   1839a:	86a2                	mv	a3,s0
   1839c:	429d                	li	t0,7
   1839e:	c47a                	sw	t5,8(sp)
   183a0:	c67e                	sw	t6,12(sp)
   183a2:	c846                	sw	a7,16(sp)
   183a4:	843a                	mv	s0,a4
   183a6:	d442                	sw	a6,40(sp)
   183a8:	84f2                	mv	s1,t3
   183aa:	a811                	j	183be <_vfiprintf_r+0x96c>
   183ac:	00260513          	add	a0,a2,2
   183b0:	06a1                	add	a3,a3,8
   183b2:	862e                	mv	a2,a1
   183b4:	1441                	add	s0,s0,-16
   183b6:	028ede63          	bge	t4,s0,183f2 <_vfiprintf_r+0x9a0>
   183ba:	00160593          	add	a1,a2,1
   183be:	07c1                	add	a5,a5,16
   183c0:	c284                	sw	s1,0(a3)
   183c2:	01d6a223          	sw	t4,4(a3)
   183c6:	c4be                	sw	a5,72(sp)
   183c8:	c2ae                	sw	a1,68(sp)
   183ca:	feb2d1e3          	bge	t0,a1,183ac <_vfiprintf_r+0x95a>
   183ce:	cba9                	beqz	a5,18420 <_vfiprintf_r+0x9ce>
   183d0:	4502                	lw	a0,0(sp)
   183d2:	0090                	add	a2,sp,64
   183d4:	85da                	mv	a1,s6
   183d6:	db6ff0ef          	jal	1798c <__sprint_r.part.0>
   183da:	fe051f63          	bnez	a0,17bd8 <_vfiprintf_r+0x186>
   183de:	4616                	lw	a2,68(sp)
   183e0:	4ec1                	li	t4,16
   183e2:	1441                	add	s0,s0,-16
   183e4:	47a6                	lw	a5,72(sp)
   183e6:	86d6                	mv	a3,s5
   183e8:	00160513          	add	a0,a2,1
   183ec:	429d                	li	t0,7
   183ee:	fc8ec6e3          	blt	t4,s0,183ba <_vfiprintf_r+0x968>
   183f2:	8722                	mv	a4,s0
   183f4:	8e26                	mv	t3,s1
   183f6:	8436                	mv	s0,a3
   183f8:	4f22                	lw	t5,8(sp)
   183fa:	4fb2                	lw	t6,12(sp)
   183fc:	48c2                	lw	a7,16(sp)
   183fe:	5692                	lw	a3,36(sp)
   18400:	5822                	lw	a6,40(sp)
   18402:	5482                	lw	s1,32(sp)
   18404:	97ba                	add	a5,a5,a4
   18406:	c058                	sw	a4,4(s0)
   18408:	01c42023          	sw	t3,0(s0)
   1840c:	c4be                	sw	a5,72(sp)
   1840e:	c2aa                	sw	a0,68(sp)
   18410:	471d                	li	a4,7
   18412:	08a74e63          	blt	a4,a0,184ae <_vfiprintf_r+0xa5c>
   18416:	0421                	add	s0,s0,8
   18418:	00150e13          	add	t3,a0,1
   1841c:	862a                	mv	a2,a0
   1841e:	b8a9                	j	17c78 <_vfiprintf_r+0x226>
   18420:	4601                	li	a2,0
   18422:	4505                	li	a0,1
   18424:	86d6                	mv	a3,s5
   18426:	b779                	j	183b4 <_vfiprintf_r+0x962>
   18428:	00dbd363          	bge	s7,a3,1842e <_vfiprintf_r+0x9dc>
   1842c:	8bb6                	mv	s7,a3
   1842e:	9c5e                	add	s8,s8,s7
   18430:	b211                	j	17d34 <_vfiprintf_r+0x2e2>
   18432:	d4078de3          	beqz	a5,1818c <_vfiprintf_r+0x73a>
   18436:	4502                	lw	a0,0(sp)
   18438:	0090                	add	a2,sp,64
   1843a:	85da                	mv	a1,s6
   1843c:	c842                	sw	a6,16(sp)
   1843e:	c636                	sw	a3,12(sp)
   18440:	c446                	sw	a7,8(sp)
   18442:	d4aff0ef          	jal	1798c <__sprint_r.part.0>
   18446:	f8051963          	bnez	a0,17bd8 <_vfiprintf_r+0x186>
   1844a:	4e16                	lw	t3,68(sp)
   1844c:	47a6                	lw	a5,72(sp)
   1844e:	4842                	lw	a6,16(sp)
   18450:	46b2                	lw	a3,12(sp)
   18452:	48a2                	lw	a7,8(sp)
   18454:	8456                	mv	s0,s5
   18456:	0e05                	add	t3,t3,1
   18458:	b849                	j	17cea <_vfiprintf_r+0x298>
   1845a:	c282                	sw	zero,68(sp)
   1845c:	8456                	mv	s0,s5
   1845e:	ef2ff06f          	j	17b50 <_vfiprintf_r+0xfe>
   18462:	0106f713          	and	a4,a3,16
   18466:	00082783          	lw	a5,0(a6)
   1846a:	0811                	add	a6,a6,4
   1846c:	e719                	bnez	a4,1847a <_vfiprintf_r+0xa28>
   1846e:	0406f713          	and	a4,a3,64
   18472:	2e070d63          	beqz	a4,1876c <_vfiprintf_r+0xd1a>
   18476:	07c2                	sll	a5,a5,0x10
   18478:	83c1                	srl	a5,a5,0x10
   1847a:	4881                	li	a7,0
   1847c:	b915                	j	180b0 <_vfiprintf_r+0x65e>
   1847e:	01077693          	and	a3,a4,16
   18482:	00082783          	lw	a5,0(a6)
   18486:	0811                	add	a6,a6,4
   18488:	ee81                	bnez	a3,184a0 <_vfiprintf_r+0xa4e>
   1848a:	04077693          	and	a3,a4,64
   1848e:	c689                	beqz	a3,18498 <_vfiprintf_r+0xa46>
   18490:	07c2                	sll	a5,a5,0x10
   18492:	83c1                	srl	a5,a5,0x10
   18494:	4601                	li	a2,0
   18496:	be79                	j	18034 <_vfiprintf_r+0x5e2>
   18498:	20077693          	and	a3,a4,512
   1849c:	32069163          	bnez	a3,187be <_vfiprintf_r+0xd6c>
   184a0:	4601                	li	a2,0
   184a2:	be49                	j	18034 <_vfiprintf_r+0x5e2>
   184a4:	4e05                	li	t3,1
   184a6:	4601                	li	a2,0
   184a8:	8456                	mv	s0,s5
   184aa:	831ff06f          	j	17cda <_vfiprintf_r+0x288>
   184ae:	1c078063          	beqz	a5,1866e <_vfiprintf_r+0xc1c>
   184b2:	4502                	lw	a0,0(sp)
   184b4:	0090                	add	a2,sp,64
   184b6:	85da                	mv	a1,s6
   184b8:	d242                	sw	a6,36(sp)
   184ba:	d036                	sw	a3,32(sp)
   184bc:	c846                	sw	a7,16(sp)
   184be:	c67e                	sw	t6,12(sp)
   184c0:	c47a                	sw	t5,8(sp)
   184c2:	ccaff0ef          	jal	1798c <__sprint_r.part.0>
   184c6:	f0051963          	bnez	a0,17bd8 <_vfiprintf_r+0x186>
   184ca:	4616                	lw	a2,68(sp)
   184cc:	47a6                	lw	a5,72(sp)
   184ce:	5812                	lw	a6,36(sp)
   184d0:	5682                	lw	a3,32(sp)
   184d2:	48c2                	lw	a7,16(sp)
   184d4:	4fb2                	lw	t6,12(sp)
   184d6:	4f22                	lw	t5,8(sp)
   184d8:	8456                	mv	s0,s5
   184da:	00160e13          	add	t3,a2,1
   184de:	f9aff06f          	j	17c78 <_vfiprintf_r+0x226>
   184e2:	ccccde37          	lui	t3,0xccccd
   184e6:	ccccd3b7          	lui	t2,0xccccd
   184ea:	4352                	lw	t1,20(sp)
   184ec:	400dff13          	and	t5,s11,1024
   184f0:	4501                	li	a0,0
   184f2:	198c                	add	a1,sp,240
   184f4:	4e95                	li	t4,5
   184f6:	ccde0e13          	add	t3,t3,-819 # cccccccd <__BSS_END__+0xcccae1a9>
   184fa:	ccc38393          	add	t2,t2,-820 # cccccccc <__BSS_END__+0xcccae1a8>
   184fe:	0ff00f93          	li	t6,255
   18502:	a081                	j	18542 <_vfiprintf_r+0xaf0>
   18504:	00f93733          	sltu	a4,s2,a5
   18508:	974a                	add	a4,a4,s2
   1850a:	03d77733          	remu	a4,a4,t4
   1850e:	40e78733          	sub	a4,a5,a4
   18512:	00e7b633          	sltu	a2,a5,a4
   18516:	40c88633          	sub	a2,a7,a2
   1851a:	027702b3          	mul	t0,a4,t2
   1851e:	03c60633          	mul	a2,a2,t3
   18522:	03c735b3          	mulhu	a1,a4,t3
   18526:	9616                	add	a2,a2,t0
   18528:	03c70733          	mul	a4,a4,t3
   1852c:	962e                	add	a2,a2,a1
   1852e:	01f61593          	sll	a1,a2,0x1f
   18532:	8205                	srl	a2,a2,0x1
   18534:	8305                	srl	a4,a4,0x1
   18536:	8f4d                	or	a4,a4,a1
   18538:	24088a63          	beqz	a7,1878c <_vfiprintf_r+0xd3a>
   1853c:	87ba                	mv	a5,a4
   1853e:	88b2                	mv	a7,a2
   18540:	85b6                	mv	a1,a3
   18542:	01178933          	add	s2,a5,a7
   18546:	00f93733          	sltu	a4,s2,a5
   1854a:	974a                	add	a4,a4,s2
   1854c:	03d77733          	remu	a4,a4,t4
   18550:	fff58693          	add	a3,a1,-1
   18554:	0505                	add	a0,a0,1
   18556:	40e78733          	sub	a4,a5,a4
   1855a:	00e7b2b3          	sltu	t0,a5,a4
   1855e:	405882b3          	sub	t0,a7,t0
   18562:	03c73633          	mulhu	a2,a4,t3
   18566:	03c282b3          	mul	t0,t0,t3
   1856a:	03c70733          	mul	a4,a4,t3
   1856e:	92b2                	add	t0,t0,a2
   18570:	02fe                	sll	t0,t0,0x1f
   18572:	00175613          	srl	a2,a4,0x1
   18576:	00c2e633          	or	a2,t0,a2
   1857a:	00261713          	sll	a4,a2,0x2
   1857e:	9732                	add	a4,a4,a2
   18580:	0706                	sll	a4,a4,0x1
   18582:	40e78733          	sub	a4,a5,a4
   18586:	03070713          	add	a4,a4,48
   1858a:	fee58fa3          	sb	a4,-1(a1)
   1858e:	f60f0be3          	beqz	t5,18504 <_vfiprintf_r+0xab2>
   18592:	00034703          	lbu	a4,0(t1)
   18596:	f6a717e3          	bne	a4,a0,18504 <_vfiprintf_r+0xab2>
   1859a:	f7f505e3          	beq	a0,t6,18504 <_vfiprintf_r+0xab2>
   1859e:	0e089563          	bnez	a7,18688 <_vfiprintf_r+0xc36>
   185a2:	4725                	li	a4,9
   185a4:	0ef76263          	bltu	a4,a5,18688 <_vfiprintf_r+0xc36>
   185a8:	ca1a                	sw	t1,20(sp)
   185aa:	8936                	mv	s2,a3
   185ac:	b3e9                	j	18376 <_vfiprintf_r+0x924>
   185ae:	4681                	li	a3,0
   185b0:	0f010913          	add	s2,sp,240
   185b4:	b23d                	j	17ee2 <_vfiprintf_r+0x490>
   185b6:	0421                	add	s0,s0,8
   185b8:	00158e13          	add	t3,a1,1
   185bc:	862e                	mv	a2,a1
   185be:	f24ff06f          	j	17ce2 <_vfiprintf_r+0x290>
   185c2:	00082783          	lw	a5,0(a6)
   185c6:	41fc5713          	sra	a4,s8,0x1f
   185ca:	0811                	add	a6,a6,4
   185cc:	0187a023          	sw	s8,0(a5)
   185d0:	c3d8                	sw	a4,4(a5)
   185d2:	d2cff06f          	j	17afe <_vfiprintf_r+0xac>
   185d6:	4601                	li	a2,0
   185d8:	4e05                	li	t3,1
   185da:	8456                	mv	s0,s5
   185dc:	efeff06f          	j	17cda <_vfiprintf_r+0x288>
   185e0:	86c6                	mv	a3,a7
   185e2:	892e                	mv	s2,a1
   185e4:	b8fd                	j	17ee2 <_vfiprintf_r+0x490>
   185e6:	54fd                	li	s1,-1
   185e8:	89b2                	mv	s3,a2
   185ea:	d88ff06f          	j	17b72 <_vfiprintf_r+0x120>
   185ee:	86ee                	mv	a3,s11
   185f0:	b465                	j	18098 <_vfiprintf_r+0x646>
   185f2:	876e                	mv	a4,s11
   185f4:	b425                	j	1801c <_vfiprintf_r+0x5ca>
   185f6:	00005797          	auipc	a5,0x5
   185fa:	ef678793          	add	a5,a5,-266 # 1d4ec <__clzsi2+0xb0>
   185fe:	c23e                	sw	a5,4(sp)
   18600:	020df793          	and	a5,s11,32
   18604:	c3b1                	beqz	a5,18648 <_vfiprintf_r+0xbf6>
   18606:	081d                	add	a6,a6,7
   18608:	ff887813          	and	a6,a6,-8
   1860c:	00082783          	lw	a5,0(a6)
   18610:	00482603          	lw	a2,4(a6)
   18614:	0821                	add	a6,a6,8
   18616:	001df693          	and	a3,s11,1
   1861a:	ce81                	beqz	a3,18632 <_vfiprintf_r+0xbe0>
   1861c:	00c7e6b3          	or	a3,a5,a2
   18620:	ca89                	beqz	a3,18632 <_vfiprintf_r+0xbe0>
   18622:	03000693          	li	a3,48
   18626:	02d10e23          	sb	a3,60(sp)
   1862a:	02e10ea3          	sb	a4,61(sp)
   1862e:	002ded93          	or	s11,s11,2
   18632:	bffdfd93          	and	s11,s11,-1025
   18636:	b639                	j	18144 <_vfiprintf_r+0x6f2>
   18638:	00005797          	auipc	a5,0x5
   1863c:	ea078793          	add	a5,a5,-352 # 1d4d8 <__clzsi2+0x9c>
   18640:	c23e                	sw	a5,4(sp)
   18642:	020df793          	and	a5,s11,32
   18646:	f3e1                	bnez	a5,18606 <_vfiprintf_r+0xbb4>
   18648:	010df693          	and	a3,s11,16
   1864c:	00082783          	lw	a5,0(a6)
   18650:	0811                	add	a6,a6,4
   18652:	e2f1                	bnez	a3,18716 <_vfiprintf_r+0xcc4>
   18654:	040df693          	and	a3,s11,64
   18658:	cec5                	beqz	a3,18710 <_vfiprintf_r+0xcbe>
   1865a:	07c2                	sll	a5,a5,0x10
   1865c:	83c1                	srl	a5,a5,0x10
   1865e:	4601                	li	a2,0
   18660:	bf5d                	j	18616 <_vfiprintf_r+0xbc4>
   18662:	854a                	mv	a0,s2
   18664:	964fc0ef          	jal	147c8 <strlen>
   18668:	4822                	lw	a6,8(sp)
   1866a:	88aa                	mv	a7,a0
   1866c:	b065                	j	17f14 <_vfiprintf_r+0x4c2>
   1866e:	03b14703          	lbu	a4,59(sp)
   18672:	12070363          	beqz	a4,18798 <_vfiprintf_r+0xd46>
   18676:	03b10793          	add	a5,sp,59
   1867a:	c6be                	sw	a5,76(sp)
   1867c:	4785                	li	a5,1
   1867e:	c8be                	sw	a5,80(sp)
   18680:	4e05                	li	t3,1
   18682:	8456                	mv	s0,s5
   18684:	e10ff06f          	j	17c94 <_vfiprintf_r+0x242>
   18688:	d43e                	sw	a5,40(sp)
   1868a:	47e2                	lw	a5,24(sp)
   1868c:	45f2                	lw	a1,28(sp)
   1868e:	d646                	sw	a7,44(sp)
   18690:	8e9d                	sub	a3,a3,a5
   18692:	863e                	mv	a2,a5
   18694:	8536                	mv	a0,a3
   18696:	d21e                	sw	t2,36(sp)
   18698:	d072                	sw	t3,32(sp)
   1869a:	ca42                	sw	a6,20(sp)
   1869c:	c87a                	sw	t5,16(sp)
   1869e:	c61a                	sw	t1,12(sp)
   186a0:	c436                	sw	a3,8(sp)
   186a2:	e56fd0ef          	jal	15cf8 <strncpy>
   186a6:	57a2                	lw	a5,40(sp)
   186a8:	4615                	li	a2,5
   186aa:	4332                	lw	t1,12(sp)
   186ac:	00f93733          	sltu	a4,s2,a5
   186b0:	974a                	add	a4,a4,s2
   186b2:	02c77733          	remu	a4,a4,a2
   186b6:	00134603          	lbu	a2,1(t1)
   186ba:	58b2                	lw	a7,44(sp)
   186bc:	ccccd5b7          	lui	a1,0xccccd
   186c0:	00c03633          	snez	a2,a2
   186c4:	ccccd2b7          	lui	t0,0xccccd
   186c8:	9332                	add	t1,t1,a2
   186ca:	ccd58593          	add	a1,a1,-819 # cccccccd <__BSS_END__+0xcccae1a9>
   186ce:	ccc28293          	add	t0,t0,-820 # cccccccc <__BSS_END__+0xcccae1a8>
   186d2:	46a2                	lw	a3,8(sp)
   186d4:	4f42                	lw	t5,16(sp)
   186d6:	4852                	lw	a6,20(sp)
   186d8:	5e02                	lw	t3,32(sp)
   186da:	5392                	lw	t2,36(sp)
   186dc:	4501                	li	a0,0
   186de:	4e95                	li	t4,5
   186e0:	0ff00f93          	li	t6,255
   186e4:	40e78733          	sub	a4,a5,a4
   186e8:	00e7b633          	sltu	a2,a5,a4
   186ec:	40c88633          	sub	a2,a7,a2
   186f0:	025702b3          	mul	t0,a4,t0
   186f4:	02b60633          	mul	a2,a2,a1
   186f8:	02b738b3          	mulhu	a7,a4,a1
   186fc:	9616                	add	a2,a2,t0
   186fe:	02b707b3          	mul	a5,a4,a1
   18702:	9646                	add	a2,a2,a7
   18704:	01f61713          	sll	a4,a2,0x1f
   18708:	8205                	srl	a2,a2,0x1
   1870a:	8385                	srl	a5,a5,0x1
   1870c:	8f5d                	or	a4,a4,a5
   1870e:	b53d                	j	1853c <_vfiprintf_r+0xaea>
   18710:	200df693          	and	a3,s11,512
   18714:	eacd                	bnez	a3,187c6 <_vfiprintf_r+0xd74>
   18716:	4601                	li	a2,0
   18718:	bdfd                	j	18616 <_vfiprintf_r+0xbc4>
   1871a:	8dba                	mv	s11,a4
   1871c:	4701                	li	a4,0
   1871e:	9a070ee3          	beqz	a4,180da <_vfiprintf_r+0x688>
   18722:	b13d                	j	18350 <_vfiprintf_r+0x8fe>
   18724:	b96fa0ef          	jal	12aba <__sinit>
   18728:	b52ff06f          	j	17a7a <_vfiprintf_r+0x28>
   1872c:	0019c703          	lbu	a4,1(s3)
   18730:	200ded93          	or	s11,s11,512
   18734:	0985                	add	s3,s3,1
   18736:	c3aff06f          	j	17b70 <_vfiprintf_r+0x11e>
   1873a:	0019c703          	lbu	a4,1(s3)
   1873e:	020ded93          	or	s11,s11,32
   18742:	0985                	add	s3,s3,1
   18744:	c2cff06f          	j	17b70 <_vfiprintf_r+0x11e>
   18748:	00082783          	lw	a5,0(a6)
   1874c:	0811                	add	a6,a6,4
   1874e:	0187a023          	sw	s8,0(a5)
   18752:	bacff06f          	j	17afe <_vfiprintf_r+0xac>
   18756:	4799                	li	a5,6
   18758:	88a6                	mv	a7,s1
   1875a:	0297ed63          	bltu	a5,s1,18794 <_vfiprintf_r+0xd42>
   1875e:	86c6                	mv	a3,a7
   18760:	00005917          	auipc	s2,0x5
   18764:	da090913          	add	s2,s2,-608 # 1d500 <__clzsi2+0xc4>
   18768:	cf2ff06f          	j	17c5a <_vfiprintf_r+0x208>
   1876c:	2006f713          	and	a4,a3,512
   18770:	d00705e3          	beqz	a4,1847a <_vfiprintf_r+0xa28>
   18774:	0ff7f793          	zext.b	a5,a5
   18778:	4881                	li	a7,0
   1877a:	ba1d                	j	180b0 <_vfiprintf_r+0x65e>
   1877c:	4781                	li	a5,0
   1877e:	4601                	li	a2,0
   18780:	bec1                	j	18350 <_vfiprintf_r+0x8fe>
   18782:	4e05                	li	t3,1
   18784:	4601                	li	a2,0
   18786:	8456                	mv	s0,s5
   18788:	d5aff06f          	j	17ce2 <_vfiprintf_r+0x290>
   1878c:	45a5                	li	a1,9
   1878e:	daf5e7e3          	bltu	a1,a5,1853c <_vfiprintf_r+0xaea>
   18792:	bd19                	j	185a8 <_vfiprintf_r+0xb56>
   18794:	4899                	li	a7,6
   18796:	b7e1                	j	1875e <_vfiprintf_r+0xd0c>
   18798:	4601                	li	a2,0
   1879a:	4e05                	li	t3,1
   1879c:	8456                	mv	s0,s5
   1879e:	cfcff06f          	j	17c9a <_vfiprintf_r+0x248>
   187a2:	00082783          	lw	a5,0(a6)
   187a6:	0811                	add	a6,a6,4
   187a8:	01879023          	sh	s8,0(a5)
   187ac:	b52ff06f          	j	17afe <_vfiprintf_r+0xac>
   187b0:	07e2                	sll	a5,a5,0x18
   187b2:	87e1                	sra	a5,a5,0x18
   187b4:	41f7d893          	sra	a7,a5,0x1f
   187b8:	8746                	mv	a4,a7
   187ba:	dd2ff06f          	j	17d8c <_vfiprintf_r+0x33a>
   187be:	0ff7f793          	zext.b	a5,a5
   187c2:	4601                	li	a2,0
   187c4:	b885                	j	18034 <_vfiprintf_r+0x5e2>
   187c6:	0ff7f793          	zext.b	a5,a5
   187ca:	4601                	li	a2,0
   187cc:	b5a9                	j	18616 <_vfiprintf_r+0xbc4>
   187ce:	03000793          	li	a5,48
   187d2:	efeff06f          	j	17ed0 <_vfiprintf_r+0x47e>
   187d6:	852e                	mv	a0,a1
   187d8:	00005e17          	auipc	t3,0x5
   187dc:	598e0e13          	add	t3,t3,1432 # 1dd70 <blanks.1>
   187e0:	b115                	j	18404 <_vfiprintf_r+0x9b2>
   187e2:	00160593          	add	a1,a2,1
   187e6:	00005e17          	auipc	t3,0x5
   187ea:	58ae0e13          	add	t3,t3,1418 # 1dd70 <blanks.1>
   187ee:	e62ff06f          	j	17e50 <_vfiprintf_r+0x3fe>
   187f2:	5dfd                	li	s11,-1
   187f4:	c0eff06f          	j	17c02 <_vfiprintf_r+0x1b0>
   187f8:	85f2                	mv	a1,t3
   187fa:	00005e97          	auipc	t4,0x5
   187fe:	586e8e93          	add	t4,t4,1414 # 1dd80 <zeroes.0>
   18802:	b415                	j	18226 <_vfiprintf_r+0x7d4>
   18804:	00082483          	lw	s1,0(a6)
   18808:	0811                	add	a6,a6,4
   1880a:	0004d363          	bgez	s1,18810 <_vfiprintf_r+0xdbe>
   1880e:	54fd                	li	s1,-1
   18810:	0019c703          	lbu	a4,1(s3)
   18814:	89b2                	mv	s3,a2
   18816:	b5aff06f          	j	17b70 <_vfiprintf_r+0x11e>

0001881a <vfiprintf>:
   1881a:	86b2                	mv	a3,a2
   1881c:	862e                	mv	a2,a1
   1881e:	85aa                	mv	a1,a0
   18820:	fdc1a503          	lw	a0,-36(gp) # 1e7ec <_impure_ptr>
   18824:	a2eff06f          	j	17a52 <_vfiprintf_r>

00018828 <__sbprintf>:
   18828:	b8010113          	add	sp,sp,-1152
   1882c:	00c59783          	lh	a5,12(a1)
   18830:	00e5d703          	lhu	a4,14(a1)
   18834:	46812c23          	sw	s0,1144(sp)
   18838:	842e                	mv	s0,a1
   1883a:	65c1                	lui	a1,0x10
   1883c:	15f5                	add	a1,a1,-3 # fffd <register_fini-0x97>
   1883e:	06442e03          	lw	t3,100(s0)
   18842:	01c42303          	lw	t1,28(s0)
   18846:	02442883          	lw	a7,36(s0)
   1884a:	0742                	sll	a4,a4,0x10
   1884c:	8fed                	and	a5,a5,a1
   1884e:	8fd9                	or	a5,a5,a4
   18850:	40000813          	li	a6,1024
   18854:	ca3e                	sw	a5,20(sp)
   18856:	002c                	add	a1,sp,8
   18858:	189c                	add	a5,sp,112
   1885a:	46912a23          	sw	s1,1140(sp)
   1885e:	47212823          	sw	s2,1136(sp)
   18862:	46112e23          	sw	ra,1148(sp)
   18866:	892a                	mv	s2,a0
   18868:	d6f2                	sw	t3,108(sp)
   1886a:	d21a                	sw	t1,36(sp)
   1886c:	d646                	sw	a7,44(sp)
   1886e:	c43e                	sw	a5,8(sp)
   18870:	cc3e                	sw	a5,24(sp)
   18872:	c842                	sw	a6,16(sp)
   18874:	ce42                	sw	a6,28(sp)
   18876:	d002                	sw	zero,32(sp)
   18878:	9daff0ef          	jal	17a52 <_vfiprintf_r>
   1887c:	84aa                	mv	s1,a0
   1887e:	02055963          	bgez	a0,188b0 <__sbprintf+0x88>
   18882:	01415783          	lhu	a5,20(sp)
   18886:	0407f793          	and	a5,a5,64
   1888a:	c799                	beqz	a5,18898 <__sbprintf+0x70>
   1888c:	00c45783          	lhu	a5,12(s0)
   18890:	0407e793          	or	a5,a5,64
   18894:	00f41623          	sh	a5,12(s0)
   18898:	47c12083          	lw	ra,1148(sp)
   1889c:	47812403          	lw	s0,1144(sp)
   188a0:	47012903          	lw	s2,1136(sp)
   188a4:	8526                	mv	a0,s1
   188a6:	47412483          	lw	s1,1140(sp)
   188aa:	48010113          	add	sp,sp,1152
   188ae:	8082                	ret
   188b0:	002c                	add	a1,sp,8
   188b2:	854a                	mv	a0,s2
   188b4:	bbcfd0ef          	jal	15c70 <_fflush_r>
   188b8:	d569                	beqz	a0,18882 <__sbprintf+0x5a>
   188ba:	54fd                	li	s1,-1
   188bc:	b7d9                	j	18882 <__sbprintf+0x5a>

000188be <__sfvwrite_r>:
   188be:	461c                	lw	a5,8(a2)
   188c0:	1c078f63          	beqz	a5,18a9e <__sfvwrite_r+0x1e0>
   188c4:	00c59683          	lh	a3,12(a1)
   188c8:	7179                	add	sp,sp,-48
   188ca:	d422                	sw	s0,40(sp)
   188cc:	cc52                	sw	s4,24(sp)
   188ce:	c85a                	sw	s6,16(sp)
   188d0:	d606                	sw	ra,44(sp)
   188d2:	0086f793          	and	a5,a3,8
   188d6:	8b32                	mv	s6,a2
   188d8:	8a2a                	mv	s4,a0
   188da:	842e                	mv	s0,a1
   188dc:	c7ad                	beqz	a5,18946 <__sfvwrite_r+0x88>
   188de:	499c                	lw	a5,16(a1)
   188e0:	c3bd                	beqz	a5,18946 <__sfvwrite_r+0x88>
   188e2:	d226                	sw	s1,36(sp)
   188e4:	d04a                	sw	s2,32(sp)
   188e6:	ce4e                	sw	s3,28(sp)
   188e8:	ca56                	sw	s5,20(sp)
   188ea:	0026f793          	and	a5,a3,2
   188ee:	000b2483          	lw	s1,0(s6)
   188f2:	cbb5                	beqz	a5,18966 <__sfvwrite_r+0xa8>
   188f4:	505c                	lw	a5,36(s0)
   188f6:	4c4c                	lw	a1,28(s0)
   188f8:	80000ab7          	lui	s5,0x80000
   188fc:	4981                	li	s3,0
   188fe:	4901                	li	s2,0
   18900:	c00a8a93          	add	s5,s5,-1024 # 7ffffc00 <__BSS_END__+0x7ffe10dc>
   18904:	864e                	mv	a2,s3
   18906:	8552                	mv	a0,s4
   18908:	02090963          	beqz	s2,1893a <__sfvwrite_r+0x7c>
   1890c:	86ca                	mv	a3,s2
   1890e:	012af363          	bgeu	s5,s2,18914 <__sfvwrite_r+0x56>
   18912:	86d6                	mv	a3,s5
   18914:	9782                	jalr	a5
   18916:	2ea05563          	blez	a0,18c00 <__sfvwrite_r+0x342>
   1891a:	008b2783          	lw	a5,8(s6)
   1891e:	99aa                	add	s3,s3,a0
   18920:	40a90933          	sub	s2,s2,a0
   18924:	8f89                	sub	a5,a5,a0
   18926:	00fb2423          	sw	a5,8(s6)
   1892a:	12078763          	beqz	a5,18a58 <__sfvwrite_r+0x19a>
   1892e:	505c                	lw	a5,36(s0)
   18930:	4c4c                	lw	a1,28(s0)
   18932:	864e                	mv	a2,s3
   18934:	8552                	mv	a0,s4
   18936:	fc091be3          	bnez	s2,1890c <__sfvwrite_r+0x4e>
   1893a:	0004a983          	lw	s3,0(s1)
   1893e:	0044a903          	lw	s2,4(s1)
   18942:	04a1                	add	s1,s1,8
   18944:	b7c1                	j	18904 <__sfvwrite_r+0x46>
   18946:	85a2                	mv	a1,s0
   18948:	8552                	mv	a0,s4
   1894a:	24f9                	jal	18c18 <__swsetup_r>
   1894c:	14051263          	bnez	a0,18a90 <__sfvwrite_r+0x1d2>
   18950:	00c41683          	lh	a3,12(s0)
   18954:	d226                	sw	s1,36(sp)
   18956:	d04a                	sw	s2,32(sp)
   18958:	ce4e                	sw	s3,28(sp)
   1895a:	ca56                	sw	s5,20(sp)
   1895c:	0026f793          	and	a5,a3,2
   18960:	000b2483          	lw	s1,0(s6)
   18964:	fbc1                	bnez	a5,188f4 <__sfvwrite_r+0x36>
   18966:	c65e                	sw	s7,12(sp)
   18968:	c462                	sw	s8,8(sp)
   1896a:	0016f793          	and	a5,a3,1
   1896e:	12079a63          	bnez	a5,18aa2 <__sfvwrite_r+0x1e4>
   18972:	401c                	lw	a5,0(s0)
   18974:	4418                	lw	a4,8(s0)
   18976:	80000ab7          	lui	s5,0x80000
   1897a:	c266                	sw	s9,4(sp)
   1897c:	4b81                	li	s7,0
   1897e:	4981                	li	s3,0
   18980:	1afd                	add	s5,s5,-1 # 7fffffff <__BSS_END__+0x7ffe14db>
   18982:	853e                	mv	a0,a5
   18984:	8c3a                	mv	s8,a4
   18986:	0c098063          	beqz	s3,18a46 <__sfvwrite_r+0x188>
   1898a:	2006f613          	and	a2,a3,512
   1898e:	1a060b63          	beqz	a2,18b44 <__sfvwrite_r+0x286>
   18992:	8cba                	mv	s9,a4
   18994:	20e9ed63          	bltu	s3,a4,18bae <__sfvwrite_r+0x2f0>
   18998:	4806f713          	and	a4,a3,1152
   1899c:	cb25                	beqz	a4,18a0c <__sfvwrite_r+0x14e>
   1899e:	4850                	lw	a2,20(s0)
   189a0:	480c                	lw	a1,16(s0)
   189a2:	00161713          	sll	a4,a2,0x1
   189a6:	9732                	add	a4,a4,a2
   189a8:	40b78933          	sub	s2,a5,a1
   189ac:	01f75c13          	srl	s8,a4,0x1f
   189b0:	9c3a                	add	s8,s8,a4
   189b2:	00190793          	add	a5,s2,1
   189b6:	401c5c13          	sra	s8,s8,0x1
   189ba:	97ce                	add	a5,a5,s3
   189bc:	8662                	mv	a2,s8
   189be:	00fc7463          	bgeu	s8,a5,189c6 <__sfvwrite_r+0x108>
   189c2:	8c3e                	mv	s8,a5
   189c4:	863e                	mv	a2,a5
   189c6:	4006f693          	and	a3,a3,1024
   189ca:	20068263          	beqz	a3,18bce <__sfvwrite_r+0x310>
   189ce:	85b2                	mv	a1,a2
   189d0:	8552                	mv	a0,s4
   189d2:	9ccfa0ef          	jal	12b9e <_malloc_r>
   189d6:	8caa                	mv	s9,a0
   189d8:	22050763          	beqz	a0,18c06 <__sfvwrite_r+0x348>
   189dc:	480c                	lw	a1,16(s0)
   189de:	864a                	mv	a2,s2
   189e0:	ca2fe0ef          	jal	16e82 <memcpy>
   189e4:	00c45783          	lhu	a5,12(s0)
   189e8:	b7f7f793          	and	a5,a5,-1153
   189ec:	0807e793          	or	a5,a5,128
   189f0:	00f41623          	sh	a5,12(s0)
   189f4:	012c8533          	add	a0,s9,s2
   189f8:	412c07b3          	sub	a5,s8,s2
   189fc:	01942823          	sw	s9,16(s0)
   18a00:	01842a23          	sw	s8,20(s0)
   18a04:	c008                	sw	a0,0(s0)
   18a06:	8c4e                	mv	s8,s3
   18a08:	c41c                	sw	a5,8(s0)
   18a0a:	8cce                	mv	s9,s3
   18a0c:	8666                	mv	a2,s9
   18a0e:	85de                	mv	a1,s7
   18a10:	e62fe0ef          	jal	17072 <memmove>
   18a14:	4418                	lw	a4,8(s0)
   18a16:	401c                	lw	a5,0(s0)
   18a18:	894e                	mv	s2,s3
   18a1a:	41870733          	sub	a4,a4,s8
   18a1e:	97e6                	add	a5,a5,s9
   18a20:	c418                	sw	a4,8(s0)
   18a22:	c01c                	sw	a5,0(s0)
   18a24:	4981                	li	s3,0
   18a26:	008b2783          	lw	a5,8(s6)
   18a2a:	9bca                	add	s7,s7,s2
   18a2c:	412787b3          	sub	a5,a5,s2
   18a30:	00fb2423          	sw	a5,8(s6)
   18a34:	cf99                	beqz	a5,18a52 <__sfvwrite_r+0x194>
   18a36:	401c                	lw	a5,0(s0)
   18a38:	4418                	lw	a4,8(s0)
   18a3a:	00c41683          	lh	a3,12(s0)
   18a3e:	853e                	mv	a0,a5
   18a40:	8c3a                	mv	s8,a4
   18a42:	f40994e3          	bnez	s3,1898a <__sfvwrite_r+0xcc>
   18a46:	0004ab83          	lw	s7,0(s1)
   18a4a:	0044a983          	lw	s3,4(s1)
   18a4e:	04a1                	add	s1,s1,8
   18a50:	bf0d                	j	18982 <__sfvwrite_r+0xc4>
   18a52:	4bb2                	lw	s7,12(sp)
   18a54:	4c22                	lw	s8,8(sp)
   18a56:	4c92                	lw	s9,4(sp)
   18a58:	50b2                	lw	ra,44(sp)
   18a5a:	5422                	lw	s0,40(sp)
   18a5c:	5492                	lw	s1,36(sp)
   18a5e:	5902                	lw	s2,32(sp)
   18a60:	49f2                	lw	s3,28(sp)
   18a62:	4ad2                	lw	s5,20(sp)
   18a64:	4a62                	lw	s4,24(sp)
   18a66:	4b42                	lw	s6,16(sp)
   18a68:	4501                	li	a0,0
   18a6a:	6145                	add	sp,sp,48
   18a6c:	8082                	ret
   18a6e:	85a2                	mv	a1,s0
   18a70:	8552                	mv	a0,s4
   18a72:	9fefd0ef          	jal	15c70 <_fflush_r>
   18a76:	c93d                	beqz	a0,18aec <__sfvwrite_r+0x22e>
   18a78:	00c41783          	lh	a5,12(s0)
   18a7c:	4bb2                	lw	s7,12(sp)
   18a7e:	4c22                	lw	s8,8(sp)
   18a80:	5492                	lw	s1,36(sp)
   18a82:	5902                	lw	s2,32(sp)
   18a84:	49f2                	lw	s3,28(sp)
   18a86:	4ad2                	lw	s5,20(sp)
   18a88:	0407e793          	or	a5,a5,64
   18a8c:	00f41623          	sh	a5,12(s0)
   18a90:	50b2                	lw	ra,44(sp)
   18a92:	5422                	lw	s0,40(sp)
   18a94:	4a62                	lw	s4,24(sp)
   18a96:	4b42                	lw	s6,16(sp)
   18a98:	557d                	li	a0,-1
   18a9a:	6145                	add	sp,sp,48
   18a9c:	8082                	ret
   18a9e:	4501                	li	a0,0
   18aa0:	8082                	ret
   18aa2:	4a81                	li	s5,0
   18aa4:	4501                	li	a0,0
   18aa6:	4c01                	li	s8,0
   18aa8:	4981                	li	s3,0
   18aaa:	04098e63          	beqz	s3,18b06 <__sfvwrite_r+0x248>
   18aae:	c525                	beqz	a0,18b16 <__sfvwrite_r+0x258>
   18ab0:	87d6                	mv	a5,s5
   18ab2:	8bce                	mv	s7,s3
   18ab4:	0137f363          	bgeu	a5,s3,18aba <__sfvwrite_r+0x1fc>
   18ab8:	8bbe                	mv	s7,a5
   18aba:	4008                	lw	a0,0(s0)
   18abc:	481c                	lw	a5,16(s0)
   18abe:	00842903          	lw	s2,8(s0)
   18ac2:	4854                	lw	a3,20(s0)
   18ac4:	00a7f563          	bgeu	a5,a0,18ace <__sfvwrite_r+0x210>
   18ac8:	9936                	add	s2,s2,a3
   18aca:	07794063          	blt	s2,s7,18b2a <__sfvwrite_r+0x26c>
   18ace:	0edbc363          	blt	s7,a3,18bb4 <__sfvwrite_r+0x2f6>
   18ad2:	505c                	lw	a5,36(s0)
   18ad4:	4c4c                	lw	a1,28(s0)
   18ad6:	8662                	mv	a2,s8
   18ad8:	8552                	mv	a0,s4
   18ada:	9782                	jalr	a5
   18adc:	892a                	mv	s2,a0
   18ade:	f8a05de3          	blez	a0,18a78 <__sfvwrite_r+0x1ba>
   18ae2:	412a8ab3          	sub	s5,s5,s2
   18ae6:	4505                	li	a0,1
   18ae8:	f80a83e3          	beqz	s5,18a6e <__sfvwrite_r+0x1b0>
   18aec:	008b2783          	lw	a5,8(s6)
   18af0:	9c4a                	add	s8,s8,s2
   18af2:	412989b3          	sub	s3,s3,s2
   18af6:	412787b3          	sub	a5,a5,s2
   18afa:	00fb2423          	sw	a5,8(s6)
   18afe:	f7d5                	bnez	a5,18aaa <__sfvwrite_r+0x1ec>
   18b00:	4bb2                	lw	s7,12(sp)
   18b02:	4c22                	lw	s8,8(sp)
   18b04:	bf91                	j	18a58 <__sfvwrite_r+0x19a>
   18b06:	0044a983          	lw	s3,4(s1)
   18b0a:	87a6                	mv	a5,s1
   18b0c:	04a1                	add	s1,s1,8
   18b0e:	fe098ce3          	beqz	s3,18b06 <__sfvwrite_r+0x248>
   18b12:	0007ac03          	lw	s8,0(a5)
   18b16:	864e                	mv	a2,s3
   18b18:	45a9                	li	a1,10
   18b1a:	8562                	mv	a0,s8
   18b1c:	af1fc0ef          	jal	1560c <memchr>
   18b20:	cd61                	beqz	a0,18bf8 <__sfvwrite_r+0x33a>
   18b22:	0505                	add	a0,a0,1
   18b24:	41850ab3          	sub	s5,a0,s8
   18b28:	b761                	j	18ab0 <__sfvwrite_r+0x1f2>
   18b2a:	85e2                	mv	a1,s8
   18b2c:	864a                	mv	a2,s2
   18b2e:	d44fe0ef          	jal	17072 <memmove>
   18b32:	401c                	lw	a5,0(s0)
   18b34:	85a2                	mv	a1,s0
   18b36:	8552                	mv	a0,s4
   18b38:	97ca                	add	a5,a5,s2
   18b3a:	c01c                	sw	a5,0(s0)
   18b3c:	934fd0ef          	jal	15c70 <_fflush_r>
   18b40:	d14d                	beqz	a0,18ae2 <__sfvwrite_r+0x224>
   18b42:	bf1d                	j	18a78 <__sfvwrite_r+0x1ba>
   18b44:	4814                	lw	a3,16(s0)
   18b46:	02f6e863          	bltu	a3,a5,18b76 <__sfvwrite_r+0x2b8>
   18b4a:	4850                	lw	a2,20(s0)
   18b4c:	02c9e563          	bltu	s3,a2,18b76 <__sfvwrite_r+0x2b8>
   18b50:	87ce                	mv	a5,s3
   18b52:	013af363          	bgeu	s5,s3,18b58 <__sfvwrite_r+0x29a>
   18b56:	87d6                	mv	a5,s5
   18b58:	02c7e6b3          	rem	a3,a5,a2
   18b5c:	5058                	lw	a4,36(s0)
   18b5e:	4c4c                	lw	a1,28(s0)
   18b60:	865e                	mv	a2,s7
   18b62:	8552                	mv	a0,s4
   18b64:	40d786b3          	sub	a3,a5,a3
   18b68:	9702                	jalr	a4
   18b6a:	892a                	mv	s2,a0
   18b6c:	02a05b63          	blez	a0,18ba2 <__sfvwrite_r+0x2e4>
   18b70:	412989b3          	sub	s3,s3,s2
   18b74:	bd4d                	j	18a26 <__sfvwrite_r+0x168>
   18b76:	893a                	mv	s2,a4
   18b78:	00e9f363          	bgeu	s3,a4,18b7e <__sfvwrite_r+0x2c0>
   18b7c:	894e                	mv	s2,s3
   18b7e:	853e                	mv	a0,a5
   18b80:	864a                	mv	a2,s2
   18b82:	85de                	mv	a1,s7
   18b84:	ceefe0ef          	jal	17072 <memmove>
   18b88:	4418                	lw	a4,8(s0)
   18b8a:	401c                	lw	a5,0(s0)
   18b8c:	41270733          	sub	a4,a4,s2
   18b90:	97ca                	add	a5,a5,s2
   18b92:	c418                	sw	a4,8(s0)
   18b94:	c01c                	sw	a5,0(s0)
   18b96:	ff69                	bnez	a4,18b70 <__sfvwrite_r+0x2b2>
   18b98:	85a2                	mv	a1,s0
   18b9a:	8552                	mv	a0,s4
   18b9c:	8d4fd0ef          	jal	15c70 <_fflush_r>
   18ba0:	d961                	beqz	a0,18b70 <__sfvwrite_r+0x2b2>
   18ba2:	00c41783          	lh	a5,12(s0)
   18ba6:	4bb2                	lw	s7,12(sp)
   18ba8:	4c22                	lw	s8,8(sp)
   18baa:	4c92                	lw	s9,4(sp)
   18bac:	bdd1                	j	18a80 <__sfvwrite_r+0x1c2>
   18bae:	8c4e                	mv	s8,s3
   18bb0:	8cce                	mv	s9,s3
   18bb2:	bda9                	j	18a0c <__sfvwrite_r+0x14e>
   18bb4:	865e                	mv	a2,s7
   18bb6:	85e2                	mv	a1,s8
   18bb8:	cbafe0ef          	jal	17072 <memmove>
   18bbc:	4418                	lw	a4,8(s0)
   18bbe:	401c                	lw	a5,0(s0)
   18bc0:	895e                	mv	s2,s7
   18bc2:	41770733          	sub	a4,a4,s7
   18bc6:	97de                	add	a5,a5,s7
   18bc8:	c418                	sw	a4,8(s0)
   18bca:	c01c                	sw	a5,0(s0)
   18bcc:	bf19                	j	18ae2 <__sfvwrite_r+0x224>
   18bce:	8552                	mv	a0,s4
   18bd0:	b3dfc0ef          	jal	1570c <_realloc_r>
   18bd4:	8caa                	mv	s9,a0
   18bd6:	e0051fe3          	bnez	a0,189f4 <__sfvwrite_r+0x136>
   18bda:	480c                	lw	a1,16(s0)
   18bdc:	8552                	mv	a0,s4
   18bde:	e40fa0ef          	jal	1321e <_free_r>
   18be2:	00c41783          	lh	a5,12(s0)
   18be6:	4731                	li	a4,12
   18be8:	4bb2                	lw	s7,12(sp)
   18bea:	4c22                	lw	s8,8(sp)
   18bec:	4c92                	lw	s9,4(sp)
   18bee:	00ea2023          	sw	a4,0(s4)
   18bf2:	f7f7f793          	and	a5,a5,-129
   18bf6:	b569                	j	18a80 <__sfvwrite_r+0x1c2>
   18bf8:	00198793          	add	a5,s3,1
   18bfc:	8abe                	mv	s5,a5
   18bfe:	bd55                	j	18ab2 <__sfvwrite_r+0x1f4>
   18c00:	00c41783          	lh	a5,12(s0)
   18c04:	bdb5                	j	18a80 <__sfvwrite_r+0x1c2>
   18c06:	4731                	li	a4,12
   18c08:	00c41783          	lh	a5,12(s0)
   18c0c:	4bb2                	lw	s7,12(sp)
   18c0e:	4c22                	lw	s8,8(sp)
   18c10:	4c92                	lw	s9,4(sp)
   18c12:	00ea2023          	sw	a4,0(s4)
   18c16:	b5ad                	j	18a80 <__sfvwrite_r+0x1c2>

00018c18 <__swsetup_r>:
   18c18:	1141                	add	sp,sp,-16
   18c1a:	c422                	sw	s0,8(sp)
   18c1c:	c226                	sw	s1,4(sp)
   18c1e:	c606                	sw	ra,12(sp)
   18c20:	fdc1a783          	lw	a5,-36(gp) # 1e7ec <_impure_ptr>
   18c24:	84aa                	mv	s1,a0
   18c26:	842e                	mv	s0,a1
   18c28:	c399                	beqz	a5,18c2e <__swsetup_r+0x16>
   18c2a:	5bd8                	lw	a4,52(a5)
   18c2c:	c755                	beqz	a4,18cd8 <__swsetup_r+0xc0>
   18c2e:	00c41783          	lh	a5,12(s0)
   18c32:	0087f713          	and	a4,a5,8
   18c36:	c721                	beqz	a4,18c7e <__swsetup_r+0x66>
   18c38:	4818                	lw	a4,16(s0)
   18c3a:	cf31                	beqz	a4,18c96 <__swsetup_r+0x7e>
   18c3c:	0017f693          	and	a3,a5,1
   18c40:	ce91                	beqz	a3,18c5c <__swsetup_r+0x44>
   18c42:	4854                	lw	a3,20(s0)
   18c44:	00042423          	sw	zero,8(s0)
   18c48:	4501                	li	a0,0
   18c4a:	40d006b3          	neg	a3,a3
   18c4e:	cc14                	sw	a3,24(s0)
   18c50:	cf11                	beqz	a4,18c6c <__swsetup_r+0x54>
   18c52:	40b2                	lw	ra,12(sp)
   18c54:	4422                	lw	s0,8(sp)
   18c56:	4492                	lw	s1,4(sp)
   18c58:	0141                	add	sp,sp,16
   18c5a:	8082                	ret
   18c5c:	0027f693          	and	a3,a5,2
   18c60:	4601                	li	a2,0
   18c62:	e291                	bnez	a3,18c66 <__swsetup_r+0x4e>
   18c64:	4850                	lw	a2,20(s0)
   18c66:	c410                	sw	a2,8(s0)
   18c68:	4501                	li	a0,0
   18c6a:	f765                	bnez	a4,18c52 <__swsetup_r+0x3a>
   18c6c:	0807f713          	and	a4,a5,128
   18c70:	d36d                	beqz	a4,18c52 <__swsetup_r+0x3a>
   18c72:	0407e793          	or	a5,a5,64
   18c76:	00f41623          	sh	a5,12(s0)
   18c7a:	557d                	li	a0,-1
   18c7c:	bfd9                	j	18c52 <__swsetup_r+0x3a>
   18c7e:	0107f713          	and	a4,a5,16
   18c82:	cf39                	beqz	a4,18ce0 <__swsetup_r+0xc8>
   18c84:	0047f713          	and	a4,a5,4
   18c88:	e705                	bnez	a4,18cb0 <__swsetup_r+0x98>
   18c8a:	4818                	lw	a4,16(s0)
   18c8c:	0087e793          	or	a5,a5,8
   18c90:	00f41623          	sh	a5,12(s0)
   18c94:	f745                	bnez	a4,18c3c <__swsetup_r+0x24>
   18c96:	2807f693          	and	a3,a5,640
   18c9a:	20000613          	li	a2,512
   18c9e:	f8c68fe3          	beq	a3,a2,18c3c <__swsetup_r+0x24>
   18ca2:	85a2                	mv	a1,s0
   18ca4:	8526                	mv	a0,s1
   18ca6:	2ccd                	jal	18f98 <__smakebuf_r>
   18ca8:	00c41783          	lh	a5,12(s0)
   18cac:	4818                	lw	a4,16(s0)
   18cae:	b779                	j	18c3c <__swsetup_r+0x24>
   18cb0:	580c                	lw	a1,48(s0)
   18cb2:	cd81                	beqz	a1,18cca <__swsetup_r+0xb2>
   18cb4:	04040713          	add	a4,s0,64
   18cb8:	00e58763          	beq	a1,a4,18cc6 <__swsetup_r+0xae>
   18cbc:	8526                	mv	a0,s1
   18cbe:	d60fa0ef          	jal	1321e <_free_r>
   18cc2:	00c41783          	lh	a5,12(s0)
   18cc6:	02042823          	sw	zero,48(s0)
   18cca:	4818                	lw	a4,16(s0)
   18ccc:	fdb7f793          	and	a5,a5,-37
   18cd0:	00042223          	sw	zero,4(s0)
   18cd4:	c018                	sw	a4,0(s0)
   18cd6:	bf5d                	j	18c8c <__swsetup_r+0x74>
   18cd8:	853e                	mv	a0,a5
   18cda:	de1f90ef          	jal	12aba <__sinit>
   18cde:	bf81                	j	18c2e <__swsetup_r+0x16>
   18ce0:	4725                	li	a4,9
   18ce2:	c098                	sw	a4,0(s1)
   18ce4:	0407e793          	or	a5,a5,64
   18ce8:	00f41623          	sh	a5,12(s0)
   18cec:	557d                	li	a0,-1
   18cee:	b795                	j	18c52 <__swsetup_r+0x3a>

00018cf0 <__fputwc>:
   18cf0:	1101                	add	sp,sp,-32
   18cf2:	cc22                	sw	s0,24(sp)
   18cf4:	ca26                	sw	s1,20(sp)
   18cf6:	c84a                	sw	s2,16(sp)
   18cf8:	ce06                	sw	ra,28(sp)
   18cfa:	892a                	mv	s2,a0
   18cfc:	84ae                	mv	s1,a1
   18cfe:	8432                	mv	s0,a2
   18d00:	b1afe0ef          	jal	1701a <__locale_mb_cur_max>
   18d04:	4785                	li	a5,1
   18d06:	00f51b63          	bne	a0,a5,18d1c <__fputwc+0x2c>
   18d0a:	fff48793          	add	a5,s1,-1
   18d0e:	0fe00713          	li	a4,254
   18d12:	00f76563          	bltu	a4,a5,18d1c <__fputwc+0x2c>
   18d16:	00910623          	sb	s1,12(sp)
   18d1a:	a819                	j	18d30 <__fputwc+0x40>
   18d1c:	05c40693          	add	a3,s0,92
   18d20:	8626                	mv	a2,s1
   18d22:	006c                	add	a1,sp,12
   18d24:	854a                	mv	a0,s2
   18d26:	28c1                	jal	18df6 <_wcrtomb_r>
   18d28:	57fd                	li	a5,-1
   18d2a:	04f50a63          	beq	a0,a5,18d7e <__fputwc+0x8e>
   18d2e:	c505                	beqz	a0,18d56 <__fputwc+0x66>
   18d30:	441c                	lw	a5,8(s0)
   18d32:	00c14583          	lbu	a1,12(sp)
   18d36:	17fd                	add	a5,a5,-1
   18d38:	c41c                	sw	a5,8(s0)
   18d3a:	0007d863          	bgez	a5,18d4a <__fputwc+0x5a>
   18d3e:	4c18                	lw	a4,24(s0)
   18d40:	02e7c263          	blt	a5,a4,18d64 <__fputwc+0x74>
   18d44:	47a9                	li	a5,10
   18d46:	00f58f63          	beq	a1,a5,18d64 <__fputwc+0x74>
   18d4a:	401c                	lw	a5,0(s0)
   18d4c:	00178713          	add	a4,a5,1
   18d50:	c018                	sw	a4,0(s0)
   18d52:	00b78023          	sb	a1,0(a5)
   18d56:	40f2                	lw	ra,28(sp)
   18d58:	4462                	lw	s0,24(sp)
   18d5a:	4942                	lw	s2,16(sp)
   18d5c:	8526                	mv	a0,s1
   18d5e:	44d2                	lw	s1,20(sp)
   18d60:	6105                	add	sp,sp,32
   18d62:	8082                	ret
   18d64:	8622                	mv	a2,s0
   18d66:	854a                	mv	a0,s2
   18d68:	2215                	jal	18e8c <__swbuf_r>
   18d6a:	57fd                	li	a5,-1
   18d6c:	fef515e3          	bne	a0,a5,18d56 <__fputwc+0x66>
   18d70:	557d                	li	a0,-1
   18d72:	40f2                	lw	ra,28(sp)
   18d74:	4462                	lw	s0,24(sp)
   18d76:	44d2                	lw	s1,20(sp)
   18d78:	4942                	lw	s2,16(sp)
   18d7a:	6105                	add	sp,sp,32
   18d7c:	8082                	ret
   18d7e:	00c45783          	lhu	a5,12(s0)
   18d82:	557d                	li	a0,-1
   18d84:	0407e793          	or	a5,a5,64
   18d88:	00f41623          	sh	a5,12(s0)
   18d8c:	b7dd                	j	18d72 <__fputwc+0x82>

00018d8e <_fputwc_r>:
   18d8e:	00c61783          	lh	a5,12(a2)
   18d92:	01279713          	sll	a4,a5,0x12
   18d96:	00074a63          	bltz	a4,18daa <_fputwc_r+0x1c>
   18d9a:	5278                	lw	a4,100(a2)
   18d9c:	6689                	lui	a3,0x2
   18d9e:	8fd5                	or	a5,a5,a3
   18da0:	6689                	lui	a3,0x2
   18da2:	8f55                	or	a4,a4,a3
   18da4:	00f61623          	sh	a5,12(a2)
   18da8:	d278                	sw	a4,100(a2)
   18daa:	b799                	j	18cf0 <__fputwc>

00018dac <fputwc>:
   18dac:	1101                	add	sp,sp,-32
   18dae:	cc22                	sw	s0,24(sp)
   18db0:	ce06                	sw	ra,28(sp)
   18db2:	fdc1a403          	lw	s0,-36(gp) # 1e7ec <_impure_ptr>
   18db6:	862e                	mv	a2,a1
   18db8:	85aa                	mv	a1,a0
   18dba:	c019                	beqz	s0,18dc0 <fputwc+0x14>
   18dbc:	585c                	lw	a5,52(s0)
   18dbe:	c785                	beqz	a5,18de6 <fputwc+0x3a>
   18dc0:	00c61783          	lh	a5,12(a2)
   18dc4:	01279713          	sll	a4,a5,0x12
   18dc8:	00074a63          	bltz	a4,18ddc <fputwc+0x30>
   18dcc:	5278                	lw	a4,100(a2)
   18dce:	6689                	lui	a3,0x2
   18dd0:	8fd5                	or	a5,a5,a3
   18dd2:	6689                	lui	a3,0x2
   18dd4:	8f55                	or	a4,a4,a3
   18dd6:	00f61623          	sh	a5,12(a2)
   18dda:	d278                	sw	a4,100(a2)
   18ddc:	8522                	mv	a0,s0
   18dde:	4462                	lw	s0,24(sp)
   18de0:	40f2                	lw	ra,28(sp)
   18de2:	6105                	add	sp,sp,32
   18de4:	b731                	j	18cf0 <__fputwc>
   18de6:	c42a                	sw	a0,8(sp)
   18de8:	8522                	mv	a0,s0
   18dea:	c632                	sw	a2,12(sp)
   18dec:	ccff90ef          	jal	12aba <__sinit>
   18df0:	4632                	lw	a2,12(sp)
   18df2:	45a2                	lw	a1,8(sp)
   18df4:	b7f1                	j	18dc0 <fputwc+0x14>

00018df6 <_wcrtomb_r>:
   18df6:	1101                	add	sp,sp,-32
   18df8:	cc22                	sw	s0,24(sp)
   18dfa:	ca26                	sw	s1,20(sp)
   18dfc:	ce06                	sw	ra,28(sp)
   18dfe:	842a                	mv	s0,a0
   18e00:	84b6                	mv	s1,a3
   18e02:	e141a783          	lw	a5,-492(gp) # 1e624 <__global_locale+0xe0>
   18e06:	c991                	beqz	a1,18e1a <_wcrtomb_r+0x24>
   18e08:	9782                	jalr	a5
   18e0a:	57fd                	li	a5,-1
   18e0c:	00f50d63          	beq	a0,a5,18e26 <_wcrtomb_r+0x30>
   18e10:	40f2                	lw	ra,28(sp)
   18e12:	4462                	lw	s0,24(sp)
   18e14:	44d2                	lw	s1,20(sp)
   18e16:	6105                	add	sp,sp,32
   18e18:	8082                	ret
   18e1a:	4601                	li	a2,0
   18e1c:	004c                	add	a1,sp,4
   18e1e:	9782                	jalr	a5
   18e20:	57fd                	li	a5,-1
   18e22:	fef517e3          	bne	a0,a5,18e10 <_wcrtomb_r+0x1a>
   18e26:	0004a023          	sw	zero,0(s1)
   18e2a:	08a00793          	li	a5,138
   18e2e:	40f2                	lw	ra,28(sp)
   18e30:	c01c                	sw	a5,0(s0)
   18e32:	4462                	lw	s0,24(sp)
   18e34:	44d2                	lw	s1,20(sp)
   18e36:	6105                	add	sp,sp,32
   18e38:	8082                	ret

00018e3a <wcrtomb>:
   18e3a:	1101                	add	sp,sp,-32
   18e3c:	cc22                	sw	s0,24(sp)
   18e3e:	ca26                	sw	s1,20(sp)
   18e40:	ce06                	sw	ra,28(sp)
   18e42:	8432                	mv	s0,a2
   18e44:	fdc1a483          	lw	s1,-36(gp) # 1e7ec <_impure_ptr>
   18e48:	e141a783          	lw	a5,-492(gp) # 1e624 <__global_locale+0xe0>
   18e4c:	cd11                	beqz	a0,18e68 <wcrtomb+0x2e>
   18e4e:	862e                	mv	a2,a1
   18e50:	86a2                	mv	a3,s0
   18e52:	85aa                	mv	a1,a0
   18e54:	8526                	mv	a0,s1
   18e56:	9782                	jalr	a5
   18e58:	57fd                	li	a5,-1
   18e5a:	00f50f63          	beq	a0,a5,18e78 <wcrtomb+0x3e>
   18e5e:	40f2                	lw	ra,28(sp)
   18e60:	4462                	lw	s0,24(sp)
   18e62:	44d2                	lw	s1,20(sp)
   18e64:	6105                	add	sp,sp,32
   18e66:	8082                	ret
   18e68:	86b2                	mv	a3,a2
   18e6a:	004c                	add	a1,sp,4
   18e6c:	4601                	li	a2,0
   18e6e:	8526                	mv	a0,s1
   18e70:	9782                	jalr	a5
   18e72:	57fd                	li	a5,-1
   18e74:	fef515e3          	bne	a0,a5,18e5e <wcrtomb+0x24>
   18e78:	00042023          	sw	zero,0(s0)
   18e7c:	40f2                	lw	ra,28(sp)
   18e7e:	4462                	lw	s0,24(sp)
   18e80:	08a00793          	li	a5,138
   18e84:	c09c                	sw	a5,0(s1)
   18e86:	44d2                	lw	s1,20(sp)
   18e88:	6105                	add	sp,sp,32
   18e8a:	8082                	ret

00018e8c <__swbuf_r>:
   18e8c:	1101                	add	sp,sp,-32
   18e8e:	cc22                	sw	s0,24(sp)
   18e90:	ca26                	sw	s1,20(sp)
   18e92:	c84a                	sw	s2,16(sp)
   18e94:	ce06                	sw	ra,28(sp)
   18e96:	892a                	mv	s2,a0
   18e98:	84ae                	mv	s1,a1
   18e9a:	8432                	mv	s0,a2
   18e9c:	c119                	beqz	a0,18ea2 <__swbuf_r+0x16>
   18e9e:	595c                	lw	a5,52(a0)
   18ea0:	c7e5                	beqz	a5,18f88 <__swbuf_r+0xfc>
   18ea2:	4c1c                	lw	a5,24(s0)
   18ea4:	00c41703          	lh	a4,12(s0)
   18ea8:	c41c                	sw	a5,8(s0)
   18eaa:	00877793          	and	a5,a4,8
   18eae:	cbb1                	beqz	a5,18f02 <__swbuf_r+0x76>
   18eb0:	481c                	lw	a5,16(s0)
   18eb2:	cba1                	beqz	a5,18f02 <__swbuf_r+0x76>
   18eb4:	c64e                	sw	s3,12(sp)
   18eb6:	01271693          	sll	a3,a4,0x12
   18eba:	0ff4f993          	zext.b	s3,s1
   18ebe:	0ff4f493          	zext.b	s1,s1
   18ec2:	0606d163          	bgez	a3,18f24 <__swbuf_r+0x98>
   18ec6:	4018                	lw	a4,0(s0)
   18ec8:	4854                	lw	a3,20(s0)
   18eca:	40f707b3          	sub	a5,a4,a5
   18ece:	06d7da63          	bge	a5,a3,18f42 <__swbuf_r+0xb6>
   18ed2:	4414                	lw	a3,8(s0)
   18ed4:	00170613          	add	a2,a4,1
   18ed8:	c010                	sw	a2,0(s0)
   18eda:	16fd                	add	a3,a3,-1 # 1fff <register_fini-0xe095>
   18edc:	c414                	sw	a3,8(s0)
   18ede:	01370023          	sb	s3,0(a4)
   18ee2:	4858                	lw	a4,20(s0)
   18ee4:	0785                	add	a5,a5,1
   18ee6:	08f70063          	beq	a4,a5,18f66 <__swbuf_r+0xda>
   18eea:	00c45783          	lhu	a5,12(s0)
   18eee:	8b85                	and	a5,a5,1
   18ef0:	e3d9                	bnez	a5,18f76 <__swbuf_r+0xea>
   18ef2:	49b2                	lw	s3,12(sp)
   18ef4:	40f2                	lw	ra,28(sp)
   18ef6:	4462                	lw	s0,24(sp)
   18ef8:	4942                	lw	s2,16(sp)
   18efa:	8526                	mv	a0,s1
   18efc:	44d2                	lw	s1,20(sp)
   18efe:	6105                	add	sp,sp,32
   18f00:	8082                	ret
   18f02:	85a2                	mv	a1,s0
   18f04:	854a                	mv	a0,s2
   18f06:	d13ff0ef          	jal	18c18 <__swsetup_r>
   18f0a:	e525                	bnez	a0,18f72 <__swbuf_r+0xe6>
   18f0c:	00c41703          	lh	a4,12(s0)
   18f10:	c64e                	sw	s3,12(sp)
   18f12:	481c                	lw	a5,16(s0)
   18f14:	01271693          	sll	a3,a4,0x12
   18f18:	0ff4f993          	zext.b	s3,s1
   18f1c:	0ff4f493          	zext.b	s1,s1
   18f20:	fa06c3e3          	bltz	a3,18ec6 <__swbuf_r+0x3a>
   18f24:	5074                	lw	a3,100(s0)
   18f26:	7679                	lui	a2,0xffffe
   18f28:	6589                	lui	a1,0x2
   18f2a:	8f4d                	or	a4,a4,a1
   18f2c:	167d                	add	a2,a2,-1 # ffffdfff <__BSS_END__+0xfffdf4db>
   18f2e:	8ef1                	and	a3,a3,a2
   18f30:	00e41623          	sh	a4,12(s0)
   18f34:	4018                	lw	a4,0(s0)
   18f36:	d074                	sw	a3,100(s0)
   18f38:	4854                	lw	a3,20(s0)
   18f3a:	40f707b3          	sub	a5,a4,a5
   18f3e:	f8d7cae3          	blt	a5,a3,18ed2 <__swbuf_r+0x46>
   18f42:	85a2                	mv	a1,s0
   18f44:	854a                	mv	a0,s2
   18f46:	d2bfc0ef          	jal	15c70 <_fflush_r>
   18f4a:	e11d                	bnez	a0,18f70 <__swbuf_r+0xe4>
   18f4c:	4018                	lw	a4,0(s0)
   18f4e:	4414                	lw	a3,8(s0)
   18f50:	4785                	li	a5,1
   18f52:	00170613          	add	a2,a4,1
   18f56:	16fd                	add	a3,a3,-1
   18f58:	c010                	sw	a2,0(s0)
   18f5a:	c414                	sw	a3,8(s0)
   18f5c:	01370023          	sb	s3,0(a4)
   18f60:	4858                	lw	a4,20(s0)
   18f62:	f8f714e3          	bne	a4,a5,18eea <__swbuf_r+0x5e>
   18f66:	85a2                	mv	a1,s0
   18f68:	854a                	mv	a0,s2
   18f6a:	d07fc0ef          	jal	15c70 <_fflush_r>
   18f6e:	d151                	beqz	a0,18ef2 <__swbuf_r+0x66>
   18f70:	49b2                	lw	s3,12(sp)
   18f72:	54fd                	li	s1,-1
   18f74:	b741                	j	18ef4 <__swbuf_r+0x68>
   18f76:	47a9                	li	a5,10
   18f78:	f6f49de3          	bne	s1,a5,18ef2 <__swbuf_r+0x66>
   18f7c:	85a2                	mv	a1,s0
   18f7e:	854a                	mv	a0,s2
   18f80:	cf1fc0ef          	jal	15c70 <_fflush_r>
   18f84:	d53d                	beqz	a0,18ef2 <__swbuf_r+0x66>
   18f86:	b7ed                	j	18f70 <__swbuf_r+0xe4>
   18f88:	b33f90ef          	jal	12aba <__sinit>
   18f8c:	bf19                	j	18ea2 <__swbuf_r+0x16>

00018f8e <__swbuf>:
   18f8e:	862e                	mv	a2,a1
   18f90:	85aa                	mv	a1,a0
   18f92:	fdc1a503          	lw	a0,-36(gp) # 1e7ec <_impure_ptr>
   18f96:	bddd                	j	18e8c <__swbuf_r>

00018f98 <__smakebuf_r>:
   18f98:	00c59783          	lh	a5,12(a1) # 200c <register_fini-0xe088>
   18f9c:	7119                	add	sp,sp,-128
   18f9e:	dca2                	sw	s0,120(sp)
   18fa0:	de86                	sw	ra,124(sp)
   18fa2:	0027f713          	and	a4,a5,2
   18fa6:	842e                	mv	s0,a1
   18fa8:	cb19                	beqz	a4,18fbe <__smakebuf_r+0x26>
   18faa:	04358793          	add	a5,a1,67
   18fae:	c19c                	sw	a5,0(a1)
   18fb0:	c99c                	sw	a5,16(a1)
   18fb2:	4785                	li	a5,1
   18fb4:	c9dc                	sw	a5,20(a1)
   18fb6:	50f6                	lw	ra,124(sp)
   18fb8:	5466                	lw	s0,120(sp)
   18fba:	6109                	add	sp,sp,128
   18fbc:	8082                	ret
   18fbe:	00e59583          	lh	a1,14(a1)
   18fc2:	daa6                	sw	s1,116(sp)
   18fc4:	d8ca                	sw	s2,112(sp)
   18fc6:	d6ce                	sw	s3,108(sp)
   18fc8:	d4d2                	sw	s4,104(sp)
   18fca:	84aa                	mv	s1,a0
   18fcc:	0605c263          	bltz	a1,19030 <__smakebuf_r+0x98>
   18fd0:	0030                	add	a2,sp,8
   18fd2:	2aa1                	jal	1912a <_fstat_r>
   18fd4:	04054c63          	bltz	a0,1902c <__smakebuf_r+0x94>
   18fd8:	47b2                	lw	a5,12(sp)
   18fda:	693d                	lui	s2,0xf
   18fdc:	6985                	lui	s3,0x1
   18fde:	00f97933          	and	s2,s2,a5
   18fe2:	77f9                	lui	a5,0xffffe
   18fe4:	993e                	add	s2,s2,a5
   18fe6:	00193913          	seqz	s2,s2
   18fea:	40000a13          	li	s4,1024
   18fee:	80098993          	add	s3,s3,-2048 # 800 <register_fini-0xf894>
   18ff2:	85d2                	mv	a1,s4
   18ff4:	8526                	mv	a0,s1
   18ff6:	ba9f90ef          	jal	12b9e <_malloc_r>
   18ffa:	00c41783          	lh	a5,12(s0)
   18ffe:	c539                	beqz	a0,1904c <__smakebuf_r+0xb4>
   19000:	0807e793          	or	a5,a5,128
   19004:	c008                	sw	a0,0(s0)
   19006:	c808                	sw	a0,16(s0)
   19008:	00f41623          	sh	a5,12(s0)
   1900c:	01442a23          	sw	s4,20(s0)
   19010:	06091563          	bnez	s2,1907a <__smakebuf_r+0xe2>
   19014:	0137e7b3          	or	a5,a5,s3
   19018:	50f6                	lw	ra,124(sp)
   1901a:	00f41623          	sh	a5,12(s0)
   1901e:	5466                	lw	s0,120(sp)
   19020:	54d6                	lw	s1,116(sp)
   19022:	5946                	lw	s2,112(sp)
   19024:	59b6                	lw	s3,108(sp)
   19026:	5a26                	lw	s4,104(sp)
   19028:	6109                	add	sp,sp,128
   1902a:	8082                	ret
   1902c:	00c41783          	lh	a5,12(s0)
   19030:	0807f793          	and	a5,a5,128
   19034:	4901                	li	s2,0
   19036:	cf95                	beqz	a5,19072 <__smakebuf_r+0xda>
   19038:	04000a13          	li	s4,64
   1903c:	85d2                	mv	a1,s4
   1903e:	8526                	mv	a0,s1
   19040:	b5ff90ef          	jal	12b9e <_malloc_r>
   19044:	00c41783          	lh	a5,12(s0)
   19048:	4981                	li	s3,0
   1904a:	f95d                	bnez	a0,19000 <__smakebuf_r+0x68>
   1904c:	2007f713          	and	a4,a5,512
   19050:	ef0d                	bnez	a4,1908a <__smakebuf_r+0xf2>
   19052:	9bf1                	and	a5,a5,-4
   19054:	0027e793          	or	a5,a5,2
   19058:	04340713          	add	a4,s0,67
   1905c:	00f41623          	sh	a5,12(s0)
   19060:	4785                	li	a5,1
   19062:	54d6                	lw	s1,116(sp)
   19064:	5946                	lw	s2,112(sp)
   19066:	59b6                	lw	s3,108(sp)
   19068:	5a26                	lw	s4,104(sp)
   1906a:	c018                	sw	a4,0(s0)
   1906c:	c818                	sw	a4,16(s0)
   1906e:	c85c                	sw	a5,20(s0)
   19070:	b799                	j	18fb6 <__smakebuf_r+0x1e>
   19072:	40000a13          	li	s4,1024
   19076:	4981                	li	s3,0
   19078:	bfad                	j	18ff2 <__smakebuf_r+0x5a>
   1907a:	00e41583          	lh	a1,14(s0)
   1907e:	8526                	mv	a0,s1
   19080:	28f1                	jal	1915c <_isatty_r>
   19082:	e909                	bnez	a0,19094 <__smakebuf_r+0xfc>
   19084:	00c41783          	lh	a5,12(s0)
   19088:	b771                	j	19014 <__smakebuf_r+0x7c>
   1908a:	54d6                	lw	s1,116(sp)
   1908c:	5946                	lw	s2,112(sp)
   1908e:	59b6                	lw	s3,108(sp)
   19090:	5a26                	lw	s4,104(sp)
   19092:	b715                	j	18fb6 <__smakebuf_r+0x1e>
   19094:	00c45783          	lhu	a5,12(s0)
   19098:	9bf1                	and	a5,a5,-4
   1909a:	0017e793          	or	a5,a5,1
   1909e:	07c2                	sll	a5,a5,0x10
   190a0:	87c1                	sra	a5,a5,0x10
   190a2:	bf8d                	j	19014 <__smakebuf_r+0x7c>

000190a4 <__swhatbuf_r>:
   190a4:	7159                	add	sp,sp,-112
   190a6:	d4a2                	sw	s0,104(sp)
   190a8:	842e                	mv	s0,a1
   190aa:	00e59583          	lh	a1,14(a1)
   190ae:	d2a6                	sw	s1,100(sp)
   190b0:	d0ca                	sw	s2,96(sp)
   190b2:	d686                	sw	ra,108(sp)
   190b4:	84b2                	mv	s1,a2
   190b6:	8936                	mv	s2,a3
   190b8:	0205cb63          	bltz	a1,190ee <__swhatbuf_r+0x4a>
   190bc:	0030                	add	a2,sp,8
   190be:	20b5                	jal	1912a <_fstat_r>
   190c0:	02054763          	bltz	a0,190ee <__swhatbuf_r+0x4a>
   190c4:	4732                	lw	a4,12(sp)
   190c6:	67bd                	lui	a5,0xf
   190c8:	50b6                	lw	ra,108(sp)
   190ca:	8ff9                	and	a5,a5,a4
   190cc:	7779                	lui	a4,0xffffe
   190ce:	97ba                	add	a5,a5,a4
   190d0:	5426                	lw	s0,104(sp)
   190d2:	0017b793          	seqz	a5,a5
   190d6:	00f92023          	sw	a5,0(s2) # f000 <register_fini-0x1094>
   190da:	40000713          	li	a4,1024
   190de:	c098                	sw	a4,0(s1)
   190e0:	6505                	lui	a0,0x1
   190e2:	5496                	lw	s1,100(sp)
   190e4:	5906                	lw	s2,96(sp)
   190e6:	80050513          	add	a0,a0,-2048 # 800 <register_fini-0xf894>
   190ea:	6165                	add	sp,sp,112
   190ec:	8082                	ret
   190ee:	00c45783          	lhu	a5,12(s0)
   190f2:	0807f793          	and	a5,a5,128
   190f6:	cf91                	beqz	a5,19112 <__swhatbuf_r+0x6e>
   190f8:	50b6                	lw	ra,108(sp)
   190fa:	5426                	lw	s0,104(sp)
   190fc:	4781                	li	a5,0
   190fe:	00f92023          	sw	a5,0(s2)
   19102:	04000713          	li	a4,64
   19106:	c098                	sw	a4,0(s1)
   19108:	5906                	lw	s2,96(sp)
   1910a:	5496                	lw	s1,100(sp)
   1910c:	4501                	li	a0,0
   1910e:	6165                	add	sp,sp,112
   19110:	8082                	ret
   19112:	50b6                	lw	ra,108(sp)
   19114:	5426                	lw	s0,104(sp)
   19116:	00f92023          	sw	a5,0(s2)
   1911a:	40000713          	li	a4,1024
   1911e:	c098                	sw	a4,0(s1)
   19120:	5906                	lw	s2,96(sp)
   19122:	5496                	lw	s1,100(sp)
   19124:	4501                	li	a0,0
   19126:	6165                	add	sp,sp,112
   19128:	8082                	ret

0001912a <_fstat_r>:
   1912a:	1141                	add	sp,sp,-16
   1912c:	872e                	mv	a4,a1
   1912e:	c422                	sw	s0,8(sp)
   19130:	85b2                	mv	a1,a2
   19132:	842a                	mv	s0,a0
   19134:	853a                	mv	a0,a4
   19136:	0001a023          	sw	zero,0(gp) # 1e810 <errno>
   1913a:	c606                	sw	ra,12(sp)
   1913c:	2871                	jal	191d8 <_fstat>
   1913e:	57fd                	li	a5,-1
   19140:	00f50663          	beq	a0,a5,1914c <_fstat_r+0x22>
   19144:	40b2                	lw	ra,12(sp)
   19146:	4422                	lw	s0,8(sp)
   19148:	0141                	add	sp,sp,16
   1914a:	8082                	ret
   1914c:	0001a783          	lw	a5,0(gp) # 1e810 <errno>
   19150:	dbf5                	beqz	a5,19144 <_fstat_r+0x1a>
   19152:	40b2                	lw	ra,12(sp)
   19154:	c01c                	sw	a5,0(s0)
   19156:	4422                	lw	s0,8(sp)
   19158:	0141                	add	sp,sp,16
   1915a:	8082                	ret

0001915c <_isatty_r>:
   1915c:	1141                	add	sp,sp,-16
   1915e:	c422                	sw	s0,8(sp)
   19160:	842a                	mv	s0,a0
   19162:	852e                	mv	a0,a1
   19164:	0001a023          	sw	zero,0(gp) # 1e810 <errno>
   19168:	c606                	sw	ra,12(sp)
   1916a:	2075                	jal	19216 <_isatty>
   1916c:	57fd                	li	a5,-1
   1916e:	00f50663          	beq	a0,a5,1917a <_isatty_r+0x1e>
   19172:	40b2                	lw	ra,12(sp)
   19174:	4422                	lw	s0,8(sp)
   19176:	0141                	add	sp,sp,16
   19178:	8082                	ret
   1917a:	0001a783          	lw	a5,0(gp) # 1e810 <errno>
   1917e:	dbf5                	beqz	a5,19172 <_isatty_r+0x16>
   19180:	40b2                	lw	ra,12(sp)
   19182:	c01c                	sw	a5,0(s0)
   19184:	4422                	lw	s0,8(sp)
   19186:	0141                	add	sp,sp,16
   19188:	8082                	ret

0001918a <_close>:
   1918a:	1141                	add	sp,sp,-16
   1918c:	c606                	sw	ra,12(sp)
   1918e:	c422                	sw	s0,8(sp)
   19190:	03900893          	li	a7,57
   19194:	00000073          	ecall
   19198:	842a                	mv	s0,a0
   1919a:	00054763          	bltz	a0,191a8 <_close+0x1e>
   1919e:	40b2                	lw	ra,12(sp)
   191a0:	8522                	mv	a0,s0
   191a2:	4422                	lw	s0,8(sp)
   191a4:	0141                	add	sp,sp,16
   191a6:	8082                	ret
   191a8:	40800433          	neg	s0,s0
   191ac:	838fe0ef          	jal	171e4 <__errno>
   191b0:	c100                	sw	s0,0(a0)
   191b2:	547d                	li	s0,-1
   191b4:	b7ed                	j	1919e <_close+0x14>

000191b6 <_exit>:
   191b6:	05d00893          	li	a7,93
   191ba:	00000073          	ecall
   191be:	00054363          	bltz	a0,191c4 <_exit+0xe>
   191c2:	a001                	j	191c2 <_exit+0xc>
   191c4:	1141                	add	sp,sp,-16
   191c6:	c422                	sw	s0,8(sp)
   191c8:	842a                	mv	s0,a0
   191ca:	c606                	sw	ra,12(sp)
   191cc:	40800433          	neg	s0,s0
   191d0:	814fe0ef          	jal	171e4 <__errno>
   191d4:	c100                	sw	s0,0(a0)
   191d6:	a001                	j	191d6 <_exit+0x20>

000191d8 <_fstat>:
   191d8:	7175                	add	sp,sp,-144
   191da:	c326                	sw	s1,132(sp)
   191dc:	c706                	sw	ra,140(sp)
   191de:	84ae                	mv	s1,a1
   191e0:	c522                	sw	s0,136(sp)
   191e2:	05000893          	li	a7,80
   191e6:	858a                	mv	a1,sp
   191e8:	00000073          	ecall
   191ec:	842a                	mv	s0,a0
   191ee:	00054b63          	bltz	a0,19204 <_fstat+0x2c>
   191f2:	8526                	mv	a0,s1
   191f4:	858a                	mv	a1,sp
   191f6:	2235                	jal	19322 <_conv_stat>
   191f8:	40ba                	lw	ra,140(sp)
   191fa:	8522                	mv	a0,s0
   191fc:	442a                	lw	s0,136(sp)
   191fe:	449a                	lw	s1,132(sp)
   19200:	6149                	add	sp,sp,144
   19202:	8082                	ret
   19204:	40800433          	neg	s0,s0
   19208:	fddfd0ef          	jal	171e4 <__errno>
   1920c:	c100                	sw	s0,0(a0)
   1920e:	547d                	li	s0,-1
   19210:	b7cd                	j	191f2 <_fstat+0x1a>

00019212 <_getpid>:
   19212:	4505                	li	a0,1
   19214:	8082                	ret

00019216 <_isatty>:
   19216:	7159                	add	sp,sp,-112
   19218:	002c                	add	a1,sp,8
   1921a:	d686                	sw	ra,108(sp)
   1921c:	fbdff0ef          	jal	191d8 <_fstat>
   19220:	57fd                	li	a5,-1
   19222:	00f50863          	beq	a0,a5,19232 <_isatty+0x1c>
   19226:	4532                	lw	a0,12(sp)
   19228:	50b6                	lw	ra,108(sp)
   1922a:	8135                	srl	a0,a0,0xd
   1922c:	8905                	and	a0,a0,1
   1922e:	6165                	add	sp,sp,112
   19230:	8082                	ret
   19232:	50b6                	lw	ra,108(sp)
   19234:	4501                	li	a0,0
   19236:	6165                	add	sp,sp,112
   19238:	8082                	ret

0001923a <_kill>:
   1923a:	1141                	add	sp,sp,-16
   1923c:	c606                	sw	ra,12(sp)
   1923e:	fa7fd0ef          	jal	171e4 <__errno>
   19242:	40b2                	lw	ra,12(sp)
   19244:	47d9                	li	a5,22
   19246:	c11c                	sw	a5,0(a0)
   19248:	557d                	li	a0,-1
   1924a:	0141                	add	sp,sp,16
   1924c:	8082                	ret

0001924e <_lseek>:
   1924e:	1141                	add	sp,sp,-16
   19250:	c606                	sw	ra,12(sp)
   19252:	c422                	sw	s0,8(sp)
   19254:	03e00893          	li	a7,62
   19258:	00000073          	ecall
   1925c:	842a                	mv	s0,a0
   1925e:	00054763          	bltz	a0,1926c <_lseek+0x1e>
   19262:	40b2                	lw	ra,12(sp)
   19264:	8522                	mv	a0,s0
   19266:	4422                	lw	s0,8(sp)
   19268:	0141                	add	sp,sp,16
   1926a:	8082                	ret
   1926c:	40800433          	neg	s0,s0
   19270:	f75fd0ef          	jal	171e4 <__errno>
   19274:	c100                	sw	s0,0(a0)
   19276:	547d                	li	s0,-1
   19278:	b7ed                	j	19262 <_lseek+0x14>

0001927a <_read>:
   1927a:	1141                	add	sp,sp,-16
   1927c:	c606                	sw	ra,12(sp)
   1927e:	c422                	sw	s0,8(sp)
   19280:	03f00893          	li	a7,63
   19284:	00000073          	ecall
   19288:	842a                	mv	s0,a0
   1928a:	00054763          	bltz	a0,19298 <_read+0x1e>
   1928e:	40b2                	lw	ra,12(sp)
   19290:	8522                	mv	a0,s0
   19292:	4422                	lw	s0,8(sp)
   19294:	0141                	add	sp,sp,16
   19296:	8082                	ret
   19298:	40800433          	neg	s0,s0
   1929c:	f49fd0ef          	jal	171e4 <__errno>
   192a0:	c100                	sw	s0,0(a0)
   192a2:	547d                	li	s0,-1
   192a4:	b7ed                	j	1928e <_read+0x14>

000192a6 <_sbrk>:
   192a6:	00418693          	add	a3,gp,4 # 1e814 <heap_end.0>
   192aa:	4298                	lw	a4,0(a3)
   192ac:	1141                	add	sp,sp,-16
   192ae:	c606                	sw	ra,12(sp)
   192b0:	87aa                	mv	a5,a0
   192b2:	eb19                	bnez	a4,192c8 <_sbrk+0x22>
   192b4:	0d600893          	li	a7,214
   192b8:	4501                	li	a0,0
   192ba:	00000073          	ecall
   192be:	567d                	li	a2,-1
   192c0:	872a                	mv	a4,a0
   192c2:	02c50263          	beq	a0,a2,192e6 <_sbrk+0x40>
   192c6:	c288                	sw	a0,0(a3)
   192c8:	0d600893          	li	a7,214
   192cc:	00e78533          	add	a0,a5,a4
   192d0:	00000073          	ecall
   192d4:	4298                	lw	a4,0(a3)
   192d6:	97ba                	add	a5,a5,a4
   192d8:	00f51763          	bne	a0,a5,192e6 <_sbrk+0x40>
   192dc:	40b2                	lw	ra,12(sp)
   192de:	c288                	sw	a0,0(a3)
   192e0:	853a                	mv	a0,a4
   192e2:	0141                	add	sp,sp,16
   192e4:	8082                	ret
   192e6:	efffd0ef          	jal	171e4 <__errno>
   192ea:	40b2                	lw	ra,12(sp)
   192ec:	47b1                	li	a5,12
   192ee:	c11c                	sw	a5,0(a0)
   192f0:	557d                	li	a0,-1
   192f2:	0141                	add	sp,sp,16
   192f4:	8082                	ret

000192f6 <_write>:
   192f6:	1141                	add	sp,sp,-16
   192f8:	c606                	sw	ra,12(sp)
   192fa:	c422                	sw	s0,8(sp)
   192fc:	04000893          	li	a7,64
   19300:	00000073          	ecall
   19304:	842a                	mv	s0,a0
   19306:	00054763          	bltz	a0,19314 <_write+0x1e>
   1930a:	40b2                	lw	ra,12(sp)
   1930c:	8522                	mv	a0,s0
   1930e:	4422                	lw	s0,8(sp)
   19310:	0141                	add	sp,sp,16
   19312:	8082                	ret
   19314:	40800433          	neg	s0,s0
   19318:	ecdfd0ef          	jal	171e4 <__errno>
   1931c:	c100                	sw	s0,0(a0)
   1931e:	547d                	li	s0,-1
   19320:	b7ed                	j	1930a <_write+0x14>

00019322 <_conv_stat>:
   19322:	0185d703          	lhu	a4,24(a1)
   19326:	0145d783          	lhu	a5,20(a1)
   1932a:	1141                	add	sp,sp,-16
   1932c:	01c5a283          	lw	t0,28(a1)
   19330:	0205af83          	lw	t6,32(a1)
   19334:	0305af03          	lw	t5,48(a1)
   19338:	0405ae83          	lw	t4,64(a1)
   1933c:	0385ae03          	lw	t3,56(a1)
   19340:	0485a303          	lw	t1,72(a1)
   19344:	04c5a383          	lw	t2,76(a1)
   19348:	0585a803          	lw	a6,88(a1)
   1934c:	05c5a883          	lw	a7,92(a1)
   19350:	c622                	sw	s0,12(sp)
   19352:	c426                	sw	s1,8(sp)
   19354:	4980                	lw	s0,16(a1)
   19356:	4584                	lw	s1,8(a1)
   19358:	c24a                	sw	s2,4(sp)
   1935a:	0005a903          	lw	s2,0(a1)
   1935e:	55b0                	lw	a2,104(a1)
   19360:	0742                	sll	a4,a4,0x10
   19362:	8fd9                	or	a5,a5,a4
   19364:	55f4                	lw	a3,108(a1)
   19366:	01251023          	sh	s2,0(a0)
   1936a:	00951123          	sh	s1,2(a0)
   1936e:	c140                	sw	s0,4(a0)
   19370:	c51c                	sw	a5,8(a0)
   19372:	00551623          	sh	t0,12(a0)
   19376:	01f51723          	sh	t6,14(a0)
   1937a:	01e52823          	sw	t5,16(a0)
   1937e:	05d52623          	sw	t4,76(a0)
   19382:	05c52423          	sw	t3,72(a0)
   19386:	00652c23          	sw	t1,24(a0)
   1938a:	00752e23          	sw	t2,28(a0)
   1938e:	03052423          	sw	a6,40(a0)
   19392:	03152623          	sw	a7,44(a0)
   19396:	dd10                	sw	a2,56(a0)
   19398:	4432                	lw	s0,12(sp)
   1939a:	dd54                	sw	a3,60(a0)
   1939c:	44a2                	lw	s1,8(sp)
   1939e:	4912                	lw	s2,4(sp)
   193a0:	0141                	add	sp,sp,16
   193a2:	8082                	ret

000193a4 <__adddf3>:
   193a4:	001007b7          	lui	a5,0x100
   193a8:	1101                	add	sp,sp,-32
   193aa:	fff78e93          	add	t4,a5,-1 # fffff <__BSS_END__+0xe14db>
   193ae:	00bef833          	and	a6,t4,a1
   193b2:	00def7b3          	and	a5,t4,a3
   193b6:	0146d313          	srl	t1,a3,0x14
   193ba:	c84a                	sw	s2,16(sp)
   193bc:	0145d913          	srl	s2,a1,0x14
   193c0:	078e                	sll	a5,a5,0x3
   193c2:	cc22                	sw	s0,24(sp)
   193c4:	080e                	sll	a6,a6,0x3
   193c6:	01f5d413          	srl	s0,a1,0x1f
   193ca:	01d55713          	srl	a4,a0,0x1d
   193ce:	01d65893          	srl	a7,a2,0x1d
   193d2:	7ff97913          	and	s2,s2,2047
   193d6:	7ff37313          	and	t1,t1,2047
   193da:	ce06                	sw	ra,28(sp)
   193dc:	ca26                	sw	s1,20(sp)
   193de:	c64e                	sw	s3,12(sp)
   193e0:	82fd                	srl	a3,a3,0x1f
   193e2:	00f8e8b3          	or	a7,a7,a5
   193e6:	01076733          	or	a4,a4,a6
   193ea:	00351593          	sll	a1,a0,0x3
   193ee:	00361f13          	sll	t5,a2,0x3
   193f2:	406907b3          	sub	a5,s2,t1
   193f6:	18d40c63          	beq	s0,a3,1958e <__adddf3+0x1ea>
   193fa:	12f05363          	blez	a5,19520 <__adddf3+0x17c>
   193fe:	22030263          	beqz	t1,19622 <__adddf3+0x27e>
   19402:	7ff00693          	li	a3,2047
   19406:	38d90163          	beq	s2,a3,19788 <__adddf3+0x3e4>
   1940a:	03800693          	li	a3,56
   1940e:	4605                	li	a2,1
   19410:	02f6ca63          	blt	a3,a5,19444 <__adddf3+0xa0>
   19414:	008006b7          	lui	a3,0x800
   19418:	00d8e8b3          	or	a7,a7,a3
   1941c:	46fd                	li	a3,31
   1941e:	44f6ce63          	blt	a3,a5,1987a <__adddf3+0x4d6>
   19422:	02000693          	li	a3,32
   19426:	8e9d                	sub	a3,a3,a5
   19428:	00d89633          	sll	a2,a7,a3
   1942c:	00ff5533          	srl	a0,t5,a5
   19430:	00df16b3          	sll	a3,t5,a3
   19434:	8e49                	or	a2,a2,a0
   19436:	00d036b3          	snez	a3,a3
   1943a:	00f8d8b3          	srl	a7,a7,a5
   1943e:	8e55                	or	a2,a2,a3
   19440:	41170733          	sub	a4,a4,a7
   19444:	40c58633          	sub	a2,a1,a2
   19448:	00c5b5b3          	sltu	a1,a1,a2
   1944c:	84b2                	mv	s1,a2
   1944e:	40b709b3          	sub	s3,a4,a1
   19452:	00899793          	sll	a5,s3,0x8
   19456:	2a07db63          	bgez	a5,1970c <__adddf3+0x368>
   1945a:	008007b7          	lui	a5,0x800
   1945e:	17fd                	add	a5,a5,-1 # 7fffff <__BSS_END__+0x7e14db>
   19460:	00f9f9b3          	and	s3,s3,a5
   19464:	24098f63          	beqz	s3,196c2 <__adddf3+0x31e>
   19468:	854e                	mv	a0,s3
   1946a:	7d3030ef          	jal	1d43c <__clzsi2>
   1946e:	ff850793          	add	a5,a0,-8
   19472:	02000693          	li	a3,32
   19476:	40f68733          	sub	a4,a3,a5
   1947a:	00e4d733          	srl	a4,s1,a4
   1947e:	00f999b3          	sll	s3,s3,a5
   19482:	01376733          	or	a4,a4,s3
   19486:	00f494b3          	sll	s1,s1,a5
   1948a:	3f27c063          	blt	a5,s2,1986a <__adddf3+0x4c6>
   1948e:	412787b3          	sub	a5,a5,s2
   19492:	0785                	add	a5,a5,1
   19494:	8e9d                	sub	a3,a3,a5
   19496:	00d49633          	sll	a2,s1,a3
   1949a:	00f4d9b3          	srl	s3,s1,a5
   1949e:	00c03633          	snez	a2,a2
   194a2:	01366633          	or	a2,a2,s3
   194a6:	00d716b3          	sll	a3,a4,a3
   194aa:	00c6e4b3          	or	s1,a3,a2
   194ae:	00f759b3          	srl	s3,a4,a5
   194b2:	4901                	li	s2,0
   194b4:	0074f793          	and	a5,s1,7
   194b8:	cf81                	beqz	a5,194d0 <__adddf3+0x12c>
   194ba:	00f4f793          	and	a5,s1,15
   194be:	4711                	li	a4,4
   194c0:	00e78863          	beq	a5,a4,194d0 <__adddf3+0x12c>
   194c4:	00448793          	add	a5,s1,4
   194c8:	0097b633          	sltu	a2,a5,s1
   194cc:	99b2                	add	s3,s3,a2
   194ce:	84be                	mv	s1,a5
   194d0:	00899793          	sll	a5,s3,0x8
   194d4:	5807dd63          	bgez	a5,19a6e <__adddf3+0x6ca>
   194d8:	00190793          	add	a5,s2,1
   194dc:	7ff00713          	li	a4,2047
   194e0:	8e22                	mv	t3,s0
   194e2:	22e78e63          	beq	a5,a4,1971e <__adddf3+0x37a>
   194e6:	ff800737          	lui	a4,0xff800
   194ea:	177d                	add	a4,a4,-1 # ff7fffff <__BSS_END__+0xff7e14db>
   194ec:	00e9f733          	and	a4,s3,a4
   194f0:	7ff7f793          	and	a5,a5,2047
   194f4:	01d71813          	sll	a6,a4,0x1d
   194f8:	0034d613          	srl	a2,s1,0x3
   194fc:	0726                	sll	a4,a4,0x9
   194fe:	00c86833          	or	a6,a6,a2
   19502:	8331                	srl	a4,a4,0xc
   19504:	40f2                	lw	ra,28(sp)
   19506:	4462                	lw	s0,24(sp)
   19508:	07d2                	sll	a5,a5,0x14
   1950a:	8fd9                	or	a5,a5,a4
   1950c:	01fe1713          	sll	a4,t3,0x1f
   19510:	8fd9                	or	a5,a5,a4
   19512:	44d2                	lw	s1,20(sp)
   19514:	4942                	lw	s2,16(sp)
   19516:	49b2                	lw	s3,12(sp)
   19518:	8542                	mv	a0,a6
   1951a:	85be                	mv	a1,a5
   1951c:	6105                	add	sp,sp,32
   1951e:	8082                	ret
   19520:	12078463          	beqz	a5,19648 <__adddf3+0x2a4>
   19524:	412307b3          	sub	a5,t1,s2
   19528:	32091463          	bnez	s2,19850 <__adddf3+0x4ac>
   1952c:	00b76533          	or	a0,a4,a1
   19530:	3e050c63          	beqz	a0,19928 <__adddf3+0x584>
   19534:	fff78513          	add	a0,a5,-1
   19538:	4e050263          	beqz	a0,19a1c <__adddf3+0x678>
   1953c:	7ff00813          	li	a6,2047
   19540:	47078963          	beq	a5,a6,199b2 <__adddf3+0x60e>
   19544:	03800793          	li	a5,56
   19548:	4605                	li	a2,1
   1954a:	02a7c863          	blt	a5,a0,1957a <__adddf3+0x1d6>
   1954e:	87aa                	mv	a5,a0
   19550:	467d                	li	a2,31
   19552:	46f64963          	blt	a2,a5,199c4 <__adddf3+0x620>
   19556:	02000513          	li	a0,32
   1955a:	8d1d                	sub	a0,a0,a5
   1955c:	00a71633          	sll	a2,a4,a0
   19560:	00f5d833          	srl	a6,a1,a5
   19564:	00a59533          	sll	a0,a1,a0
   19568:	01066633          	or	a2,a2,a6
   1956c:	00a03533          	snez	a0,a0
   19570:	00f75733          	srl	a4,a4,a5
   19574:	8e49                	or	a2,a2,a0
   19576:	40e888b3          	sub	a7,a7,a4
   1957a:	40cf0633          	sub	a2,t5,a2
   1957e:	00cf3733          	sltu	a4,t5,a2
   19582:	84b2                	mv	s1,a2
   19584:	40e889b3          	sub	s3,a7,a4
   19588:	891a                	mv	s2,t1
   1958a:	8436                	mv	s0,a3
   1958c:	b5d9                	j	19452 <__adddf3+0xae>
   1958e:	18f05d63          	blez	a5,19728 <__adddf3+0x384>
   19592:	10031a63          	bnez	t1,196a6 <__adddf3+0x302>
   19596:	01e8e6b3          	or	a3,a7,t5
   1959a:	20068a63          	beqz	a3,197ae <__adddf3+0x40a>
   1959e:	fff78693          	add	a3,a5,-1
   195a2:	3a068663          	beqz	a3,1994e <__adddf3+0x5aa>
   195a6:	7ff00613          	li	a2,2047
   195aa:	1cc78f63          	beq	a5,a2,19788 <__adddf3+0x3e4>
   195ae:	03800793          	li	a5,56
   195b2:	4985                	li	s3,1
   195b4:	02d7c863          	blt	a5,a3,195e4 <__adddf3+0x240>
   195b8:	87b6                	mv	a5,a3
   195ba:	46fd                	li	a3,31
   195bc:	3cf6c163          	blt	a3,a5,1997e <__adddf3+0x5da>
   195c0:	02000693          	li	a3,32
   195c4:	8e9d                	sub	a3,a3,a5
   195c6:	00d899b3          	sll	s3,a7,a3
   195ca:	00ff5633          	srl	a2,t5,a5
   195ce:	00df16b3          	sll	a3,t5,a3
   195d2:	00c9e9b3          	or	s3,s3,a2
   195d6:	00d036b3          	snez	a3,a3
   195da:	00f8d8b3          	srl	a7,a7,a5
   195de:	00d9e9b3          	or	s3,s3,a3
   195e2:	9746                	add	a4,a4,a7
   195e4:	95ce                	add	a1,a1,s3
   195e6:	0135b9b3          	sltu	s3,a1,s3
   195ea:	84ae                	mv	s1,a1
   195ec:	99ba                	add	s3,s3,a4
   195ee:	00899793          	sll	a5,s3,0x8
   195f2:	1007dd63          	bgez	a5,1970c <__adddf3+0x368>
   195f6:	0905                	add	s2,s2,1
   195f8:	7ff00793          	li	a5,2047
   195fc:	2ef90163          	beq	s2,a5,198de <__adddf3+0x53a>
   19600:	ff8007b7          	lui	a5,0xff800
   19604:	17fd                	add	a5,a5,-1 # ff7fffff <__BSS_END__+0xff7e14db>
   19606:	0014f613          	and	a2,s1,1
   1960a:	00f9f7b3          	and	a5,s3,a5
   1960e:	0014d713          	srl	a4,s1,0x1
   19612:	8f51                	or	a4,a4,a2
   19614:	01f79613          	sll	a2,a5,0x1f
   19618:	00e664b3          	or	s1,a2,a4
   1961c:	0017d993          	srl	s3,a5,0x1
   19620:	bd51                	j	194b4 <__adddf3+0x110>
   19622:	01e8e6b3          	or	a3,a7,t5
   19626:	18068463          	beqz	a3,197ae <__adddf3+0x40a>
   1962a:	fff78693          	add	a3,a5,-1
   1962e:	32068d63          	beqz	a3,19968 <__adddf3+0x5c4>
   19632:	7ff00613          	li	a2,2047
   19636:	14c78963          	beq	a5,a2,19788 <__adddf3+0x3e4>
   1963a:	03800793          	li	a5,56
   1963e:	4605                	li	a2,1
   19640:	e0d7c2e3          	blt	a5,a3,19444 <__adddf3+0xa0>
   19644:	87b6                	mv	a5,a3
   19646:	bbd9                	j	1941c <__adddf3+0x78>
   19648:	00190813          	add	a6,s2,1
   1964c:	7fe87813          	and	a6,a6,2046
   19650:	1c081b63          	bnez	a6,19826 <__adddf3+0x482>
   19654:	00b76333          	or	t1,a4,a1
   19658:	01e8e833          	or	a6,a7,t5
   1965c:	2c091b63          	bnez	s2,19932 <__adddf3+0x58e>
   19660:	38030b63          	beqz	t1,199f6 <__adddf3+0x652>
   19664:	34080263          	beqz	a6,199a8 <__adddf3+0x604>
   19668:	41e589b3          	sub	s3,a1,t5
   1966c:	0135b533          	sltu	a0,a1,s3
   19670:	41170633          	sub	a2,a4,a7
   19674:	8e09                	sub	a2,a2,a0
   19676:	00861513          	sll	a0,a2,0x8
   1967a:	40055463          	bgez	a0,19a82 <__adddf3+0x6de>
   1967e:	40bf05b3          	sub	a1,t5,a1
   19682:	40e88733          	sub	a4,a7,a4
   19686:	00bf3f33          	sltu	t5,t5,a1
   1968a:	41e70733          	sub	a4,a4,t5
   1968e:	00871613          	sll	a2,a4,0x8
   19692:	84ae                	mv	s1,a1
   19694:	40065e63          	bgez	a2,19ab0 <__adddf3+0x70c>
   19698:	ff8007b7          	lui	a5,0xff800
   1969c:	17fd                	add	a5,a5,-1 # ff7fffff <__BSS_END__+0xff7e14db>
   1969e:	8f7d                	and	a4,a4,a5
   196a0:	8e36                	mv	t3,a3
   196a2:	4785                	li	a5,1
   196a4:	bd81                	j	194f4 <__adddf3+0x150>
   196a6:	7ff00693          	li	a3,2047
   196aa:	0cd90f63          	beq	s2,a3,19788 <__adddf3+0x3e4>
   196ae:	03800693          	li	a3,56
   196b2:	4985                	li	s3,1
   196b4:	f2f6c8e3          	blt	a3,a5,195e4 <__adddf3+0x240>
   196b8:	008006b7          	lui	a3,0x800
   196bc:	00d8e8b3          	or	a7,a7,a3
   196c0:	bded                	j	195ba <__adddf3+0x216>
   196c2:	8526                	mv	a0,s1
   196c4:	579030ef          	jal	1d43c <__clzsi2>
   196c8:	01850793          	add	a5,a0,24
   196cc:	46fd                	li	a3,31
   196ce:	daf6d2e3          	bge	a3,a5,19472 <__adddf3+0xce>
   196d2:	ff850713          	add	a4,a0,-8
   196d6:	00e49733          	sll	a4,s1,a4
   196da:	1d27c463          	blt	a5,s2,198a2 <__adddf3+0x4fe>
   196de:	41278933          	sub	s2,a5,s2
   196e2:	00190793          	add	a5,s2,1
   196e6:	38f6d963          	bge	a3,a5,19a78 <__adddf3+0x6d4>
   196ea:	1905                	add	s2,s2,-31
   196ec:	02000693          	li	a3,32
   196f0:	012754b3          	srl	s1,a4,s2
   196f4:	00d78b63          	beq	a5,a3,1970a <__adddf3+0x366>
   196f8:	04000693          	li	a3,64
   196fc:	40f687b3          	sub	a5,a3,a5
   19700:	00f71733          	sll	a4,a4,a5
   19704:	00e03733          	snez	a4,a4
   19708:	8cd9                	or	s1,s1,a4
   1970a:	4901                	li	s2,0
   1970c:	0074f793          	and	a5,s1,7
   19710:	da0795e3          	bnez	a5,194ba <__adddf3+0x116>
   19714:	87ca                	mv	a5,s2
   19716:	0034d613          	srl	a2,s1,0x3
   1971a:	874e                	mv	a4,s3
   1971c:	a861                	j	197b4 <__adddf3+0x410>
   1971e:	7ff00793          	li	a5,2047
   19722:	4701                	li	a4,0
   19724:	4801                	li	a6,0
   19726:	bbf9                	j	19504 <__adddf3+0x160>
   19728:	c7cd                	beqz	a5,197d2 <__adddf3+0x42e>
   1972a:	412307b3          	sub	a5,t1,s2
   1972e:	18090663          	beqz	s2,198ba <__adddf3+0x516>
   19732:	7ff00693          	li	a3,2047
   19736:	28d30363          	beq	t1,a3,199bc <__adddf3+0x618>
   1973a:	03800693          	li	a3,56
   1973e:	4985                	li	s3,1
   19740:	02f6ca63          	blt	a3,a5,19774 <__adddf3+0x3d0>
   19744:	008006b7          	lui	a3,0x800
   19748:	8f55                	or	a4,a4,a3
   1974a:	46fd                	li	a3,31
   1974c:	2ef6cd63          	blt	a3,a5,19a46 <__adddf3+0x6a2>
   19750:	02000693          	li	a3,32
   19754:	8e9d                	sub	a3,a3,a5
   19756:	00d719b3          	sll	s3,a4,a3
   1975a:	00f5d633          	srl	a2,a1,a5
   1975e:	00d596b3          	sll	a3,a1,a3
   19762:	00c9e9b3          	or	s3,s3,a2
   19766:	00d036b3          	snez	a3,a3
   1976a:	00f75733          	srl	a4,a4,a5
   1976e:	00d9e9b3          	or	s3,s3,a3
   19772:	98ba                	add	a7,a7,a4
   19774:	01e98733          	add	a4,s3,t5
   19778:	013739b3          	sltu	s3,a4,s3
   1977c:	84ba                	mv	s1,a4
   1977e:	99c6                	add	s3,s3,a7
   19780:	891a                	mv	s2,t1
   19782:	b5b5                	j	195ee <__adddf3+0x24a>
   19784:	00081e63          	bnez	a6,197a0 <__adddf3+0x3fc>
   19788:	00351613          	sll	a2,a0,0x3
   1978c:	820d                	srl	a2,a2,0x3
   1978e:	01d71813          	sll	a6,a4,0x1d
   19792:	00c86833          	or	a6,a6,a2
   19796:	830d                	srl	a4,a4,0x3
   19798:	01076733          	or	a4,a4,a6
   1979c:	14070163          	beqz	a4,198de <__adddf3+0x53a>
   197a0:	4e01                	li	t3,0
   197a2:	7ff00793          	li	a5,2047
   197a6:	00080737          	lui	a4,0x80
   197aa:	4801                	li	a6,0
   197ac:	bba1                	j	19504 <__adddf3+0x160>
   197ae:	00351613          	sll	a2,a0,0x3
   197b2:	820d                	srl	a2,a2,0x3
   197b4:	01d71813          	sll	a6,a4,0x1d
   197b8:	7ff00693          	li	a3,2047
   197bc:	00c86833          	or	a6,a6,a2
   197c0:	830d                	srl	a4,a4,0x3
   197c2:	fcd78be3          	beq	a5,a3,19798 <__adddf3+0x3f4>
   197c6:	0732                	sll	a4,a4,0xc
   197c8:	8331                	srl	a4,a4,0xc
   197ca:	7ff7f793          	and	a5,a5,2047
   197ce:	8e22                	mv	t3,s0
   197d0:	bb15                	j	19504 <__adddf3+0x160>
   197d2:	00190693          	add	a3,s2,1
   197d6:	7fe6f813          	and	a6,a3,2046
   197da:	10081863          	bnez	a6,198ea <__adddf3+0x546>
   197de:	00b766b3          	or	a3,a4,a1
   197e2:	20091463          	bnez	s2,199ea <__adddf3+0x646>
   197e6:	24068b63          	beqz	a3,19a3c <__adddf3+0x698>
   197ea:	01e8e6b3          	or	a3,a7,t5
   197ee:	1a068d63          	beqz	a3,199a8 <__adddf3+0x604>
   197f2:	01e587b3          	add	a5,a1,t5
   197f6:	00b7b5b3          	sltu	a1,a5,a1
   197fa:	9746                	add	a4,a4,a7
   197fc:	972e                	add	a4,a4,a1
   197fe:	0037d813          	srl	a6,a5,0x3
   19802:	00871793          	sll	a5,a4,0x8
   19806:	8e22                	mv	t3,s0
   19808:	2807db63          	bgez	a5,19a9e <__adddf3+0x6fa>
   1980c:	ff8007b7          	lui	a5,0xff800
   19810:	17fd                	add	a5,a5,-1 # ff7fffff <__BSS_END__+0xff7e14db>
   19812:	8f7d                	and	a4,a4,a5
   19814:	01d71793          	sll	a5,a4,0x1d
   19818:	830d                	srl	a4,a4,0x3
   1981a:	0107e833          	or	a6,a5,a6
   1981e:	01d77733          	and	a4,a4,t4
   19822:	4785                	li	a5,1
   19824:	b1c5                	j	19504 <__adddf3+0x160>
   19826:	41e58833          	sub	a6,a1,t5
   1982a:	0105b7b3          	sltu	a5,a1,a6
   1982e:	411709b3          	sub	s3,a4,a7
   19832:	40f989b3          	sub	s3,s3,a5
   19836:	00899793          	sll	a5,s3,0x8
   1983a:	84c2                	mv	s1,a6
   1983c:	0c07cb63          	bltz	a5,19912 <__adddf3+0x56e>
   19840:	01386833          	or	a6,a6,s3
   19844:	c20810e3          	bnez	a6,19464 <__adddf3+0xc0>
   19848:	4e01                	li	t3,0
   1984a:	4781                	li	a5,0
   1984c:	4701                	li	a4,0
   1984e:	b95d                	j	19504 <__adddf3+0x160>
   19850:	7ff00513          	li	a0,2047
   19854:	14a30f63          	beq	t1,a0,199b2 <__adddf3+0x60e>
   19858:	03800513          	li	a0,56
   1985c:	4605                	li	a2,1
   1985e:	d0f54ee3          	blt	a0,a5,1957a <__adddf3+0x1d6>
   19862:	00800637          	lui	a2,0x800
   19866:	8f51                	or	a4,a4,a2
   19868:	b1e5                	j	19550 <__adddf3+0x1ac>
   1986a:	ff8009b7          	lui	s3,0xff800
   1986e:	19fd                	add	s3,s3,-1 # ff7fffff <__BSS_END__+0xff7e14db>
   19870:	40f90933          	sub	s2,s2,a5
   19874:	013779b3          	and	s3,a4,s3
   19878:	b935                	j	194b4 <__adddf3+0x110>
   1987a:	fe078693          	add	a3,a5,-32
   1987e:	02000613          	li	a2,32
   19882:	00d8d6b3          	srl	a3,a7,a3
   19886:	00c78a63          	beq	a5,a2,1989a <__adddf3+0x4f6>
   1988a:	04000613          	li	a2,64
   1988e:	40f607b3          	sub	a5,a2,a5
   19892:	00f897b3          	sll	a5,a7,a5
   19896:	00ff6f33          	or	t5,t5,a5
   1989a:	01e03633          	snez	a2,t5
   1989e:	8e55                	or	a2,a2,a3
   198a0:	b655                	j	19444 <__adddf3+0xa0>
   198a2:	ff8006b7          	lui	a3,0xff800
   198a6:	16fd                	add	a3,a3,-1 # ff7fffff <__BSS_END__+0xff7e14db>
   198a8:	40f907b3          	sub	a5,s2,a5
   198ac:	8f75                	and	a4,a4,a3
   198ae:	01d71813          	sll	a6,a4,0x1d
   198b2:	01386833          	or	a6,a6,s3
   198b6:	830d                	srl	a4,a4,0x3
   198b8:	b739                	j	197c6 <__adddf3+0x422>
   198ba:	00b766b3          	or	a3,a4,a1
   198be:	16068b63          	beqz	a3,19a34 <__adddf3+0x690>
   198c2:	fff78693          	add	a3,a5,-1
   198c6:	c6c1                	beqz	a3,1994e <__adddf3+0x5aa>
   198c8:	7ff00513          	li	a0,2047
   198cc:	0ea78863          	beq	a5,a0,199bc <__adddf3+0x618>
   198d0:	03800793          	li	a5,56
   198d4:	4985                	li	s3,1
   198d6:	e8d7cfe3          	blt	a5,a3,19774 <__adddf3+0x3d0>
   198da:	87b6                	mv	a5,a3
   198dc:	b5bd                	j	1974a <__adddf3+0x3a6>
   198de:	8e22                	mv	t3,s0
   198e0:	7ff00793          	li	a5,2047
   198e4:	4701                	li	a4,0
   198e6:	4801                	li	a6,0
   198e8:	b931                	j	19504 <__adddf3+0x160>
   198ea:	7ff00793          	li	a5,2047
   198ee:	fef688e3          	beq	a3,a5,198de <__adddf3+0x53a>
   198f2:	9f2e                	add	t5,t5,a1
   198f4:	00bf35b3          	sltu	a1,t5,a1
   198f8:	011707b3          	add	a5,a4,a7
   198fc:	97ae                	add	a5,a5,a1
   198fe:	01f79613          	sll	a2,a5,0x1f
   19902:	001f5f13          	srl	t5,t5,0x1
   19906:	01e664b3          	or	s1,a2,t5
   1990a:	0017d993          	srl	s3,a5,0x1
   1990e:	8936                	mv	s2,a3
   19910:	b655                	j	194b4 <__adddf3+0x110>
   19912:	40bf0633          	sub	a2,t5,a1
   19916:	40e887b3          	sub	a5,a7,a4
   1991a:	00cf3733          	sltu	a4,t5,a2
   1991e:	84b2                	mv	s1,a2
   19920:	40e789b3          	sub	s3,a5,a4
   19924:	8436                	mv	s0,a3
   19926:	be3d                	j	19464 <__adddf3+0xc0>
   19928:	060e                	sll	a2,a2,0x3
   1992a:	820d                	srl	a2,a2,0x3
   1992c:	8436                	mv	s0,a3
   1992e:	8746                	mv	a4,a7
   19930:	b551                	j	197b4 <__adddf3+0x410>
   19932:	e40319e3          	bnez	t1,19784 <__adddf3+0x3e0>
   19936:	14080e63          	beqz	a6,19a92 <__adddf3+0x6ee>
   1993a:	0038d713          	srl	a4,a7,0x3
   1993e:	060e                	sll	a2,a2,0x3
   19940:	08f6                	sll	a7,a7,0x1d
   19942:	01176733          	or	a4,a4,a7
   19946:	820d                	srl	a2,a2,0x3
   19948:	8f51                	or	a4,a4,a2
   1994a:	8436                	mv	s0,a3
   1994c:	bd81                	j	1979c <__adddf3+0x3f8>
   1994e:	9f2e                	add	t5,t5,a1
   19950:	98ba                	add	a7,a7,a4
   19952:	00bf35b3          	sltu	a1,t5,a1
   19956:	00b889b3          	add	s3,a7,a1
   1995a:	00899793          	sll	a5,s3,0x8
   1995e:	84fa                	mv	s1,t5
   19960:	0a07dc63          	bgez	a5,19a18 <__adddf3+0x674>
   19964:	4909                	li	s2,2
   19966:	b969                	j	19600 <__adddf3+0x25c>
   19968:	41e58f33          	sub	t5,a1,t5
   1996c:	411708b3          	sub	a7,a4,a7
   19970:	01e5b5b3          	sltu	a1,a1,t5
   19974:	84fa                	mv	s1,t5
   19976:	40b889b3          	sub	s3,a7,a1
   1997a:	4905                	li	s2,1
   1997c:	bcd9                	j	19452 <__adddf3+0xae>
   1997e:	fe078693          	add	a3,a5,-32
   19982:	02000613          	li	a2,32
   19986:	00d8d6b3          	srl	a3,a7,a3
   1998a:	00c78a63          	beq	a5,a2,1999e <__adddf3+0x5fa>
   1998e:	04000613          	li	a2,64
   19992:	40f607b3          	sub	a5,a2,a5
   19996:	00f897b3          	sll	a5,a7,a5
   1999a:	00ff6f33          	or	t5,t5,a5
   1999e:	01e039b3          	snez	s3,t5
   199a2:	00d9e9b3          	or	s3,s3,a3
   199a6:	b93d                	j	195e4 <__adddf3+0x240>
   199a8:	00351613          	sll	a2,a0,0x3
   199ac:	00365993          	srl	s3,a2,0x3
   199b0:	bdfd                	j	198ae <__adddf3+0x50a>
   199b2:	060e                	sll	a2,a2,0x3
   199b4:	820d                	srl	a2,a2,0x3
   199b6:	8436                	mv	s0,a3
   199b8:	8746                	mv	a4,a7
   199ba:	bbd1                	j	1978e <__adddf3+0x3ea>
   199bc:	060e                	sll	a2,a2,0x3
   199be:	820d                	srl	a2,a2,0x3
   199c0:	8746                	mv	a4,a7
   199c2:	b3f1                	j	1978e <__adddf3+0x3ea>
   199c4:	fe078513          	add	a0,a5,-32
   199c8:	02000613          	li	a2,32
   199cc:	00a75533          	srl	a0,a4,a0
   199d0:	00c78963          	beq	a5,a2,199e2 <__adddf3+0x63e>
   199d4:	04000613          	li	a2,64
   199d8:	40f607b3          	sub	a5,a2,a5
   199dc:	00f717b3          	sll	a5,a4,a5
   199e0:	8ddd                	or	a1,a1,a5
   199e2:	00b03633          	snez	a2,a1
   199e6:	8e49                	or	a2,a2,a0
   199e8:	be49                	j	1957a <__adddf3+0x1d6>
   199ea:	dae9                	beqz	a3,199bc <__adddf3+0x618>
   199ec:	01e8ef33          	or	t5,a7,t5
   199f0:	da0f18e3          	bnez	t5,197a0 <__adddf3+0x3fc>
   199f4:	bb51                	j	19788 <__adddf3+0x3e4>
   199f6:	e40809e3          	beqz	a6,19848 <__adddf3+0x4a4>
   199fa:	00361813          	sll	a6,a2,0x3
   199fe:	01d89793          	sll	a5,a7,0x1d
   19a02:	00385813          	srl	a6,a6,0x3
   19a06:	0038d713          	srl	a4,a7,0x3
   19a0a:	00f86833          	or	a6,a6,a5
   19a0e:	01d77733          	and	a4,a4,t4
   19a12:	8e36                	mv	t3,a3
   19a14:	4781                	li	a5,0
   19a16:	b4fd                	j	19504 <__adddf3+0x160>
   19a18:	4785                	li	a5,1
   19a1a:	b9f5                	j	19716 <__adddf3+0x372>
   19a1c:	40bf05b3          	sub	a1,t5,a1
   19a20:	40e888b3          	sub	a7,a7,a4
   19a24:	00bf3733          	sltu	a4,t5,a1
   19a28:	84ae                	mv	s1,a1
   19a2a:	40e889b3          	sub	s3,a7,a4
   19a2e:	8436                	mv	s0,a3
   19a30:	4905                	li	s2,1
   19a32:	b405                	j	19452 <__adddf3+0xae>
   19a34:	060e                	sll	a2,a2,0x3
   19a36:	820d                	srl	a2,a2,0x3
   19a38:	8746                	mv	a4,a7
   19a3a:	bbad                	j	197b4 <__adddf3+0x410>
   19a3c:	060e                	sll	a2,a2,0x3
   19a3e:	00365993          	srl	s3,a2,0x3
   19a42:	8746                	mv	a4,a7
   19a44:	b5ad                	j	198ae <__adddf3+0x50a>
   19a46:	fe078693          	add	a3,a5,-32
   19a4a:	02000613          	li	a2,32
   19a4e:	00d756b3          	srl	a3,a4,a3
   19a52:	00c78963          	beq	a5,a2,19a64 <__adddf3+0x6c0>
   19a56:	04000613          	li	a2,64
   19a5a:	40f607b3          	sub	a5,a2,a5
   19a5e:	00f717b3          	sll	a5,a4,a5
   19a62:	8ddd                	or	a1,a1,a5
   19a64:	00b039b3          	snez	s3,a1
   19a68:	00d9e9b3          	or	s3,s3,a3
   19a6c:	b321                	j	19774 <__adddf3+0x3d0>
   19a6e:	0034d613          	srl	a2,s1,0x3
   19a72:	87ca                	mv	a5,s2
   19a74:	874e                	mv	a4,s3
   19a76:	bb3d                	j	197b4 <__adddf3+0x410>
   19a78:	02000693          	li	a3,32
   19a7c:	8e9d                	sub	a3,a3,a5
   19a7e:	4601                	li	a2,0
   19a80:	b40d                	j	194a2 <__adddf3+0xfe>
   19a82:	00c9e833          	or	a6,s3,a2
   19a86:	dc0801e3          	beqz	a6,19848 <__adddf3+0x4a4>
   19a8a:	0039d993          	srl	s3,s3,0x3
   19a8e:	8732                	mv	a4,a2
   19a90:	bd39                	j	198ae <__adddf3+0x50a>
   19a92:	4e01                	li	t3,0
   19a94:	7ff00793          	li	a5,2047
   19a98:	00080737          	lui	a4,0x80
   19a9c:	b4a5                	j	19504 <__adddf3+0x160>
   19a9e:	01d71793          	sll	a5,a4,0x1d
   19aa2:	830d                	srl	a4,a4,0x3
   19aa4:	0107e833          	or	a6,a5,a6
   19aa8:	01d77733          	and	a4,a4,t4
   19aac:	4781                	li	a5,0
   19aae:	bc99                	j	19504 <__adddf3+0x160>
   19ab0:	01d71813          	sll	a6,a4,0x1d
   19ab4:	818d                	srl	a1,a1,0x3
   19ab6:	00b86833          	or	a6,a6,a1
   19aba:	830d                	srl	a4,a4,0x3
   19abc:	8436                	mv	s0,a3
   19abe:	b321                	j	197c6 <__adddf3+0x422>

00019ac0 <__divdf3>:
   19ac0:	7179                	add	sp,sp,-48
   19ac2:	ce4e                	sw	s3,28(sp)
   19ac4:	0145d993          	srl	s3,a1,0x14
   19ac8:	d422                	sw	s0,40(sp)
   19aca:	d226                	sw	s1,36(sp)
   19acc:	d04a                	sw	s2,32(sp)
   19ace:	cc52                	sw	s4,24(sp)
   19ad0:	c65e                	sw	s7,12(sp)
   19ad2:	00c59493          	sll	s1,a1,0xc
   19ad6:	d606                	sw	ra,44(sp)
   19ad8:	ca56                	sw	s5,20(sp)
   19ada:	c85a                	sw	s6,16(sp)
   19adc:	c462                	sw	s8,8(sp)
   19ade:	7ff9f993          	and	s3,s3,2047
   19ae2:	842a                	mv	s0,a0
   19ae4:	8bb2                	mv	s7,a2
   19ae6:	8936                	mv	s2,a3
   19ae8:	80b1                	srl	s1,s1,0xc
   19aea:	01f5da13          	srl	s4,a1,0x1f
   19aee:	12098163          	beqz	s3,19c10 <__divdf3+0x150>
   19af2:	7ff00793          	li	a5,2047
   19af6:	06f98863          	beq	s3,a5,19b66 <__divdf3+0xa6>
   19afa:	048e                	sll	s1,s1,0x3
   19afc:	01d55793          	srl	a5,a0,0x1d
   19b00:	8fc5                	or	a5,a5,s1
   19b02:	00800737          	lui	a4,0x800
   19b06:	00e7eab3          	or	s5,a5,a4
   19b0a:	00351b13          	sll	s6,a0,0x3
   19b0e:	c0198993          	add	s3,s3,-1023
   19b12:	4481                	li	s1,0
   19b14:	4c01                	li	s8,0
   19b16:	01495793          	srl	a5,s2,0x14
   19b1a:	00c91413          	sll	s0,s2,0xc
   19b1e:	7ff7f793          	and	a5,a5,2047
   19b22:	8031                	srl	s0,s0,0xc
   19b24:	01f95913          	srl	s2,s2,0x1f
   19b28:	c3b5                	beqz	a5,19b8c <__divdf3+0xcc>
   19b2a:	7ff00713          	li	a4,2047
   19b2e:	12e78063          	beq	a5,a4,19c4e <__divdf3+0x18e>
   19b32:	040e                	sll	s0,s0,0x3
   19b34:	01dbd713          	srl	a4,s7,0x1d
   19b38:	8f41                	or	a4,a4,s0
   19b3a:	c0178793          	add	a5,a5,-1023
   19b3e:	00800437          	lui	s0,0x800
   19b42:	8c59                	or	s0,s0,a4
   19b44:	003b9893          	sll	a7,s7,0x3
   19b48:	40f989b3          	sub	s3,s3,a5
   19b4c:	4601                	li	a2,0
   19b4e:	473d                	li	a4,15
   19b50:	012a46b3          	xor	a3,s4,s2
   19b54:	18976f63          	bltu	a4,s1,19cf2 <__divdf3+0x232>
   19b58:	67f9                	lui	a5,0x1e
   19b5a:	048a                	sll	s1,s1,0x2
   19b5c:	d9078793          	add	a5,a5,-624 # 1dd90 <zeroes.0+0x10>
   19b60:	94be                	add	s1,s1,a5
   19b62:	4098                	lw	a4,0(s1)
   19b64:	8702                	jr	a4
   19b66:	00a4eab3          	or	s5,s1,a0
   19b6a:	140a9e63          	bnez	s5,19cc6 <__divdf3+0x206>
   19b6e:	01495793          	srl	a5,s2,0x14
   19b72:	00c91413          	sll	s0,s2,0xc
   19b76:	7ff7f793          	and	a5,a5,2047
   19b7a:	4b01                	li	s6,0
   19b7c:	44a1                	li	s1,8
   19b7e:	7ff00993          	li	s3,2047
   19b82:	4c09                	li	s8,2
   19b84:	8031                	srl	s0,s0,0xc
   19b86:	01f95913          	srl	s2,s2,0x1f
   19b8a:	f3c5                	bnez	a5,19b2a <__divdf3+0x6a>
   19b8c:	017468b3          	or	a7,s0,s7
   19b90:	14088263          	beqz	a7,19cd4 <__divdf3+0x214>
   19b94:	38040e63          	beqz	s0,19f30 <__divdf3+0x470>
   19b98:	8522                	mv	a0,s0
   19b9a:	0a3030ef          	jal	1d43c <__clzsi2>
   19b9e:	87aa                	mv	a5,a0
   19ba0:	ff550693          	add	a3,a0,-11
   19ba4:	4775                	li	a4,29
   19ba6:	ff878893          	add	a7,a5,-8
   19baa:	8f15                	sub	a4,a4,a3
   19bac:	01141433          	sll	s0,s0,a7
   19bb0:	00ebd733          	srl	a4,s7,a4
   19bb4:	8c59                	or	s0,s0,a4
   19bb6:	011b98b3          	sll	a7,s7,a7
   19bba:	97ce                	add	a5,a5,s3
   19bbc:	3f378993          	add	s3,a5,1011
   19bc0:	4601                	li	a2,0
   19bc2:	b771                	j	19b4e <__divdf3+0x8e>
   19bc4:	8f1d                	sub	a4,a4,a5
   19bc6:	03800613          	li	a2,56
   19bca:	3ce65663          	bge	a2,a4,19f96 <__divdf3+0x4d6>
   19bce:	4781                	li	a5,0
   19bd0:	4601                	li	a2,0
   19bd2:	4701                	li	a4,0
   19bd4:	50b2                	lw	ra,44(sp)
   19bd6:	5422                	lw	s0,40(sp)
   19bd8:	07d2                	sll	a5,a5,0x14
   19bda:	8fd1                	or	a5,a5,a2
   19bdc:	06fe                	sll	a3,a3,0x1f
   19bde:	8fd5                	or	a5,a5,a3
   19be0:	5492                	lw	s1,36(sp)
   19be2:	5902                	lw	s2,32(sp)
   19be4:	49f2                	lw	s3,28(sp)
   19be6:	4a62                	lw	s4,24(sp)
   19be8:	4ad2                	lw	s5,20(sp)
   19bea:	4b42                	lw	s6,16(sp)
   19bec:	4bb2                	lw	s7,12(sp)
   19bee:	4c22                	lw	s8,8(sp)
   19bf0:	853a                	mv	a0,a4
   19bf2:	85be                	mv	a1,a5
   19bf4:	6145                	add	sp,sp,48
   19bf6:	8082                	ret
   19bf8:	7ff00793          	li	a5,2047
   19bfc:	4601                	li	a2,0
   19bfe:	4701                	li	a4,0
   19c00:	bfd1                	j	19bd4 <__divdf3+0x114>
   19c02:	4681                	li	a3,0
   19c04:	7ff00793          	li	a5,2047
   19c08:	00080637          	lui	a2,0x80
   19c0c:	4701                	li	a4,0
   19c0e:	b7d9                	j	19bd4 <__divdf3+0x114>
   19c10:	00a4eab3          	or	s5,s1,a0
   19c14:	0c0a8a63          	beqz	s5,19ce8 <__divdf3+0x228>
   19c18:	32048b63          	beqz	s1,19f4e <__divdf3+0x48e>
   19c1c:	8526                	mv	a0,s1
   19c1e:	01f030ef          	jal	1d43c <__clzsi2>
   19c22:	872a                	mv	a4,a0
   19c24:	ff550693          	add	a3,a0,-11
   19c28:	47f5                	li	a5,29
   19c2a:	ff870b13          	add	s6,a4,-8 # 7ffff8 <__BSS_END__+0x7e14d4>
   19c2e:	8f95                	sub	a5,a5,a3
   19c30:	016494b3          	sll	s1,s1,s6
   19c34:	00f457b3          	srl	a5,s0,a5
   19c38:	0097eab3          	or	s5,a5,s1
   19c3c:	01641b33          	sll	s6,s0,s6
   19c40:	c0d00993          	li	s3,-1011
   19c44:	40e989b3          	sub	s3,s3,a4
   19c48:	4481                	li	s1,0
   19c4a:	4c01                	li	s8,0
   19c4c:	b5e9                	j	19b16 <__divdf3+0x56>
   19c4e:	017468b3          	or	a7,s0,s7
   19c52:	80198993          	add	s3,s3,-2047
   19c56:	08089463          	bnez	a7,19cde <__divdf3+0x21e>
   19c5a:	0024e493          	or	s1,s1,2
   19c5e:	4401                	li	s0,0
   19c60:	4609                	li	a2,2
   19c62:	b5f5                	j	19b4e <__divdf3+0x8e>
   19c64:	8952                	mv	s2,s4
   19c66:	8456                	mv	s0,s5
   19c68:	88da                	mv	a7,s6
   19c6a:	4789                	li	a5,2
   19c6c:	3efc0163          	beq	s8,a5,1a04e <__divdf3+0x58e>
   19c70:	478d                	li	a5,3
   19c72:	f8fc08e3          	beq	s8,a5,19c02 <__divdf3+0x142>
   19c76:	4785                	li	a5,1
   19c78:	86ca                	mv	a3,s2
   19c7a:	f4fc0ae3          	beq	s8,a5,19bce <__divdf3+0x10e>
   19c7e:	3ff98793          	add	a5,s3,1023
   19c82:	20f05e63          	blez	a5,19e9e <__divdf3+0x3de>
   19c86:	0078f713          	and	a4,a7,7
   19c8a:	3a071863          	bnez	a4,1a03a <__divdf3+0x57a>
   19c8e:	00741713          	sll	a4,s0,0x7
   19c92:	00075863          	bgez	a4,19ca2 <__divdf3+0x1e2>
   19c96:	ff0007b7          	lui	a5,0xff000
   19c9a:	17fd                	add	a5,a5,-1 # feffffff <__BSS_END__+0xfefe14db>
   19c9c:	8c7d                	and	s0,s0,a5
   19c9e:	40098793          	add	a5,s3,1024
   19ca2:	7fe00713          	li	a4,2046
   19ca6:	f4f749e3          	blt	a4,a5,19bf8 <__divdf3+0x138>
   19caa:	0038d893          	srl	a7,a7,0x3
   19cae:	01d41713          	sll	a4,s0,0x1d
   19cb2:	00941613          	sll	a2,s0,0x9
   19cb6:	01176733          	or	a4,a4,a7
   19cba:	8231                	srl	a2,a2,0xc
   19cbc:	7ff7f793          	and	a5,a5,2047
   19cc0:	bf11                	j	19bd4 <__divdf3+0x114>
   19cc2:	8c32                	mv	s8,a2
   19cc4:	b75d                	j	19c6a <__divdf3+0x1aa>
   19cc6:	8aa6                	mv	s5,s1
   19cc8:	8b2a                	mv	s6,a0
   19cca:	44b1                	li	s1,12
   19ccc:	7ff00993          	li	s3,2047
   19cd0:	4c0d                	li	s8,3
   19cd2:	b591                	j	19b16 <__divdf3+0x56>
   19cd4:	0014e493          	or	s1,s1,1
   19cd8:	4401                	li	s0,0
   19cda:	4605                	li	a2,1
   19cdc:	bd8d                	j	19b4e <__divdf3+0x8e>
   19cde:	0034e493          	or	s1,s1,3
   19ce2:	88de                	mv	a7,s7
   19ce4:	460d                	li	a2,3
   19ce6:	b5a5                	j	19b4e <__divdf3+0x8e>
   19ce8:	4b01                	li	s6,0
   19cea:	4491                	li	s1,4
   19cec:	4981                	li	s3,0
   19cee:	4c05                	li	s8,1
   19cf0:	b51d                	j	19b16 <__divdf3+0x56>
   19cf2:	23546563          	bltu	s0,s5,19f1c <__divdf3+0x45c>
   19cf6:	228a8163          	beq	s5,s0,19f18 <__divdf3+0x458>
   19cfa:	835a                	mv	t1,s6
   19cfc:	19fd                	add	s3,s3,-1
   19cfe:	87d6                	mv	a5,s5
   19d00:	4b01                	li	s6,0
   19d02:	00841713          	sll	a4,s0,0x8
   19d06:	01075513          	srl	a0,a4,0x10
   19d0a:	02a7d433          	divu	s0,a5,a0
   19d0e:	0188d613          	srl	a2,a7,0x18
   19d12:	8e59                	or	a2,a2,a4
   19d14:	01061813          	sll	a6,a2,0x10
   19d18:	01085813          	srl	a6,a6,0x10
   19d1c:	00889593          	sll	a1,a7,0x8
   19d20:	01035713          	srl	a4,t1,0x10
   19d24:	02a7f7b3          	remu	a5,a5,a0
   19d28:	028808b3          	mul	a7,a6,s0
   19d2c:	07c2                	sll	a5,a5,0x10
   19d2e:	8fd9                	or	a5,a5,a4
   19d30:	0117f863          	bgeu	a5,a7,19d40 <__divdf3+0x280>
   19d34:	97b2                	add	a5,a5,a2
   19d36:	fff40713          	add	a4,s0,-1 # 7fffff <__BSS_END__+0x7e14db>
   19d3a:	24c7f963          	bgeu	a5,a2,19f8c <__divdf3+0x4cc>
   19d3e:	843a                	mv	s0,a4
   19d40:	411787b3          	sub	a5,a5,a7
   19d44:	02a7d8b3          	divu	a7,a5,a0
   19d48:	01031713          	sll	a4,t1,0x10
   19d4c:	8341                	srl	a4,a4,0x10
   19d4e:	02a7f7b3          	remu	a5,a5,a0
   19d52:	03180fb3          	mul	t6,a6,a7
   19d56:	07c2                	sll	a5,a5,0x10
   19d58:	8f5d                	or	a4,a4,a5
   19d5a:	01f77863          	bgeu	a4,t6,19d6a <__divdf3+0x2aa>
   19d5e:	9732                	add	a4,a4,a2
   19d60:	fff88793          	add	a5,a7,-1
   19d64:	20c77f63          	bgeu	a4,a2,19f82 <__divdf3+0x4c2>
   19d68:	88be                	mv	a7,a5
   19d6a:	0442                	sll	s0,s0,0x10
   19d6c:	62c1                	lui	t0,0x10
   19d6e:	01146433          	or	s0,s0,a7
   19d72:	fff28313          	add	t1,t0,-1 # ffff <register_fini-0x95>
   19d76:	006478b3          	and	a7,s0,t1
   19d7a:	01045e93          	srl	t4,s0,0x10
   19d7e:	0105de13          	srl	t3,a1,0x10
   19d82:	0065f333          	and	t1,a1,t1
   19d86:	03130f33          	mul	t5,t1,a7
   19d8a:	41f70733          	sub	a4,a4,t6
   19d8e:	031e08b3          	mul	a7,t3,a7
   19d92:	010f5793          	srl	a5,t5,0x10
   19d96:	026e8fb3          	mul	t6,t4,t1
   19d9a:	98fe                	add	a7,a7,t6
   19d9c:	97c6                	add	a5,a5,a7
   19d9e:	03ce8eb3          	mul	t4,t4,t3
   19da2:	01f7f363          	bgeu	a5,t6,19da8 <__divdf3+0x2e8>
   19da6:	9e96                	add	t4,t4,t0
   19da8:	6fc1                	lui	t6,0x10
   19daa:	1ffd                	add	t6,t6,-1 # ffff <register_fini-0x95>
   19dac:	0107d893          	srl	a7,a5,0x10
   19db0:	01f7f7b3          	and	a5,a5,t6
   19db4:	07c2                	sll	a5,a5,0x10
   19db6:	01ff7f33          	and	t5,t5,t6
   19dba:	98f6                	add	a7,a7,t4
   19dbc:	97fa                	add	a5,a5,t5
   19dbe:	13176b63          	bltu	a4,a7,19ef4 <__divdf3+0x434>
   19dc2:	13170763          	beq	a4,a7,19ef0 <__divdf3+0x430>
   19dc6:	40fb07b3          	sub	a5,s6,a5
   19dca:	41170733          	sub	a4,a4,a7
   19dce:	00fb3b33          	sltu	s6,s6,a5
   19dd2:	41670733          	sub	a4,a4,s6
   19dd6:	24e60463          	beq	a2,a4,1a01e <__divdf3+0x55e>
   19dda:	02a758b3          	divu	a7,a4,a0
   19dde:	0107de93          	srl	t4,a5,0x10
   19de2:	02a77733          	remu	a4,a4,a0
   19de6:	03180f33          	mul	t5,a6,a7
   19dea:	0742                	sll	a4,a4,0x10
   19dec:	00eee733          	or	a4,t4,a4
   19df0:	01e77b63          	bgeu	a4,t5,19e06 <__divdf3+0x346>
   19df4:	9732                	add	a4,a4,a2
   19df6:	fff88e93          	add	t4,a7,-1
   19dfa:	24c76863          	bltu	a4,a2,1a04a <__divdf3+0x58a>
   19dfe:	25e77663          	bgeu	a4,t5,1a04a <__divdf3+0x58a>
   19e02:	18f9                	add	a7,a7,-2
   19e04:	9732                	add	a4,a4,a2
   19e06:	41e70733          	sub	a4,a4,t5
   19e0a:	02a75eb3          	divu	t4,a4,a0
   19e0e:	07c2                	sll	a5,a5,0x10
   19e10:	83c1                	srl	a5,a5,0x10
   19e12:	02a77733          	remu	a4,a4,a0
   19e16:	03d80833          	mul	a6,a6,t4
   19e1a:	0742                	sll	a4,a4,0x10
   19e1c:	8fd9                	or	a5,a5,a4
   19e1e:	0107fb63          	bgeu	a5,a6,19e34 <__divdf3+0x374>
   19e22:	97b2                	add	a5,a5,a2
   19e24:	fffe8713          	add	a4,t4,-1
   19e28:	20c7ef63          	bltu	a5,a2,1a046 <__divdf3+0x586>
   19e2c:	2107fd63          	bgeu	a5,a6,1a046 <__divdf3+0x586>
   19e30:	1ef9                	add	t4,t4,-2
   19e32:	97b2                	add	a5,a5,a2
   19e34:	08c2                	sll	a7,a7,0x10
   19e36:	01d8e8b3          	or	a7,a7,t4
   19e3a:	01089513          	sll	a0,a7,0x10
   19e3e:	0108df13          	srl	t5,a7,0x10
   19e42:	8141                	srl	a0,a0,0x10
   19e44:	02650eb3          	mul	t4,a0,t1
   19e48:	410787b3          	sub	a5,a5,a6
   19e4c:	02ae0533          	mul	a0,t3,a0
   19e50:	010ed713          	srl	a4,t4,0x10
   19e54:	026f0333          	mul	t1,t5,t1
   19e58:	951a                	add	a0,a0,t1
   19e5a:	972a                	add	a4,a4,a0
   19e5c:	03ee0e33          	mul	t3,t3,t5
   19e60:	00677463          	bgeu	a4,t1,19e68 <__divdf3+0x3a8>
   19e64:	6541                	lui	a0,0x10
   19e66:	9e2a                	add	t3,t3,a0
   19e68:	6841                	lui	a6,0x10
   19e6a:	187d                	add	a6,a6,-1 # ffff <register_fini-0x95>
   19e6c:	01075513          	srl	a0,a4,0x10
   19e70:	01077733          	and	a4,a4,a6
   19e74:	0742                	sll	a4,a4,0x10
   19e76:	010efeb3          	and	t4,t4,a6
   19e7a:	9572                	add	a0,a0,t3
   19e7c:	9776                	add	a4,a4,t4
   19e7e:	0ea7f763          	bgeu	a5,a0,19f6c <__divdf3+0x4ac>
   19e82:	97b2                	add	a5,a5,a2
   19e84:	fff88313          	add	t1,a7,-1
   19e88:	883e                	mv	a6,a5
   19e8a:	16c7e863          	bltu	a5,a2,19ffa <__divdf3+0x53a>
   19e8e:	1ca7e663          	bltu	a5,a0,1a05a <__divdf3+0x59a>
   19e92:	1ca78f63          	beq	a5,a0,1a070 <__divdf3+0x5b0>
   19e96:	889a                	mv	a7,t1
   19e98:	0018e893          	or	a7,a7,1
   19e9c:	b3cd                	j	19c7e <__divdf3+0x1be>
   19e9e:	4705                	li	a4,1
   19ea0:	d20792e3          	bnez	a5,19bc4 <__divdf3+0x104>
   19ea4:	41e98993          	add	s3,s3,1054
   19ea8:	013897b3          	sll	a5,a7,s3
   19eac:	00f037b3          	snez	a5,a5
   19eb0:	013419b3          	sll	s3,s0,s3
   19eb4:	0137e7b3          	or	a5,a5,s3
   19eb8:	00e8d8b3          	srl	a7,a7,a4
   19ebc:	00f8e8b3          	or	a7,a7,a5
   19ec0:	0078f793          	and	a5,a7,7
   19ec4:	00e45433          	srl	s0,s0,a4
   19ec8:	cf81                	beqz	a5,19ee0 <__divdf3+0x420>
   19eca:	00f8f793          	and	a5,a7,15
   19ece:	4711                	li	a4,4
   19ed0:	00e78863          	beq	a5,a4,19ee0 <__divdf3+0x420>
   19ed4:	00488793          	add	a5,a7,4
   19ed8:	0117b8b3          	sltu	a7,a5,a7
   19edc:	9446                	add	s0,s0,a7
   19ede:	88be                	mv	a7,a5
   19ee0:	00841593          	sll	a1,s0,0x8
   19ee4:	4785                	li	a5,1
   19ee6:	4601                	li	a2,0
   19ee8:	4701                	li	a4,0
   19eea:	ce05c5e3          	bltz	a1,19bd4 <__divdf3+0x114>
   19eee:	a8dd                	j	19fe4 <__divdf3+0x524>
   19ef0:	ecfb7be3          	bgeu	s6,a5,19dc6 <__divdf3+0x306>
   19ef4:	00bb0eb3          	add	t4,s6,a1
   19ef8:	016ebf33          	sltu	t5,t4,s6
   19efc:	00cf0fb3          	add	t6,t5,a2
   19f00:	977e                	add	a4,a4,t6
   19f02:	8b76                	mv	s6,t4
   19f04:	fff40f93          	add	t6,s0,-1
   19f08:	06e67763          	bgeu	a2,a4,19f76 <__divdf3+0x4b6>
   19f0c:	11176163          	bltu	a4,a7,1a00e <__divdf3+0x54e>
   19f10:	0ee88d63          	beq	a7,a4,1a00a <__divdf3+0x54a>
   19f14:	847e                	mv	s0,t6
   19f16:	bd45                	j	19dc6 <__divdf3+0x306>
   19f18:	df1b61e3          	bltu	s6,a7,19cfa <__divdf3+0x23a>
   19f1c:	001b5713          	srl	a4,s6,0x1
   19f20:	01fa9313          	sll	t1,s5,0x1f
   19f24:	001ad793          	srl	a5,s5,0x1
   19f28:	00e36333          	or	t1,t1,a4
   19f2c:	0b7e                	sll	s6,s6,0x1f
   19f2e:	bbd1                	j	19d02 <__divdf3+0x242>
   19f30:	855e                	mv	a0,s7
   19f32:	50a030ef          	jal	1d43c <__clzsi2>
   19f36:	01550693          	add	a3,a0,21 # 10015 <register_fini-0x7f>
   19f3a:	4771                	li	a4,28
   19f3c:	02050793          	add	a5,a0,32
   19f40:	c6d752e3          	bge	a4,a3,19ba4 <__divdf3+0xe4>
   19f44:	1561                	add	a0,a0,-8
   19f46:	4881                	li	a7,0
   19f48:	00ab9433          	sll	s0,s7,a0
   19f4c:	b1bd                	j	19bba <__divdf3+0xfa>
   19f4e:	4ee030ef          	jal	1d43c <__clzsi2>
   19f52:	01550693          	add	a3,a0,21
   19f56:	47f1                	li	a5,28
   19f58:	02050713          	add	a4,a0,32
   19f5c:	ccd7d6e3          	bge	a5,a3,19c28 <__divdf3+0x168>
   19f60:	ff850793          	add	a5,a0,-8
   19f64:	00f41ab3          	sll	s5,s0,a5
   19f68:	4b01                	li	s6,0
   19f6a:	b9d9                	j	19c40 <__divdf3+0x180>
   19f6c:	f2a796e3          	bne	a5,a0,19e98 <__divdf3+0x3d8>
   19f70:	d00707e3          	beqz	a4,19c7e <__divdf3+0x1be>
   19f74:	b739                	j	19e82 <__divdf3+0x3c2>
   19f76:	f8e61fe3          	bne	a2,a4,19f14 <__divdf3+0x454>
   19f7a:	f80f09e3          	beqz	t5,19f0c <__divdf3+0x44c>
   19f7e:	847e                	mv	s0,t6
   19f80:	b599                	j	19dc6 <__divdf3+0x306>
   19f82:	dff773e3          	bgeu	a4,t6,19d68 <__divdf3+0x2a8>
   19f86:	18f9                	add	a7,a7,-2
   19f88:	9732                	add	a4,a4,a2
   19f8a:	b3c5                	j	19d6a <__divdf3+0x2aa>
   19f8c:	db17f9e3          	bgeu	a5,a7,19d3e <__divdf3+0x27e>
   19f90:	1479                	add	s0,s0,-2
   19f92:	97b2                	add	a5,a5,a2
   19f94:	b375                	j	19d40 <__divdf3+0x280>
   19f96:	467d                	li	a2,31
   19f98:	f0e656e3          	bge	a2,a4,19ea4 <__divdf3+0x3e4>
   19f9c:	5605                	li	a2,-31
   19f9e:	40f607b3          	sub	a5,a2,a5
   19fa2:	02000613          	li	a2,32
   19fa6:	00f457b3          	srl	a5,s0,a5
   19faa:	00c70863          	beq	a4,a2,19fba <__divdf3+0x4fa>
   19fae:	43e98993          	add	s3,s3,1086
   19fb2:	013419b3          	sll	s3,s0,s3
   19fb6:	0138e8b3          	or	a7,a7,s3
   19fba:	011038b3          	snez	a7,a7
   19fbe:	00f8e8b3          	or	a7,a7,a5
   19fc2:	0078f713          	and	a4,a7,7
   19fc6:	4601                	li	a2,0
   19fc8:	c31d                	beqz	a4,19fee <__divdf3+0x52e>
   19fca:	00f8f793          	and	a5,a7,15
   19fce:	4711                	li	a4,4
   19fd0:	4401                	li	s0,0
   19fd2:	00e78963          	beq	a5,a4,19fe4 <__divdf3+0x524>
   19fd6:	00488793          	add	a5,a7,4
   19fda:	0117b8b3          	sltu	a7,a5,a7
   19fde:	01103433          	snez	s0,a7
   19fe2:	88be                	mv	a7,a5
   19fe4:	00941613          	sll	a2,s0,0x9
   19fe8:	01d41713          	sll	a4,s0,0x1d
   19fec:	8231                	srl	a2,a2,0xc
   19fee:	0038d893          	srl	a7,a7,0x3
   19ff2:	00e8e733          	or	a4,a7,a4
   19ff6:	4781                	li	a5,0
   19ff8:	bef1                	j	19bd4 <__divdf3+0x114>
   19ffa:	889a                	mv	a7,t1
   19ffc:	e8a81ee3          	bne	a6,a0,19e98 <__divdf3+0x3d8>
   1a000:	c6b70fe3          	beq	a4,a1,19c7e <__divdf3+0x1be>
   1a004:	0018e893          	or	a7,a7,1
   1a008:	b99d                	j	19c7e <__divdf3+0x1be>
   1a00a:	f0fef5e3          	bgeu	t4,a5,19f14 <__divdf3+0x454>
   1a00e:	9eae                	add	t4,t4,a1
   1a010:	00bebf33          	sltu	t5,t4,a1
   1a014:	9f32                	add	t5,t5,a2
   1a016:	1479                	add	s0,s0,-2
   1a018:	8b76                	mv	s6,t4
   1a01a:	977a                	add	a4,a4,t5
   1a01c:	b36d                	j	19dc6 <__divdf3+0x306>
   1a01e:	c0200713          	li	a4,-1022
   1a022:	3ff98793          	add	a5,s3,1023
   1a026:	58fd                	li	a7,-1
   1a028:	e6e9cbe3          	blt	s3,a4,19e9e <__divdf3+0x3de>
   1a02c:	00488713          	add	a4,a7,4
   1a030:	011738b3          	sltu	a7,a4,a7
   1a034:	9446                	add	s0,s0,a7
   1a036:	88ba                	mv	a7,a4
   1a038:	b999                	j	19c8e <__divdf3+0x1ce>
   1a03a:	00f8f713          	and	a4,a7,15
   1a03e:	4611                	li	a2,4
   1a040:	c4c707e3          	beq	a4,a2,19c8e <__divdf3+0x1ce>
   1a044:	b7e5                	j	1a02c <__divdf3+0x56c>
   1a046:	8eba                	mv	t4,a4
   1a048:	b3f5                	j	19e34 <__divdf3+0x374>
   1a04a:	88f6                	mv	a7,t4
   1a04c:	bb6d                	j	19e06 <__divdf3+0x346>
   1a04e:	86ca                	mv	a3,s2
   1a050:	7ff00793          	li	a5,2047
   1a054:	4601                	li	a2,0
   1a056:	4701                	li	a4,0
   1a058:	beb5                	j	19bd4 <__divdf3+0x114>
   1a05a:	00159313          	sll	t1,a1,0x1
   1a05e:	00b33833          	sltu	a6,t1,a1
   1a062:	9832                	add	a6,a6,a2
   1a064:	983e                	add	a6,a6,a5
   1a066:	18f9                	add	a7,a7,-2
   1a068:	859a                	mv	a1,t1
   1a06a:	f8a80be3          	beq	a6,a0,1a000 <__divdf3+0x540>
   1a06e:	b52d                	j	19e98 <__divdf3+0x3d8>
   1a070:	fee5e5e3          	bltu	a1,a4,1a05a <__divdf3+0x59a>
   1a074:	889a                	mv	a7,t1
   1a076:	f8b717e3          	bne	a4,a1,1a004 <__divdf3+0x544>
   1a07a:	b111                	j	19c7e <__divdf3+0x1be>

0001a07c <__eqdf2>:
   1a07c:	0145d713          	srl	a4,a1,0x14
   1a080:	001007b7          	lui	a5,0x100
   1a084:	17fd                	add	a5,a5,-1 # fffff <__BSS_END__+0xe14db>
   1a086:	0146d813          	srl	a6,a3,0x14
   1a08a:	7ff77713          	and	a4,a4,2047
   1a08e:	7ff00313          	li	t1,2047
   1a092:	00b7fe33          	and	t3,a5,a1
   1a096:	88aa                	mv	a7,a0
   1a098:	8ff5                	and	a5,a5,a3
   1a09a:	81fd                	srl	a1,a1,0x1f
   1a09c:	7ff87813          	and	a6,a6,2047
   1a0a0:	82fd                	srl	a3,a3,0x1f
   1a0a2:	4505                	li	a0,1
   1a0a4:	00670a63          	beq	a4,t1,1a0b8 <__eqdf2+0x3c>
   1a0a8:	00680763          	beq	a6,t1,1a0b6 <__eqdf2+0x3a>
   1a0ac:	01071463          	bne	a4,a6,1a0b4 <__eqdf2+0x38>
   1a0b0:	02fe0063          	beq	t3,a5,1a0d0 <__eqdf2+0x54>
   1a0b4:	8082                	ret
   1a0b6:	8082                	ret
   1a0b8:	fee81ee3          	bne	a6,a4,1a0b4 <__eqdf2+0x38>
   1a0bc:	00fe67b3          	or	a5,t3,a5
   1a0c0:	8fd1                	or	a5,a5,a2
   1a0c2:	0117e7b3          	or	a5,a5,a7
   1a0c6:	f7fd                	bnez	a5,1a0b4 <__eqdf2+0x38>
   1a0c8:	8d95                	sub	a1,a1,a3
   1a0ca:	00b03533          	snez	a0,a1
   1a0ce:	8082                	ret
   1a0d0:	fec892e3          	bne	a7,a2,1a0b4 <__eqdf2+0x38>
   1a0d4:	00d58863          	beq	a1,a3,1a0e4 <__eqdf2+0x68>
   1a0d8:	ff71                	bnez	a4,1a0b4 <__eqdf2+0x38>
   1a0da:	011e6e33          	or	t3,t3,a7
   1a0de:	01c03533          	snez	a0,t3
   1a0e2:	8082                	ret
   1a0e4:	4501                	li	a0,0
   1a0e6:	8082                	ret

0001a0e8 <__gedf2>:
   1a0e8:	0145d893          	srl	a7,a1,0x14
   1a0ec:	001007b7          	lui	a5,0x100
   1a0f0:	17fd                	add	a5,a5,-1 # fffff <__BSS_END__+0xe14db>
   1a0f2:	0146d713          	srl	a4,a3,0x14
   1a0f6:	7ff8f893          	and	a7,a7,2047
   1a0fa:	7ff00e13          	li	t3,2047
   1a0fe:	00b7f333          	and	t1,a5,a1
   1a102:	882a                	mv	a6,a0
   1a104:	8eaa                	mv	t4,a0
   1a106:	8ff5                	and	a5,a5,a3
   1a108:	81fd                	srl	a1,a1,0x1f
   1a10a:	8f32                	mv	t5,a2
   1a10c:	7ff77513          	and	a0,a4,2047
   1a110:	82fd                	srl	a3,a3,0x1f
   1a112:	03c88d63          	beq	a7,t3,1a14c <__gedf2+0x64>
   1a116:	01c50e63          	beq	a0,t3,1a132 <__gedf2+0x4a>
   1a11a:	04089a63          	bnez	a7,1a16e <__gedf2+0x86>
   1a11e:	01036833          	or	a6,t1,a6
   1a122:	e129                	bnez	a0,1a164 <__gedf2+0x7c>
   1a124:	8e5d                	or	a2,a2,a5
   1a126:	ca25                	beqz	a2,1a196 <__gedf2+0xae>
   1a128:	06081c63          	bnez	a6,1a1a0 <__gedf2+0xb8>
   1a12c:	4505                	li	a0,1
   1a12e:	c2b5                	beqz	a3,1a192 <__gedf2+0xaa>
   1a130:	8082                	ret
   1a132:	8e5d                	or	a2,a2,a5
   1a134:	e625                	bnez	a2,1a19c <__gedf2+0xb4>
   1a136:	00089663          	bnez	a7,1a142 <__gedf2+0x5a>
   1a13a:	01036333          	or	t1,t1,a6
   1a13e:	fe0307e3          	beqz	t1,1a12c <__gedf2+0x44>
   1a142:	04d58663          	beq	a1,a3,1a18e <__gedf2+0xa6>
   1a146:	e5b1                	bnez	a1,1a192 <__gedf2+0xaa>
   1a148:	4505                	li	a0,1
   1a14a:	8082                	ret
   1a14c:	01036333          	or	t1,t1,a6
   1a150:	04031663          	bnez	t1,1a19c <__gedf2+0xb4>
   1a154:	ff1519e3          	bne	a0,a7,1a146 <__gedf2+0x5e>
   1a158:	8fd1                	or	a5,a5,a2
   1a15a:	e3a9                	bnez	a5,1a19c <__gedf2+0xb4>
   1a15c:	fed595e3          	bne	a1,a3,1a146 <__gedf2+0x5e>
   1a160:	4501                	li	a0,0
   1a162:	8082                	ret
   1a164:	fc0804e3          	beqz	a6,1a12c <__gedf2+0x44>
   1a168:	fcd59fe3          	bne	a1,a3,1a146 <__gedf2+0x5e>
   1a16c:	a00d                	j	1a18e <__gedf2+0xa6>
   1a16e:	dd61                	beqz	a0,1a146 <__gedf2+0x5e>
   1a170:	fcd59be3          	bne	a1,a3,1a146 <__gedf2+0x5e>
   1a174:	fd1549e3          	blt	a0,a7,1a146 <__gedf2+0x5e>
   1a178:	00a8cb63          	blt	a7,a0,1a18e <__gedf2+0xa6>
   1a17c:	fc67e5e3          	bltu	a5,t1,1a146 <__gedf2+0x5e>
   1a180:	00f31763          	bne	t1,a5,1a18e <__gedf2+0xa6>
   1a184:	fddf61e3          	bltu	t5,t4,1a146 <__gedf2+0x5e>
   1a188:	4501                	li	a0,0
   1a18a:	fbeef3e3          	bgeu	t4,t5,1a130 <__gedf2+0x48>
   1a18e:	4505                	li	a0,1
   1a190:	f1c5                	bnez	a1,1a130 <__gedf2+0x48>
   1a192:	557d                	li	a0,-1
   1a194:	8082                	ret
   1a196:	fa0818e3          	bnez	a6,1a146 <__gedf2+0x5e>
   1a19a:	8082                	ret
   1a19c:	5579                	li	a0,-2
   1a19e:	8082                	ret
   1a1a0:	fcd58ee3          	beq	a1,a3,1a17c <__gedf2+0x94>
   1a1a4:	b74d                	j	1a146 <__gedf2+0x5e>

0001a1a6 <__ledf2>:
   1a1a6:	0145d893          	srl	a7,a1,0x14
   1a1aa:	001007b7          	lui	a5,0x100
   1a1ae:	17fd                	add	a5,a5,-1 # fffff <__BSS_END__+0xe14db>
   1a1b0:	0146d713          	srl	a4,a3,0x14
   1a1b4:	7ff8f893          	and	a7,a7,2047
   1a1b8:	7ff00313          	li	t1,2047
   1a1bc:	00b7fe33          	and	t3,a5,a1
   1a1c0:	882a                	mv	a6,a0
   1a1c2:	8eaa                	mv	t4,a0
   1a1c4:	8ff5                	and	a5,a5,a3
   1a1c6:	81fd                	srl	a1,a1,0x1f
   1a1c8:	8f32                	mv	t5,a2
   1a1ca:	7ff77513          	and	a0,a4,2047
   1a1ce:	82fd                	srl	a3,a3,0x1f
   1a1d0:	02688e63          	beq	a7,t1,1a20c <__ledf2+0x66>
   1a1d4:	00650e63          	beq	a0,t1,1a1f0 <__ledf2+0x4a>
   1a1d8:	04089763          	bnez	a7,1a226 <__ledf2+0x80>
   1a1dc:	010e6833          	or	a6,t3,a6
   1a1e0:	e53d                	bnez	a0,1a24e <__ledf2+0xa8>
   1a1e2:	8e5d                	or	a2,a2,a5
   1a1e4:	ce25                	beqz	a2,1a25c <__ledf2+0xb6>
   1a1e6:	06081e63          	bnez	a6,1a262 <__ledf2+0xbc>
   1a1ea:	4505                	li	a0,1
   1a1ec:	ceb9                	beqz	a3,1a24a <__ledf2+0xa4>
   1a1ee:	8082                	ret
   1a1f0:	8e5d                	or	a2,a2,a5
   1a1f2:	4509                	li	a0,2
   1a1f4:	fe6d                	bnez	a2,1a1ee <__ledf2+0x48>
   1a1f6:	00089663          	bnez	a7,1a202 <__ledf2+0x5c>
   1a1fa:	010e6e33          	or	t3,t3,a6
   1a1fe:	fe0e06e3          	beqz	t3,1a1ea <__ledf2+0x44>
   1a202:	04d58263          	beq	a1,a3,1a246 <__ledf2+0xa0>
   1a206:	e1b1                	bnez	a1,1a24a <__ledf2+0xa4>
   1a208:	4505                	li	a0,1
   1a20a:	8082                	ret
   1a20c:	010e6e33          	or	t3,t3,a6
   1a210:	040e1463          	bnez	t3,1a258 <__ledf2+0xb2>
   1a214:	ff1519e3          	bne	a0,a7,1a206 <__ledf2+0x60>
   1a218:	8fd1                	or	a5,a5,a2
   1a21a:	4509                	li	a0,2
   1a21c:	fbe9                	bnez	a5,1a1ee <__ledf2+0x48>
   1a21e:	fed594e3          	bne	a1,a3,1a206 <__ledf2+0x60>
   1a222:	4501                	li	a0,0
   1a224:	8082                	ret
   1a226:	d165                	beqz	a0,1a206 <__ledf2+0x60>
   1a228:	fcd59fe3          	bne	a1,a3,1a206 <__ledf2+0x60>
   1a22c:	fd154de3          	blt	a0,a7,1a206 <__ledf2+0x60>
   1a230:	00a8cb63          	blt	a7,a0,1a246 <__ledf2+0xa0>
   1a234:	fdc7e9e3          	bltu	a5,t3,1a206 <__ledf2+0x60>
   1a238:	00fe1763          	bne	t3,a5,1a246 <__ledf2+0xa0>
   1a23c:	fddf65e3          	bltu	t5,t4,1a206 <__ledf2+0x60>
   1a240:	4501                	li	a0,0
   1a242:	fbeef6e3          	bgeu	t4,t5,1a1ee <__ledf2+0x48>
   1a246:	4505                	li	a0,1
   1a248:	f1dd                	bnez	a1,1a1ee <__ledf2+0x48>
   1a24a:	557d                	li	a0,-1
   1a24c:	8082                	ret
   1a24e:	f8080ee3          	beqz	a6,1a1ea <__ledf2+0x44>
   1a252:	fad59ae3          	bne	a1,a3,1a206 <__ledf2+0x60>
   1a256:	bfc5                	j	1a246 <__ledf2+0xa0>
   1a258:	4509                	li	a0,2
   1a25a:	8082                	ret
   1a25c:	fa0815e3          	bnez	a6,1a206 <__ledf2+0x60>
   1a260:	8082                	ret
   1a262:	fcd589e3          	beq	a1,a3,1a234 <__ledf2+0x8e>
   1a266:	b745                	j	1a206 <__ledf2+0x60>

0001a268 <__muldf3>:
   1a268:	7179                	add	sp,sp,-48
   1a26a:	0145d793          	srl	a5,a1,0x14
   1a26e:	d422                	sw	s0,40(sp)
   1a270:	d226                	sw	s1,36(sp)
   1a272:	d04a                	sw	s2,32(sp)
   1a274:	ce4e                	sw	s3,28(sp)
   1a276:	ca56                	sw	s5,20(sp)
   1a278:	00c59493          	sll	s1,a1,0xc
   1a27c:	d606                	sw	ra,44(sp)
   1a27e:	cc52                	sw	s4,24(sp)
   1a280:	c85a                	sw	s6,16(sp)
   1a282:	c65e                	sw	s7,12(sp)
   1a284:	c462                	sw	s8,8(sp)
   1a286:	7ff7f793          	and	a5,a5,2047
   1a28a:	842a                	mv	s0,a0
   1a28c:	8ab2                	mv	s5,a2
   1a28e:	89b6                	mv	s3,a3
   1a290:	80b1                	srl	s1,s1,0xc
   1a292:	01f5d913          	srl	s2,a1,0x1f
   1a296:	32078f63          	beqz	a5,1a5d4 <__muldf3+0x36c>
   1a29a:	7ff00713          	li	a4,2047
   1a29e:	08e78663          	beq	a5,a4,1a32a <__muldf3+0xc2>
   1a2a2:	00349693          	sll	a3,s1,0x3
   1a2a6:	01d55713          	srl	a4,a0,0x1d
   1a2aa:	8f55                	or	a4,a4,a3
   1a2ac:	008006b7          	lui	a3,0x800
   1a2b0:	00d764b3          	or	s1,a4,a3
   1a2b4:	00351a13          	sll	s4,a0,0x3
   1a2b8:	c0178c13          	add	s8,a5,-1023
   1a2bc:	4b01                	li	s6,0
   1a2be:	4b81                	li	s7,0
   1a2c0:	0149d793          	srl	a5,s3,0x14
   1a2c4:	00c99713          	sll	a4,s3,0xc
   1a2c8:	7ff7f793          	and	a5,a5,2047
   1a2cc:	8f56                	mv	t5,s5
   1a2ce:	00c75413          	srl	s0,a4,0xc
   1a2d2:	01f9d993          	srl	s3,s3,0x1f
   1a2d6:	cfbd                	beqz	a5,1a354 <__muldf3+0xec>
   1a2d8:	7ff00713          	li	a4,2047
   1a2dc:	0ee78f63          	beq	a5,a4,1a3da <__muldf3+0x172>
   1a2e0:	00341713          	sll	a4,s0,0x3
   1a2e4:	01dad593          	srl	a1,s5,0x1d
   1a2e8:	8dd9                	or	a1,a1,a4
   1a2ea:	c0178793          	add	a5,a5,-1023
   1a2ee:	00800737          	lui	a4,0x800
   1a2f2:	00e5e433          	or	s0,a1,a4
   1a2f6:	003a9f13          	sll	t5,s5,0x3
   1a2fa:	018788b3          	add	a7,a5,s8
   1a2fe:	4301                	li	t1,0
   1a300:	4729                	li	a4,10
   1a302:	00188513          	add	a0,a7,1
   1a306:	09674963          	blt	a4,s6,1a398 <__muldf3+0x130>
   1a30a:	013945b3          	xor	a1,s2,s3
   1a30e:	4789                	li	a5,2
   1a310:	882e                	mv	a6,a1
   1a312:	0f67c863          	blt	a5,s6,1a402 <__muldf3+0x19a>
   1a316:	1b7d                	add	s6,s6,-1
   1a318:	4705                	li	a4,1
   1a31a:	11676263          	bltu	a4,s6,1a41e <__muldf3+0x1b6>
   1a31e:	2ef30963          	beq	t1,a5,1a610 <__muldf3+0x3a8>
   1a322:	84a2                	mv	s1,s0
   1a324:	8a7a                	mv	s4,t5
   1a326:	8b9a                	mv	s7,t1
   1a328:	a8bd                	j	1a3a6 <__muldf3+0x13e>
   1a32a:	00a4ea33          	or	s4,s1,a0
   1a32e:	2e0a1763          	bnez	s4,1a61c <__muldf3+0x3b4>
   1a332:	0149d793          	srl	a5,s3,0x14
   1a336:	00c99713          	sll	a4,s3,0xc
   1a33a:	7ff7f793          	and	a5,a5,2047
   1a33e:	4481                	li	s1,0
   1a340:	4b21                	li	s6,8
   1a342:	7ff00c13          	li	s8,2047
   1a346:	4b89                	li	s7,2
   1a348:	8f56                	mv	t5,s5
   1a34a:	00c75413          	srl	s0,a4,0xc
   1a34e:	01f9d993          	srl	s3,s3,0x1f
   1a352:	f3d9                	bnez	a5,1a2d8 <__muldf3+0x70>
   1a354:	015467b3          	or	a5,s0,s5
   1a358:	2c078d63          	beqz	a5,1a632 <__muldf3+0x3ca>
   1a35c:	36040a63          	beqz	s0,1a6d0 <__muldf3+0x468>
   1a360:	8522                	mv	a0,s0
   1a362:	0da030ef          	jal	1d43c <__clzsi2>
   1a366:	88aa                	mv	a7,a0
   1a368:	ff550713          	add	a4,a0,-11
   1a36c:	47f5                	li	a5,29
   1a36e:	ff888f13          	add	t5,a7,-8
   1a372:	8f99                	sub	a5,a5,a4
   1a374:	00fad7b3          	srl	a5,s5,a5
   1a378:	01e41733          	sll	a4,s0,t5
   1a37c:	00e7e433          	or	s0,a5,a4
   1a380:	01ea9f33          	sll	t5,s5,t5
   1a384:	411c08b3          	sub	a7,s8,a7
   1a388:	c0d88893          	add	a7,a7,-1011
   1a38c:	4729                	li	a4,10
   1a38e:	4301                	li	t1,0
   1a390:	00188513          	add	a0,a7,1
   1a394:	f7675be3          	bge	a4,s6,1a30a <__muldf3+0xa2>
   1a398:	85ca                	mv	a1,s2
   1a39a:	4789                	li	a5,2
   1a39c:	26fb8a63          	beq	s7,a5,1a610 <__muldf3+0x3a8>
   1a3a0:	478d                	li	a5,3
   1a3a2:	36fb8363          	beq	s7,a5,1a708 <__muldf3+0x4a0>
   1a3a6:	4785                	li	a5,1
   1a3a8:	882e                	mv	a6,a1
   1a3aa:	34fb9863          	bne	s7,a5,1a6fa <__muldf3+0x492>
   1a3ae:	4781                	li	a5,0
   1a3b0:	4681                	li	a3,0
   1a3b2:	4701                	li	a4,0
   1a3b4:	50b2                	lw	ra,44(sp)
   1a3b6:	5422                	lw	s0,40(sp)
   1a3b8:	07d2                	sll	a5,a5,0x14
   1a3ba:	8fd5                	or	a5,a5,a3
   1a3bc:	01f81693          	sll	a3,a6,0x1f
   1a3c0:	8fd5                	or	a5,a5,a3
   1a3c2:	5492                	lw	s1,36(sp)
   1a3c4:	5902                	lw	s2,32(sp)
   1a3c6:	49f2                	lw	s3,28(sp)
   1a3c8:	4a62                	lw	s4,24(sp)
   1a3ca:	4ad2                	lw	s5,20(sp)
   1a3cc:	4b42                	lw	s6,16(sp)
   1a3ce:	4bb2                	lw	s7,12(sp)
   1a3d0:	4c22                	lw	s8,8(sp)
   1a3d2:	853a                	mv	a0,a4
   1a3d4:	85be                	mv	a1,a5
   1a3d6:	6145                	add	sp,sp,48
   1a3d8:	8082                	ret
   1a3da:	01546733          	or	a4,s0,s5
   1a3de:	7ffc0893          	add	a7,s8,2047
   1a3e2:	24070f63          	beqz	a4,1a640 <__muldf3+0x3d8>
   1a3e6:	6705                	lui	a4,0x1
   1a3e8:	01394833          	xor	a6,s2,s3
   1a3ec:	80070713          	add	a4,a4,-2048 # 800 <register_fini-0xf894>
   1a3f0:	003b6b13          	or	s6,s6,3
   1a3f4:	46a9                	li	a3,10
   1a3f6:	85c2                	mv	a1,a6
   1a3f8:	00ec0533          	add	a0,s8,a4
   1a3fc:	2b66c463          	blt	a3,s6,1a6a4 <__muldf3+0x43c>
   1a400:	430d                	li	t1,3
   1a402:	4605                	li	a2,1
   1a404:	01661633          	sll	a2,a2,s6
   1a408:	53067713          	and	a4,a2,1328
   1a40c:	f759                	bnez	a4,1a39a <__muldf3+0x132>
   1a40e:	24067793          	and	a5,a2,576
   1a412:	2c079e63          	bnez	a5,1a6ee <__muldf3+0x486>
   1a416:	08867613          	and	a2,a2,136
   1a41a:	22061963          	bnez	a2,1a64c <__muldf3+0x3e4>
   1a41e:	6fc1                	lui	t6,0x10
   1a420:	ffff8e93          	add	t4,t6,-1 # ffff <register_fini-0x95>
   1a424:	01da77b3          	and	a5,s4,t4
   1a428:	010a5693          	srl	a3,s4,0x10
   1a42c:	01df7eb3          	and	t4,t5,t4
   1a430:	010f5e13          	srl	t3,t5,0x10
   1a434:	03d78733          	mul	a4,a5,t4
   1a438:	03d68333          	mul	t1,a3,t4
   1a43c:	01075593          	srl	a1,a4,0x10
   1a440:	02fe0633          	mul	a2,t3,a5
   1a444:	961a                	add	a2,a2,t1
   1a446:	95b2                	add	a1,a1,a2
   1a448:	03c68f33          	mul	t5,a3,t3
   1a44c:	0065f363          	bgeu	a1,t1,1a452 <__muldf3+0x1ea>
   1a450:	9f7e                	add	t5,t5,t6
   1a452:	63c1                	lui	t2,0x10
   1a454:	fff38613          	add	a2,t2,-1 # ffff <register_fini-0x95>
   1a458:	00c5f333          	and	t1,a1,a2
   1a45c:	01045f93          	srl	t6,s0,0x10
   1a460:	8f71                	and	a4,a4,a2
   1a462:	8c71                	and	s0,s0,a2
   1a464:	0342                	sll	t1,t1,0x10
   1a466:	028782b3          	mul	t0,a5,s0
   1a46a:	933a                	add	t1,t1,a4
   1a46c:	81c1                	srl	a1,a1,0x10
   1a46e:	02868733          	mul	a4,a3,s0
   1a472:	0102d613          	srl	a2,t0,0x10
   1a476:	02ff87b3          	mul	a5,t6,a5
   1a47a:	97ba                	add	a5,a5,a4
   1a47c:	963e                	add	a2,a2,a5
   1a47e:	03f687b3          	mul	a5,a3,t6
   1a482:	00e67363          	bgeu	a2,a4,1a488 <__muldf3+0x220>
   1a486:	979e                	add	a5,a5,t2
   1a488:	6941                	lui	s2,0x10
   1a48a:	fff90993          	add	s3,s2,-1 # ffff <register_fini-0x95>
   1a48e:	01367733          	and	a4,a2,s3
   1a492:	0104d393          	srl	t2,s1,0x10
   1a496:	0134f6b3          	and	a3,s1,s3
   1a49a:	0132f2b3          	and	t0,t0,s3
   1a49e:	0742                	sll	a4,a4,0x10
   1a4a0:	02de84b3          	mul	s1,t4,a3
   1a4a4:	9716                	add	a4,a4,t0
   1a4a6:	8241                	srl	a2,a2,0x10
   1a4a8:	963e                	add	a2,a2,a5
   1a4aa:	95ba                	add	a1,a1,a4
   1a4ac:	02de02b3          	mul	t0,t3,a3
   1a4b0:	0104d793          	srl	a5,s1,0x10
   1a4b4:	03d38eb3          	mul	t4,t2,t4
   1a4b8:	92f6                	add	t0,t0,t4
   1a4ba:	9796                	add	a5,a5,t0
   1a4bc:	027e0e33          	mul	t3,t3,t2
   1a4c0:	01d7f363          	bgeu	a5,t4,1a4c6 <__muldf3+0x25e>
   1a4c4:	9e4a                	add	t3,t3,s2
   1a4c6:	69c1                	lui	s3,0x10
   1a4c8:	fff98e93          	add	t4,s3,-1 # ffff <register_fini-0x95>
   1a4cc:	01d7f2b3          	and	t0,a5,t4
   1a4d0:	83c1                	srl	a5,a5,0x10
   1a4d2:	97f2                	add	a5,a5,t3
   1a4d4:	01d4feb3          	and	t4,s1,t4
   1a4d8:	02c2                	sll	t0,t0,0x10
   1a4da:	02d40933          	mul	s2,s0,a3
   1a4de:	92f6                	add	t0,t0,t4
   1a4e0:	02838433          	mul	s0,t2,s0
   1a4e4:	01095e13          	srl	t3,s2,0x10
   1a4e8:	02df86b3          	mul	a3,t6,a3
   1a4ec:	96a2                	add	a3,a3,s0
   1a4ee:	9e36                	add	t3,t3,a3
   1a4f0:	027f8eb3          	mul	t4,t6,t2
   1a4f4:	008e7363          	bgeu	t3,s0,1a4fa <__muldf3+0x292>
   1a4f8:	9ece                	add	t4,t4,s3
   1a4fa:	6fc1                	lui	t6,0x10
   1a4fc:	1ffd                	add	t6,t6,-1 # ffff <register_fini-0x95>
   1a4fe:	01fe76b3          	and	a3,t3,t6
   1a502:	06c2                	sll	a3,a3,0x10
   1a504:	01f97933          	and	s2,s2,t6
   1a508:	95fa                	add	a1,a1,t5
   1a50a:	96ca                	add	a3,a3,s2
   1a50c:	9636                	add	a2,a2,a3
   1a50e:	00e5b733          	sltu	a4,a1,a4
   1a512:	9732                	add	a4,a4,a2
   1a514:	00558f33          	add	t5,a1,t0
   1a518:	97ba                	add	a5,a5,a4
   1a51a:	00bf35b3          	sltu	a1,t5,a1
   1a51e:	95be                	add	a1,a1,a5
   1a520:	00d636b3          	sltu	a3,a2,a3
   1a524:	00c73633          	sltu	a2,a4,a2
   1a528:	8ed1                	or	a3,a3,a2
   1a52a:	00e7b733          	sltu	a4,a5,a4
   1a52e:	010e5e13          	srl	t3,t3,0x10
   1a532:	00f5b7b3          	sltu	a5,a1,a5
   1a536:	96f2                	add	a3,a3,t3
   1a538:	8f5d                	or	a4,a4,a5
   1a53a:	009f1793          	sll	a5,t5,0x9
   1a53e:	9736                	add	a4,a4,a3
   1a540:	0067e7b3          	or	a5,a5,t1
   1a544:	9776                	add	a4,a4,t4
   1a546:	00f037b3          	snez	a5,a5
   1a54a:	017f5613          	srl	a2,t5,0x17
   1a54e:	0726                	sll	a4,a4,0x9
   1a550:	0175d693          	srl	a3,a1,0x17
   1a554:	8fd1                	or	a5,a5,a2
   1a556:	05a6                	sll	a1,a1,0x9
   1a558:	00b7ea33          	or	s4,a5,a1
   1a55c:	00771793          	sll	a5,a4,0x7
   1a560:	00d764b3          	or	s1,a4,a3
   1a564:	0007dd63          	bgez	a5,1a57e <__muldf3+0x316>
   1a568:	001a5713          	srl	a4,s4,0x1
   1a56c:	001a7793          	and	a5,s4,1
   1a570:	01f49693          	sll	a3,s1,0x1f
   1a574:	8fd9                	or	a5,a5,a4
   1a576:	00d7ea33          	or	s4,a5,a3
   1a57a:	8085                	srl	s1,s1,0x1
   1a57c:	88aa                	mv	a7,a0
   1a57e:	3ff88613          	add	a2,a7,1023
   1a582:	0cc05a63          	blez	a2,1a656 <__muldf3+0x3ee>
   1a586:	007a7793          	and	a5,s4,7
   1a58a:	cf81                	beqz	a5,1a5a2 <__muldf3+0x33a>
   1a58c:	00fa7793          	and	a5,s4,15
   1a590:	4711                	li	a4,4
   1a592:	00e78863          	beq	a5,a4,1a5a2 <__muldf3+0x33a>
   1a596:	004a0713          	add	a4,s4,4
   1a59a:	014737b3          	sltu	a5,a4,s4
   1a59e:	94be                	add	s1,s1,a5
   1a5a0:	8a3a                	mv	s4,a4
   1a5a2:	00749793          	sll	a5,s1,0x7
   1a5a6:	0007d863          	bgez	a5,1a5b6 <__muldf3+0x34e>
   1a5aa:	ff0007b7          	lui	a5,0xff000
   1a5ae:	17fd                	add	a5,a5,-1 # feffffff <__BSS_END__+0xfefe14db>
   1a5b0:	8cfd                	and	s1,s1,a5
   1a5b2:	40088613          	add	a2,a7,1024
   1a5b6:	7fe00793          	li	a5,2046
   1a5ba:	14c7c263          	blt	a5,a2,1a6fe <__muldf3+0x496>
   1a5be:	003a5793          	srl	a5,s4,0x3
   1a5c2:	01d49713          	sll	a4,s1,0x1d
   1a5c6:	00949693          	sll	a3,s1,0x9
   1a5ca:	8f5d                	or	a4,a4,a5
   1a5cc:	82b1                	srl	a3,a3,0xc
   1a5ce:	7ff67793          	and	a5,a2,2047
   1a5d2:	b3cd                	j	1a3b4 <__muldf3+0x14c>
   1a5d4:	00a4ea33          	or	s4,s1,a0
   1a5d8:	040a0863          	beqz	s4,1a628 <__muldf3+0x3c0>
   1a5dc:	cce1                	beqz	s1,1a6b4 <__muldf3+0x44c>
   1a5de:	8526                	mv	a0,s1
   1a5e0:	65d020ef          	jal	1d43c <__clzsi2>
   1a5e4:	862a                	mv	a2,a0
   1a5e6:	ff550693          	add	a3,a0,-11
   1a5ea:	4775                	li	a4,29
   1a5ec:	ff860793          	add	a5,a2,-8 # 7fff8 <__BSS_END__+0x614d4>
   1a5f0:	8f15                	sub	a4,a4,a3
   1a5f2:	00e45733          	srl	a4,s0,a4
   1a5f6:	00f496b3          	sll	a3,s1,a5
   1a5fa:	00d764b3          	or	s1,a4,a3
   1a5fe:	00f41a33          	sll	s4,s0,a5
   1a602:	c0d00793          	li	a5,-1011
   1a606:	40c78c33          	sub	s8,a5,a2
   1a60a:	4b01                	li	s6,0
   1a60c:	4b81                	li	s7,0
   1a60e:	b94d                	j	1a2c0 <__muldf3+0x58>
   1a610:	882e                	mv	a6,a1
   1a612:	7ff00793          	li	a5,2047
   1a616:	4681                	li	a3,0
   1a618:	4701                	li	a4,0
   1a61a:	bb69                	j	1a3b4 <__muldf3+0x14c>
   1a61c:	8a2a                	mv	s4,a0
   1a61e:	4b31                	li	s6,12
   1a620:	7ff00c13          	li	s8,2047
   1a624:	4b8d                	li	s7,3
   1a626:	b969                	j	1a2c0 <__muldf3+0x58>
   1a628:	4481                	li	s1,0
   1a62a:	4b11                	li	s6,4
   1a62c:	4c01                	li	s8,0
   1a62e:	4b85                	li	s7,1
   1a630:	b941                	j	1a2c0 <__muldf3+0x58>
   1a632:	001b6b13          	or	s6,s6,1
   1a636:	88e2                	mv	a7,s8
   1a638:	4401                	li	s0,0
   1a63a:	4f01                	li	t5,0
   1a63c:	4305                	li	t1,1
   1a63e:	b1c9                	j	1a300 <__muldf3+0x98>
   1a640:	002b6b13          	or	s6,s6,2
   1a644:	4401                	li	s0,0
   1a646:	4f01                	li	t5,0
   1a648:	4309                	li	t1,2
   1a64a:	b95d                	j	1a300 <__muldf3+0x98>
   1a64c:	84a2                	mv	s1,s0
   1a64e:	8a7a                	mv	s4,t5
   1a650:	8b9a                	mv	s7,t1
   1a652:	85ce                	mv	a1,s3
   1a654:	b399                	j	1a39a <__muldf3+0x132>
   1a656:	4705                	li	a4,1
   1a658:	ee5d                	bnez	a2,1a716 <__muldf3+0x4ae>
   1a65a:	41e88893          	add	a7,a7,1054
   1a65e:	011a1633          	sll	a2,s4,a7
   1a662:	00c03633          	snez	a2,a2
   1a666:	011498b3          	sll	a7,s1,a7
   1a66a:	00ea57b3          	srl	a5,s4,a4
   1a66e:	01166633          	or	a2,a2,a7
   1a672:	8e5d                	or	a2,a2,a5
   1a674:	00767793          	and	a5,a2,7
   1a678:	00e4d5b3          	srl	a1,s1,a4
   1a67c:	cf81                	beqz	a5,1a694 <__muldf3+0x42c>
   1a67e:	00f67793          	and	a5,a2,15
   1a682:	4711                	li	a4,4
   1a684:	00e78863          	beq	a5,a4,1a694 <__muldf3+0x42c>
   1a688:	00460793          	add	a5,a2,4
   1a68c:	00c7b633          	sltu	a2,a5,a2
   1a690:	95b2                	add	a1,a1,a2
   1a692:	863e                	mv	a2,a5
   1a694:	00859513          	sll	a0,a1,0x8
   1a698:	4785                	li	a5,1
   1a69a:	4681                	li	a3,0
   1a69c:	4701                	li	a4,0
   1a69e:	d0054be3          	bltz	a0,1a3b4 <__muldf3+0x14c>
   1a6a2:	a0e1                	j	1a76a <__muldf3+0x502>
   1a6a4:	473d                	li	a4,15
   1a6a6:	0ceb1b63          	bne	s6,a4,1a77c <__muldf3+0x514>
   1a6aa:	4801                	li	a6,0
   1a6ac:	000806b7          	lui	a3,0x80
   1a6b0:	4701                	li	a4,0
   1a6b2:	b309                	j	1a3b4 <__muldf3+0x14c>
   1a6b4:	589020ef          	jal	1d43c <__clzsi2>
   1a6b8:	01550693          	add	a3,a0,21
   1a6bc:	47f1                	li	a5,28
   1a6be:	02050613          	add	a2,a0,32
   1a6c2:	f2d7d4e3          	bge	a5,a3,1a5ea <__muldf3+0x382>
   1a6c6:	1561                	add	a0,a0,-8
   1a6c8:	4a01                	li	s4,0
   1a6ca:	00a414b3          	sll	s1,s0,a0
   1a6ce:	bf15                	j	1a602 <__muldf3+0x39a>
   1a6d0:	8556                	mv	a0,s5
   1a6d2:	56b020ef          	jal	1d43c <__clzsi2>
   1a6d6:	01550713          	add	a4,a0,21
   1a6da:	47f1                	li	a5,28
   1a6dc:	02050893          	add	a7,a0,32
   1a6e0:	c8e7d6e3          	bge	a5,a4,1a36c <__muldf3+0x104>
   1a6e4:	1561                	add	a0,a0,-8
   1a6e6:	4f01                	li	t5,0
   1a6e8:	00aa9433          	sll	s0,s5,a0
   1a6ec:	b961                	j	1a384 <__muldf3+0x11c>
   1a6ee:	4801                	li	a6,0
   1a6f0:	7ff00793          	li	a5,2047
   1a6f4:	000806b7          	lui	a3,0x80
   1a6f8:	b975                	j	1a3b4 <__muldf3+0x14c>
   1a6fa:	88aa                	mv	a7,a0
   1a6fc:	b549                	j	1a57e <__muldf3+0x316>
   1a6fe:	7ff00793          	li	a5,2047
   1a702:	4681                	li	a3,0
   1a704:	4701                	li	a4,0
   1a706:	b17d                	j	1a3b4 <__muldf3+0x14c>
   1a708:	4801                	li	a6,0
   1a70a:	7ff00793          	li	a5,2047
   1a70e:	000806b7          	lui	a3,0x80
   1a712:	4701                	li	a4,0
   1a714:	b145                	j	1a3b4 <__muldf3+0x14c>
   1a716:	8f11                	sub	a4,a4,a2
   1a718:	03800793          	li	a5,56
   1a71c:	c8e7c9e3          	blt	a5,a4,1a3ae <__muldf3+0x146>
   1a720:	47fd                	li	a5,31
   1a722:	f2e7dce3          	bge	a5,a4,1a65a <__muldf3+0x3f2>
   1a726:	5785                	li	a5,-31
   1a728:	8f91                	sub	a5,a5,a2
   1a72a:	02000693          	li	a3,32
   1a72e:	00f4d7b3          	srl	a5,s1,a5
   1a732:	00d70863          	beq	a4,a3,1a742 <__muldf3+0x4da>
   1a736:	43e88893          	add	a7,a7,1086
   1a73a:	011498b3          	sll	a7,s1,a7
   1a73e:	011a6a33          	or	s4,s4,a7
   1a742:	01403633          	snez	a2,s4
   1a746:	8e5d                	or	a2,a2,a5
   1a748:	00767713          	and	a4,a2,7
   1a74c:	4681                	li	a3,0
   1a74e:	c31d                	beqz	a4,1a774 <__muldf3+0x50c>
   1a750:	00f67793          	and	a5,a2,15
   1a754:	4711                	li	a4,4
   1a756:	4581                	li	a1,0
   1a758:	00e78963          	beq	a5,a4,1a76a <__muldf3+0x502>
   1a75c:	00460793          	add	a5,a2,4
   1a760:	00c7b633          	sltu	a2,a5,a2
   1a764:	00c035b3          	snez	a1,a2
   1a768:	863e                	mv	a2,a5
   1a76a:	00959693          	sll	a3,a1,0x9
   1a76e:	01d59713          	sll	a4,a1,0x1d
   1a772:	82b1                	srl	a3,a3,0xc
   1a774:	820d                	srl	a2,a2,0x3
   1a776:	8f51                	or	a4,a4,a2
   1a778:	4781                	li	a5,0
   1a77a:	b92d                	j	1a3b4 <__muldf3+0x14c>
   1a77c:	84a2                	mv	s1,s0
   1a77e:	8a56                	mv	s4,s5
   1a780:	4b8d                	li	s7,3
   1a782:	85ce                	mv	a1,s3
   1a784:	b919                	j	1a39a <__muldf3+0x132>

0001a786 <__subdf3>:
   1a786:	001007b7          	lui	a5,0x100
   1a78a:	17fd                	add	a5,a5,-1 # fffff <__BSS_END__+0xe14db>
   1a78c:	1101                	add	sp,sp,-32
   1a78e:	00b7f8b3          	and	a7,a5,a1
   1a792:	00d7f833          	and	a6,a5,a3
   1a796:	0146d793          	srl	a5,a3,0x14
   1a79a:	088e                	sll	a7,a7,0x3
   1a79c:	cc22                	sw	s0,24(sp)
   1a79e:	c64e                	sw	s3,12(sp)
   1a7a0:	01f5d413          	srl	s0,a1,0x1f
   1a7a4:	0145d993          	srl	s3,a1,0x14
   1a7a8:	01d55713          	srl	a4,a0,0x1d
   1a7ac:	080e                	sll	a6,a6,0x3
   1a7ae:	01d65593          	srl	a1,a2,0x1d
   1a7b2:	ce06                	sw	ra,28(sp)
   1a7b4:	ca26                	sw	s1,20(sp)
   1a7b6:	c84a                	sw	s2,16(sp)
   1a7b8:	7ff7ff13          	and	t5,a5,2047
   1a7bc:	7ff00313          	li	t1,2047
   1a7c0:	01176733          	or	a4,a4,a7
   1a7c4:	7ff9f993          	and	s3,s3,2047
   1a7c8:	8e22                	mv	t3,s0
   1a7ca:	00351893          	sll	a7,a0,0x3
   1a7ce:	82fd                	srl	a3,a3,0x1f
   1a7d0:	0105e5b3          	or	a1,a1,a6
   1a7d4:	00361e93          	sll	t4,a2,0x3
   1a7d8:	1c6f0163          	beq	t5,t1,1a99a <__subdf3+0x214>
   1a7dc:	0016c693          	xor	a3,a3,1
   1a7e0:	41e987b3          	sub	a5,s3,t5
   1a7e4:	12d40263          	beq	s0,a3,1a908 <__subdf3+0x182>
   1a7e8:	68f05963          	blez	a5,1ae7a <__subdf3+0x6f4>
   1a7ec:	1e0f0763          	beqz	t5,1a9da <__subdf3+0x254>
   1a7f0:	32698563          	beq	s3,t1,1ab1a <__subdf3+0x394>
   1a7f4:	03800693          	li	a3,56
   1a7f8:	4505                	li	a0,1
   1a7fa:	02f6c863          	blt	a3,a5,1a82a <__subdf3+0xa4>
   1a7fe:	008006b7          	lui	a3,0x800
   1a802:	8dd5                	or	a1,a1,a3
   1a804:	46fd                	li	a3,31
   1a806:	40f6cb63          	blt	a3,a5,1ac1c <__subdf3+0x496>
   1a80a:	02000693          	li	a3,32
   1a80e:	8e9d                	sub	a3,a3,a5
   1a810:	00d59533          	sll	a0,a1,a3
   1a814:	00fed633          	srl	a2,t4,a5
   1a818:	00de96b3          	sll	a3,t4,a3
   1a81c:	8d51                	or	a0,a0,a2
   1a81e:	00d036b3          	snez	a3,a3
   1a822:	00f5d7b3          	srl	a5,a1,a5
   1a826:	8d55                	or	a0,a0,a3
   1a828:	8f1d                	sub	a4,a4,a5
   1a82a:	40a88533          	sub	a0,a7,a0
   1a82e:	00a8b633          	sltu	a2,a7,a0
   1a832:	84aa                	mv	s1,a0
   1a834:	40c70933          	sub	s2,a4,a2
   1a838:	00891793          	sll	a5,s2,0x8
   1a83c:	2c07d463          	bgez	a5,1ab04 <__subdf3+0x37e>
   1a840:	008007b7          	lui	a5,0x800
   1a844:	17fd                	add	a5,a5,-1 # 7fffff <__BSS_END__+0x7e14db>
   1a846:	00f97933          	and	s2,s2,a5
   1a84a:	26090863          	beqz	s2,1aaba <__subdf3+0x334>
   1a84e:	854a                	mv	a0,s2
   1a850:	3ed020ef          	jal	1d43c <__clzsi2>
   1a854:	ff850793          	add	a5,a0,-8
   1a858:	02000693          	li	a3,32
   1a85c:	40f68733          	sub	a4,a3,a5
   1a860:	00e4d733          	srl	a4,s1,a4
   1a864:	00f91933          	sll	s2,s2,a5
   1a868:	01276733          	or	a4,a4,s2
   1a86c:	00f494b3          	sll	s1,s1,a5
   1a870:	3337cd63          	blt	a5,s3,1abaa <__subdf3+0x424>
   1a874:	413787b3          	sub	a5,a5,s3
   1a878:	0785                	add	a5,a5,1
   1a87a:	8e9d                	sub	a3,a3,a5
   1a87c:	00d49633          	sll	a2,s1,a3
   1a880:	00f4d933          	srl	s2,s1,a5
   1a884:	00c03633          	snez	a2,a2
   1a888:	00c96633          	or	a2,s2,a2
   1a88c:	00d716b3          	sll	a3,a4,a3
   1a890:	00c6e4b3          	or	s1,a3,a2
   1a894:	00f75933          	srl	s2,a4,a5
   1a898:	4981                	li	s3,0
   1a89a:	0074f793          	and	a5,s1,7
   1a89e:	cf81                	beqz	a5,1a8b6 <__subdf3+0x130>
   1a8a0:	00f4f793          	and	a5,s1,15
   1a8a4:	4711                	li	a4,4
   1a8a6:	00e78863          	beq	a5,a4,1a8b6 <__subdf3+0x130>
   1a8aa:	00448793          	add	a5,s1,4
   1a8ae:	0097b533          	sltu	a0,a5,s1
   1a8b2:	992a                	add	s2,s2,a0
   1a8b4:	84be                	mv	s1,a5
   1a8b6:	00891793          	sll	a5,s2,0x8
   1a8ba:	5607de63          	bgez	a5,1ae36 <__subdf3+0x6b0>
   1a8be:	00198793          	add	a5,s3,1
   1a8c2:	7ff00713          	li	a4,2047
   1a8c6:	1ee78363          	beq	a5,a4,1aaac <__subdf3+0x326>
   1a8ca:	ff800737          	lui	a4,0xff800
   1a8ce:	177d                	add	a4,a4,-1 # ff7fffff <__BSS_END__+0xff7e14db>
   1a8d0:	00e97733          	and	a4,s2,a4
   1a8d4:	7ff7f793          	and	a5,a5,2047
   1a8d8:	01d71813          	sll	a6,a4,0x1d
   1a8dc:	0034d513          	srl	a0,s1,0x3
   1a8e0:	0726                	sll	a4,a4,0x9
   1a8e2:	00a86833          	or	a6,a6,a0
   1a8e6:	8331                	srl	a4,a4,0xc
   1a8e8:	00147e13          	and	t3,s0,1
   1a8ec:	40f2                	lw	ra,28(sp)
   1a8ee:	4462                	lw	s0,24(sp)
   1a8f0:	07d2                	sll	a5,a5,0x14
   1a8f2:	8fd9                	or	a5,a5,a4
   1a8f4:	01fe1713          	sll	a4,t3,0x1f
   1a8f8:	8fd9                	or	a5,a5,a4
   1a8fa:	44d2                	lw	s1,20(sp)
   1a8fc:	4942                	lw	s2,16(sp)
   1a8fe:	49b2                	lw	s3,12(sp)
   1a900:	8542                	mv	a0,a6
   1a902:	85be                	mv	a1,a5
   1a904:	6105                	add	sp,sp,32
   1a906:	8082                	ret
   1a908:	5af05563          	blez	a5,1aeb2 <__subdf3+0x72c>
   1a90c:	180f1563          	bnez	t5,1aa96 <__subdf3+0x310>
   1a910:	01d5e6b3          	or	a3,a1,t4
   1a914:	20068b63          	beqz	a3,1ab2a <__subdf3+0x3a4>
   1a918:	fff78693          	add	a3,a5,-1
   1a91c:	3a068263          	beqz	a3,1acc0 <__subdf3+0x53a>
   1a920:	1e678d63          	beq	a5,t1,1ab1a <__subdf3+0x394>
   1a924:	03800793          	li	a5,56
   1a928:	4905                	li	s2,1
   1a92a:	02d7c863          	blt	a5,a3,1a95a <__subdf3+0x1d4>
   1a92e:	87b6                	mv	a5,a3
   1a930:	46fd                	li	a3,31
   1a932:	3af6cf63          	blt	a3,a5,1acf0 <__subdf3+0x56a>
   1a936:	02000693          	li	a3,32
   1a93a:	8e9d                	sub	a3,a3,a5
   1a93c:	00d59933          	sll	s2,a1,a3
   1a940:	00fed633          	srl	a2,t4,a5
   1a944:	00de96b3          	sll	a3,t4,a3
   1a948:	00c96933          	or	s2,s2,a2
   1a94c:	00d036b3          	snez	a3,a3
   1a950:	00f5d7b3          	srl	a5,a1,a5
   1a954:	00d96933          	or	s2,s2,a3
   1a958:	973e                	add	a4,a4,a5
   1a95a:	01190633          	add	a2,s2,a7
   1a95e:	01263933          	sltu	s2,a2,s2
   1a962:	84b2                	mv	s1,a2
   1a964:	993a                	add	s2,s2,a4
   1a966:	00891793          	sll	a5,s2,0x8
   1a96a:	1807dd63          	bgez	a5,1ab04 <__subdf3+0x37e>
   1a96e:	0985                	add	s3,s3,1
   1a970:	7ff00793          	li	a5,2047
   1a974:	12f98c63          	beq	s3,a5,1aaac <__subdf3+0x326>
   1a978:	ff8007b7          	lui	a5,0xff800
   1a97c:	17fd                	add	a5,a5,-1 # ff7fffff <__BSS_END__+0xff7e14db>
   1a97e:	0014f513          	and	a0,s1,1
   1a982:	00f977b3          	and	a5,s2,a5
   1a986:	0014d713          	srl	a4,s1,0x1
   1a98a:	8f49                	or	a4,a4,a0
   1a98c:	01f79513          	sll	a0,a5,0x1f
   1a990:	00e564b3          	or	s1,a0,a4
   1a994:	0017d913          	srl	s2,a5,0x1
   1a998:	b709                	j	1a89a <__subdf3+0x114>
   1a99a:	01d5e833          	or	a6,a1,t4
   1a99e:	80198313          	add	t1,s3,-2047
   1a9a2:	04080d63          	beqz	a6,1a9fc <__subdf3+0x276>
   1a9a6:	04d40f63          	beq	s0,a3,1aa04 <__subdf3+0x27e>
   1a9aa:	0c030163          	beqz	t1,1aa6c <__subdf3+0x2e6>
   1a9ae:	20098663          	beqz	s3,1abba <__subdf3+0x434>
   1a9b2:	00361513          	sll	a0,a2,0x3
   1a9b6:	810d                	srl	a0,a0,0x3
   1a9b8:	8436                	mv	s0,a3
   1a9ba:	872e                	mv	a4,a1
   1a9bc:	01d71813          	sll	a6,a4,0x1d
   1a9c0:	00a86833          	or	a6,a6,a0
   1a9c4:	830d                	srl	a4,a4,0x3
   1a9c6:	01076733          	or	a4,a4,a6
   1a9ca:	c36d                	beqz	a4,1aaac <__subdf3+0x326>
   1a9cc:	4e01                	li	t3,0
   1a9ce:	7ff00793          	li	a5,2047
   1a9d2:	00080737          	lui	a4,0x80
   1a9d6:	4801                	li	a6,0
   1a9d8:	bf11                	j	1a8ec <__subdf3+0x166>
   1a9da:	01d5e6b3          	or	a3,a1,t4
   1a9de:	14068663          	beqz	a3,1ab2a <__subdf3+0x3a4>
   1a9e2:	fff78693          	add	a3,a5,-1
   1a9e6:	2e068a63          	beqz	a3,1acda <__subdf3+0x554>
   1a9ea:	12678863          	beq	a5,t1,1ab1a <__subdf3+0x394>
   1a9ee:	03800793          	li	a5,56
   1a9f2:	4505                	li	a0,1
   1a9f4:	e2d7cbe3          	blt	a5,a3,1a82a <__subdf3+0xa4>
   1a9f8:	87b6                	mv	a5,a3
   1a9fa:	b529                	j	1a804 <__subdf3+0x7e>
   1a9fc:	0016c693          	xor	a3,a3,1
   1aa00:	fad415e3          	bne	s0,a3,1a9aa <__subdf3+0x224>
   1aa04:	14030563          	beqz	t1,1ab4e <__subdf3+0x3c8>
   1aa08:	24099563          	bnez	s3,1ac52 <__subdf3+0x4cc>
   1aa0c:	7ff00793          	li	a5,2047
   1aa10:	011766b3          	or	a3,a4,a7
   1aa14:	3a068863          	beqz	a3,1adc4 <__subdf3+0x63e>
   1aa18:	fff78693          	add	a3,a5,-1
   1aa1c:	2a068263          	beqz	a3,1acc0 <__subdf3+0x53a>
   1aa20:	7ff00513          	li	a0,2047
   1aa24:	22a78763          	beq	a5,a0,1ac52 <__subdf3+0x4cc>
   1aa28:	03800793          	li	a5,56
   1aa2c:	4905                	li	s2,1
   1aa2e:	02d7c763          	blt	a5,a3,1aa5c <__subdf3+0x2d6>
   1aa32:	47fd                	li	a5,31
   1aa34:	3cd7cc63          	blt	a5,a3,1ae0c <__subdf3+0x686>
   1aa38:	02000793          	li	a5,32
   1aa3c:	8f95                	sub	a5,a5,a3
   1aa3e:	00f71933          	sll	s2,a4,a5
   1aa42:	00d8d633          	srl	a2,a7,a3
   1aa46:	00f897b3          	sll	a5,a7,a5
   1aa4a:	00c96933          	or	s2,s2,a2
   1aa4e:	00f037b3          	snez	a5,a5
   1aa52:	00d756b3          	srl	a3,a4,a3
   1aa56:	00f96933          	or	s2,s2,a5
   1aa5a:	95b6                	add	a1,a1,a3
   1aa5c:	01d90733          	add	a4,s2,t4
   1aa60:	01273933          	sltu	s2,a4,s2
   1aa64:	84ba                	mv	s1,a4
   1aa66:	992e                	add	s2,s2,a1
   1aa68:	89fa                	mv	s3,t5
   1aa6a:	bdf5                	j	1a966 <__subdf3+0x1e0>
   1aa6c:	00198793          	add	a5,s3,1
   1aa70:	7fe7f793          	and	a5,a5,2046
   1aa74:	10079663          	bnez	a5,1ab80 <__subdf3+0x3fa>
   1aa78:	01d5e833          	or	a6,a1,t4
   1aa7c:	011767b3          	or	a5,a4,a7
   1aa80:	22099363          	bnez	s3,1aca6 <__subdf3+0x520>
   1aa84:	2e078263          	beqz	a5,1ad68 <__subdf3+0x5e2>
   1aa88:	2e081f63          	bnez	a6,1ad86 <__subdf3+0x600>
   1aa8c:	050e                	sll	a0,a0,0x3
   1aa8e:	00355913          	srl	s2,a0,0x3
   1aa92:	4781                	li	a5,0
   1aa94:	a0c5                	j	1ab74 <__subdf3+0x3ee>
   1aa96:	08698263          	beq	s3,t1,1ab1a <__subdf3+0x394>
   1aa9a:	03800693          	li	a3,56
   1aa9e:	4905                	li	s2,1
   1aaa0:	eaf6cde3          	blt	a3,a5,1a95a <__subdf3+0x1d4>
   1aaa4:	008006b7          	lui	a3,0x800
   1aaa8:	8dd5                	or	a1,a1,a3
   1aaaa:	b559                	j	1a930 <__subdf3+0x1aa>
   1aaac:	00147e13          	and	t3,s0,1
   1aab0:	7ff00793          	li	a5,2047
   1aab4:	4701                	li	a4,0
   1aab6:	4801                	li	a6,0
   1aab8:	bd15                	j	1a8ec <__subdf3+0x166>
   1aaba:	8526                	mv	a0,s1
   1aabc:	181020ef          	jal	1d43c <__clzsi2>
   1aac0:	01850793          	add	a5,a0,24
   1aac4:	46fd                	li	a3,31
   1aac6:	d8f6d9e3          	bge	a3,a5,1a858 <__subdf3+0xd2>
   1aaca:	ff850713          	add	a4,a0,-8
   1aace:	00e49733          	sll	a4,s1,a4
   1aad2:	1737c963          	blt	a5,s3,1ac44 <__subdf3+0x4be>
   1aad6:	413789b3          	sub	s3,a5,s3
   1aada:	00198793          	add	a5,s3,1
   1aade:	36f6d163          	bge	a3,a5,1ae40 <__subdf3+0x6ba>
   1aae2:	1985                	add	s3,s3,-31
   1aae4:	02000693          	li	a3,32
   1aae8:	013754b3          	srl	s1,a4,s3
   1aaec:	00d78b63          	beq	a5,a3,1ab02 <__subdf3+0x37c>
   1aaf0:	04000693          	li	a3,64
   1aaf4:	40f687b3          	sub	a5,a3,a5
   1aaf8:	00f71733          	sll	a4,a4,a5
   1aafc:	00e03733          	snez	a4,a4
   1ab00:	8cd9                	or	s1,s1,a4
   1ab02:	4981                	li	s3,0
   1ab04:	0074f793          	and	a5,s1,7
   1ab08:	d8079ce3          	bnez	a5,1a8a0 <__subdf3+0x11a>
   1ab0c:	87ce                	mv	a5,s3
   1ab0e:	0034d513          	srl	a0,s1,0x3
   1ab12:	874a                	mv	a4,s2
   1ab14:	a829                	j	1ab2e <__subdf3+0x3a8>
   1ab16:	ea081be3          	bnez	a6,1a9cc <__subdf3+0x246>
   1ab1a:	050e                	sll	a0,a0,0x3
   1ab1c:	01d71813          	sll	a6,a4,0x1d
   1ab20:	810d                	srl	a0,a0,0x3
   1ab22:	00a86833          	or	a6,a6,a0
   1ab26:	830d                	srl	a4,a4,0x3
   1ab28:	bd79                	j	1a9c6 <__subdf3+0x240>
   1ab2a:	050e                	sll	a0,a0,0x3
   1ab2c:	810d                	srl	a0,a0,0x3
   1ab2e:	01d71813          	sll	a6,a4,0x1d
   1ab32:	7ff00693          	li	a3,2047
   1ab36:	00a86833          	or	a6,a6,a0
   1ab3a:	830d                	srl	a4,a4,0x3
   1ab3c:	e8d785e3          	beq	a5,a3,1a9c6 <__subdf3+0x240>
   1ab40:	0732                	sll	a4,a4,0xc
   1ab42:	8331                	srl	a4,a4,0xc
   1ab44:	7ff7f793          	and	a5,a5,2047
   1ab48:	00147e13          	and	t3,s0,1
   1ab4c:	b345                	j	1a8ec <__subdf3+0x166>
   1ab4e:	00198693          	add	a3,s3,1
   1ab52:	7fe6f793          	and	a5,a3,2046
   1ab56:	10079363          	bnez	a5,1ac5c <__subdf3+0x4d6>
   1ab5a:	011767b3          	or	a5,a4,a7
   1ab5e:	1e099263          	bnez	s3,1ad42 <__subdf3+0x5bc>
   1ab62:	26078663          	beqz	a5,1adce <__subdf3+0x648>
   1ab66:	01d5e7b3          	or	a5,a1,t4
   1ab6a:	26079763          	bnez	a5,1add8 <__subdf3+0x652>
   1ab6e:	050e                	sll	a0,a0,0x3
   1ab70:	00355913          	srl	s2,a0,0x3
   1ab74:	01d71813          	sll	a6,a4,0x1d
   1ab78:	01286833          	or	a6,a6,s2
   1ab7c:	830d                	srl	a4,a4,0x3
   1ab7e:	b7c9                	j	1ab40 <__subdf3+0x3ba>
   1ab80:	41d88833          	sub	a6,a7,t4
   1ab84:	0108b7b3          	sltu	a5,a7,a6
   1ab88:	40b70933          	sub	s2,a4,a1
   1ab8c:	40f90933          	sub	s2,s2,a5
   1ab90:	00891793          	sll	a5,s2,0x8
   1ab94:	84c2                	mv	s1,a6
   1ab96:	0e07c763          	bltz	a5,1ac84 <__subdf3+0x4fe>
   1ab9a:	01286833          	or	a6,a6,s2
   1ab9e:	ca0816e3          	bnez	a6,1a84a <__subdf3+0xc4>
   1aba2:	4e01                	li	t3,0
   1aba4:	4781                	li	a5,0
   1aba6:	4701                	li	a4,0
   1aba8:	b391                	j	1a8ec <__subdf3+0x166>
   1abaa:	ff800937          	lui	s2,0xff800
   1abae:	197d                	add	s2,s2,-1 # ff7fffff <__BSS_END__+0xff7e14db>
   1abb0:	40f989b3          	sub	s3,s3,a5
   1abb4:	01277933          	and	s2,a4,s2
   1abb8:	b1cd                	j	1a89a <__subdf3+0x114>
   1abba:	7ff00793          	li	a5,2047
   1abbe:	01176533          	or	a0,a4,a7
   1abc2:	cd61                	beqz	a0,1ac9a <__subdf3+0x514>
   1abc4:	fff78813          	add	a6,a5,-1
   1abc8:	18080363          	beqz	a6,1ad4e <__subdf3+0x5c8>
   1abcc:	7ff00513          	li	a0,2047
   1abd0:	dea781e3          	beq	a5,a0,1a9b2 <__subdf3+0x22c>
   1abd4:	03800793          	li	a5,56
   1abd8:	8436                	mv	s0,a3
   1abda:	4505                	li	a0,1
   1abdc:	0307c763          	blt	a5,a6,1ac0a <__subdf3+0x484>
   1abe0:	47fd                	li	a5,31
   1abe2:	1307cc63          	blt	a5,a6,1ad1a <__subdf3+0x594>
   1abe6:	02000793          	li	a5,32
   1abea:	410787b3          	sub	a5,a5,a6
   1abee:	00f71533          	sll	a0,a4,a5
   1abf2:	0108d6b3          	srl	a3,a7,a6
   1abf6:	00f897b3          	sll	a5,a7,a5
   1abfa:	8d55                	or	a0,a0,a3
   1abfc:	00f037b3          	snez	a5,a5
   1ac00:	01075833          	srl	a6,a4,a6
   1ac04:	8d5d                	or	a0,a0,a5
   1ac06:	410585b3          	sub	a1,a1,a6
   1ac0a:	40ae8533          	sub	a0,t4,a0
   1ac0e:	00aeb733          	sltu	a4,t4,a0
   1ac12:	84aa                	mv	s1,a0
   1ac14:	40e58933          	sub	s2,a1,a4
   1ac18:	89fa                	mv	s3,t5
   1ac1a:	b939                	j	1a838 <__subdf3+0xb2>
   1ac1c:	fe078693          	add	a3,a5,-32
   1ac20:	02000613          	li	a2,32
   1ac24:	00d5d6b3          	srl	a3,a1,a3
   1ac28:	00c78a63          	beq	a5,a2,1ac3c <__subdf3+0x4b6>
   1ac2c:	04000613          	li	a2,64
   1ac30:	40f607b3          	sub	a5,a2,a5
   1ac34:	00f597b3          	sll	a5,a1,a5
   1ac38:	00feeeb3          	or	t4,t4,a5
   1ac3c:	01d03533          	snez	a0,t4
   1ac40:	8d55                	or	a0,a0,a3
   1ac42:	b6e5                	j	1a82a <__subdf3+0xa4>
   1ac44:	ff8006b7          	lui	a3,0xff800
   1ac48:	16fd                	add	a3,a3,-1 # ff7fffff <__BSS_END__+0xff7e14db>
   1ac4a:	40f987b3          	sub	a5,s3,a5
   1ac4e:	8f75                	and	a4,a4,a3
   1ac50:	b715                	j	1ab74 <__subdf3+0x3ee>
   1ac52:	00361513          	sll	a0,a2,0x3
   1ac56:	810d                	srl	a0,a0,0x3
   1ac58:	872e                	mv	a4,a1
   1ac5a:	b38d                	j	1a9bc <__subdf3+0x236>
   1ac5c:	7ff00793          	li	a5,2047
   1ac60:	e4f686e3          	beq	a3,a5,1aaac <__subdf3+0x326>
   1ac64:	9ec6                	add	t4,t4,a7
   1ac66:	011eb633          	sltu	a2,t4,a7
   1ac6a:	00b707b3          	add	a5,a4,a1
   1ac6e:	97b2                	add	a5,a5,a2
   1ac70:	01f79513          	sll	a0,a5,0x1f
   1ac74:	001ede93          	srl	t4,t4,0x1
   1ac78:	01d564b3          	or	s1,a0,t4
   1ac7c:	0017d913          	srl	s2,a5,0x1
   1ac80:	89b6                	mv	s3,a3
   1ac82:	b921                	j	1a89a <__subdf3+0x114>
   1ac84:	411e8633          	sub	a2,t4,a7
   1ac88:	40e587b3          	sub	a5,a1,a4
   1ac8c:	00ceb733          	sltu	a4,t4,a2
   1ac90:	84b2                	mv	s1,a2
   1ac92:	40e78933          	sub	s2,a5,a4
   1ac96:	8436                	mv	s0,a3
   1ac98:	be4d                	j	1a84a <__subdf3+0xc4>
   1ac9a:	060e                	sll	a2,a2,0x3
   1ac9c:	00365513          	srl	a0,a2,0x3
   1aca0:	8436                	mv	s0,a3
   1aca2:	872e                	mv	a4,a1
   1aca4:	b569                	j	1ab2e <__subdf3+0x3a8>
   1aca6:	e60798e3          	bnez	a5,1ab16 <__subdf3+0x390>
   1acaa:	1a080963          	beqz	a6,1ae5c <__subdf3+0x6d6>
   1acae:	0035d713          	srl	a4,a1,0x3
   1acb2:	060e                	sll	a2,a2,0x3
   1acb4:	05f6                	sll	a1,a1,0x1d
   1acb6:	8f4d                	or	a4,a4,a1
   1acb8:	820d                	srl	a2,a2,0x3
   1acba:	8f51                	or	a4,a4,a2
   1acbc:	8436                	mv	s0,a3
   1acbe:	b331                	j	1a9ca <__subdf3+0x244>
   1acc0:	9ec6                	add	t4,t4,a7
   1acc2:	95ba                	add	a1,a1,a4
   1acc4:	011eb633          	sltu	a2,t4,a7
   1acc8:	00c58933          	add	s2,a1,a2
   1accc:	00891793          	sll	a5,s2,0x8
   1acd0:	84f6                	mv	s1,t4
   1acd2:	0807d963          	bgez	a5,1ad64 <__subdf3+0x5de>
   1acd6:	4989                	li	s3,2
   1acd8:	b145                	j	1a978 <__subdf3+0x1f2>
   1acda:	41d88eb3          	sub	t4,a7,t4
   1acde:	40b705b3          	sub	a1,a4,a1
   1ace2:	01d8b633          	sltu	a2,a7,t4
   1ace6:	84f6                	mv	s1,t4
   1ace8:	40c58933          	sub	s2,a1,a2
   1acec:	4985                	li	s3,1
   1acee:	b6a9                	j	1a838 <__subdf3+0xb2>
   1acf0:	fe078693          	add	a3,a5,-32
   1acf4:	02000613          	li	a2,32
   1acf8:	00d5d6b3          	srl	a3,a1,a3
   1acfc:	00c78a63          	beq	a5,a2,1ad10 <__subdf3+0x58a>
   1ad00:	04000613          	li	a2,64
   1ad04:	40f607b3          	sub	a5,a2,a5
   1ad08:	00f597b3          	sll	a5,a1,a5
   1ad0c:	00feeeb3          	or	t4,t4,a5
   1ad10:	01d03933          	snez	s2,t4
   1ad14:	00d96933          	or	s2,s2,a3
   1ad18:	b189                	j	1a95a <__subdf3+0x1d4>
   1ad1a:	fe080793          	add	a5,a6,-32
   1ad1e:	02000693          	li	a3,32
   1ad22:	00f757b3          	srl	a5,a4,a5
   1ad26:	00d80a63          	beq	a6,a3,1ad3a <__subdf3+0x5b4>
   1ad2a:	04000693          	li	a3,64
   1ad2e:	410686b3          	sub	a3,a3,a6
   1ad32:	00d71733          	sll	a4,a4,a3
   1ad36:	00e8e8b3          	or	a7,a7,a4
   1ad3a:	01103533          	snez	a0,a7
   1ad3e:	8d5d                	or	a0,a0,a5
   1ad40:	b5e9                	j	1ac0a <__subdf3+0x484>
   1ad42:	db81                	beqz	a5,1ac52 <__subdf3+0x4cc>
   1ad44:	01d5eeb3          	or	t4,a1,t4
   1ad48:	c80e92e3          	bnez	t4,1a9cc <__subdf3+0x246>
   1ad4c:	b3f9                	j	1ab1a <__subdf3+0x394>
   1ad4e:	411e8633          	sub	a2,t4,a7
   1ad52:	8d99                	sub	a1,a1,a4
   1ad54:	00ceb733          	sltu	a4,t4,a2
   1ad58:	84b2                	mv	s1,a2
   1ad5a:	40e58933          	sub	s2,a1,a4
   1ad5e:	8436                	mv	s0,a3
   1ad60:	4985                	li	s3,1
   1ad62:	bcd9                	j	1a838 <__subdf3+0xb2>
   1ad64:	4785                	li	a5,1
   1ad66:	b365                	j	1ab0e <__subdf3+0x388>
   1ad68:	e2080de3          	beqz	a6,1aba2 <__subdf3+0x41c>
   1ad6c:	060e                	sll	a2,a2,0x3
   1ad6e:	00365793          	srl	a5,a2,0x3
   1ad72:	01d59813          	sll	a6,a1,0x1d
   1ad76:	00959713          	sll	a4,a1,0x9
   1ad7a:	00f86833          	or	a6,a6,a5
   1ad7e:	8331                	srl	a4,a4,0xc
   1ad80:	8e36                	mv	t3,a3
   1ad82:	4781                	li	a5,0
   1ad84:	b6a5                	j	1a8ec <__subdf3+0x166>
   1ad86:	41d88933          	sub	s2,a7,t4
   1ad8a:	0128b7b3          	sltu	a5,a7,s2
   1ad8e:	40b70633          	sub	a2,a4,a1
   1ad92:	8e1d                	sub	a2,a2,a5
   1ad94:	00861793          	sll	a5,a2,0x8
   1ad98:	0a07d963          	bgez	a5,1ae4a <__subdf3+0x6c4>
   1ad9c:	411e8633          	sub	a2,t4,a7
   1ada0:	40e58733          	sub	a4,a1,a4
   1ada4:	00cebeb3          	sltu	t4,t4,a2
   1ada8:	41d70733          	sub	a4,a4,t4
   1adac:	00871793          	sll	a5,a4,0x8
   1adb0:	84b2                	mv	s1,a2
   1adb2:	0e07d763          	bgez	a5,1aea0 <__subdf3+0x71a>
   1adb6:	ff8007b7          	lui	a5,0xff800
   1adba:	17fd                	add	a5,a5,-1 # ff7fffff <__BSS_END__+0xff7e14db>
   1adbc:	8f7d                	and	a4,a4,a5
   1adbe:	8436                	mv	s0,a3
   1adc0:	4785                	li	a5,1
   1adc2:	be19                	j	1a8d8 <__subdf3+0x152>
   1adc4:	060e                	sll	a2,a2,0x3
   1adc6:	00365513          	srl	a0,a2,0x3
   1adca:	872e                	mv	a4,a1
   1adcc:	b38d                	j	1ab2e <__subdf3+0x3a8>
   1adce:	060e                	sll	a2,a2,0x3
   1add0:	00365913          	srl	s2,a2,0x3
   1add4:	872e                	mv	a4,a1
   1add6:	bb79                	j	1ab74 <__subdf3+0x3ee>
   1add8:	01d886b3          	add	a3,a7,t4
   1addc:	00b707b3          	add	a5,a4,a1
   1ade0:	0116b633          	sltu	a2,a3,a7
   1ade4:	97b2                	add	a5,a5,a2
   1ade6:	00879713          	sll	a4,a5,0x8
   1adea:	0036d813          	srl	a6,a3,0x3
   1adee:	06075d63          	bgez	a4,1ae68 <__subdf3+0x6e2>
   1adf2:	ff800737          	lui	a4,0xff800
   1adf6:	177d                	add	a4,a4,-1 # ff7fffff <__BSS_END__+0xff7e14db>
   1adf8:	8ff9                	and	a5,a5,a4
   1adfa:	01d79713          	sll	a4,a5,0x1d
   1adfe:	07a6                	sll	a5,a5,0x9
   1ae00:	01076833          	or	a6,a4,a6
   1ae04:	00c7d713          	srl	a4,a5,0xc
   1ae08:	4785                	li	a5,1
   1ae0a:	b4cd                	j	1a8ec <__subdf3+0x166>
   1ae0c:	fe068793          	add	a5,a3,-32
   1ae10:	02000613          	li	a2,32
   1ae14:	00f757b3          	srl	a5,a4,a5
   1ae18:	00c68a63          	beq	a3,a2,1ae2c <__subdf3+0x6a6>
   1ae1c:	04000613          	li	a2,64
   1ae20:	40d606b3          	sub	a3,a2,a3
   1ae24:	00d71733          	sll	a4,a4,a3
   1ae28:	00e8e8b3          	or	a7,a7,a4
   1ae2c:	01103933          	snez	s2,a7
   1ae30:	00f96933          	or	s2,s2,a5
   1ae34:	b125                	j	1aa5c <__subdf3+0x2d6>
   1ae36:	0034d513          	srl	a0,s1,0x3
   1ae3a:	87ce                	mv	a5,s3
   1ae3c:	874a                	mv	a4,s2
   1ae3e:	b9c5                	j	1ab2e <__subdf3+0x3a8>
   1ae40:	02000693          	li	a3,32
   1ae44:	8e9d                	sub	a3,a3,a5
   1ae46:	4601                	li	a2,0
   1ae48:	b481                	j	1a888 <__subdf3+0x102>
   1ae4a:	00c96833          	or	a6,s2,a2
   1ae4e:	d4080ae3          	beqz	a6,1aba2 <__subdf3+0x41c>
   1ae52:	00395913          	srl	s2,s2,0x3
   1ae56:	4781                	li	a5,0
   1ae58:	8732                	mv	a4,a2
   1ae5a:	bb29                	j	1ab74 <__subdf3+0x3ee>
   1ae5c:	4e01                	li	t3,0
   1ae5e:	7ff00793          	li	a5,2047
   1ae62:	00080737          	lui	a4,0x80
   1ae66:	b459                	j	1a8ec <__subdf3+0x166>
   1ae68:	01d79713          	sll	a4,a5,0x1d
   1ae6c:	07a6                	sll	a5,a5,0x9
   1ae6e:	01076833          	or	a6,a4,a6
   1ae72:	00c7d713          	srl	a4,a5,0xc
   1ae76:	4781                	li	a5,0
   1ae78:	bc95                	j	1a8ec <__subdf3+0x166>
   1ae7a:	be0789e3          	beqz	a5,1aa6c <__subdf3+0x2e6>
   1ae7e:	413f0833          	sub	a6,t5,s3
   1ae82:	87c2                	mv	a5,a6
   1ae84:	d2098de3          	beqz	s3,1abbe <__subdf3+0x438>
   1ae88:	03800793          	li	a5,56
   1ae8c:	0107c763          	blt	a5,a6,1ae9a <__subdf3+0x714>
   1ae90:	008007b7          	lui	a5,0x800
   1ae94:	8f5d                	or	a4,a4,a5
   1ae96:	8436                	mv	s0,a3
   1ae98:	b3a1                	j	1abe0 <__subdf3+0x45a>
   1ae9a:	8436                	mv	s0,a3
   1ae9c:	4505                	li	a0,1
   1ae9e:	b3b5                	j	1ac0a <__subdf3+0x484>
   1aea0:	01d71813          	sll	a6,a4,0x1d
   1aea4:	820d                	srl	a2,a2,0x3
   1aea6:	00c86833          	or	a6,a6,a2
   1aeaa:	830d                	srl	a4,a4,0x3
   1aeac:	4781                	li	a5,0
   1aeae:	8436                	mv	s0,a3
   1aeb0:	b941                	j	1ab40 <__subdf3+0x3ba>
   1aeb2:	c8078ee3          	beqz	a5,1ab4e <__subdf3+0x3c8>
   1aeb6:	413f06b3          	sub	a3,t5,s3
   1aeba:	00099463          	bnez	s3,1aec2 <__subdf3+0x73c>
   1aebe:	87b6                	mv	a5,a3
   1aec0:	be81                	j	1aa10 <__subdf3+0x28a>
   1aec2:	03800793          	li	a5,56
   1aec6:	4905                	li	s2,1
   1aec8:	b8d7cae3          	blt	a5,a3,1aa5c <__subdf3+0x2d6>
   1aecc:	008007b7          	lui	a5,0x800
   1aed0:	8f5d                	or	a4,a4,a5
   1aed2:	b685                	j	1aa32 <__subdf3+0x2ac>

0001aed4 <__fixdfsi>:
   1aed4:	0145d793          	srl	a5,a1,0x14
   1aed8:	001006b7          	lui	a3,0x100
   1aedc:	fff68713          	add	a4,a3,-1 # fffff <__BSS_END__+0xe14db>
   1aee0:	7ff7f793          	and	a5,a5,2047
   1aee4:	3fe00613          	li	a2,1022
   1aee8:	8f6d                	and	a4,a4,a1
   1aeea:	81fd                	srl	a1,a1,0x1f
   1aeec:	00f65b63          	bge	a2,a5,1af02 <__fixdfsi+0x2e>
   1aef0:	41d00613          	li	a2,1053
   1aef4:	00f65963          	bge	a2,a5,1af06 <__fixdfsi+0x32>
   1aef8:	80000537          	lui	a0,0x80000
   1aefc:	157d                	add	a0,a0,-1 # 7fffffff <__BSS_END__+0x7ffe14db>
   1aefe:	952e                	add	a0,a0,a1
   1af00:	8082                	ret
   1af02:	4501                	li	a0,0
   1af04:	8082                	ret
   1af06:	43300613          	li	a2,1075
   1af0a:	8e1d                	sub	a2,a2,a5
   1af0c:	487d                	li	a6,31
   1af0e:	8f55                	or	a4,a4,a3
   1af10:	00c85d63          	bge	a6,a2,1af2a <__fixdfsi+0x56>
   1af14:	41300693          	li	a3,1043
   1af18:	40f687b3          	sub	a5,a3,a5
   1af1c:	00f75733          	srl	a4,a4,a5
   1af20:	40e00533          	neg	a0,a4
   1af24:	f1e5                	bnez	a1,1af04 <__fixdfsi+0x30>
   1af26:	853a                	mv	a0,a4
   1af28:	8082                	ret
   1af2a:	bed78793          	add	a5,a5,-1043 # 7ffbed <__BSS_END__+0x7e10c9>
   1af2e:	00f71733          	sll	a4,a4,a5
   1af32:	00c55533          	srl	a0,a0,a2
   1af36:	8f49                	or	a4,a4,a0
   1af38:	b7e5                	j	1af20 <__fixdfsi+0x4c>

0001af3a <__floatsidf>:
   1af3a:	1141                	add	sp,sp,-16
   1af3c:	c606                	sw	ra,12(sp)
   1af3e:	c422                	sw	s0,8(sp)
   1af40:	c226                	sw	s1,4(sp)
   1af42:	cd15                	beqz	a0,1af7e <__floatsidf+0x44>
   1af44:	41f55713          	sra	a4,a0,0x1f
   1af48:	00a744b3          	xor	s1,a4,a0
   1af4c:	8c99                	sub	s1,s1,a4
   1af4e:	87aa                	mv	a5,a0
   1af50:	8526                	mv	a0,s1
   1af52:	01f7d413          	srl	s0,a5,0x1f
   1af56:	4e6020ef          	jal	1d43c <__clzsi2>
   1af5a:	41e00793          	li	a5,1054
   1af5e:	8f89                	sub	a5,a5,a0
   1af60:	4729                	li	a4,10
   1af62:	7ff7f793          	and	a5,a5,2047
   1af66:	02a74b63          	blt	a4,a0,1af9c <__floatsidf+0x62>
   1af6a:	472d                	li	a4,11
   1af6c:	8f09                	sub	a4,a4,a0
   1af6e:	00e4d733          	srl	a4,s1,a4
   1af72:	0555                	add	a0,a0,21
   1af74:	0732                	sll	a4,a4,0xc
   1af76:	00a494b3          	sll	s1,s1,a0
   1af7a:	8331                	srl	a4,a4,0xc
   1af7c:	a029                	j	1af86 <__floatsidf+0x4c>
   1af7e:	4401                	li	s0,0
   1af80:	4781                	li	a5,0
   1af82:	4701                	li	a4,0
   1af84:	4481                	li	s1,0
   1af86:	07d2                	sll	a5,a5,0x14
   1af88:	047e                	sll	s0,s0,0x1f
   1af8a:	8fd9                	or	a5,a5,a4
   1af8c:	40b2                	lw	ra,12(sp)
   1af8e:	8fc1                	or	a5,a5,s0
   1af90:	4422                	lw	s0,8(sp)
   1af92:	8526                	mv	a0,s1
   1af94:	85be                	mv	a1,a5
   1af96:	4492                	lw	s1,4(sp)
   1af98:	0141                	add	sp,sp,16
   1af9a:	8082                	ret
   1af9c:	1555                	add	a0,a0,-11
   1af9e:	00a49733          	sll	a4,s1,a0
   1afa2:	0732                	sll	a4,a4,0xc
   1afa4:	8331                	srl	a4,a4,0xc
   1afa6:	4481                	li	s1,0
   1afa8:	bff9                	j	1af86 <__floatsidf+0x4c>

0001afaa <__eqtf2>:
   1afaa:	4558                	lw	a4,12(a0)
   1afac:	45d4                	lw	a3,12(a1)
   1afae:	67a1                	lui	a5,0x8
   1afb0:	17fd                	add	a5,a5,-1 # 7fff <register_fini-0x8095>
   1afb2:	01075613          	srl	a2,a4,0x10
   1afb6:	0106d813          	srl	a6,a3,0x10
   1afba:	01071293          	sll	t0,a4,0x10
   1afbe:	01069393          	sll	t2,a3,0x10
   1afc2:	8e7d                	and	a2,a2,a5
   1afc4:	00052883          	lw	a7,0(a0)
   1afc8:	00452e03          	lw	t3,4(a0)
   1afcc:	00852f03          	lw	t5,8(a0)
   1afd0:	0005a303          	lw	t1,0(a1)
   1afd4:	0045ae83          	lw	t4,4(a1)
   1afd8:	0085af83          	lw	t6,8(a1)
   1afdc:	1141                	add	sp,sp,-16
   1afde:	0102d293          	srl	t0,t0,0x10
   1afe2:	837d                	srl	a4,a4,0x1f
   1afe4:	0103d393          	srl	t2,t2,0x10
   1afe8:	00f875b3          	and	a1,a6,a5
   1afec:	82fd                	srl	a3,a3,0x1f
   1afee:	4505                	li	a0,1
   1aff0:	00f60a63          	beq	a2,a5,1b004 <__eqtf2+0x5a>
   1aff4:	00f58663          	beq	a1,a5,1b000 <__eqtf2+0x56>
   1aff8:	00c59463          	bne	a1,a2,1b000 <__eqtf2+0x56>
   1affc:	02688963          	beq	a7,t1,1b02e <__eqtf2+0x84>
   1b000:	0141                	add	sp,sp,16
   1b002:	8082                	ret
   1b004:	fec59ee3          	bne	a1,a2,1b000 <__eqtf2+0x56>
   1b008:	01c8e7b3          	or	a5,a7,t3
   1b00c:	01e7e7b3          	or	a5,a5,t5
   1b010:	0057e7b3          	or	a5,a5,t0
   1b014:	0067e7b3          	or	a5,a5,t1
   1b018:	01d7e7b3          	or	a5,a5,t4
   1b01c:	01f7e7b3          	or	a5,a5,t6
   1b020:	0077e7b3          	or	a5,a5,t2
   1b024:	fff1                	bnez	a5,1b000 <__eqtf2+0x56>
   1b026:	8f15                	sub	a4,a4,a3
   1b028:	00e03533          	snez	a0,a4
   1b02c:	bfd1                	j	1b000 <__eqtf2+0x56>
   1b02e:	fdde19e3          	bne	t3,t4,1b000 <__eqtf2+0x56>
   1b032:	fdff17e3          	bne	t5,t6,1b000 <__eqtf2+0x56>
   1b036:	fc7295e3          	bne	t0,t2,1b000 <__eqtf2+0x56>
   1b03a:	00d70c63          	beq	a4,a3,1b052 <__eqtf2+0xa8>
   1b03e:	f1e9                	bnez	a1,1b000 <__eqtf2+0x56>
   1b040:	01c8e7b3          	or	a5,a7,t3
   1b044:	01e7e7b3          	or	a5,a5,t5
   1b048:	0057e7b3          	or	a5,a5,t0
   1b04c:	00f03533          	snez	a0,a5
   1b050:	bf45                	j	1b000 <__eqtf2+0x56>
   1b052:	4501                	li	a0,0
   1b054:	b775                	j	1b000 <__eqtf2+0x56>

0001b056 <__getf2>:
   1b056:	00c52303          	lw	t1,12(a0)
   1b05a:	00c5a883          	lw	a7,12(a1)
   1b05e:	67a1                	lui	a5,0x8
   1b060:	17fd                	add	a5,a5,-1 # 7fff <register_fini-0x8095>
   1b062:	01035613          	srl	a2,t1,0x10
   1b066:	0108d713          	srl	a4,a7,0x10
   1b06a:	01031f13          	sll	t5,t1,0x10
   1b06e:	4194                	lw	a3,0(a1)
   1b070:	0045ae83          	lw	t4,4(a1)
   1b074:	0085ae03          	lw	t3,8(a1)
   1b078:	8e7d                	and	a2,a2,a5
   1b07a:	01089593          	sll	a1,a7,0x10
   1b07e:	00052283          	lw	t0,0(a0)
   1b082:	00452803          	lw	a6,4(a0)
   1b086:	00852f83          	lw	t6,8(a0)
   1b08a:	1141                	add	sp,sp,-16
   1b08c:	010f5f13          	srl	t5,t5,0x10
   1b090:	01f35313          	srl	t1,t1,0x1f
   1b094:	81c1                	srl	a1,a1,0x10
   1b096:	00f77533          	and	a0,a4,a5
   1b09a:	01f8d893          	srl	a7,a7,0x1f
   1b09e:	04f60c63          	beq	a2,a5,1b0f6 <__getf2+0xa0>
   1b0a2:	02f50663          	beq	a0,a5,1b0ce <__getf2+0x78>
   1b0a6:	e655                	bnez	a2,1b152 <__getf2+0xfc>
   1b0a8:	005867b3          	or	a5,a6,t0
   1b0ac:	01f7e7b3          	or	a5,a5,t6
   1b0b0:	01e7e7b3          	or	a5,a5,t5
   1b0b4:	e94d                	bnez	a0,1b166 <__getf2+0x110>
   1b0b6:	01d6e733          	or	a4,a3,t4
   1b0ba:	01c76733          	or	a4,a4,t3
   1b0be:	8f4d                	or	a4,a4,a1
   1b0c0:	ef39                	bnez	a4,1b11e <__getf2+0xc8>
   1b0c2:	c781                	beqz	a5,1b0ca <__getf2+0x74>
   1b0c4:	02031763          	bnez	t1,1b0f2 <__getf2+0x9c>
   1b0c8:	4505                	li	a0,1
   1b0ca:	0141                	add	sp,sp,16
   1b0cc:	8082                	ret
   1b0ce:	01d6e6b3          	or	a3,a3,t4
   1b0d2:	01c6e6b3          	or	a3,a3,t3
   1b0d6:	8ecd                	or	a3,a3,a1
   1b0d8:	e6c9                	bnez	a3,1b162 <__getf2+0x10c>
   1b0da:	ea2d                	bnez	a2,1b14c <__getf2+0xf6>
   1b0dc:	00586833          	or	a6,a6,t0
   1b0e0:	01f86833          	or	a6,a6,t6
   1b0e4:	01e86833          	or	a6,a6,t5
   1b0e8:	06081263          	bnez	a6,1b14c <__getf2+0xf6>
   1b0ec:	4505                	li	a0,1
   1b0ee:	fc089ee3          	bnez	a7,1b0ca <__getf2+0x74>
   1b0f2:	557d                	li	a0,-1
   1b0f4:	bfd9                	j	1b0ca <__getf2+0x74>
   1b0f6:	00586833          	or	a6,a6,t0
   1b0fa:	01f86833          	or	a6,a6,t6
   1b0fe:	01e86833          	or	a6,a6,t5
   1b102:	06081063          	bnez	a6,1b162 <__getf2+0x10c>
   1b106:	fac51fe3          	bne	a0,a2,1b0c4 <__getf2+0x6e>
   1b10a:	01d6e6b3          	or	a3,a3,t4
   1b10e:	01c6e6b3          	or	a3,a3,t3
   1b112:	8ecd                	or	a3,a3,a1
   1b114:	e6b9                	bnez	a3,1b162 <__getf2+0x10c>
   1b116:	fa6897e3          	bne	a7,t1,1b0c4 <__getf2+0x6e>
   1b11a:	4501                	li	a0,0
   1b11c:	b77d                	j	1b0ca <__getf2+0x74>
   1b11e:	d7f9                	beqz	a5,1b0ec <__getf2+0x96>
   1b120:	fa6892e3          	bne	a7,t1,1b0c4 <__getf2+0x6e>
   1b124:	fbe5e0e3          	bltu	a1,t5,1b0c4 <__getf2+0x6e>
   1b128:	00bf1e63          	bne	t5,a1,1b144 <__getf2+0xee>
   1b12c:	f9fe6ce3          	bltu	t3,t6,1b0c4 <__getf2+0x6e>
   1b130:	01cf9a63          	bne	t6,t3,1b144 <__getf2+0xee>
   1b134:	f90ee8e3          	bltu	t4,a6,1b0c4 <__getf2+0x6e>
   1b138:	01d81663          	bne	a6,t4,1b144 <__getf2+0xee>
   1b13c:	f856e4e3          	bltu	a3,t0,1b0c4 <__getf2+0x6e>
   1b140:	fcd2fde3          	bgeu	t0,a3,1b11a <__getf2+0xc4>
   1b144:	4505                	li	a0,1
   1b146:	f80312e3          	bnez	t1,1b0ca <__getf2+0x74>
   1b14a:	b765                	j	1b0f2 <__getf2+0x9c>
   1b14c:	f6689ce3          	bne	a7,t1,1b0c4 <__getf2+0x6e>
   1b150:	bfd5                	j	1b144 <__getf2+0xee>
   1b152:	d92d                	beqz	a0,1b0c4 <__getf2+0x6e>
   1b154:	f66898e3          	bne	a7,t1,1b0c4 <__getf2+0x6e>
   1b158:	f6c546e3          	blt	a0,a2,1b0c4 <__getf2+0x6e>
   1b15c:	fca654e3          	bge	a2,a0,1b124 <__getf2+0xce>
   1b160:	b7d5                	j	1b144 <__getf2+0xee>
   1b162:	5579                	li	a0,-2
   1b164:	b79d                	j	1b0ca <__getf2+0x74>
   1b166:	d3d9                	beqz	a5,1b0ec <__getf2+0x96>
   1b168:	f4689ee3          	bne	a7,t1,1b0c4 <__getf2+0x6e>
   1b16c:	faa65ce3          	bge	a2,a0,1b124 <__getf2+0xce>
   1b170:	bfd1                	j	1b144 <__getf2+0xee>

0001b172 <__letf2>:
   1b172:	00c52303          	lw	t1,12(a0)
   1b176:	00c5a883          	lw	a7,12(a1)
   1b17a:	67a1                	lui	a5,0x8
   1b17c:	17fd                	add	a5,a5,-1 # 7fff <register_fini-0x8095>
   1b17e:	01035693          	srl	a3,t1,0x10
   1b182:	0108d713          	srl	a4,a7,0x10
   1b186:	01031f13          	sll	t5,t1,0x10
   1b18a:	4190                	lw	a2,0(a1)
   1b18c:	0045ae83          	lw	t4,4(a1)
   1b190:	0085ae03          	lw	t3,8(a1)
   1b194:	8efd                	and	a3,a3,a5
   1b196:	01089593          	sll	a1,a7,0x10
   1b19a:	00052283          	lw	t0,0(a0)
   1b19e:	00452803          	lw	a6,4(a0)
   1b1a2:	00852f83          	lw	t6,8(a0)
   1b1a6:	1141                	add	sp,sp,-16
   1b1a8:	010f5f13          	srl	t5,t5,0x10
   1b1ac:	01f35313          	srl	t1,t1,0x1f
   1b1b0:	81c1                	srl	a1,a1,0x10
   1b1b2:	00f77533          	and	a0,a4,a5
   1b1b6:	01f8d893          	srl	a7,a7,0x1f
   1b1ba:	06f68263          	beq	a3,a5,1b21e <__letf2+0xac>
   1b1be:	02f50363          	beq	a0,a5,1b1e4 <__letf2+0x72>
   1b1c2:	e2d9                	bnez	a3,1b248 <__letf2+0xd6>
   1b1c4:	005867b3          	or	a5,a6,t0
   1b1c8:	01f7e7b3          	or	a5,a5,t6
   1b1cc:	01e7e7b3          	or	a5,a5,t5
   1b1d0:	e129                	bnez	a0,1b212 <__letf2+0xa0>
   1b1d2:	01d66733          	or	a4,a2,t4
   1b1d6:	01c76733          	or	a4,a4,t3
   1b1da:	8f4d                	or	a4,a4,a1
   1b1dc:	eb1d                	bnez	a4,1b212 <__letf2+0xa0>
   1b1de:	e78d                	bnez	a5,1b208 <__letf2+0x96>
   1b1e0:	0141                	add	sp,sp,16
   1b1e2:	8082                	ret
   1b1e4:	01d66633          	or	a2,a2,t4
   1b1e8:	01c66633          	or	a2,a2,t3
   1b1ec:	8e4d                	or	a2,a2,a1
   1b1ee:	4509                	li	a0,2
   1b1f0:	fa65                	bnez	a2,1b1e0 <__letf2+0x6e>
   1b1f2:	ea89                	bnez	a3,1b204 <__letf2+0x92>
   1b1f4:	00586833          	or	a6,a6,t0
   1b1f8:	01f86833          	or	a6,a6,t6
   1b1fc:	01e86833          	or	a6,a6,t5
   1b200:	00080a63          	beqz	a6,1b214 <__letf2+0xa2>
   1b204:	06688963          	beq	a7,t1,1b276 <__letf2+0x104>
   1b208:	00031963          	bnez	t1,1b21a <__letf2+0xa8>
   1b20c:	4505                	li	a0,1
   1b20e:	0141                	add	sp,sp,16
   1b210:	8082                	ret
   1b212:	ebad                	bnez	a5,1b284 <__letf2+0x112>
   1b214:	4505                	li	a0,1
   1b216:	fc0895e3          	bnez	a7,1b1e0 <__letf2+0x6e>
   1b21a:	557d                	li	a0,-1
   1b21c:	b7d1                	j	1b1e0 <__letf2+0x6e>
   1b21e:	00586833          	or	a6,a6,t0
   1b222:	01f86833          	or	a6,a6,t6
   1b226:	01e86833          	or	a6,a6,t5
   1b22a:	04081a63          	bnez	a6,1b27e <__letf2+0x10c>
   1b22e:	fcd51de3          	bne	a0,a3,1b208 <__letf2+0x96>
   1b232:	01d66633          	or	a2,a2,t4
   1b236:	01c66633          	or	a2,a2,t3
   1b23a:	8e4d                	or	a2,a2,a1
   1b23c:	4509                	li	a0,2
   1b23e:	f24d                	bnez	a2,1b1e0 <__letf2+0x6e>
   1b240:	fc6894e3          	bne	a7,t1,1b208 <__letf2+0x96>
   1b244:	4501                	li	a0,0
   1b246:	bf69                	j	1b1e0 <__letf2+0x6e>
   1b248:	d161                	beqz	a0,1b208 <__letf2+0x96>
   1b24a:	fa689fe3          	bne	a7,t1,1b208 <__letf2+0x96>
   1b24e:	fad54de3          	blt	a0,a3,1b208 <__letf2+0x96>
   1b252:	02a6c263          	blt	a3,a0,1b276 <__letf2+0x104>
   1b256:	fbe5e9e3          	bltu	a1,t5,1b208 <__letf2+0x96>
   1b25a:	00bf1e63          	bne	t5,a1,1b276 <__letf2+0x104>
   1b25e:	fbfe65e3          	bltu	t3,t6,1b208 <__letf2+0x96>
   1b262:	01cf9a63          	bne	t6,t3,1b276 <__letf2+0x104>
   1b266:	fb0ee1e3          	bltu	t4,a6,1b208 <__letf2+0x96>
   1b26a:	01d81663          	bne	a6,t4,1b276 <__letf2+0x104>
   1b26e:	f8566de3          	bltu	a2,t0,1b208 <__letf2+0x96>
   1b272:	fcc2f9e3          	bgeu	t0,a2,1b244 <__letf2+0xd2>
   1b276:	4505                	li	a0,1
   1b278:	f60314e3          	bnez	t1,1b1e0 <__letf2+0x6e>
   1b27c:	bf79                	j	1b21a <__letf2+0xa8>
   1b27e:	4509                	li	a0,2
   1b280:	0141                	add	sp,sp,16
   1b282:	8082                	ret
   1b284:	f86892e3          	bne	a7,t1,1b208 <__letf2+0x96>
   1b288:	b7e9                	j	1b252 <__letf2+0xe0>

0001b28a <__multf3>:
   1b28a:	00c5a803          	lw	a6,12(a1)
   1b28e:	7131                	add	sp,sp,-192
   1b290:	41d8                	lw	a4,4(a1)
   1b292:	0085a883          	lw	a7,8(a1)
   1b296:	db26                	sw	s1,180(sp)
   1b298:	4184                	lw	s1,0(a1)
   1b29a:	01081793          	sll	a5,a6,0x10
   1b29e:	65a1                	lui	a1,0x8
   1b2a0:	83c1                	srl	a5,a5,0x10
   1b2a2:	01085693          	srl	a3,a6,0x10
   1b2a6:	15fd                	add	a1,a1,-1 # 7fff <register_fini-0x8095>
   1b2a8:	dd22                	sw	s0,184(sp)
   1b2aa:	d94a                	sw	s2,176(sp)
   1b2ac:	d74e                	sw	s3,172(sp)
   1b2ae:	d552                	sw	s4,168(sp)
   1b2b0:	d356                	sw	s5,164(sp)
   1b2b2:	cf5e                	sw	s7,156(sp)
   1b2b4:	df06                	sw	ra,188(sp)
   1b2b6:	d15a                	sw	s6,160(sp)
   1b2b8:	cd62                	sw	s8,152(sp)
   1b2ba:	c76e                	sw	s11,140(sp)
   1b2bc:	d0a6                	sw	s1,96(sp)
   1b2be:	d2ba                	sw	a4,100(sp)
   1b2c0:	d4c6                	sw	a7,104(sp)
   1b2c2:	d6c2                	sw	a6,108(sp)
   1b2c4:	d826                	sw	s1,48(sp)
   1b2c6:	da3a                	sw	a4,52(sp)
   1b2c8:	dc46                	sw	a7,56(sp)
   1b2ca:	de3e                	sw	a5,60(sp)
   1b2cc:	8eed                	and	a3,a3,a1
   1b2ce:	00062a83          	lw	s5,0(a2)
   1b2d2:	00462983          	lw	s3,4(a2)
   1b2d6:	00862b83          	lw	s7,8(a2)
   1b2da:	00c62903          	lw	s2,12(a2)
   1b2de:	842a                	mv	s0,a0
   1b2e0:	01f85a13          	srl	s4,a6,0x1f
   1b2e4:	22068963          	beqz	a3,1b516 <__multf3+0x28c>
   1b2e8:	10b68263          	beq	a3,a1,1b3ec <__multf3+0x162>
   1b2ec:	6741                	lui	a4,0x10
   1b2ee:	8fd9                	or	a5,a5,a4
   1b2f0:	de3e                	sw	a5,60(sp)
   1b2f2:	1808                	add	a0,sp,48
   1b2f4:	1878                	add	a4,sp,60
   1b2f6:	00379593          	sll	a1,a5,0x3
   1b2fa:	ffc72783          	lw	a5,-4(a4) # fffc <register_fini-0x98>
   1b2fe:	1771                	add	a4,a4,-4
   1b300:	01d7d613          	srl	a2,a5,0x1d
   1b304:	8e4d                	or	a2,a2,a1
   1b306:	c350                	sw	a2,4(a4)
   1b308:	fee517e3          	bne	a0,a4,1b2f6 <__multf3+0x6c>
   1b30c:	77f1                	lui	a5,0xffffc
   1b30e:	048e                	sll	s1,s1,0x3
   1b310:	0785                	add	a5,a5,1 # ffffc001 <__BSS_END__+0xfffdd4dd>
   1b312:	d826                	sw	s1,48(sp)
   1b314:	00f68db3          	add	s11,a3,a5
   1b318:	4b01                	li	s6,0
   1b31a:	4c01                	li	s8,0
   1b31c:	01091513          	sll	a0,s2,0x10
   1b320:	66a1                	lui	a3,0x8
   1b322:	01095793          	srl	a5,s2,0x10
   1b326:	8141                	srl	a0,a0,0x10
   1b328:	fff68713          	add	a4,a3,-1 # 7fff <register_fini-0x8095>
   1b32c:	d6ca                	sw	s2,108(sp)
   1b32e:	d0d6                	sw	s5,96(sp)
   1b330:	d2ce                	sw	s3,100(sp)
   1b332:	d4de                	sw	s7,104(sp)
   1b334:	c0d6                	sw	s5,64(sp)
   1b336:	c2ce                	sw	s3,68(sp)
   1b338:	c4de                	sw	s7,72(sp)
   1b33a:	c6aa                	sw	a0,76(sp)
   1b33c:	8ff9                	and	a5,a5,a4
   1b33e:	01f95913          	srl	s2,s2,0x1f
   1b342:	12078263          	beqz	a5,1b466 <__multf3+0x1dc>
   1b346:	0ae78d63          	beq	a5,a4,1b400 <__multf3+0x176>
   1b34a:	6741                	lui	a4,0x10
   1b34c:	8d59                	or	a0,a0,a4
   1b34e:	c6aa                	sw	a0,76(sp)
   1b350:	008c                	add	a1,sp,64
   1b352:	00f8                	add	a4,sp,76
   1b354:	00351613          	sll	a2,a0,0x3
   1b358:	ffc72503          	lw	a0,-4(a4) # fffc <register_fini-0x98>
   1b35c:	1771                	add	a4,a4,-4
   1b35e:	01d55693          	srl	a3,a0,0x1d
   1b362:	8ed1                	or	a3,a3,a2
   1b364:	c354                	sw	a3,4(a4)
   1b366:	fee597e3          	bne	a1,a4,1b354 <__multf3+0xca>
   1b36a:	7771                	lui	a4,0xffffc
   1b36c:	0705                	add	a4,a4,1 # ffffc001 <__BSS_END__+0xfffdd4dd>
   1b36e:	0a8e                	sll	s5,s5,0x3
   1b370:	97ba                	add	a5,a5,a4
   1b372:	c0d6                	sw	s5,64(sp)
   1b374:	97ee                	add	a5,a5,s11
   1b376:	4601                	li	a2,0
   1b378:	00178693          	add	a3,a5,1
   1b37c:	4729                	li	a4,10
   1b37e:	c636                	sw	a3,12(sp)
   1b380:	19674963          	blt	a4,s6,1b512 <__multf3+0x288>
   1b384:	012a4733          	xor	a4,s4,s2
   1b388:	4689                	li	a3,2
   1b38a:	883a                	mv	a6,a4
   1b38c:	2366df63          	bge	a3,s6,1b5ca <__multf3+0x340>
   1b390:	4685                	li	a3,1
   1b392:	016696b3          	sll	a3,a3,s6
   1b396:	5306f593          	and	a1,a3,1328
   1b39a:	edc9                	bnez	a1,1b434 <__multf3+0x1aa>
   1b39c:	0886f593          	and	a1,a3,136
   1b3a0:	0c0591e3          	bnez	a1,1bc62 <__multf3+0x9d8>
   1b3a4:	2406f693          	and	a3,a3,576
   1b3a8:	24068e63          	beqz	a3,1b604 <__multf3+0x37a>
   1b3ac:	67a1                	lui	a5,0x8
   1b3ae:	4701                	li	a4,0
   1b3b0:	17fd                	add	a5,a5,-1 # 7fff <register_fini-0x8095>
   1b3b2:	66a1                	lui	a3,0x8
   1b3b4:	4601                	li	a2,0
   1b3b6:	4581                	li	a1,0
   1b3b8:	4501                	li	a0,0
   1b3ba:	073e                	sll	a4,a4,0xf
   1b3bc:	8fd9                	or	a5,a5,a4
   1b3be:	06d11623          	sh	a3,108(sp)
   1b3c2:	06f11723          	sh	a5,110(sp)
   1b3c6:	57b6                	lw	a5,108(sp)
   1b3c8:	c008                	sw	a0,0(s0)
   1b3ca:	50fa                	lw	ra,188(sp)
   1b3cc:	c04c                	sw	a1,4(s0)
   1b3ce:	c410                	sw	a2,8(s0)
   1b3d0:	c45c                	sw	a5,12(s0)
   1b3d2:	8522                	mv	a0,s0
   1b3d4:	546a                	lw	s0,184(sp)
   1b3d6:	54da                	lw	s1,180(sp)
   1b3d8:	594a                	lw	s2,176(sp)
   1b3da:	59ba                	lw	s3,172(sp)
   1b3dc:	5a2a                	lw	s4,168(sp)
   1b3de:	5a9a                	lw	s5,164(sp)
   1b3e0:	5b0a                	lw	s6,160(sp)
   1b3e2:	4bfa                	lw	s7,156(sp)
   1b3e4:	4c6a                	lw	s8,152(sp)
   1b3e6:	4dba                	lw	s11,140(sp)
   1b3e8:	6129                	add	sp,sp,192
   1b3ea:	8082                	ret
   1b3ec:	8f45                	or	a4,a4,s1
   1b3ee:	01176733          	or	a4,a4,a7
   1b3f2:	8f5d                	or	a4,a4,a5
   1b3f4:	20071063          	bnez	a4,1b5f4 <__multf3+0x36a>
   1b3f8:	4b21                	li	s6,8
   1b3fa:	8db6                	mv	s11,a3
   1b3fc:	4c09                	li	s8,2
   1b3fe:	bf39                	j	1b31c <__multf3+0x92>
   1b400:	013ae9b3          	or	s3,s5,s3
   1b404:	0179e9b3          	or	s3,s3,s7
   1b408:	00a9e9b3          	or	s3,s3,a0
   1b40c:	97ee                	add	a5,a5,s11
   1b40e:	1e098763          	beqz	s3,1b5fc <__multf3+0x372>
   1b412:	96ee                	add	a3,a3,s11
   1b414:	012a4733          	xor	a4,s4,s2
   1b418:	003b6b13          	or	s6,s6,3
   1b41c:	4629                	li	a2,10
   1b41e:	c636                	sw	a3,12(sp)
   1b420:	883a                	mv	a6,a4
   1b422:	03664ce3          	blt	a2,s6,1bc5a <__multf3+0x9d0>
   1b426:	4685                	li	a3,1
   1b428:	016696b3          	sll	a3,a3,s6
   1b42c:	5306f593          	and	a1,a3,1328
   1b430:	460d                	li	a2,3
   1b432:	d5ad                	beqz	a1,1b39c <__multf3+0x112>
   1b434:	5752                	lw	a4,52(sp)
   1b436:	57f2                	lw	a5,60(sp)
   1b438:	8662                	mv	a2,s8
   1b43a:	caba                	sw	a4,84(sp)
   1b43c:	5742                	lw	a4,48(sp)
   1b43e:	c8ba                	sw	a4,80(sp)
   1b440:	5762                	lw	a4,56(sp)
   1b442:	ccba                	sw	a4,88(sp)
   1b444:	cebe                	sw	a5,92(sp)
   1b446:	4789                	li	a5,2
   1b448:	16f60963          	beq	a2,a5,1b5ba <__multf3+0x330>
   1b44c:	478d                	li	a5,3
   1b44e:	f4f60fe3          	beq	a2,a5,1b3ac <__multf3+0x122>
   1b452:	4785                	li	a5,1
   1b454:	8742                	mv	a4,a6
   1b456:	76f61663          	bne	a2,a5,1bbc2 <__multf3+0x938>
   1b45a:	4781                	li	a5,0
   1b45c:	4681                	li	a3,0
   1b45e:	4601                	li	a2,0
   1b460:	4581                	li	a1,0
   1b462:	4501                	li	a0,0
   1b464:	bf99                	j	1b3ba <__multf3+0x130>
   1b466:	013ae7b3          	or	a5,s5,s3
   1b46a:	0177e7b3          	or	a5,a5,s7
   1b46e:	8fc9                	or	a5,a5,a0
   1b470:	16078d63          	beqz	a5,1b5ea <__multf3+0x360>
   1b474:	140505e3          	beqz	a0,1bdbe <__multf3+0xb34>
   1b478:	7c5010ef          	jal	1d43c <__clzsi2>
   1b47c:	ff450813          	add	a6,a0,-12
   1b480:	02000313          	li	t1,32
   1b484:	41030333          	sub	t1,t1,a6
   1b488:	4601                	li	a2,0
   1b48a:	010a9ab3          	sll	s5,s5,a6
   1b48e:	40c008b3          	neg	a7,a2
   1b492:	088a                	sll	a7,a7,0x2
   1b494:	0094                	add	a3,sp,64
   1b496:	01168733          	add	a4,a3,a7
   1b49a:	458d                	li	a1,3
   1b49c:	411008b3          	neg	a7,a7
   1b4a0:	475c                	lw	a5,12(a4)
   1b4a2:	00872e03          	lw	t3,8(a4)
   1b4a6:	01170eb3          	add	t4,a4,a7
   1b4aa:	010797b3          	sll	a5,a5,a6
   1b4ae:	006e5e33          	srl	t3,t3,t1
   1b4b2:	01c7e7b3          	or	a5,a5,t3
   1b4b6:	00fea623          	sw	a5,12(t4)
   1b4ba:	15fd                	add	a1,a1,-1
   1b4bc:	1771                	add	a4,a4,-4
   1b4be:	feb641e3          	blt	a2,a1,1b4a0 <__multf3+0x216>
   1b4c2:	00261713          	sll	a4,a2,0x2
   1b4c6:	05070793          	add	a5,a4,80
   1b4ca:	1818                	add	a4,sp,48
   1b4cc:	973e                	add	a4,a4,a5
   1b4ce:	fd572023          	sw	s5,-64(a4)
   1b4d2:	fff60793          	add	a5,a2,-1
   1b4d6:	577d                	li	a4,-1
   1b4d8:	02e78263          	beq	a5,a4,1b4fc <__multf3+0x272>
   1b4dc:	0785                	add	a5,a5,1
   1b4de:	078a                	sll	a5,a5,0x2
   1b4e0:	4621                	li	a2,8
   1b4e2:	8736                	mv	a4,a3
   1b4e4:	00c7e763          	bltu	a5,a2,1b4f2 <__multf3+0x268>
   1b4e8:	c082                	sw	zero,64(sp)
   1b4ea:	0006a223          	sw	zero,4(a3) # 8004 <register_fini-0x8090>
   1b4ee:	17e1                	add	a5,a5,-8
   1b4f0:	00b8                	add	a4,sp,72
   1b4f2:	4691                	li	a3,4
   1b4f4:	00d7e463          	bltu	a5,a3,1b4fc <__multf3+0x272>
   1b4f8:	00072023          	sw	zero,0(a4)
   1b4fc:	77f1                	lui	a5,0xffffc
   1b4fe:	07c5                	add	a5,a5,17 # ffffc011 <__BSS_END__+0xfffdd4ed>
   1b500:	8f89                	sub	a5,a5,a0
   1b502:	97ee                	add	a5,a5,s11
   1b504:	00178693          	add	a3,a5,1
   1b508:	4729                	li	a4,10
   1b50a:	c636                	sw	a3,12(sp)
   1b50c:	4601                	li	a2,0
   1b50e:	e7675be3          	bge	a4,s6,1b384 <__multf3+0xfa>
   1b512:	8852                	mv	a6,s4
   1b514:	b705                	j	1b434 <__multf3+0x1aa>
   1b516:	00e4e6b3          	or	a3,s1,a4
   1b51a:	0116e6b3          	or	a3,a3,a7
   1b51e:	8edd                	or	a3,a3,a5
   1b520:	c2e9                	beqz	a3,1b5e2 <__multf3+0x358>
   1b522:	040786e3          	beqz	a5,1bd6e <__multf3+0xae4>
   1b526:	853e                	mv	a0,a5
   1b528:	715010ef          	jal	1d43c <__clzsi2>
   1b52c:	ff450813          	add	a6,a0,-12
   1b530:	02000313          	li	t1,32
   1b534:	41030333          	sub	t1,t1,a6
   1b538:	4601                	li	a2,0
   1b53a:	010494b3          	sll	s1,s1,a6
   1b53e:	40c008b3          	neg	a7,a2
   1b542:	088a                	sll	a7,a7,0x2
   1b544:	1814                	add	a3,sp,48
   1b546:	01168733          	add	a4,a3,a7
   1b54a:	458d                	li	a1,3
   1b54c:	411008b3          	neg	a7,a7
   1b550:	475c                	lw	a5,12(a4)
   1b552:	00872e03          	lw	t3,8(a4)
   1b556:	01170eb3          	add	t4,a4,a7
   1b55a:	010797b3          	sll	a5,a5,a6
   1b55e:	006e5e33          	srl	t3,t3,t1
   1b562:	01c7e7b3          	or	a5,a5,t3
   1b566:	00fea623          	sw	a5,12(t4)
   1b56a:	15fd                	add	a1,a1,-1
   1b56c:	1771                	add	a4,a4,-4
   1b56e:	feb641e3          	blt	a2,a1,1b550 <__multf3+0x2c6>
   1b572:	00261713          	sll	a4,a2,0x2
   1b576:	05070793          	add	a5,a4,80
   1b57a:	1818                	add	a4,sp,48
   1b57c:	973e                	add	a4,a4,a5
   1b57e:	fa972823          	sw	s1,-80(a4)
   1b582:	fff60793          	add	a5,a2,-1
   1b586:	577d                	li	a4,-1
   1b588:	02e78263          	beq	a5,a4,1b5ac <__multf3+0x322>
   1b58c:	0785                	add	a5,a5,1
   1b58e:	078a                	sll	a5,a5,0x2
   1b590:	4621                	li	a2,8
   1b592:	8736                	mv	a4,a3
   1b594:	00c7e763          	bltu	a5,a2,1b5a2 <__multf3+0x318>
   1b598:	d802                	sw	zero,48(sp)
   1b59a:	0006a223          	sw	zero,4(a3)
   1b59e:	17e1                	add	a5,a5,-8
   1b5a0:	1838                	add	a4,sp,56
   1b5a2:	4691                	li	a3,4
   1b5a4:	00d7e463          	bltu	a5,a3,1b5ac <__multf3+0x322>
   1b5a8:	00072023          	sw	zero,0(a4)
   1b5ac:	76f1                	lui	a3,0xffffc
   1b5ae:	06c5                	add	a3,a3,17 # ffffc011 <__BSS_END__+0xfffdd4ed>
   1b5b0:	40a68db3          	sub	s11,a3,a0
   1b5b4:	4b01                	li	s6,0
   1b5b6:	4c01                	li	s8,0
   1b5b8:	b395                	j	1b31c <__multf3+0x92>
   1b5ba:	67a1                	lui	a5,0x8
   1b5bc:	8742                	mv	a4,a6
   1b5be:	17fd                	add	a5,a5,-1 # 7fff <register_fini-0x8095>
   1b5c0:	4681                	li	a3,0
   1b5c2:	4601                	li	a2,0
   1b5c4:	4581                	li	a1,0
   1b5c6:	4501                	li	a0,0
   1b5c8:	bbcd                	j	1b3ba <__multf3+0x130>
   1b5ca:	1b7d                	add	s6,s6,-1
   1b5cc:	4685                	li	a3,1
   1b5ce:	0366eb63          	bltu	a3,s6,1b604 <__multf3+0x37a>
   1b5d2:	4716                	lw	a4,68(sp)
   1b5d4:	47b6                	lw	a5,76(sp)
   1b5d6:	caba                	sw	a4,84(sp)
   1b5d8:	4706                	lw	a4,64(sp)
   1b5da:	c8ba                	sw	a4,80(sp)
   1b5dc:	4726                	lw	a4,72(sp)
   1b5de:	ccba                	sw	a4,88(sp)
   1b5e0:	b595                	j	1b444 <__multf3+0x1ba>
   1b5e2:	4b11                	li	s6,4
   1b5e4:	4d81                	li	s11,0
   1b5e6:	4c05                	li	s8,1
   1b5e8:	bb15                	j	1b31c <__multf3+0x92>
   1b5ea:	001b6b13          	or	s6,s6,1
   1b5ee:	87ee                	mv	a5,s11
   1b5f0:	4605                	li	a2,1
   1b5f2:	b359                	j	1b378 <__multf3+0xee>
   1b5f4:	4b31                	li	s6,12
   1b5f6:	8db6                	mv	s11,a3
   1b5f8:	4c0d                	li	s8,3
   1b5fa:	b30d                	j	1b31c <__multf3+0x92>
   1b5fc:	002b6b13          	or	s6,s6,2
   1b600:	4609                	li	a2,2
   1b602:	bb9d                	j	1b378 <__multf3+0xee>
   1b604:	5342                	lw	t1,48(sp)
   1b606:	4f86                	lw	t6,64(sp)
   1b608:	6841                	lui	a6,0x10
   1b60a:	fff80693          	add	a3,a6,-1 # ffff <register_fini-0x95>
   1b60e:	01035913          	srl	s2,t1,0x10
   1b612:	010fd493          	srl	s1,t6,0x10
   1b616:	00d37333          	and	t1,t1,a3
   1b61a:	00dfffb3          	and	t6,t6,a3
   1b61e:	026f86b3          	mul	a3,t6,t1
   1b622:	cb66                	sw	s9,148(sp)
   1b624:	c96a                	sw	s10,144(sp)
   1b626:	03f90533          	mul	a0,s2,t6
   1b62a:	0106de93          	srl	t4,a3,0x10
   1b62e:	02648633          	mul	a2,s1,t1
   1b632:	962a                	add	a2,a2,a0
   1b634:	9eb2                	add	t4,t4,a2
   1b636:	029905b3          	mul	a1,s2,s1
   1b63a:	00aef363          	bgeu	t4,a0,1b640 <__multf3+0x3b6>
   1b63e:	95c2                	add	a1,a1,a6
   1b640:	68c1                	lui	a7,0x10
   1b642:	fff88813          	add	a6,a7,-1 # ffff <register_fini-0x95>
   1b646:	4f16                	lw	t5,68(sp)
   1b648:	010ef533          	and	a0,t4,a6
   1b64c:	0542                	sll	a0,a0,0x10
   1b64e:	0106f6b3          	and	a3,a3,a6
   1b652:	010f5e13          	srl	t3,t5,0x10
   1b656:	96aa                	add	a3,a3,a0
   1b658:	010f7f33          	and	t5,t5,a6
   1b65c:	026f0633          	mul	a2,t5,t1
   1b660:	ce36                	sw	a3,28(sp)
   1b662:	d0b6                	sw	a3,96(sp)
   1b664:	c872                	sw	t3,16(sp)
   1b666:	010ede93          	srl	t4,t4,0x10
   1b66a:	03e90533          	mul	a0,s2,t5
   1b66e:	01065293          	srl	t0,a2,0x10
   1b672:	026e06b3          	mul	a3,t3,t1
   1b676:	96aa                	add	a3,a3,a0
   1b678:	92b6                	add	t0,t0,a3
   1b67a:	03c90b33          	mul	s6,s2,t3
   1b67e:	00a2f363          	bgeu	t0,a0,1b684 <__multf3+0x3fa>
   1b682:	9b46                	add	s6,s6,a7
   1b684:	58d2                	lw	a7,52(sp)
   1b686:	6841                	lui	a6,0x10
   1b688:	fff80513          	add	a0,a6,-1 # ffff <register_fini-0x95>
   1b68c:	0108d393          	srl	t2,a7,0x10
   1b690:	00a8f8b3          	and	a7,a7,a0
   1b694:	00a2f9b3          	and	s3,t0,a0
   1b698:	8e69                	and	a2,a2,a0
   1b69a:	03f886b3          	mul	a3,a7,t6
   1b69e:	09c2                	sll	s3,s3,0x10
   1b6a0:	99b2                	add	s3,s3,a2
   1b6a2:	0102d293          	srl	t0,t0,0x10
   1b6a6:	9ece                	add	t4,t4,s3
   1b6a8:	03f38e33          	mul	t3,t2,t6
   1b6ac:	0106d613          	srl	a2,a3,0x10
   1b6b0:	03148533          	mul	a0,s1,a7
   1b6b4:	9572                	add	a0,a0,t3
   1b6b6:	962a                	add	a2,a2,a0
   1b6b8:	02748533          	mul	a0,s1,t2
   1b6bc:	01c67363          	bgeu	a2,t3,1b6c2 <__multf3+0x438>
   1b6c0:	9542                	add	a0,a0,a6
   1b6c2:	4bc2                	lw	s7,16(sp)
   1b6c4:	6e41                	lui	t3,0x10
   1b6c6:	fffe0813          	add	a6,t3,-1 # ffff <register_fini-0x95>
   1b6ca:	01067a33          	and	s4,a2,a6
   1b6ce:	8241                	srl	a2,a2,0x10
   1b6d0:	0106f6b3          	and	a3,a3,a6
   1b6d4:	962a                	add	a2,a2,a0
   1b6d6:	031b8ab3          	mul	s5,s7,a7
   1b6da:	0a42                	sll	s4,s4,0x10
   1b6dc:	9a36                	add	s4,s4,a3
   1b6de:	031f0533          	mul	a0,t5,a7
   1b6e2:	03e38833          	mul	a6,t2,t5
   1b6e6:	01055693          	srl	a3,a0,0x10
   1b6ea:	9ac2                	add	s5,s5,a6
   1b6ec:	96d6                	add	a3,a3,s5
   1b6ee:	027b8bb3          	mul	s7,s7,t2
   1b6f2:	0106f363          	bgeu	a3,a6,1b6f8 <__multf3+0x46e>
   1b6f6:	9bf2                	add	s7,s7,t3
   1b6f8:	6841                	lui	a6,0x10
   1b6fa:	4e26                	lw	t3,72(sp)
   1b6fc:	fff80c13          	add	s8,a6,-1 # ffff <register_fini-0x95>
   1b700:	0186fab3          	and	s5,a3,s8
   1b704:	82c1                	srl	a3,a3,0x10
   1b706:	96de                	add	a3,a3,s7
   1b708:	0ac2                	sll	s5,s5,0x10
   1b70a:	01857533          	and	a0,a0,s8
   1b70e:	010e5d13          	srl	s10,t3,0x10
   1b712:	018e7cb3          	and	s9,t3,s8
   1b716:	d036                	sw	a3,32(sp)
   1b718:	00aa86b3          	add	a3,s5,a0
   1b71c:	026c8e33          	mul	t3,s9,t1
   1b720:	d236                	sw	a3,36(sp)
   1b722:	026d0ab3          	mul	s5,s10,t1
   1b726:	010e5513          	srl	a0,t3,0x10
   1b72a:	039906b3          	mul	a3,s2,s9
   1b72e:	9ab6                	add	s5,s5,a3
   1b730:	9556                	add	a0,a0,s5
   1b732:	03a90bb3          	mul	s7,s2,s10
   1b736:	00d57363          	bgeu	a0,a3,1b73c <__multf3+0x4b2>
   1b73a:	9bc2                	add	s7,s7,a6
   1b73c:	5862                	lw	a6,56(sp)
   1b73e:	66c1                	lui	a3,0x10
   1b740:	fff68c13          	add	s8,a3,-1 # ffff <register_fini-0x95>
   1b744:	01085d93          	srl	s11,a6,0x10
   1b748:	01887833          	and	a6,a6,s8
   1b74c:	018576b3          	and	a3,a0,s8
   1b750:	8141                	srl	a0,a0,0x10
   1b752:	03f80ab3          	mul	s5,a6,t6
   1b756:	9baa                	add	s7,s7,a0
   1b758:	018e7e33          	and	t3,t3,s8
   1b75c:	06c2                	sll	a3,a3,0x10
   1b75e:	d45e                	sw	s7,40(sp)
   1b760:	96f2                	add	a3,a3,t3
   1b762:	03fd8bb3          	mul	s7,s11,t6
   1b766:	010ade13          	srl	t3,s5,0x10
   1b76a:	d656                	sw	s5,44(sp)
   1b76c:	03048c33          	mul	s8,s1,a6
   1b770:	03b48ab3          	mul	s5,s1,s11
   1b774:	9c5e                	add	s8,s8,s7
   1b776:	9e62                	add	t3,t3,s8
   1b778:	ca56                	sw	s5,20(sp)
   1b77a:	017e7563          	bgeu	t3,s7,1b784 <__multf3+0x4fa>
   1b77e:	6541                	lui	a0,0x10
   1b780:	9556                	add	a0,a0,s5
   1b782:	ca2a                	sw	a0,20(sp)
   1b784:	95f6                	add	a1,a1,t4
   1b786:	0135b9b3          	sltu	s3,a1,s3
   1b78a:	92ce                	add	t0,t0,s3
   1b78c:	92da                	add	t0,t0,s6
   1b78e:	01458b33          	add	s6,a1,s4
   1b792:	9616                	add	a2,a2,t0
   1b794:	00bb35b3          	sltu	a1,s6,a1
   1b798:	95b2                	add	a1,a1,a2
   1b79a:	4eb6                	lw	t4,76(sp)
   1b79c:	00563bb3          	sltu	s7,a2,t0
   1b7a0:	6ac1                	lui	s5,0x10
   1b7a2:	00c5b633          	sltu	a2,a1,a2
   1b7a6:	1afd                	add	s5,s5,-1 # ffff <register_fini-0x95>
   1b7a8:	0132b9b3          	sltu	s3,t0,s3
   1b7ac:	5532                	lw	a0,44(sp)
   1b7ae:	00cbe633          	or	a2,s7,a2
   1b7b2:	5292                	lw	t0,36(sp)
   1b7b4:	010eda13          	srl	s4,t4,0x10
   1b7b8:	964e                	add	a2,a2,s3
   1b7ba:	015efeb3          	and	t4,t4,s5
   1b7be:	5982                	lw	s3,32(sp)
   1b7c0:	015e7bb3          	and	s7,t3,s5
   1b7c4:	03d90c33          	mul	s8,s2,t4
   1b7c8:	cc5a                	sw	s6,24(sp)
   1b7ca:	92ae                	add	t0,t0,a1
   1b7cc:	0bc2                	sll	s7,s7,0x10
   1b7ce:	01557ab3          	and	s5,a0,s5
   1b7d2:	5522                	lw	a0,40(sp)
   1b7d4:	99b2                	add	s3,s3,a2
   1b7d6:	00b2b5b3          	sltu	a1,t0,a1
   1b7da:	9ade                	add	s5,s5,s7
   1b7dc:	4bd2                	lw	s7,20(sp)
   1b7de:	026e8b33          	mul	s6,t4,t1
   1b7e2:	95ce                	add	a1,a1,s3
   1b7e4:	9696                	add	a3,a3,t0
   1b7e6:	952e                	add	a0,a0,a1
   1b7e8:	0056b2b3          	sltu	t0,a3,t0
   1b7ec:	010e5e13          	srl	t3,t3,0x10
   1b7f0:	92aa                	add	t0,t0,a0
   1b7f2:	9ab6                	add	s5,s5,a3
   1b7f4:	9e5e                	add	t3,t3,s7
   1b7f6:	9e16                	add	t3,t3,t0
   1b7f8:	026a0333          	mul	t1,s4,t1
   1b7fc:	00c9b633          	sltu	a2,s3,a2
   1b800:	00dab6b3          	sltu	a3,s5,a3
   1b804:	0135b9b3          	sltu	s3,a1,s3
   1b808:	00b535b3          	sltu	a1,a0,a1
   1b80c:	00a2b533          	sltu	a0,t0,a0
   1b810:	8d4d                	or	a0,a0,a1
   1b812:	96f2                	add	a3,a3,t3
   1b814:	45e2                	lw	a1,24(sp)
   1b816:	013669b3          	or	s3,a2,s3
   1b81a:	005e32b3          	sltu	t0,t3,t0
   1b81e:	01c6be33          	sltu	t3,a3,t3
   1b822:	99aa                	add	s3,s3,a0
   1b824:	01c2e2b3          	or	t0,t0,t3
   1b828:	9362                	add	t1,t1,s8
   1b82a:	010b5613          	srl	a2,s6,0x10
   1b82e:	d2ae                	sw	a1,100(sp)
   1b830:	013285b3          	add	a1,t0,s3
   1b834:	d056                	sw	s5,32(sp)
   1b836:	d4d6                	sw	s5,104(sp)
   1b838:	961a                	add	a2,a2,t1
   1b83a:	ca2e                	sw	a1,20(sp)
   1b83c:	03490933          	mul	s2,s2,s4
   1b840:	01867463          	bgeu	a2,s8,1b848 <__multf3+0x5be>
   1b844:	6ac1                	lui	s5,0x10
   1b846:	9956                	add	s2,s2,s5
   1b848:	52f2                	lw	t0,60(sp)
   1b84a:	6541                	lui	a0,0x10
   1b84c:	fff50313          	add	t1,a0,-1 # ffff <register_fini-0x95>
   1b850:	0102d993          	srl	s3,t0,0x10
   1b854:	00667ab3          	and	s5,a2,t1
   1b858:	0062f2b3          	and	t0,t0,t1
   1b85c:	8241                	srl	a2,a2,0x10
   1b85e:	03f285b3          	mul	a1,t0,t6
   1b862:	9932                	add	s2,s2,a2
   1b864:	006b7b33          	and	s6,s6,t1
   1b868:	0ac2                	sll	s5,s5,0x10
   1b86a:	9ada                	add	s5,s5,s6
   1b86c:	02548633          	mul	a2,s1,t0
   1b870:	0105d313          	srl	t1,a1,0x10
   1b874:	03f98fb3          	mul	t6,s3,t6
   1b878:	967e                	add	a2,a2,t6
   1b87a:	9332                	add	t1,t1,a2
   1b87c:	033484b3          	mul	s1,s1,s3
   1b880:	01f37363          	bgeu	t1,t6,1b886 <__multf3+0x5fc>
   1b884:	94aa                	add	s1,s1,a0
   1b886:	6641                	lui	a2,0x10
   1b888:	fff60513          	add	a0,a2,-1 # ffff <register_fini-0x95>
   1b88c:	00a37e33          	and	t3,t1,a0
   1b890:	01035313          	srl	t1,t1,0x10
   1b894:	8d6d                	and	a0,a0,a1
   1b896:	9326                	add	t1,t1,s1
   1b898:	0e42                	sll	t3,t3,0x10
   1b89a:	039885b3          	mul	a1,a7,s9
   1b89e:	9e2a                	add	t3,t3,a0
   1b8a0:	03938fb3          	mul	t6,t2,s9
   1b8a4:	0105d513          	srl	a0,a1,0x10
   1b8a8:	031d04b3          	mul	s1,s10,a7
   1b8ac:	94fe                	add	s1,s1,t6
   1b8ae:	9526                	add	a0,a0,s1
   1b8b0:	03a38b33          	mul	s6,t2,s10
   1b8b4:	01f57363          	bgeu	a0,t6,1b8ba <__multf3+0x630>
   1b8b8:	9b32                	add	s6,s6,a2
   1b8ba:	4c42                	lw	s8,16(sp)
   1b8bc:	64c1                	lui	s1,0x10
   1b8be:	fff48f93          	add	t6,s1,-1 # ffff <register_fini-0x95>
   1b8c2:	01f57633          	and	a2,a0,t6
   1b8c6:	8141                	srl	a0,a0,0x10
   1b8c8:	01f5f5b3          	and	a1,a1,t6
   1b8cc:	955a                	add	a0,a0,s6
   1b8ce:	03ed8fb3          	mul	t6,s11,t5
   1b8d2:	0642                	sll	a2,a2,0x10
   1b8d4:	962e                	add	a2,a2,a1
   1b8d6:	030f0b33          	mul	s6,t5,a6
   1b8da:	030c0bb3          	mul	s7,s8,a6
   1b8de:	010b5593          	srl	a1,s6,0x10
   1b8e2:	9bfe                	add	s7,s7,t6
   1b8e4:	95de                	add	a1,a1,s7
   1b8e6:	03bc0bb3          	mul	s7,s8,s11
   1b8ea:	01f5f363          	bgeu	a1,t6,1b8f0 <__multf3+0x666>
   1b8ee:	9ba6                	add	s7,s7,s1
   1b8f0:	44d2                	lw	s1,20(sp)
   1b8f2:	01568fb3          	add	t6,a3,s5
   1b8f6:	00dfb6b3          	sltu	a3,t6,a3
   1b8fa:	94ca                	add	s1,s1,s2
   1b8fc:	00d48933          	add	s2,s1,a3
   1b900:	66c1                	lui	a3,0x10
   1b902:	16fd                	add	a3,a3,-1 # ffff <register_fini-0x95>
   1b904:	00d5fab3          	and	s5,a1,a3
   1b908:	0ac2                	sll	s5,s5,0x10
   1b90a:	00db76b3          	and	a3,s6,a3
   1b90e:	96d6                	add	a3,a3,s5
   1b910:	4ad2                	lw	s5,20(sp)
   1b912:	81c1                	srl	a1,a1,0x10
   1b914:	95de                	add	a1,a1,s7
   1b916:	030c8c33          	mul	s8,s9,a6
   1b91a:	0154bbb3          	sltu	s7,s1,s5
   1b91e:	9e7e                	add	t3,t3,t6
   1b920:	934a                	add	t1,t1,s2
   1b922:	01fe3fb3          	sltu	t6,t3,t6
   1b926:	9f9a                	add	t6,t6,t1
   1b928:	9672                	add	a2,a2,t3
   1b92a:	957e                	add	a0,a0,t6
   1b92c:	01c63e33          	sltu	t3,a2,t3
   1b930:	9e2a                	add	t3,t3,a0
   1b932:	039d8b33          	mul	s6,s11,s9
   1b936:	96b2                	add	a3,a3,a2
   1b938:	95f2                	add	a1,a1,t3
   1b93a:	009934b3          	sltu	s1,s2,s1
   1b93e:	00c6b633          	sltu	a2,a3,a2
   1b942:	01233933          	sltu	s2,t1,s2
   1b946:	006fb333          	sltu	t1,t6,t1
   1b94a:	009bebb3          	or	s7,s7,s1
   1b94e:	01f53fb3          	sltu	t6,a0,t6
   1b952:	00696333          	or	t1,s2,t1
   1b956:	030d0ab3          	mul	s5,s10,a6
   1b95a:	00ae3533          	sltu	a0,t3,a0
   1b95e:	962e                	add	a2,a2,a1
   1b960:	01c5be33          	sltu	t3,a1,t3
   1b964:	935e                	add	t1,t1,s7
   1b966:	00afe533          	or	a0,t6,a0
   1b96a:	00b635b3          	sltu	a1,a2,a1
   1b96e:	010c5f93          	srl	t6,s8,0x10
   1b972:	951a                	add	a0,a0,t1
   1b974:	00be65b3          	or	a1,t3,a1
   1b978:	9ada                	add	s5,s5,s6
   1b97a:	d6b6                	sw	a3,108(sp)
   1b97c:	9afe                	add	s5,s5,t6
   1b97e:	03bd0e33          	mul	t3,s10,s11
   1b982:	8336                	mv	t1,a3
   1b984:	95aa                	add	a1,a1,a0
   1b986:	016af463          	bgeu	s5,s6,1b98e <__multf3+0x704>
   1b98a:	6541                	lui	a0,0x10
   1b98c:	9e2a                	add	t3,t3,a0
   1b98e:	64c1                	lui	s1,0x10
   1b990:	fff48513          	add	a0,s1,-1 # ffff <register_fini-0x95>
   1b994:	00aaffb3          	and	t6,s5,a0
   1b998:	0fc2                	sll	t6,t6,0x10
   1b99a:	00ac7533          	and	a0,s8,a0
   1b99e:	031e8933          	mul	s2,t4,a7
   1b9a2:	957e                	add	a0,a0,t6
   1b9a4:	010ada93          	srl	s5,s5,0x10
   1b9a8:	9af2                	add	s5,s5,t3
   1b9aa:	03d38fb3          	mul	t6,t2,t4
   1b9ae:	01095e13          	srl	t3,s2,0x10
   1b9b2:	031a08b3          	mul	a7,s4,a7
   1b9b6:	98fe                	add	a7,a7,t6
   1b9b8:	9e46                	add	t3,t3,a7
   1b9ba:	034383b3          	mul	t2,t2,s4
   1b9be:	01fe7363          	bgeu	t3,t6,1b9c4 <__multf3+0x73a>
   1b9c2:	93a6                	add	t2,t2,s1
   1b9c4:	4b42                	lw	s6,16(sp)
   1b9c6:	6fc1                	lui	t6,0x10
   1b9c8:	ffff8893          	add	a7,t6,-1 # ffff <register_fini-0x95>
   1b9cc:	011e74b3          	and	s1,t3,a7
   1b9d0:	010e5e13          	srl	t3,t3,0x10
   1b9d4:	011978b3          	and	a7,s2,a7
   1b9d8:	9e1e                	add	t3,t3,t2
   1b9da:	025b0933          	mul	s2,s6,t0
   1b9de:	04c2                	sll	s1,s1,0x10
   1b9e0:	94c6                	add	s1,s1,a7
   1b9e2:	03e283b3          	mul	t2,t0,t5
   1b9e6:	03e98f33          	mul	t5,s3,t5
   1b9ea:	0103d893          	srl	a7,t2,0x10
   1b9ee:	997a                	add	s2,s2,t5
   1b9f0:	98ca                	add	a7,a7,s2
   1b9f2:	033b0933          	mul	s2,s6,s3
   1b9f6:	01e8f363          	bgeu	a7,t5,1b9fc <__multf3+0x772>
   1b9fa:	997e                	add	s2,s2,t6
   1b9fc:	6b41                	lui	s6,0x10
   1b9fe:	fffb0f13          	add	t5,s6,-1 # ffff <register_fini-0x95>
   1ba02:	01e8ffb3          	and	t6,a7,t5
   1ba06:	0108d893          	srl	a7,a7,0x10
   1ba0a:	01e3ff33          	and	t5,t2,t5
   1ba0e:	98ca                	add	a7,a7,s2
   1ba10:	0fc2                	sll	t6,t6,0x10
   1ba12:	030e83b3          	mul	t2,t4,a6
   1ba16:	9f7e                	add	t5,t5,t6
   1ba18:	03dd8933          	mul	s2,s11,t4
   1ba1c:	0103df93          	srl	t6,t2,0x10
   1ba20:	030a0833          	mul	a6,s4,a6
   1ba24:	984a                	add	a6,a6,s2
   1ba26:	9fc2                	add	t6,t6,a6
   1ba28:	034d8bb3          	mul	s7,s11,s4
   1ba2c:	012ff363          	bgeu	t6,s2,1ba32 <__multf3+0x7a8>
   1ba30:	9bda                	add	s7,s7,s6
   1ba32:	6b41                	lui	s6,0x10
   1ba34:	fffb0813          	add	a6,s6,-1 # ffff <register_fini-0x95>
   1ba38:	010ff933          	and	s2,t6,a6
   1ba3c:	010fdf93          	srl	t6,t6,0x10
   1ba40:	0103f833          	and	a6,t2,a6
   1ba44:	9fde                	add	t6,t6,s7
   1ba46:	0942                	sll	s2,s2,0x10
   1ba48:	039283b3          	mul	t2,t0,s9
   1ba4c:	984a                	add	a6,a6,s2
   1ba4e:	03998c33          	mul	s8,s3,s9
   1ba52:	0103d913          	srl	s2,t2,0x10
   1ba56:	025d0bb3          	mul	s7,s10,t0
   1ba5a:	9be2                	add	s7,s7,s8
   1ba5c:	995e                	add	s2,s2,s7
   1ba5e:	033d0bb3          	mul	s7,s10,s3
   1ba62:	01897363          	bgeu	s2,s8,1ba68 <__multf3+0x7de>
   1ba66:	9bda                	add	s7,s7,s6
   1ba68:	9532                	add	a0,a0,a2
   1ba6a:	9aae                	add	s5,s5,a1
   1ba6c:	00c53633          	sltu	a2,a0,a2
   1ba70:	9656                	add	a2,a2,s5
   1ba72:	94aa                	add	s1,s1,a0
   1ba74:	9e32                	add	t3,t3,a2
   1ba76:	00a4b533          	sltu	a0,s1,a0
   1ba7a:	025e8c33          	mul	s8,t4,t0
   1ba7e:	00ae0b33          	add	s6,t3,a0
   1ba82:	9f26                	add	t5,t5,s1
   1ba84:	98da                	add	a7,a7,s6
   1ba86:	009f34b3          	sltu	s1,t5,s1
   1ba8a:	00988533          	add	a0,a7,s1
   1ba8e:	00bab5b3          	sltu	a1,s5,a1
   1ba92:	64c1                	lui	s1,0x10
   1ba94:	01563ab3          	sltu	s5,a2,s5
   1ba98:	00ce3633          	sltu	a2,t3,a2
   1ba9c:	03d98eb3          	mul	t4,s3,t4
   1baa0:	01cb3e33          	sltu	t3,s6,t3
   1baa4:	fff48c93          	add	s9,s1,-1 # ffff <register_fini-0x95>
   1baa8:	0155eab3          	or	s5,a1,s5
   1baac:	01c66e33          	or	t3,a2,t3
   1bab0:	0168bb33          	sltu	s6,a7,s6
   1bab4:	011538b3          	sltu	a7,a0,a7
   1bab8:	01997633          	and	a2,s2,s9
   1babc:	9e56                	add	t3,t3,s5
   1babe:	011b68b3          	or	a7,s6,a7
   1bac2:	025a02b3          	mul	t0,s4,t0
   1bac6:	982a                	add	a6,a6,a0
   1bac8:	98f2                	add	a7,a7,t3
   1baca:	0642                	sll	a2,a2,0x10
   1bacc:	0193f3b3          	and	t2,t2,s9
   1bad0:	9fc6                	add	t6,t6,a7
   1bad2:	00a835b3          	sltu	a1,a6,a0
   1bad6:	961e                	add	a2,a2,t2
   1bad8:	01095913          	srl	s2,s2,0x10
   1badc:	95fe                	add	a1,a1,t6
   1bade:	00c80533          	add	a0,a6,a2
   1bae2:	995e                	add	s2,s2,s7
   1bae4:	992e                	add	s2,s2,a1
   1bae6:	01053633          	sltu	a2,a0,a6
   1baea:	964a                	add	a2,a2,s2
   1baec:	92f6                	add	t0,t0,t4
   1baee:	010c5813          	srl	a6,s8,0x10
   1baf2:	011fb8b3          	sltu	a7,t6,a7
   1baf6:	d8fa                	sw	t5,112(sp)
   1baf8:	01f5bfb3          	sltu	t6,a1,t6
   1bafc:	daaa                	sw	a0,116(sp)
   1bafe:	00b935b3          	sltu	a1,s2,a1
   1bb02:	9816                	add	a6,a6,t0
   1bb04:	01263933          	sltu	s2,a2,s2
   1bb08:	033a09b3          	mul	s3,s4,s3
   1bb0c:	01f8ef33          	or	t5,a7,t6
   1bb10:	0125e5b3          	or	a1,a1,s2
   1bb14:	01d87363          	bgeu	a6,t4,1bb1a <__multf3+0x890>
   1bb18:	99a6                	add	s3,s3,s1
   1bb1a:	6e41                	lui	t3,0x10
   1bb1c:	1e7d                	add	t3,t3,-1 # ffff <register_fini-0x95>
   1bb1e:	01c87533          	and	a0,a6,t3
   1bb22:	0542                	sll	a0,a0,0x10
   1bb24:	01cc7c33          	and	s8,s8,t3
   1bb28:	01085893          	srl	a7,a6,0x10
   1bb2c:	9562                	add	a0,a0,s8
   1bb2e:	9532                	add	a0,a0,a2
   1bb30:	98fa                	add	a7,a7,t5
   1bb32:	95c6                	add	a1,a1,a7
   1bb34:	00c53633          	sltu	a2,a0,a2
   1bb38:	44e2                	lw	s1,24(sp)
   1bb3a:	962e                	add	a2,a2,a1
   1bb3c:	45f2                	lw	a1,28(sp)
   1bb3e:	964e                	add	a2,a2,s3
   1bb40:	06b6                	sll	a3,a3,0xd
   1bb42:	8dc5                	or	a1,a1,s1
   1bb44:	5482                	lw	s1,32(sp)
   1bb46:	deb2                	sw	a2,124(sp)
   1bb48:	dcaa                	sw	a0,120(sp)
   1bb4a:	8dc5                	or	a1,a1,s1
   1bb4c:	8ecd                	or	a3,a3,a1
   1bb4e:	1090                	add	a2,sp,96
   1bb50:	07010813          	add	a6,sp,112
   1bb54:	01335513          	srl	a0,t1,0x13
   1bb58:	01062303          	lw	t1,16(a2)
   1bb5c:	0611                	add	a2,a2,4
   1bb5e:	00d31593          	sll	a1,t1,0xd
   1bb62:	8dc9                	or	a1,a1,a0
   1bb64:	feb62e23          	sw	a1,-4(a2)
   1bb68:	fec816e3          	bne	a6,a2,1bb54 <__multf3+0x8ca>
   1bb6c:	5606                	lw	a2,96(sp)
   1bb6e:	00d036b3          	snez	a3,a3
   1bb72:	55b6                	lw	a1,108(sp)
   1bb74:	8ed1                	or	a3,a3,a2
   1bb76:	5626                	lw	a2,104(sp)
   1bb78:	ceae                	sw	a1,92(sp)
   1bb7a:	c8b6                	sw	a3,80(sp)
   1bb7c:	ccb2                	sw	a2,88(sp)
   1bb7e:	5616                	lw	a2,100(sp)
   1bb80:	cab2                	sw	a2,84(sp)
   1bb82:	00b59613          	sll	a2,a1,0xb
   1bb86:	28065463          	bgez	a2,1be0e <__multf3+0xb84>
   1bb8a:	01f69513          	sll	a0,a3,0x1f
   1bb8e:	089c                	add	a5,sp,80
   1bb90:	05c10813          	add	a6,sp,92
   1bb94:	0016d893          	srl	a7,a3,0x1
   1bb98:	43d4                	lw	a3,4(a5)
   1bb9a:	0791                	add	a5,a5,4
   1bb9c:	01f69613          	sll	a2,a3,0x1f
   1bba0:	01166633          	or	a2,a2,a7
   1bba4:	fec7ae23          	sw	a2,-4(a5)
   1bba8:	ff0796e3          	bne	a5,a6,1bb94 <__multf3+0x90a>
   1bbac:	47c6                	lw	a5,80(sp)
   1bbae:	00a036b3          	snez	a3,a0
   1bbb2:	8185                	srl	a1,a1,0x1
   1bbb4:	8fd5                	or	a5,a5,a3
   1bbb6:	c8be                	sw	a5,80(sp)
   1bbb8:	4cda                	lw	s9,148(sp)
   1bbba:	47b2                	lw	a5,12(sp)
   1bbbc:	4d4a                	lw	s10,144(sp)
   1bbbe:	ceae                	sw	a1,92(sp)
   1bbc0:	a011                	j	1bbc4 <__multf3+0x93a>
   1bbc2:	47b2                	lw	a5,12(sp)
   1bbc4:	6611                	lui	a2,0x4
   1bbc6:	167d                	add	a2,a2,-1 # 3fff <register_fini-0xc095>
   1bbc8:	963e                	add	a2,a2,a5
   1bbca:	0ac05663          	blez	a2,1bc76 <__multf3+0x9ec>
   1bbce:	45c6                	lw	a1,80(sp)
   1bbd0:	46f6                	lw	a3,92(sp)
   1bbd2:	0075f513          	and	a0,a1,7
   1bbd6:	c515                	beqz	a0,1bc02 <__multf3+0x978>
   1bbd8:	00f5f513          	and	a0,a1,15
   1bbdc:	4811                	li	a6,4
   1bbde:	03050263          	beq	a0,a6,1bc02 <__multf3+0x978>
   1bbe2:	4856                	lw	a6,84(sp)
   1bbe4:	0591                	add	a1,a1,4
   1bbe6:	48e6                	lw	a7,88(sp)
   1bbe8:	0045b513          	sltiu	a0,a1,4
   1bbec:	982a                	add	a6,a6,a0
   1bbee:	00a83533          	sltu	a0,a6,a0
   1bbf2:	9546                	add	a0,a0,a7
   1bbf4:	011538b3          	sltu	a7,a0,a7
   1bbf8:	96c6                	add	a3,a3,a7
   1bbfa:	c8ae                	sw	a1,80(sp)
   1bbfc:	cac2                	sw	a6,84(sp)
   1bbfe:	ccaa                	sw	a0,88(sp)
   1bc00:	ceb6                	sw	a3,92(sp)
   1bc02:	00b69593          	sll	a1,a3,0xb
   1bc06:	0005d963          	bgez	a1,1bc18 <__multf3+0x98e>
   1bc0a:	fff00637          	lui	a2,0xfff00
   1bc0e:	167d                	add	a2,a2,-1 # ffefffff <__BSS_END__+0xffee14db>
   1bc10:	8ef1                	and	a3,a3,a2
   1bc12:	6611                	lui	a2,0x4
   1bc14:	ceb6                	sw	a3,92(sp)
   1bc16:	963e                	add	a2,a2,a5
   1bc18:	4546                	lw	a0,80(sp)
   1bc1a:	089c                	add	a5,sp,80
   1bc1c:	05c10893          	add	a7,sp,92
   1bc20:	00355813          	srl	a6,a0,0x3
   1bc24:	43c8                	lw	a0,4(a5)
   1bc26:	0791                	add	a5,a5,4
   1bc28:	01d51593          	sll	a1,a0,0x1d
   1bc2c:	0105e5b3          	or	a1,a1,a6
   1bc30:	feb7ae23          	sw	a1,-4(a5)
   1bc34:	ff1796e3          	bne	a5,a7,1bc20 <__multf3+0x996>
   1bc38:	65a1                	lui	a1,0x8
   1bc3a:	67a1                	lui	a5,0x8
   1bc3c:	15f9                	add	a1,a1,-2 # 7ffe <register_fini-0x8096>
   1bc3e:	17fd                	add	a5,a5,-1 # 7fff <register_fini-0x8095>
   1bc40:	80c5cee3          	blt	a1,a2,1b45c <__multf3+0x1d2>
   1bc44:	8ff1                	and	a5,a5,a2
   1bc46:	828d                	srl	a3,a3,0x3
   1bc48:	06c2                	sll	a3,a3,0x10
   1bc4a:	07c2                	sll	a5,a5,0x10
   1bc4c:	4546                	lw	a0,80(sp)
   1bc4e:	45d6                	lw	a1,84(sp)
   1bc50:	4666                	lw	a2,88(sp)
   1bc52:	82c1                	srl	a3,a3,0x10
   1bc54:	83c1                	srl	a5,a5,0x10
   1bc56:	f64ff06f          	j	1b3ba <__multf3+0x130>
   1bc5a:	47bd                	li	a5,15
   1bc5c:	460d                	li	a2,3
   1bc5e:	f4fb0763          	beq	s6,a5,1b3ac <__multf3+0x122>
   1bc62:	4716                	lw	a4,68(sp)
   1bc64:	47b6                	lw	a5,76(sp)
   1bc66:	884a                	mv	a6,s2
   1bc68:	caba                	sw	a4,84(sp)
   1bc6a:	4706                	lw	a4,64(sp)
   1bc6c:	c8ba                	sw	a4,80(sp)
   1bc6e:	4726                	lw	a4,72(sp)
   1bc70:	ccba                	sw	a4,88(sp)
   1bc72:	fd2ff06f          	j	1b444 <__multf3+0x1ba>
   1bc76:	18061f63          	bnez	a2,1be14 <__multf3+0xb8a>
   1bc7a:	47c6                	lw	a5,80(sp)
   1bc7c:	4376                	lw	t1,92(sp)
   1bc7e:	468d                	li	a3,3
   1bc80:	07fe                	sll	a5,a5,0x1f
   1bc82:	00135313          	srl	t1,t1,0x1
   1bc86:	4505                	li	a0,1
   1bc88:	4e7d                	li	t3,31
   1bc8a:	088c                	add	a1,sp,80
   1bc8c:	060a                	sll	a2,a2,0x2
   1bc8e:	00269f13          	sll	t5,a3,0x2
   1bc92:	00c58833          	add	a6,a1,a2
   1bc96:	88ae                	mv	a7,a1
   1bc98:	01e58eb3          	add	t4,a1,t5
   1bc9c:	00082603          	lw	a2,0(a6)
   1bca0:	00482f83          	lw	t6,4(a6)
   1bca4:	0891                	add	a7,a7,4
   1bca6:	00a65633          	srl	a2,a2,a0
   1bcaa:	01cf9fb3          	sll	t6,t6,t3
   1bcae:	01f66633          	or	a2,a2,t6
   1bcb2:	fec8ae23          	sw	a2,-4(a7)
   1bcb6:	0811                	add	a6,a6,4
   1bcb8:	ffd892e3          	bne	a7,t4,1bc9c <__multf3+0xa12>
   1bcbc:	050f0613          	add	a2,t5,80
   1bcc0:	1808                	add	a0,sp,48
   1bcc2:	00a60f33          	add	t5,a2,a0
   1bcc6:	0685                	add	a3,a3,1
   1bcc8:	fc6f2823          	sw	t1,-48(t5)
   1bccc:	4611                	li	a2,4
   1bcce:	4346                	lw	t1,80(sp)
   1bcd0:	02c68563          	beq	a3,a2,1bcfa <__multf3+0xa70>
   1bcd4:	4611                	li	a2,4
   1bcd6:	8e15                	sub	a2,a2,a3
   1bcd8:	060a                	sll	a2,a2,0x2
   1bcda:	068a                	sll	a3,a3,0x2
   1bcdc:	4521                	li	a0,8
   1bcde:	96ae                	add	a3,a3,a1
   1bce0:	00a66863          	bltu	a2,a0,1bcf0 <__multf3+0xa66>
   1bce4:	0006a023          	sw	zero,0(a3)
   1bce8:	0006a223          	sw	zero,4(a3)
   1bcec:	1661                	add	a2,a2,-8 # 3ff8 <register_fini-0xc09c>
   1bcee:	06a1                	add	a3,a3,8
   1bcf0:	4511                	li	a0,4
   1bcf2:	00a66463          	bltu	a2,a0,1bcfa <__multf3+0xa70>
   1bcf6:	0006a023          	sw	zero,0(a3)
   1bcfa:	00f037b3          	snez	a5,a5
   1bcfe:	0067e7b3          	or	a5,a5,t1
   1bd02:	c8be                	sw	a5,80(sp)
   1bd04:	0077f613          	and	a2,a5,7
   1bd08:	46f6                	lw	a3,92(sp)
   1bd0a:	c615                	beqz	a2,1bd36 <__multf3+0xaac>
   1bd0c:	00f7f613          	and	a2,a5,15
   1bd10:	4511                	li	a0,4
   1bd12:	02a60263          	beq	a2,a0,1bd36 <__multf3+0xaac>
   1bd16:	4656                	lw	a2,84(sp)
   1bd18:	0791                	add	a5,a5,4
   1bd1a:	4866                	lw	a6,88(sp)
   1bd1c:	0047b513          	sltiu	a0,a5,4
   1bd20:	9532                	add	a0,a0,a2
   1bd22:	00c53633          	sltu	a2,a0,a2
   1bd26:	9642                	add	a2,a2,a6
   1bd28:	01063833          	sltu	a6,a2,a6
   1bd2c:	96c2                	add	a3,a3,a6
   1bd2e:	c8be                	sw	a5,80(sp)
   1bd30:	caaa                	sw	a0,84(sp)
   1bd32:	ccb2                	sw	a2,88(sp)
   1bd34:	ceb6                	sw	a3,92(sp)
   1bd36:	00c69793          	sll	a5,a3,0xc
   1bd3a:	1407ca63          	bltz	a5,1be8e <__multf3+0xc04>
   1bd3e:	4546                	lw	a0,80(sp)
   1bd40:	87ae                	mv	a5,a1
   1bd42:	05c10813          	add	a6,sp,92
   1bd46:	00355593          	srl	a1,a0,0x3
   1bd4a:	43c8                	lw	a0,4(a5)
   1bd4c:	0791                	add	a5,a5,4
   1bd4e:	01d51613          	sll	a2,a0,0x1d
   1bd52:	8e4d                	or	a2,a2,a1
   1bd54:	fec7ae23          	sw	a2,-4(a5)
   1bd58:	ff0797e3          	bne	a5,a6,1bd46 <__multf3+0xabc>
   1bd5c:	828d                	srl	a3,a3,0x3
   1bd5e:	06c2                	sll	a3,a3,0x10
   1bd60:	4546                	lw	a0,80(sp)
   1bd62:	45d6                	lw	a1,84(sp)
   1bd64:	4666                	lw	a2,88(sp)
   1bd66:	82c1                	srl	a3,a3,0x10
   1bd68:	4781                	li	a5,0
   1bd6a:	e50ff06f          	j	1b3ba <__multf3+0x130>
   1bd6e:	10089a63          	bnez	a7,1be82 <__multf3+0xbf8>
   1bd72:	14070d63          	beqz	a4,1becc <__multf3+0xc42>
   1bd76:	853a                	mv	a0,a4
   1bd78:	6c4010ef          	jal	1d43c <__clzsi2>
   1bd7c:	04050513          	add	a0,a0,64 # 10040 <register_fini-0x54>
   1bd80:	ff450793          	add	a5,a0,-12
   1bd84:	01f7f813          	and	a6,a5,31
   1bd88:	4057d613          	sra	a2,a5,0x5
   1bd8c:	1a081663          	bnez	a6,1bf38 <__multf3+0xcae>
   1bd90:	40c00733          	neg	a4,a2
   1bd94:	070a                	sll	a4,a4,0x2
   1bd96:	00c70793          	add	a5,a4,12
   1bd9a:	1814                	add	a3,sp,48
   1bd9c:	97b6                	add	a5,a5,a3
   1bd9e:	40e00733          	neg	a4,a4
   1bda2:	0007a883          	lw	a7,0(a5)
   1bda6:	00e78833          	add	a6,a5,a4
   1bdaa:	85be                	mv	a1,a5
   1bdac:	01182023          	sw	a7,0(a6)
   1bdb0:	17f1                	add	a5,a5,-4
   1bdb2:	feb698e3          	bne	a3,a1,1bda2 <__multf3+0xb18>
   1bdb6:	fff60793          	add	a5,a2,-1
   1bdba:	fccff06f          	j	1b586 <__multf3+0x2fc>
   1bdbe:	0a0b9c63          	bnez	s7,1be76 <__multf3+0xbec>
   1bdc2:	0c098d63          	beqz	s3,1be9c <__multf3+0xc12>
   1bdc6:	854e                	mv	a0,s3
   1bdc8:	674010ef          	jal	1d43c <__clzsi2>
   1bdcc:	04050513          	add	a0,a0,64
   1bdd0:	ff450793          	add	a5,a0,-12
   1bdd4:	01f7f813          	and	a6,a5,31
   1bdd8:	4057d613          	sra	a2,a5,0x5
   1bddc:	16081a63          	bnez	a6,1bf50 <__multf3+0xcc6>
   1bde0:	40c00733          	neg	a4,a2
   1bde4:	070a                	sll	a4,a4,0x2
   1bde6:	00c70793          	add	a5,a4,12
   1bdea:	0094                	add	a3,sp,64
   1bdec:	97b6                	add	a5,a5,a3
   1bdee:	40e00733          	neg	a4,a4
   1bdf2:	0007a883          	lw	a7,0(a5)
   1bdf6:	00e78833          	add	a6,a5,a4
   1bdfa:	85be                	mv	a1,a5
   1bdfc:	01182023          	sw	a7,0(a6)
   1be00:	17f1                	add	a5,a5,-4
   1be02:	feb698e3          	bne	a3,a1,1bdf2 <__multf3+0xb68>
   1be06:	fff60793          	add	a5,a2,-1
   1be0a:	eccff06f          	j	1b4d6 <__multf3+0x24c>
   1be0e:	4cda                	lw	s9,148(sp)
   1be10:	4d4a                	lw	s10,144(sp)
   1be12:	bb4d                	j	1bbc4 <__multf3+0x93a>
   1be14:	4785                	li	a5,1
   1be16:	8f91                	sub	a5,a5,a2
   1be18:	07400693          	li	a3,116
   1be1c:	e2f6cf63          	blt	a3,a5,1b45a <__multf3+0x1d0>
   1be20:	01f7f513          	and	a0,a5,31
   1be24:	02000e13          	li	t3,32
   1be28:	4057d613          	sra	a2,a5,0x5
   1be2c:	40ae0e33          	sub	t3,t3,a0
   1be30:	10060c63          	beqz	a2,1bf48 <__multf3+0xcbe>
   1be34:	088c                	add	a1,sp,80
   1be36:	00261893          	sll	a7,a2,0x2
   1be3a:	86ae                	mv	a3,a1
   1be3c:	98ae                	add	a7,a7,a1
   1be3e:	4781                	li	a5,0
   1be40:	0006a803          	lw	a6,0(a3)
   1be44:	0691                	add	a3,a3,4
   1be46:	0107e7b3          	or	a5,a5,a6
   1be4a:	ff169be3          	bne	a3,a7,1be40 <__multf3+0xbb6>
   1be4e:	88b2                	mv	a7,a2
   1be50:	468d                	li	a3,3
   1be52:	8e91                	sub	a3,a3,a2
   1be54:	882e                	mv	a6,a1
   1be56:	00261313          	sll	t1,a2,0x2
   1be5a:	e95d                	bnez	a0,1bf10 <__multf3+0xc86>
   1be5c:	006808b3          	add	a7,a6,t1
   1be60:	0008a883          	lw	a7,0(a7)
   1be64:	0505                	add	a0,a0,1
   1be66:	0811                	add	a6,a6,4
   1be68:	ff182e23          	sw	a7,-4(a6)
   1be6c:	fea6d8e3          	bge	a3,a0,1be5c <__multf3+0xbd2>
   1be70:	4691                	li	a3,4
   1be72:	8e91                	sub	a3,a3,a2
   1be74:	bda1                	j	1bccc <__multf3+0xa42>
   1be76:	855e                	mv	a0,s7
   1be78:	5c4010ef          	jal	1d43c <__clzsi2>
   1be7c:	02050513          	add	a0,a0,32
   1be80:	bf81                	j	1bdd0 <__multf3+0xb46>
   1be82:	8546                	mv	a0,a7
   1be84:	5b8010ef          	jal	1d43c <__clzsi2>
   1be88:	02050513          	add	a0,a0,32
   1be8c:	bdd5                	j	1bd80 <__multf3+0xaf6>
   1be8e:	4785                	li	a5,1
   1be90:	4681                	li	a3,0
   1be92:	4601                	li	a2,0
   1be94:	4581                	li	a1,0
   1be96:	4501                	li	a0,0
   1be98:	d22ff06f          	j	1b3ba <__multf3+0x130>
   1be9c:	8556                	mv	a0,s5
   1be9e:	59e010ef          	jal	1d43c <__clzsi2>
   1bea2:	05450793          	add	a5,a0,84
   1bea6:	01f7f813          	and	a6,a5,31
   1beaa:	06050513          	add	a0,a0,96
   1beae:	4057d613          	sra	a2,a5,0x5
   1beb2:	f20807e3          	beqz	a6,1bde0 <__multf3+0xb56>
   1beb6:	4789                	li	a5,2
   1beb8:	010a9ab3          	sll	s5,s5,a6
   1bebc:	04f61063          	bne	a2,a5,1befc <__multf3+0xc72>
   1bec0:	02000313          	li	t1,32
   1bec4:	41030333          	sub	t1,t1,a6
   1bec8:	dc6ff06f          	j	1b48e <__multf3+0x204>
   1becc:	8526                	mv	a0,s1
   1bece:	56e010ef          	jal	1d43c <__clzsi2>
   1bed2:	05450793          	add	a5,a0,84
   1bed6:	01f7f813          	and	a6,a5,31
   1beda:	06050513          	add	a0,a0,96
   1bede:	4057d613          	sra	a2,a5,0x5
   1bee2:	ea0807e3          	beqz	a6,1bd90 <__multf3+0xb06>
   1bee6:	4789                	li	a5,2
   1bee8:	010494b3          	sll	s1,s1,a6
   1beec:	00f61d63          	bne	a2,a5,1bf06 <__multf3+0xc7c>
   1bef0:	02000313          	li	t1,32
   1bef4:	41030333          	sub	t1,t1,a6
   1bef8:	e46ff06f          	j	1b53e <__multf3+0x2b4>
   1befc:	c6d6                	sw	s5,76(sp)
   1befe:	4789                	li	a5,2
   1bf00:	0094                	add	a3,sp,64
   1bf02:	ddaff06f          	j	1b4dc <__multf3+0x252>
   1bf06:	de26                	sw	s1,60(sp)
   1bf08:	4789                	li	a5,2
   1bf0a:	1814                	add	a3,sp,48
   1bf0c:	e80ff06f          	j	1b58c <__multf3+0x302>
   1bf10:	00289813          	sll	a6,a7,0x2
   1bf14:	05080493          	add	s1,a6,80
   1bf18:	03010813          	add	a6,sp,48
   1bf1c:	9826                	add	a6,a6,s1
   1bf1e:	fd082803          	lw	a6,-48(a6)
   1bf22:	4376                	lw	t1,92(sp)
   1bf24:	01c81833          	sll	a6,a6,t3
   1bf28:	0107e7b3          	or	a5,a5,a6
   1bf2c:	00a35333          	srl	t1,t1,a0
   1bf30:	d4069ee3          	bnez	a3,1bc8c <__multf3+0xa02>
   1bf34:	4685                	li	a3,1
   1bf36:	bb79                	j	1bcd4 <__multf3+0xa4a>
   1bf38:	02000313          	li	t1,32
   1bf3c:	41030333          	sub	t1,t1,a6
   1bf40:	010494b3          	sll	s1,s1,a6
   1bf44:	dfaff06f          	j	1b53e <__multf3+0x2b4>
   1bf48:	4881                	li	a7,0
   1bf4a:	4781                	li	a5,0
   1bf4c:	088c                	add	a1,sp,80
   1bf4e:	b709                	j	1be50 <__multf3+0xbc6>
   1bf50:	02000313          	li	t1,32
   1bf54:	41030333          	sub	t1,t1,a6
   1bf58:	010a9ab3          	sll	s5,s5,a6
   1bf5c:	d32ff06f          	j	1b48e <__multf3+0x204>

0001bf60 <__subtf3>:
   1bf60:	711d                	add	sp,sp,-96
   1bf62:	caa6                	sw	s1,84(sp)
   1bf64:	45c4                	lw	s1,12(a1)
   1bf66:	41d8                	lw	a4,4(a1)
   1bf68:	0005a803          	lw	a6,0(a1)
   1bf6c:	459c                	lw	a5,8(a1)
   1bf6e:	01049693          	sll	a3,s1,0x10
   1bf72:	00062303          	lw	t1,0(a2)
   1bf76:	00462f83          	lw	t6,4(a2)
   1bf7a:	00862e03          	lw	t3,8(a2)
   1bf7e:	464c                	lw	a1,12(a2)
   1bf80:	cca2                	sw	s0,88(sp)
   1bf82:	82c1                	srl	a3,a3,0x10
   1bf84:	00149413          	sll	s0,s1,0x1
   1bf88:	c8ca                	sw	s2,80(sp)
   1bf8a:	da3a                	sw	a4,52(sp)
   1bf8c:	de26                	sw	s1,60(sp)
   1bf8e:	ca3a                	sw	a4,20(sp)
   1bf90:	ce86                	sw	ra,92(sp)
   1bf92:	892a                	mv	s2,a0
   1bf94:	d842                	sw	a6,48(sp)
   1bf96:	dc3e                	sw	a5,56(sp)
   1bf98:	c842                	sw	a6,16(sp)
   1bf9a:	cc3e                	sw	a5,24(sp)
   1bf9c:	ce36                	sw	a3,28(sp)
   1bf9e:	8045                	srl	s0,s0,0x11
   1bfa0:	80fd                	srl	s1,s1,0x1f
   1bfa2:	01010e93          	add	t4,sp,16
   1bfa6:	0878                	add	a4,sp,28
   1bfa8:	00369613          	sll	a2,a3,0x3
   1bfac:	ffc72683          	lw	a3,-4(a4)
   1bfb0:	8f3a                	mv	t5,a4
   1bfb2:	1771                	add	a4,a4,-4
   1bfb4:	01d6d793          	srl	a5,a3,0x1d
   1bfb8:	8fd1                	or	a5,a5,a2
   1bfba:	c35c                	sw	a5,4(a4)
   1bfbc:	feee96e3          	bne	t4,a4,1bfa8 <__subtf3+0x48>
   1bfc0:	01059613          	sll	a2,a1,0x10
   1bfc4:	00381893          	sll	a7,a6,0x3
   1bfc8:	8241                	srl	a2,a2,0x10
   1bfca:	00159813          	sll	a6,a1,0x1
   1bfce:	da7e                	sw	t6,52(sp)
   1bfd0:	de2e                	sw	a1,60(sp)
   1bfd2:	d27e                	sw	t6,36(sp)
   1bfd4:	c846                	sw	a7,16(sp)
   1bfd6:	d81a                	sw	t1,48(sp)
   1bfd8:	dc72                	sw	t3,56(sp)
   1bfda:	d01a                	sw	t1,32(sp)
   1bfdc:	d472                	sw	t3,40(sp)
   1bfde:	d632                	sw	a2,44(sp)
   1bfe0:	01185813          	srl	a6,a6,0x11
   1bfe4:	81fd                	srl	a1,a1,0x1f
   1bfe6:	02010f93          	add	t6,sp,32
   1bfea:	107c                	add	a5,sp,44
   1bfec:	00361513          	sll	a0,a2,0x3
   1bff0:	ffc7a603          	lw	a2,-4(a5)
   1bff4:	17f1                	add	a5,a5,-4
   1bff6:	01d65693          	srl	a3,a2,0x1d
   1bffa:	8ec9                	or	a3,a3,a0
   1bffc:	c3d4                	sw	a3,4(a5)
   1bffe:	feff97e3          	bne	t6,a5,1bfec <__subtf3+0x8c>
   1c002:	030e                	sll	t1,t1,0x3
   1c004:	6621                	lui	a2,0x8
   1c006:	d01a                	sw	t1,32(sp)
   1c008:	167d                	add	a2,a2,-1 # 7fff <register_fini-0x8095>
   1c00a:	16c80f63          	beq	a6,a2,1c188 <__subtf3+0x228>
   1c00e:	0015c593          	xor	a1,a1,1
   1c012:	410406b3          	sub	a3,s0,a6
   1c016:	0ab48363          	beq	s1,a1,1c0bc <__subtf3+0x15c>
   1c01a:	00d04463          	bgtz	a3,1c022 <__subtf3+0xc2>
   1c01e:	05e0106f          	j	1d07c <__subtf3+0x111c>
   1c022:	4552                	lw	a0,20(sp)
   1c024:	4ee2                	lw	t4,24(sp)
   1c026:	4e72                	lw	t3,28(sp)
   1c028:	24080b63          	beqz	a6,1c27e <__subtf3+0x31e>
   1c02c:	3cc403e3          	beq	s0,a2,1cbf2 <__subtf3+0xc92>
   1c030:	55b2                	lw	a1,44(sp)
   1c032:	00080637          	lui	a2,0x80
   1c036:	07400713          	li	a4,116
   1c03a:	8dd1                	or	a1,a1,a2
   1c03c:	d62e                	sw	a1,44(sp)
   1c03e:	26d75563          	bge	a4,a3,1c2a8 <__subtf3+0x348>
   1c042:	4601                	li	a2,0
   1c044:	4681                	li	a3,0
   1c046:	4801                	li	a6,0
   1c048:	4705                	li	a4,1
   1c04a:	410507b3          	sub	a5,a0,a6
   1c04e:	40e88733          	sub	a4,a7,a4
   1c052:	00f53333          	sltu	t1,a0,a5
   1c056:	00e8b5b3          	sltu	a1,a7,a4
   1c05a:	8f1a                	mv	t5,t1
   1c05c:	8f8d                	sub	a5,a5,a1
   1c05e:	00e8f463          	bgeu	a7,a4,1c066 <__subtf3+0x106>
   1c062:	5ea80363          	beq	a6,a0,1c648 <__subtf3+0x6e8>
   1c066:	40de8533          	sub	a0,t4,a3
   1c06a:	00aeb5b3          	sltu	a1,t4,a0
   1c06e:	41e50533          	sub	a0,a0,t5
   1c072:	5e031063          	bnez	t1,1c652 <__subtf3+0x6f2>
   1c076:	00b606b3          	add	a3,a2,a1
   1c07a:	40de0e33          	sub	t3,t3,a3
   1c07e:	da3e                	sw	a5,52(sp)
   1c080:	de72                	sw	t3,60(sp)
   1c082:	dc2a                	sw	a0,56(sp)
   1c084:	d83a                	sw	a4,48(sp)
   1c086:	00ce1793          	sll	a5,t3,0xc
   1c08a:	3c07df63          	bgez	a5,1c468 <__subtf3+0x508>
   1c08e:	00080537          	lui	a0,0x80
   1c092:	157d                	add	a0,a0,-1 # 7ffff <__BSS_END__+0x614db>
   1c094:	00ae7533          	and	a0,t3,a0
   1c098:	de2a                	sw	a0,60(sp)
   1c09a:	72051363          	bnez	a0,1c7c0 <__subtf3+0x860>
   1c09e:	5562                	lw	a0,56(sp)
   1c0a0:	6c050963          	beqz	a0,1c772 <__subtf3+0x812>
   1c0a4:	398010ef          	jal	1d43c <__clzsi2>
   1c0a8:	01450613          	add	a2,a0,20
   1c0ac:	01f67893          	and	a7,a2,31
   1c0b0:	12089fe3          	bnez	a7,1c9ee <__subtf3+0xa8e>
   1c0b4:	4585                	li	a1,1
   1c0b6:	02000613          	li	a2,32
   1c0ba:	ade9                	j	1c794 <__subtf3+0x834>
   1c0bc:	7cd055e3          	blez	a3,1d086 <__subtf3+0x1126>
   1c0c0:	4ed2                	lw	t4,20(sp)
   1c0c2:	4562                	lw	a0,24(sp)
   1c0c4:	4e72                	lw	t3,28(sp)
   1c0c6:	34081363          	bnez	a6,1c40c <__subtf3+0x4ac>
   1c0ca:	5712                	lw	a4,36(sp)
   1c0cc:	5f22                	lw	t5,40(sp)
   1c0ce:	55b2                	lw	a1,44(sp)
   1c0d0:	01e76833          	or	a6,a4,t5
   1c0d4:	00b86833          	or	a6,a6,a1
   1c0d8:	00686833          	or	a6,a6,t1
   1c0dc:	2c0805e3          	beqz	a6,1cba6 <__subtf3+0xc46>
   1c0e0:	fff68813          	add	a6,a3,-1
   1c0e4:	26080ae3          	beqz	a6,1cb58 <__subtf3+0xbf8>
   1c0e8:	2ac68fe3          	beq	a3,a2,1cba6 <__subtf3+0xc46>
   1c0ec:	07400713          	li	a4,116
   1c0f0:	33074963          	blt	a4,a6,1c422 <__subtf3+0x4c2>
   1c0f4:	86c2                	mv	a3,a6
   1c0f6:	4056df13          	sra	t5,a3,0x5
   1c0fa:	8afd                	and	a3,a3,31
   1c0fc:	280f07e3          	beqz	t5,1cb8a <__subtf3+0xc2a>
   1c100:	002f1313          	sll	t1,t5,0x2
   1c104:	00f302b3          	add	t0,t1,a5
   1c108:	873e                	mv	a4,a5
   1c10a:	4601                	li	a2,0
   1c10c:	00072803          	lw	a6,0(a4)
   1c110:	0711                	add	a4,a4,4
   1c112:	01066633          	or	a2,a2,a6
   1c116:	fee29be3          	bne	t0,a4,1c10c <__subtf3+0x1ac>
   1c11a:	470d                	li	a4,3
   1c11c:	41e70733          	sub	a4,a4,t5
   1c120:	020688e3          	beqz	a3,1c950 <__subtf3+0x9f0>
   1c124:	04030813          	add	a6,t1,64
   1c128:	980a                	add	a6,a6,sp
   1c12a:	fe082803          	lw	a6,-32(a6)
   1c12e:	02000393          	li	t2,32
   1c132:	40d383b3          	sub	t2,t2,a3
   1c136:	00781833          	sll	a6,a6,t2
   1c13a:	01066633          	or	a2,a2,a6
   1c13e:	00d5d5b3          	srl	a1,a1,a3
   1c142:	680705e3          	beqz	a4,1cfcc <__subtf3+0x106c>
   1c146:	c6ce                	sw	s3,76(sp)
   1c148:	00271813          	sll	a6,a4,0x2
   1c14c:	937e                	add	t1,t1,t6
   1c14e:	00f809b3          	add	s3,a6,a5
   1c152:	00032703          	lw	a4,0(t1)
   1c156:	00432283          	lw	t0,4(t1)
   1c15a:	0791                	add	a5,a5,4
   1c15c:	00d75733          	srl	a4,a4,a3
   1c160:	007292b3          	sll	t0,t0,t2
   1c164:	00576733          	or	a4,a4,t0
   1c168:	fee7ae23          	sw	a4,-4(a5)
   1c16c:	0311                	add	t1,t1,4
   1c16e:	ff3792e3          	bne	a5,s3,1c152 <__subtf3+0x1f2>
   1c172:	04080793          	add	a5,a6,64
   1c176:	00278733          	add	a4,a5,sp
   1c17a:	4791                	li	a5,4
   1c17c:	49b6                	lw	s3,76(sp)
   1c17e:	41e787b3          	sub	a5,a5,t5
   1c182:	feb72023          	sw	a1,-32(a4)
   1c186:	a7cd                	j	1c968 <__subtf3+0xa08>
   1c188:	5792                	lw	a5,36(sp)
   1c18a:	5fa2                	lw	t6,40(sp)
   1c18c:	5e32                	lw	t3,44(sp)
   1c18e:	410406b3          	sub	a3,s0,a6
   1c192:	01f7e633          	or	a2,a5,t6
   1c196:	01c66633          	or	a2,a2,t3
   1c19a:	00666633          	or	a2,a2,t1
   1c19e:	18061e63          	bnez	a2,1c33a <__subtf3+0x3da>
   1c1a2:	0015c593          	xor	a1,a1,1
   1c1a6:	4e01                	li	t3,0
   1c1a8:	4f81                	li	t6,0
   1c1aa:	18b48b63          	beq	s1,a1,1c340 <__subtf3+0x3e0>
   1c1ae:	3e068b63          	beqz	a3,1c5a4 <__subtf3+0x644>
   1c1b2:	408803b3          	sub	t2,a6,s0
   1c1b6:	4e041e63          	bnez	s0,1c6b2 <__subtf3+0x752>
   1c1ba:	44e2                	lw	s1,24(sp)
   1c1bc:	c6ce                	sw	s3,76(sp)
   1c1be:	49d2                	lw	s3,20(sp)
   1c1c0:	46f2                	lw	a3,28(sp)
   1c1c2:	0099e7b3          	or	a5,s3,s1
   1c1c6:	8fd5                	or	a5,a5,a3
   1c1c8:	0117e7b3          	or	a5,a5,a7
   1c1cc:	120780e3          	beqz	a5,1caec <__subtf3+0xb8c>
   1c1d0:	fff38293          	add	t0,t2,-1
   1c1d4:	300287e3          	beqz	t0,1cce2 <__subtf3+0xd82>
   1c1d8:	67a1                	lui	a5,0x8
   1c1da:	17fd                	add	a5,a5,-1 # 7fff <register_fini-0x8095>
   1c1dc:	4cf389e3          	beq	t2,a5,1ceae <__subtf3+0xf4e>
   1c1e0:	07400793          	li	a5,116
   1c1e4:	4e57c0e3          	blt	a5,t0,1cec4 <__subtf3+0xf64>
   1c1e8:	47fd                	li	a5,31
   1c1ea:	2457d2e3          	bge	a5,t0,1cc2e <__subtf3+0xcce>
   1c1ee:	49b6                	lw	s3,76(sp)
   1c1f0:	4052d513          	sra	a0,t0,0x5
   1c1f4:	8396                	mv	t2,t0
   1c1f6:	82ba                	mv	t0,a4
   1c1f8:	4781                	li	a5,0
   1c1fa:	4881                	li	a7,0
   1c1fc:	0002a403          	lw	s0,0(t0)
   1c200:	0885                	add	a7,a7,1
   1c202:	0291                	add	t0,t0,4
   1c204:	8fc1                	or	a5,a5,s0
   1c206:	fea8cbe3          	blt	a7,a0,1c1fc <__subtf3+0x29c>
   1c20a:	842a                	mv	s0,a0
   1c20c:	488d                	li	a7,3
   1c20e:	01f3f293          	and	t0,t2,31
   1c212:	408888b3          	sub	a7,a7,s0
   1c216:	220291e3          	bnez	t0,1cc38 <__subtf3+0xcd8>
   1c21a:	00241513          	sll	a0,s0,0x2
   1c21e:	00a706b3          	add	a3,a4,a0
   1c222:	4294                	lw	a3,0(a3)
   1c224:	0285                	add	t0,t0,1
   1c226:	0711                	add	a4,a4,4
   1c228:	fed72e23          	sw	a3,-4(a4)
   1c22c:	fe58d9e3          	bge	a7,t0,1c21e <__subtf3+0x2be>
   1c230:	4711                	li	a4,4
   1c232:	8f01                	sub	a4,a4,s0
   1c234:	468d                	li	a3,3
   1c236:	42c2                	lw	t0,16(sp)
   1c238:	02e6c563          	blt	a3,a4,1c262 <__subtf3+0x302>
   1c23c:	4691                	li	a3,4
   1c23e:	8e99                	sub	a3,a3,a4
   1c240:	068a                	sll	a3,a3,0x2
   1c242:	070a                	sll	a4,a4,0x2
   1c244:	4521                	li	a0,8
   1c246:	9776                	add	a4,a4,t4
   1c248:	00a6e863          	bltu	a3,a0,1c258 <__subtf3+0x2f8>
   1c24c:	00072023          	sw	zero,0(a4)
   1c250:	00072223          	sw	zero,4(a4)
   1c254:	16e1                	add	a3,a3,-8
   1c256:	0721                	add	a4,a4,8
   1c258:	4511                	li	a0,4
   1c25a:	00a6e463          	bltu	a3,a0,1c262 <__subtf3+0x302>
   1c25e:	00072023          	sw	zero,0(a4)
   1c262:	00f03733          	snez	a4,a5
   1c266:	48d2                	lw	a7,20(sp)
   1c268:	46e2                	lw	a3,24(sp)
   1c26a:	47f2                	lw	a5,28(sp)
   1c26c:	00576733          	or	a4,a4,t0
   1c270:	41160eb3          	sub	t4,a2,a7
   1c274:	40df8533          	sub	a0,t6,a3
   1c278:	40fe0e33          	sub	t3,t3,a5
   1c27c:	a9a9                	j	1c6d6 <__subtf3+0x776>
   1c27e:	5f12                	lw	t5,36(sp)
   1c280:	5822                	lw	a6,40(sp)
   1c282:	55b2                	lw	a1,44(sp)
   1c284:	010f6733          	or	a4,t5,a6
   1c288:	8f4d                	or	a4,a4,a1
   1c28a:	00676733          	or	a4,a4,t1
   1c28e:	3c070863          	beqz	a4,1c65e <__subtf3+0x6fe>
   1c292:	fff68713          	add	a4,a3,-1
   1c296:	10070fe3          	beqz	a4,1cbb4 <__subtf3+0xc54>
   1c29a:	3cc68263          	beq	a3,a2,1c65e <__subtf3+0x6fe>
   1c29e:	07400693          	li	a3,116
   1c2a2:	dae6c0e3          	blt	a3,a4,1c042 <__subtf3+0xe2>
   1c2a6:	86ba                	mv	a3,a4
   1c2a8:	4056d293          	sra	t0,a3,0x5
   1c2ac:	8afd                	and	a3,a3,31
   1c2ae:	340288e3          	beqz	t0,1cdfe <__subtf3+0xe9e>
   1c2b2:	00229313          	sll	t1,t0,0x2
   1c2b6:	00f30f33          	add	t5,t1,a5
   1c2ba:	873e                	mv	a4,a5
   1c2bc:	4601                	li	a2,0
   1c2be:	00072803          	lw	a6,0(a4)
   1c2c2:	0711                	add	a4,a4,4
   1c2c4:	01066633          	or	a2,a2,a6
   1c2c8:	feef1be3          	bne	t5,a4,1c2be <__subtf3+0x35e>
   1c2cc:	470d                	li	a4,3
   1c2ce:	40570733          	sub	a4,a4,t0
   1c2d2:	32068163          	beqz	a3,1c5f4 <__subtf3+0x694>
   1c2d6:	04030813          	add	a6,t1,64
   1c2da:	980a                	add	a6,a6,sp
   1c2dc:	fe082803          	lw	a6,-32(a6)
   1c2e0:	02000393          	li	t2,32
   1c2e4:	40d383b3          	sub	t2,t2,a3
   1c2e8:	00781833          	sll	a6,a6,t2
   1c2ec:	01066633          	or	a2,a2,a6
   1c2f0:	00d5d5b3          	srl	a1,a1,a3
   1c2f4:	300703e3          	beqz	a4,1cdfa <__subtf3+0xe9a>
   1c2f8:	c6ce                	sw	s3,76(sp)
   1c2fa:	00271813          	sll	a6,a4,0x2
   1c2fe:	937e                	add	t1,t1,t6
   1c300:	00f809b3          	add	s3,a6,a5
   1c304:	00032703          	lw	a4,0(t1)
   1c308:	00432f03          	lw	t5,4(t1)
   1c30c:	0791                	add	a5,a5,4
   1c30e:	00d75733          	srl	a4,a4,a3
   1c312:	007f1f33          	sll	t5,t5,t2
   1c316:	01e76733          	or	a4,a4,t5
   1c31a:	fee7ae23          	sw	a4,-4(a5)
   1c31e:	0311                	add	t1,t1,4
   1c320:	fef992e3          	bne	s3,a5,1c304 <__subtf3+0x3a4>
   1c324:	04080793          	add	a5,a6,64
   1c328:	00278733          	add	a4,a5,sp
   1c32c:	4791                	li	a5,4
   1c32e:	49b6                	lw	s3,76(sp)
   1c330:	405787b3          	sub	a5,a5,t0
   1c334:	feb72023          	sw	a1,-32(a4)
   1c338:	acd1                	j	1c60c <__subtf3+0x6ac>
   1c33a:	863e                	mv	a2,a5
   1c33c:	e6b499e3          	bne	s1,a1,1c1ae <__subtf3+0x24e>
   1c340:	32068663          	beqz	a3,1c66c <__subtf3+0x70c>
   1c344:	40880533          	sub	a0,a6,s0
   1c348:	64041e63          	bnez	s0,1c9a4 <__subtf3+0xa44>
   1c34c:	47d2                	lw	a5,20(sp)
   1c34e:	42e2                	lw	t0,24(sp)
   1c350:	46f2                	lw	a3,28(sp)
   1c352:	0057e5b3          	or	a1,a5,t0
   1c356:	8dd5                	or	a1,a1,a3
   1c358:	0115e5b3          	or	a1,a1,a7
   1c35c:	2a058fe3          	beqz	a1,1ce1a <__subtf3+0xeba>
   1c360:	fff50593          	add	a1,a0,-1
   1c364:	400582e3          	beqz	a1,1cf68 <__subtf3+0x1008>
   1c368:	67a1                	lui	a5,0x8
   1c36a:	17fd                	add	a5,a5,-1 # 7fff <register_fini-0x8095>
   1c36c:	48f50fe3          	beq	a0,a5,1d00a <__subtf3+0x10aa>
   1c370:	07400793          	li	a5,116
   1c374:	64b7c563          	blt	a5,a1,1c9be <__subtf3+0xa5e>
   1c378:	47fd                	li	a5,31
   1c37a:	34b7d8e3          	bge	a5,a1,1ceca <__subtf3+0xf6a>
   1c37e:	4055d413          	sra	s0,a1,0x5
   1c382:	852e                	mv	a0,a1
   1c384:	88ba                	mv	a7,a4
   1c386:	4781                	li	a5,0
   1c388:	4581                	li	a1,0
   1c38a:	0008a283          	lw	t0,0(a7)
   1c38e:	0585                	add	a1,a1,1
   1c390:	0891                	add	a7,a7,4
   1c392:	0057e7b3          	or	a5,a5,t0
   1c396:	fe85cae3          	blt	a1,s0,1c38a <__subtf3+0x42a>
   1c39a:	88a2                	mv	a7,s0
   1c39c:	438d                	li	t2,3
   1c39e:	01f57593          	and	a1,a0,31
   1c3a2:	411383b3          	sub	t2,t2,a7
   1c3a6:	320596e3          	bnez	a1,1ced2 <__subtf3+0xf72>
   1c3aa:	00289513          	sll	a0,a7,0x2
   1c3ae:	00a706b3          	add	a3,a4,a0
   1c3b2:	4294                	lw	a3,0(a3)
   1c3b4:	0585                	add	a1,a1,1
   1c3b6:	0711                	add	a4,a4,4
   1c3b8:	fed72e23          	sw	a3,-4(a4)
   1c3bc:	feb3d9e3          	bge	t2,a1,1c3ae <__subtf3+0x44e>
   1c3c0:	4711                	li	a4,4
   1c3c2:	411708b3          	sub	a7,a4,a7
   1c3c6:	470d                	li	a4,3
   1c3c8:	45c2                	lw	a1,16(sp)
   1c3ca:	03174763          	blt	a4,a7,1c3f8 <__subtf3+0x498>
   1c3ce:	4691                	li	a3,4
   1c3d0:	411686b3          	sub	a3,a3,a7
   1c3d4:	068a                	sll	a3,a3,0x2
   1c3d6:	088a                	sll	a7,a7,0x2
   1c3d8:	4521                	li	a0,8
   1c3da:	011e8733          	add	a4,t4,a7
   1c3de:	00a6e863          	bltu	a3,a0,1c3ee <__subtf3+0x48e>
   1c3e2:	00072023          	sw	zero,0(a4)
   1c3e6:	00072223          	sw	zero,4(a4)
   1c3ea:	16e1                	add	a3,a3,-8
   1c3ec:	0721                	add	a4,a4,8
   1c3ee:	4511                	li	a0,4
   1c3f0:	00a6e463          	bltu	a3,a0,1c3f8 <__subtf3+0x498>
   1c3f4:	00072023          	sw	zero,0(a4)
   1c3f8:	00f03733          	snez	a4,a5
   1c3fc:	46f2                	lw	a3,28(sp)
   1c3fe:	47d2                	lw	a5,20(sp)
   1c400:	8f4d                	or	a4,a4,a1
   1c402:	45e2                	lw	a1,24(sp)
   1c404:	97b2                	add	a5,a5,a2
   1c406:	9e36                	add	t3,t3,a3
   1c408:	95fe                	add	a1,a1,t6
   1c40a:	ab6d                	j	1c9c4 <__subtf3+0xa64>
   1c40c:	00c40be3          	beq	s0,a2,1cc22 <__subtf3+0xcc2>
   1c410:	55b2                	lw	a1,44(sp)
   1c412:	00080637          	lui	a2,0x80
   1c416:	07400713          	li	a4,116
   1c41a:	8dd1                	or	a1,a1,a2
   1c41c:	d62e                	sw	a1,44(sp)
   1c41e:	ccd75ce3          	bge	a4,a3,1c0f6 <__subtf3+0x196>
   1c422:	4801                	li	a6,0
   1c424:	4681                	li	a3,0
   1c426:	4781                	li	a5,0
   1c428:	4705                	li	a4,1
   1c42a:	9746                	add	a4,a4,a7
   1c42c:	01d785b3          	add	a1,a5,t4
   1c430:	011738b3          	sltu	a7,a4,a7
   1c434:	98ae                	add	a7,a7,a1
   1c436:	00f5b7b3          	sltu	a5,a1,a5
   1c43a:	00b8b5b3          	sltu	a1,a7,a1
   1c43e:	00a68633          	add	a2,a3,a0
   1c442:	8fcd                	or	a5,a5,a1
   1c444:	97b2                	add	a5,a5,a2
   1c446:	00d636b3          	sltu	a3,a2,a3
   1c44a:	00c7b633          	sltu	a2,a5,a2
   1c44e:	8ed1                	or	a3,a3,a2
   1c450:	01c80633          	add	a2,a6,t3
   1c454:	00c68e33          	add	t3,a3,a2
   1c458:	dc3e                	sw	a5,56(sp)
   1c45a:	d83a                	sw	a4,48(sp)
   1c45c:	da46                	sw	a7,52(sp)
   1c45e:	00ce1793          	sll	a5,t3,0xc
   1c462:	0a07ce63          	bltz	a5,1c51e <__subtf3+0x5be>
   1c466:	de72                	sw	t3,60(sp)
   1c468:	00777693          	and	a3,a4,7
   1c46c:	181c                	add	a5,sp,48
   1c46e:	16068f63          	beqz	a3,1c5ec <__subtf3+0x68c>
   1c472:	00f77693          	and	a3,a4,15
   1c476:	4611                	li	a2,4
   1c478:	02c68263          	beq	a3,a2,1c49c <__subtf3+0x53c>
   1c47c:	56d2                	lw	a3,52(sp)
   1c47e:	0711                	add	a4,a4,4
   1c480:	55e2                	lw	a1,56(sp)
   1c482:	00473613          	sltiu	a2,a4,4
   1c486:	9636                	add	a2,a2,a3
   1c488:	00d636b3          	sltu	a3,a2,a3
   1c48c:	96ae                	add	a3,a3,a1
   1c48e:	00b6b5b3          	sltu	a1,a3,a1
   1c492:	9e2e                	add	t3,t3,a1
   1c494:	d83a                	sw	a4,48(sp)
   1c496:	da32                	sw	a2,52(sp)
   1c498:	dc36                	sw	a3,56(sp)
   1c49a:	de72                	sw	t3,60(sp)
   1c49c:	00080737          	lui	a4,0x80
   1c4a0:	00ee7733          	and	a4,t3,a4
   1c4a4:	cb61                	beqz	a4,1c574 <__subtf3+0x614>
   1c4a6:	6721                	lui	a4,0x8
   1c4a8:	0405                	add	s0,s0,1
   1c4aa:	177d                	add	a4,a4,-1 # 7fff <register_fini-0x8095>
   1c4ac:	0ee40063          	beq	s0,a4,1c58c <__subtf3+0x62c>
   1c4b0:	fff80637          	lui	a2,0xfff80
   1c4b4:	167d                	add	a2,a2,-1 # fff7ffff <__BSS_END__+0xfff614db>
   1c4b6:	00ce7633          	and	a2,t3,a2
   1c4ba:	de32                	sw	a2,60(sp)
   1c4bc:	820d                	srl	a2,a2,0x3
   1c4be:	56c2                	lw	a3,48(sp)
   1c4c0:	1868                	add	a0,sp,60
   1c4c2:	0036d593          	srl	a1,a3,0x3
   1c4c6:	43d4                	lw	a3,4(a5)
   1c4c8:	0791                	add	a5,a5,4
   1c4ca:	01d69713          	sll	a4,a3,0x1d
   1c4ce:	8f4d                	or	a4,a4,a1
   1c4d0:	fee7ae23          	sw	a4,-4(a5)
   1c4d4:	fea797e3          	bne	a5,a0,1c4c2 <__subtf3+0x562>
   1c4d8:	67a1                	lui	a5,0x8
   1c4da:	17fd                	add	a5,a5,-1 # 7fff <register_fini-0x8095>
   1c4dc:	5742                	lw	a4,48(sp)
   1c4de:	55d2                	lw	a1,52(sp)
   1c4e0:	56e2                	lw	a3,56(sp)
   1c4e2:	08f40c63          	beq	s0,a5,1c57a <__subtf3+0x61a>
   1c4e6:	01061793          	sll	a5,a2,0x10
   1c4ea:	83c1                	srl	a5,a5,0x10
   1c4ec:	8885                	and	s1,s1,1
   1c4ee:	0446                	sll	s0,s0,0x11
   1c4f0:	8045                	srl	s0,s0,0x11
   1c4f2:	04be                	sll	s1,s1,0xf
   1c4f4:	8cc1                	or	s1,s1,s0
   1c4f6:	00911723          	sh	s1,14(sp)
   1c4fa:	00f11623          	sh	a5,12(sp)
   1c4fe:	47b2                	lw	a5,12(sp)
   1c500:	40f6                	lw	ra,92(sp)
   1c502:	4466                	lw	s0,88(sp)
   1c504:	00e92023          	sw	a4,0(s2)
   1c508:	00b92223          	sw	a1,4(s2)
   1c50c:	00d92423          	sw	a3,8(s2)
   1c510:	00f92623          	sw	a5,12(s2)
   1c514:	44d6                	lw	s1,84(sp)
   1c516:	854a                	mv	a0,s2
   1c518:	4946                	lw	s2,80(sp)
   1c51a:	6125                	add	sp,sp,96
   1c51c:	8082                	ret
   1c51e:	fff807b7          	lui	a5,0xfff80
   1c522:	17fd                	add	a5,a5,-1 # fff7ffff <__BSS_END__+0xfff614db>
   1c524:	00fe75b3          	and	a1,t3,a5
   1c528:	181c                	add	a5,sp,48
   1c52a:	de2e                	sw	a1,60(sp)
   1c52c:	0405                	add	s0,s0,1
   1c52e:	01f71813          	sll	a6,a4,0x1f
   1c532:	86be                	mv	a3,a5
   1c534:	03c10893          	add	a7,sp,60
   1c538:	00175513          	srl	a0,a4,0x1
   1c53c:	42d8                	lw	a4,4(a3)
   1c53e:	0691                	add	a3,a3,4
   1c540:	01f71613          	sll	a2,a4,0x1f
   1c544:	8e49                	or	a2,a2,a0
   1c546:	fec6ae23          	sw	a2,-4(a3)
   1c54a:	ff1697e3          	bne	a3,a7,1c538 <__subtf3+0x5d8>
   1c54e:	5742                	lw	a4,48(sp)
   1c550:	010036b3          	snez	a3,a6
   1c554:	0015de13          	srl	t3,a1,0x1
   1c558:	8f55                	or	a4,a4,a3
   1c55a:	66a1                	lui	a3,0x8
   1c55c:	de72                	sw	t3,60(sp)
   1c55e:	d83a                	sw	a4,48(sp)
   1c560:	16fd                	add	a3,a3,-1 # 7fff <register_fini-0x8095>
   1c562:	3ed41263          	bne	s0,a3,1c946 <__subtf3+0x9e6>
   1c566:	6421                	lui	s0,0x8
   1c568:	de02                	sw	zero,60(sp)
   1c56a:	dc02                	sw	zero,56(sp)
   1c56c:	da02                	sw	zero,52(sp)
   1c56e:	d802                	sw	zero,48(sp)
   1c570:	147d                	add	s0,s0,-1 # 7fff <register_fini-0x8095>
   1c572:	4e01                	li	t3,0
   1c574:	003e5613          	srl	a2,t3,0x3
   1c578:	b799                	j	1c4be <__subtf3+0x55e>
   1c57a:	8f4d                	or	a4,a4,a1
   1c57c:	8f55                	or	a4,a4,a3
   1c57e:	8f51                	or	a4,a4,a2
   1c580:	ef01                	bnez	a4,1c598 <__subtf3+0x638>
   1c582:	8885                	and	s1,s1,1
   1c584:	4681                	li	a3,0
   1c586:	4581                	li	a1,0
   1c588:	4781                	li	a5,0
   1c58a:	b795                	j	1c4ee <__subtf3+0x58e>
   1c58c:	de02                	sw	zero,60(sp)
   1c58e:	dc02                	sw	zero,56(sp)
   1c590:	da02                	sw	zero,52(sp)
   1c592:	d802                	sw	zero,48(sp)
   1c594:	4601                	li	a2,0
   1c596:	b725                	j	1c4be <__subtf3+0x55e>
   1c598:	4481                	li	s1,0
   1c59a:	67a1                	lui	a5,0x8
   1c59c:	4681                	li	a3,0
   1c59e:	4581                	li	a1,0
   1c5a0:	4701                	li	a4,0
   1c5a2:	b7b1                	j	1c4ee <__subtf3+0x58e>
   1c5a4:	00140793          	add	a5,s0,1
   1c5a8:	01179713          	sll	a4,a5,0x11
   1c5ac:	8349                	srl	a4,a4,0x12
   1c5ae:	4ed2                	lw	t4,20(sp)
   1c5b0:	4f62                	lw	t5,24(sp)
   1c5b2:	46f2                	lw	a3,28(sp)
   1c5b4:	6521                	lui	a0,0x8
   1c5b6:	14071763          	bnez	a4,1c704 <__subtf3+0x7a4>
   1c5ba:	01f66733          	or	a4,a2,t6
   1c5be:	01eee7b3          	or	a5,t4,t5
   1c5c2:	00676733          	or	a4,a4,t1
   1c5c6:	8fd5                	or	a5,a5,a3
   1c5c8:	01c76733          	or	a4,a4,t3
   1c5cc:	0117e7b3          	or	a5,a5,a7
   1c5d0:	4c041b63          	bnez	s0,1caa6 <__subtf3+0xb46>
   1c5d4:	6e078863          	beqz	a5,1ccc4 <__subtf3+0xd64>
   1c5d8:	74071663          	bnez	a4,1cd24 <__subtf3+0xdc4>
   1c5dc:	d846                	sw	a7,48(sp)
   1c5de:	da76                	sw	t4,52(sp)
   1c5e0:	dc7a                	sw	t5,56(sp)
   1c5e2:	de36                	sw	a3,60(sp)
   1c5e4:	8e36                	mv	t3,a3
   1c5e6:	181c                	add	a5,sp,48
   1c5e8:	bd55                	j	1c49c <__subtf3+0x53c>
   1c5ea:	de72                	sw	t3,60(sp)
   1c5ec:	003e5613          	srl	a2,t3,0x3
   1c5f0:	181c                	add	a5,sp,48
   1c5f2:	b5f1                	j	1c4be <__subtf3+0x55e>
   1c5f4:	006785b3          	add	a1,a5,t1
   1c5f8:	418c                	lw	a1,0(a1)
   1c5fa:	0685                	add	a3,a3,1
   1c5fc:	0791                	add	a5,a5,4 # 8004 <register_fini-0x8090>
   1c5fe:	feb7ae23          	sw	a1,-4(a5)
   1c602:	fed759e3          	bge	a4,a3,1c5f4 <__subtf3+0x694>
   1c606:	4791                	li	a5,4
   1c608:	405787b3          	sub	a5,a5,t0
   1c60c:	4711                	li	a4,4
   1c60e:	5582                	lw	a1,32(sp)
   1c610:	02e78563          	beq	a5,a4,1c63a <__subtf3+0x6da>
   1c614:	4711                	li	a4,4
   1c616:	8f1d                	sub	a4,a4,a5
   1c618:	070a                	sll	a4,a4,0x2
   1c61a:	078a                	sll	a5,a5,0x2
   1c61c:	46a1                	li	a3,8
   1c61e:	97fe                	add	a5,a5,t6
   1c620:	00d76863          	bltu	a4,a3,1c630 <__subtf3+0x6d0>
   1c624:	0007a023          	sw	zero,0(a5)
   1c628:	0007a223          	sw	zero,4(a5)
   1c62c:	1761                	add	a4,a4,-8
   1c62e:	07a1                	add	a5,a5,8
   1c630:	4691                	li	a3,4
   1c632:	00d76463          	bltu	a4,a3,1c63a <__subtf3+0x6da>
   1c636:	0007a023          	sw	zero,0(a5)
   1c63a:	00c03733          	snez	a4,a2
   1c63e:	5812                	lw	a6,36(sp)
   1c640:	56a2                	lw	a3,40(sp)
   1c642:	5632                	lw	a2,44(sp)
   1c644:	8f4d                	or	a4,a4,a1
   1c646:	b411                	j	1c04a <__subtf3+0xea>
   1c648:	fffe8513          	add	a0,t4,-1
   1c64c:	00deb5b3          	sltu	a1,t4,a3
   1c650:	8d15                	sub	a0,a0,a3
   1c652:	41d686b3          	sub	a3,a3,t4
   1c656:	0016b693          	seqz	a3,a3
   1c65a:	8dd5                	or	a1,a1,a3
   1c65c:	bc29                	j	1c076 <__subtf3+0x116>
   1c65e:	d846                	sw	a7,48(sp)
   1c660:	da2a                	sw	a0,52(sp)
   1c662:	dc76                	sw	t4,56(sp)
   1c664:	de72                	sw	t3,60(sp)
   1c666:	8436                	mv	s0,a3
   1c668:	181c                	add	a5,sp,48
   1c66a:	bd0d                	j	1c49c <__subtf3+0x53c>
   1c66c:	00140513          	add	a0,s0,1
   1c670:	01151693          	sll	a3,a0,0x11
   1c674:	82c9                	srl	a3,a3,0x12
   1c676:	47d2                	lw	a5,20(sp)
   1c678:	4762                	lw	a4,24(sp)
   1c67a:	45f2                	lw	a1,28(sp)
   1c67c:	6821                	lui	a6,0x8
   1c67e:	3c069363          	bnez	a3,1ca44 <__subtf3+0xae4>
   1c682:	00e7e6b3          	or	a3,a5,a4
   1c686:	8ecd                	or	a3,a3,a1
   1c688:	0116e6b3          	or	a3,a3,a7
   1c68c:	62041163          	bnez	s0,1ccae <__subtf3+0xd4e>
   1c690:	7c068063          	beqz	a3,1ce50 <__subtf3+0xef0>
   1c694:	01f666b3          	or	a3,a2,t6
   1c698:	0066e6b3          	or	a3,a3,t1
   1c69c:	01c6e6b3          	or	a3,a3,t3
   1c6a0:	7a069f63          	bnez	a3,1ce5e <__subtf3+0xefe>
   1c6a4:	da3e                	sw	a5,52(sp)
   1c6a6:	d846                	sw	a7,48(sp)
   1c6a8:	dc3a                	sw	a4,56(sp)
   1c6aa:	de2e                	sw	a1,60(sp)
   1c6ac:	8e2e                	mv	t3,a1
   1c6ae:	181c                	add	a5,sp,48
   1c6b0:	b3f5                	j	1c49c <__subtf3+0x53c>
   1c6b2:	67a1                	lui	a5,0x8
   1c6b4:	17fd                	add	a5,a5,-1 # 7fff <register_fini-0x8095>
   1c6b6:	7ef80d63          	beq	a6,a5,1ceb0 <__subtf3+0xf50>
   1c6ba:	46f2                	lw	a3,28(sp)
   1c6bc:	00080537          	lui	a0,0x80
   1c6c0:	07400793          	li	a5,116
   1c6c4:	8ec9                	or	a3,a3,a0
   1c6c6:	ce36                	sw	a3,28(sp)
   1c6c8:	3677d163          	bge	a5,t2,1ca2a <__subtf3+0xaca>
   1c6cc:	857e                	mv	a0,t6
   1c6ce:	8eb2                	mv	t4,a2
   1c6d0:	4681                	li	a3,0
   1c6d2:	4881                	li	a7,0
   1c6d4:	4705                	li	a4,1
   1c6d6:	40e30733          	sub	a4,t1,a4
   1c6da:	00e337b3          	sltu	a5,t1,a4
   1c6de:	01d63f33          	sltu	t5,a2,t4
   1c6e2:	40fe87b3          	sub	a5,t4,a5
   1c6e6:	00e37463          	bgeu	t1,a4,1c6ee <__subtf3+0x78e>
   1c6ea:	51160a63          	beq	a2,a7,1cbfe <__subtf3+0xc9e>
   1c6ee:	00afb8b3          	sltu	a7,t6,a0
   1c6f2:	41e50533          	sub	a0,a0,t5
   1c6f6:	51d66763          	bltu	a2,t4,1cc04 <__subtf3+0xca4>
   1c6fa:	411e0e33          	sub	t3,t3,a7
   1c6fe:	8442                	mv	s0,a6
   1c700:	84ae                	mv	s1,a1
   1c702:	bab5                	j	1c07e <__subtf3+0x11e>
   1c704:	40ce8733          	sub	a4,t4,a2
   1c708:	406887b3          	sub	a5,a7,t1
   1c70c:	00eeb3b3          	sltu	t2,t4,a4
   1c710:	c6ce                	sw	s3,76(sp)
   1c712:	00f8b533          	sltu	a0,a7,a5
   1c716:	899e                	mv	s3,t2
   1c718:	8f09                	sub	a4,a4,a0
   1c71a:	41ff0833          	sub	a6,t5,t6
   1c71e:	01ff32b3          	sltu	t0,t5,t6
   1c722:	04f8f363          	bgeu	a7,a5,1c768 <__subtf3+0x808>
   1c726:	05d61163          	bne	a2,t4,1c768 <__subtf3+0x808>
   1c72a:	187d                	add	a6,a6,-1 # 7fff <register_fini-0x8095>
   1c72c:	41ef8533          	sub	a0,t6,t5
   1c730:	00153513          	seqz	a0,a0
   1c734:	00a2e2b3          	or	t0,t0,a0
   1c738:	41c68533          	sub	a0,a3,t3
   1c73c:	40550533          	sub	a0,a0,t0
   1c740:	de2a                	sw	a0,60(sp)
   1c742:	dc42                	sw	a6,56(sp)
   1c744:	da3a                	sw	a4,52(sp)
   1c746:	d83e                	sw	a5,48(sp)
   1c748:	00c51293          	sll	t0,a0,0xc
   1c74c:	3a02c963          	bltz	t0,1cafe <__subtf3+0xb9e>
   1c750:	8fd9                	or	a5,a5,a4
   1c752:	0107e7b3          	or	a5,a5,a6
   1c756:	8fc9                	or	a5,a5,a0
   1c758:	3e079363          	bnez	a5,1cb3e <__subtf3+0xbde>
   1c75c:	49b6                	lw	s3,76(sp)
   1c75e:	4401                	li	s0,0
   1c760:	4481                	li	s1,0
   1c762:	181c                	add	a5,sp,48
   1c764:	4e01                	li	t3,0
   1c766:	b539                	j	1c574 <__subtf3+0x614>
   1c768:	41380833          	sub	a6,a6,s3
   1c76c:	fc0386e3          	beqz	t2,1c738 <__subtf3+0x7d8>
   1c770:	bf75                	j	1c72c <__subtf3+0x7cc>
   1c772:	5552                	lw	a0,52(sp)
   1c774:	28051863          	bnez	a0,1ca04 <__subtf3+0xaa4>
   1c778:	c6ce                	sw	s3,76(sp)
   1c77a:	59c2                	lw	s3,48(sp)
   1c77c:	854e                	mv	a0,s3
   1c77e:	4bf000ef          	jal	1d43c <__clzsi2>
   1c782:	05450613          	add	a2,a0,84 # 80054 <__BSS_END__+0x61530>
   1c786:	01f67893          	and	a7,a2,31
   1c78a:	64089063          	bnez	a7,1cdca <__subtf3+0xe6a>
   1c78e:	49b6                	lw	s3,76(sp)
   1c790:	40565593          	sra	a1,a2,0x5
   1c794:	40b006b3          	neg	a3,a1
   1c798:	068a                	sll	a3,a3,0x2
   1c79a:	00c68713          	add	a4,a3,12
   1c79e:	181c                	add	a5,sp,48
   1c7a0:	973e                	add	a4,a4,a5
   1c7a2:	40d006b3          	neg	a3,a3
   1c7a6:	00072883          	lw	a7,0(a4)
   1c7aa:	00d70833          	add	a6,a4,a3
   1c7ae:	853a                	mv	a0,a4
   1c7b0:	01182023          	sw	a7,0(a6)
   1c7b4:	1771                	add	a4,a4,-4
   1c7b6:	fef518e3          	bne	a0,a5,1c7a6 <__subtf3+0x846>
   1c7ba:	fff58713          	add	a4,a1,-1
   1c7be:	a095                	j	1c822 <__subtf3+0x8c2>
   1c7c0:	c6ce                	sw	s3,76(sp)
   1c7c2:	47b000ef          	jal	1d43c <__clzsi2>
   1c7c6:	ff450613          	add	a2,a0,-12
   1c7ca:	88b2                	mv	a7,a2
   1c7cc:	59c2                	lw	s3,48(sp)
   1c7ce:	02000e13          	li	t3,32
   1c7d2:	40ce0e33          	sub	t3,t3,a2
   1c7d6:	4581                	li	a1,0
   1c7d8:	011999b3          	sll	s3,s3,a7
   1c7dc:	40b00833          	neg	a6,a1
   1c7e0:	080a                	sll	a6,a6,0x2
   1c7e2:	00c80713          	add	a4,a6,12
   1c7e6:	181c                	add	a5,sp,48
   1c7e8:	973e                	add	a4,a4,a5
   1c7ea:	41000833          	neg	a6,a6
   1c7ee:	4314                	lw	a3,0(a4)
   1c7f0:	ffc72503          	lw	a0,-4(a4)
   1c7f4:	01070333          	add	t1,a4,a6
   1c7f8:	011696b3          	sll	a3,a3,a7
   1c7fc:	01c55533          	srl	a0,a0,t3
   1c800:	8ec9                	or	a3,a3,a0
   1c802:	00d32023          	sw	a3,0(t1)
   1c806:	1771                	add	a4,a4,-4
   1c808:	fee793e3          	bne	a5,a4,1c7ee <__subtf3+0x88e>
   1c80c:	00259693          	sll	a3,a1,0x2
   1c810:	04068713          	add	a4,a3,64
   1c814:	002706b3          	add	a3,a4,sp
   1c818:	ff36a823          	sw	s3,-16(a3)
   1c81c:	49b6                	lw	s3,76(sp)
   1c81e:	fff58713          	add	a4,a1,-1
   1c822:	56fd                	li	a3,-1
   1c824:	02d70263          	beq	a4,a3,1c848 <__subtf3+0x8e8>
   1c828:	0705                	add	a4,a4,1
   1c82a:	070a                	sll	a4,a4,0x2
   1c82c:	45a1                	li	a1,8
   1c82e:	86be                	mv	a3,a5
   1c830:	00b76763          	bltu	a4,a1,1c83e <__subtf3+0x8de>
   1c834:	d802                	sw	zero,48(sp)
   1c836:	0007a223          	sw	zero,4(a5)
   1c83a:	1834                	add	a3,sp,56
   1c83c:	1761                	add	a4,a4,-8
   1c83e:	4591                	li	a1,4
   1c840:	00b76463          	bltu	a4,a1,1c848 <__subtf3+0x8e8>
   1c844:	0006a023          	sw	zero,0(a3)
   1c848:	0e864663          	blt	a2,s0,1c934 <__subtf3+0x9d4>
   1c84c:	408606b3          	sub	a3,a2,s0
   1c850:	0685                	add	a3,a3,1
   1c852:	4056d313          	sra	t1,a3,0x5
   1c856:	8afd                	and	a3,a3,31
   1c858:	54030c63          	beqz	t1,1cdb0 <__subtf3+0xe50>
   1c85c:	00231593          	sll	a1,t1,0x2
   1c860:	863e                	mv	a2,a5
   1c862:	00f58833          	add	a6,a1,a5
   1c866:	4701                	li	a4,0
   1c868:	4208                	lw	a0,0(a2)
   1c86a:	0611                	add	a2,a2,4
   1c86c:	8f49                	or	a4,a4,a0
   1c86e:	fec81de3          	bne	a6,a2,1c868 <__subtf3+0x908>
   1c872:	450d                	li	a0,3
   1c874:	40650533          	sub	a0,a0,t1
   1c878:	c2ad                	beqz	a3,1c8da <__subtf3+0x97a>
   1c87a:	04058613          	add	a2,a1,64
   1c87e:	960a                	add	a2,a2,sp
   1c880:	ff062603          	lw	a2,-16(a2)
   1c884:	5ef2                	lw	t4,60(sp)
   1c886:	02000e13          	li	t3,32
   1c88a:	40de0e33          	sub	t3,t3,a3
   1c88e:	01c61633          	sll	a2,a2,t3
   1c892:	8f51                	or	a4,a4,a2
   1c894:	00dedeb3          	srl	t4,t4,a3
   1c898:	50050a63          	beqz	a0,1cdac <__subtf3+0xe4c>
   1c89c:	050a                	sll	a0,a0,0x2
   1c89e:	00b78633          	add	a2,a5,a1
   1c8a2:	883e                	mv	a6,a5
   1c8a4:	00a78f33          	add	t5,a5,a0
   1c8a8:	420c                	lw	a1,0(a2)
   1c8aa:	00462883          	lw	a7,4(a2)
   1c8ae:	0811                	add	a6,a6,4
   1c8b0:	00d5d5b3          	srl	a1,a1,a3
   1c8b4:	01c898b3          	sll	a7,a7,t3
   1c8b8:	0115e5b3          	or	a1,a1,a7
   1c8bc:	feb82e23          	sw	a1,-4(a6)
   1c8c0:	0611                	add	a2,a2,4
   1c8c2:	ff0f13e3          	bne	t5,a6,1c8a8 <__subtf3+0x948>
   1c8c6:	04050693          	add	a3,a0,64
   1c8ca:	00268533          	add	a0,a3,sp
   1c8ce:	4691                	li	a3,4
   1c8d0:	406686b3          	sub	a3,a3,t1
   1c8d4:	ffd52823          	sw	t4,-16(a0)
   1c8d8:	a839                	j	1c8f6 <__subtf3+0x996>
   1c8da:	863e                	mv	a2,a5
   1c8dc:	00b60833          	add	a6,a2,a1
   1c8e0:	00082803          	lw	a6,0(a6)
   1c8e4:	0685                	add	a3,a3,1
   1c8e6:	0611                	add	a2,a2,4
   1c8e8:	ff062e23          	sw	a6,-4(a2)
   1c8ec:	fed558e3          	bge	a0,a3,1c8dc <__subtf3+0x97c>
   1c8f0:	4691                	li	a3,4
   1c8f2:	406686b3          	sub	a3,a3,t1
   1c8f6:	4611                	li	a2,4
   1c8f8:	5ec2                	lw	t4,48(sp)
   1c8fa:	02c68563          	beq	a3,a2,1c924 <__subtf3+0x9c4>
   1c8fe:	4611                	li	a2,4
   1c900:	8e15                	sub	a2,a2,a3
   1c902:	060a                	sll	a2,a2,0x2
   1c904:	068a                	sll	a3,a3,0x2
   1c906:	45a1                	li	a1,8
   1c908:	96be                	add	a3,a3,a5
   1c90a:	00b66863          	bltu	a2,a1,1c91a <__subtf3+0x9ba>
   1c90e:	0006a023          	sw	zero,0(a3)
   1c912:	0006a223          	sw	zero,4(a3)
   1c916:	1661                	add	a2,a2,-8
   1c918:	06a1                	add	a3,a3,8
   1c91a:	4591                	li	a1,4
   1c91c:	00b66463          	bltu	a2,a1,1c924 <__subtf3+0x9c4>
   1c920:	0006a023          	sw	zero,0(a3)
   1c924:	00e03733          	snez	a4,a4
   1c928:	01d76733          	or	a4,a4,t4
   1c92c:	5e72                	lw	t3,60(sp)
   1c92e:	d83a                	sw	a4,48(sp)
   1c930:	4401                	li	s0,0
   1c932:	a811                	j	1c946 <__subtf3+0x9e6>
   1c934:	5e72                	lw	t3,60(sp)
   1c936:	fff806b7          	lui	a3,0xfff80
   1c93a:	16fd                	add	a3,a3,-1 # fff7ffff <__BSS_END__+0xfff614db>
   1c93c:	5742                	lw	a4,48(sp)
   1c93e:	00de7e33          	and	t3,t3,a3
   1c942:	8c11                	sub	s0,s0,a2
   1c944:	de72                	sw	t3,60(sp)
   1c946:	00777693          	and	a3,a4,7
   1c94a:	b20694e3          	bnez	a3,1c472 <__subtf3+0x512>
   1c94e:	b6b9                	j	1c49c <__subtf3+0x53c>
   1c950:	006785b3          	add	a1,a5,t1
   1c954:	418c                	lw	a1,0(a1)
   1c956:	0685                	add	a3,a3,1
   1c958:	0791                	add	a5,a5,4
   1c95a:	feb7ae23          	sw	a1,-4(a5)
   1c95e:	fed759e3          	bge	a4,a3,1c950 <__subtf3+0x9f0>
   1c962:	4791                	li	a5,4
   1c964:	41e787b3          	sub	a5,a5,t5
   1c968:	4711                	li	a4,4
   1c96a:	5582                	lw	a1,32(sp)
   1c96c:	02e78563          	beq	a5,a4,1c996 <__subtf3+0xa36>
   1c970:	4711                	li	a4,4
   1c972:	8f1d                	sub	a4,a4,a5
   1c974:	070a                	sll	a4,a4,0x2
   1c976:	078a                	sll	a5,a5,0x2
   1c978:	46a1                	li	a3,8
   1c97a:	97fe                	add	a5,a5,t6
   1c97c:	00d76863          	bltu	a4,a3,1c98c <__subtf3+0xa2c>
   1c980:	0007a023          	sw	zero,0(a5)
   1c984:	0007a223          	sw	zero,4(a5)
   1c988:	1761                	add	a4,a4,-8
   1c98a:	07a1                	add	a5,a5,8
   1c98c:	4691                	li	a3,4
   1c98e:	00d76463          	bltu	a4,a3,1c996 <__subtf3+0xa36>
   1c992:	0007a023          	sw	zero,0(a5)
   1c996:	00c03733          	snez	a4,a2
   1c99a:	5792                	lw	a5,36(sp)
   1c99c:	56a2                	lw	a3,40(sp)
   1c99e:	5832                	lw	a6,44(sp)
   1c9a0:	8f4d                	or	a4,a4,a1
   1c9a2:	b461                	j	1c42a <__subtf3+0x4ca>
   1c9a4:	67a1                	lui	a5,0x8
   1c9a6:	17fd                	add	a5,a5,-1 # 7fff <register_fini-0x8095>
   1c9a8:	66f80163          	beq	a6,a5,1d00a <__subtf3+0x10aa>
   1c9ac:	46f2                	lw	a3,28(sp)
   1c9ae:	000805b7          	lui	a1,0x80
   1c9b2:	07400793          	li	a5,116
   1c9b6:	8ecd                	or	a3,a3,a1
   1c9b8:	ce36                	sw	a3,28(sp)
   1c9ba:	42a7d363          	bge	a5,a0,1cde0 <__subtf3+0xe80>
   1c9be:	85fe                	mv	a1,t6
   1c9c0:	87b2                	mv	a5,a2
   1c9c2:	4705                	li	a4,1
   1c9c4:	971a                	add	a4,a4,t1
   1c9c6:	00673333          	sltu	t1,a4,t1
   1c9ca:	00f308b3          	add	a7,t1,a5
   1c9ce:	0068b333          	sltu	t1,a7,t1
   1c9d2:	00c7b7b3          	sltu	a5,a5,a2
   1c9d6:	0067e6b3          	or	a3,a5,t1
   1c9da:	00b687b3          	add	a5,a3,a1
   1c9de:	00d7b6b3          	sltu	a3,a5,a3
   1c9e2:	01f5b5b3          	sltu	a1,a1,t6
   1c9e6:	8ecd                	or	a3,a3,a1
   1c9e8:	9e36                	add	t3,t3,a3
   1c9ea:	8442                	mv	s0,a6
   1c9ec:	b4b5                	j	1c458 <__subtf3+0x4f8>
   1c9ee:	c6ce                	sw	s3,76(sp)
   1c9f0:	59c2                	lw	s3,48(sp)
   1c9f2:	02000e13          	li	t3,32
   1c9f6:	40565593          	sra	a1,a2,0x5
   1c9fa:	411e0e33          	sub	t3,t3,a7
   1c9fe:	011999b3          	sll	s3,s3,a7
   1ca02:	bbe9                	j	1c7dc <__subtf3+0x87c>
   1ca04:	239000ef          	jal	1d43c <__clzsi2>
   1ca08:	03450613          	add	a2,a0,52
   1ca0c:	01f67893          	and	a7,a2,31
   1ca10:	40565593          	sra	a1,a2,0x5
   1ca14:	d80880e3          	beqz	a7,1c794 <__subtf3+0x834>
   1ca18:	c6ce                	sw	s3,76(sp)
   1ca1a:	59c2                	lw	s3,48(sp)
   1ca1c:	02000e13          	li	t3,32
   1ca20:	411e0e33          	sub	t3,t3,a7
   1ca24:	011999b3          	sll	s3,s3,a7
   1ca28:	bb55                	j	1c7dc <__subtf3+0x87c>
   1ca2a:	41f3d513          	sra	a0,t2,0x1f
   1ca2e:	897d                	and	a0,a0,31
   1ca30:	951e                	add	a0,a0,t2
   1ca32:	47fd                	li	a5,31
   1ca34:	8515                	sra	a0,a0,0x5
   1ca36:	fc77c063          	blt	a5,t2,1c1f6 <__subtf3+0x296>
   1ca3a:	842a                	mv	s0,a0
   1ca3c:	4781                	li	a5,0
   1ca3e:	4501                	li	a0,0
   1ca40:	fccff06f          	j	1c20c <__subtf3+0x2ac>
   1ca44:	9346                	add	t1,t1,a7
   1ca46:	97b2                	add	a5,a5,a2
   1ca48:	01133833          	sltu	a6,t1,a7
   1ca4c:	983e                	add	a6,a6,a5
   1ca4e:	00c7b6b3          	sltu	a3,a5,a2
   1ca52:	00f837b3          	sltu	a5,a6,a5
   1ca56:	977e                	add	a4,a4,t6
   1ca58:	8edd                	or	a3,a3,a5
   1ca5a:	96ba                	add	a3,a3,a4
   1ca5c:	01f73633          	sltu	a2,a4,t6
   1ca60:	00e6b733          	sltu	a4,a3,a4
   1ca64:	8e59                	or	a2,a2,a4
   1ca66:	95f2                	add	a1,a1,t3
   1ca68:	962e                	add	a2,a2,a1
   1ca6a:	181c                	add	a5,sp,48
   1ca6c:	da42                	sw	a6,52(sp)
   1ca6e:	d81a                	sw	t1,48(sp)
   1ca70:	dc36                	sw	a3,56(sp)
   1ca72:	de32                	sw	a2,60(sp)
   1ca74:	873e                	mv	a4,a5
   1ca76:	03c10813          	add	a6,sp,60
   1ca7a:	00135593          	srl	a1,t1,0x1
   1ca7e:	00472303          	lw	t1,4(a4)
   1ca82:	0711                	add	a4,a4,4
   1ca84:	01f31693          	sll	a3,t1,0x1f
   1ca88:	8ecd                	or	a3,a3,a1
   1ca8a:	fed72e23          	sw	a3,-4(a4)
   1ca8e:	fee816e3          	bne	a6,a4,1ca7a <__subtf3+0xb1a>
   1ca92:	00165e13          	srl	t3,a2,0x1
   1ca96:	6721                	lui	a4,0x8
   1ca98:	de72                	sw	t3,60(sp)
   1ca9a:	177d                	add	a4,a4,-1 # 7fff <register_fini-0x8095>
   1ca9c:	ace505e3          	beq	a0,a4,1c566 <__subtf3+0x606>
   1caa0:	5742                	lw	a4,48(sp)
   1caa2:	842a                	mv	s0,a0
   1caa4:	b54d                	j	1c946 <__subtf3+0x9e6>
   1caa6:	38079263          	bnez	a5,1ce2a <__subtf3+0xeca>
   1caaa:	54071663          	bnez	a4,1cff6 <__subtf3+0x1096>
   1caae:	de2a                	sw	a0,60(sp)
   1cab0:	dc02                	sw	zero,56(sp)
   1cab2:	da02                	sw	zero,52(sp)
   1cab4:	d802                	sw	zero,48(sp)
   1cab6:	181c                	add	a5,sp,48
   1cab8:	1878                	add	a4,sp,60
   1caba:	6621                	lui	a2,0x8
   1cabc:	00361593          	sll	a1,a2,0x3
   1cac0:	ffc72603          	lw	a2,-4(a4)
   1cac4:	1771                	add	a4,a4,-4
   1cac6:	01d65693          	srl	a3,a2,0x1d
   1caca:	8ecd                	or	a3,a3,a1
   1cacc:	c354                	sw	a3,4(a4)
   1cace:	fee797e3          	bne	a5,a4,1cabc <__subtf3+0xb5c>
   1cad2:	5e72                	lw	t3,60(sp)
   1cad4:	00080737          	lui	a4,0x80
   1cad8:	4481                	li	s1,0
   1cada:	00ee7733          	and	a4,t3,a4
   1cade:	6421                	lui	s0,0x8
   1cae0:	9c0718e3          	bnez	a4,1c4b0 <__subtf3+0x550>
   1cae4:	147d                	add	s0,s0,-1 # 7fff <register_fini-0x8095>
   1cae6:	003e5613          	srl	a2,t3,0x3
   1caea:	bad1                	j	1c4be <__subtf3+0x55e>
   1caec:	49b6                	lw	s3,76(sp)
   1caee:	d81a                	sw	t1,48(sp)
   1caf0:	da32                	sw	a2,52(sp)
   1caf2:	dc7e                	sw	t6,56(sp)
   1caf4:	de72                	sw	t3,60(sp)
   1caf6:	841e                	mv	s0,t2
   1caf8:	84ae                	mv	s1,a1
   1cafa:	181c                	add	a5,sp,48
   1cafc:	b245                	j	1c49c <__subtf3+0x53c>
   1cafe:	41130833          	sub	a6,t1,a7
   1cb02:	41d607b3          	sub	a5,a2,t4
   1cb06:	01033733          	sltu	a4,t1,a6
   1cb0a:	41ef8f33          	sub	t5,t6,t5
   1cb0e:	00f632b3          	sltu	t0,a2,a5
   1cb12:	8896                	mv	a7,t0
   1cb14:	40e78733          	sub	a4,a5,a4
   1cb18:	01efb533          	sltu	a0,t6,t5
   1cb1c:	01037463          	bgeu	t1,a6,1cb24 <__subtf3+0xbc4>
   1cb20:	33d60163          	beq	a2,t4,1ce42 <__subtf3+0xee2>
   1cb24:	411f0633          	sub	a2,t5,a7
   1cb28:	30029f63          	bnez	t0,1ce46 <__subtf3+0xee6>
   1cb2c:	40de07b3          	sub	a5,t3,a3
   1cb30:	40a78533          	sub	a0,a5,a0
   1cb34:	de2a                	sw	a0,60(sp)
   1cb36:	dc32                	sw	a2,56(sp)
   1cb38:	da3a                	sw	a4,52(sp)
   1cb3a:	d842                	sw	a6,48(sp)
   1cb3c:	84ae                	mv	s1,a1
   1cb3e:	54050d63          	beqz	a0,1d098 <__subtf3+0x1138>
   1cb42:	0fb000ef          	jal	1d43c <__clzsi2>
   1cb46:	ff450793          	add	a5,a0,-12
   1cb4a:	01f7f613          	and	a2,a5,31
   1cb4e:	4581                	li	a1,0
   1cb50:	54061063          	bnez	a2,1d090 <__subtf3+0x1130>
   1cb54:	49b6                	lw	s3,76(sp)
   1cb56:	b93d                	j	1c794 <__subtf3+0x834>
   1cb58:	9346                	add	t1,t1,a7
   1cb5a:	9eba                	add	t4,t4,a4
   1cb5c:	011338b3          	sltu	a7,t1,a7
   1cb60:	98f6                	add	a7,a7,t4
   1cb62:	00eeb7b3          	sltu	a5,t4,a4
   1cb66:	01d8beb3          	sltu	t4,a7,t4
   1cb6a:	00af0633          	add	a2,t5,a0
   1cb6e:	01d7e7b3          	or	a5,a5,t4
   1cb72:	97b2                	add	a5,a5,a2
   1cb74:	01e636b3          	sltu	a3,a2,t5
   1cb78:	00c7b633          	sltu	a2,a5,a2
   1cb7c:	8ed1                	or	a3,a3,a2
   1cb7e:	95f2                	add	a1,a1,t3
   1cb80:	871a                	mv	a4,t1
   1cb82:	00b68e33          	add	t3,a3,a1
   1cb86:	4405                	li	s0,1
   1cb88:	b8c1                	j	1c458 <__subtf3+0x4f8>
   1cb8a:	5702                	lw	a4,32(sp)
   1cb8c:	02000393          	li	t2,32
   1cb90:	40d383b3          	sub	t2,t2,a3
   1cb94:	00771633          	sll	a2,a4,t2
   1cb98:	c6ce                	sw	s3,76(sp)
   1cb9a:	00d5d5b3          	srl	a1,a1,a3
   1cb9e:	470d                	li	a4,3
   1cba0:	4301                	li	t1,0
   1cba2:	da6ff06f          	j	1c148 <__subtf3+0x1e8>
   1cba6:	d846                	sw	a7,48(sp)
   1cba8:	da76                	sw	t4,52(sp)
   1cbaa:	dc2a                	sw	a0,56(sp)
   1cbac:	de72                	sw	t3,60(sp)
   1cbae:	8436                	mv	s0,a3
   1cbb0:	181c                	add	a5,sp,48
   1cbb2:	b0ed                	j	1c49c <__subtf3+0x53c>
   1cbb4:	40688333          	sub	t1,a7,t1
   1cbb8:	41e507b3          	sub	a5,a0,t5
   1cbbc:	0068b6b3          	sltu	a3,a7,t1
   1cbc0:	871a                	mv	a4,t1
   1cbc2:	00f53333          	sltu	t1,a0,a5
   1cbc6:	8f9a                	mv	t6,t1
   1cbc8:	8f95                	sub	a5,a5,a3
   1cbca:	010eb633          	sltu	a2,t4,a6
   1cbce:	410e86b3          	sub	a3,t4,a6
   1cbd2:	00e8f463          	bgeu	a7,a4,1cbda <__subtf3+0xc7a>
   1cbd6:	02af0e63          	beq	t5,a0,1cc12 <__subtf3+0xcb2>
   1cbda:	41f68533          	sub	a0,a3,t6
   1cbde:	86b2                	mv	a3,a2
   1cbe0:	02031b63          	bnez	t1,1cc16 <__subtf3+0xcb6>
   1cbe4:	40be05b3          	sub	a1,t3,a1
   1cbe8:	40d58e33          	sub	t3,a1,a3
   1cbec:	4405                	li	s0,1
   1cbee:	c90ff06f          	j	1c07e <__subtf3+0x11e>
   1cbf2:	d846                	sw	a7,48(sp)
   1cbf4:	da2a                	sw	a0,52(sp)
   1cbf6:	dc76                	sw	t4,56(sp)
   1cbf8:	de72                	sw	t3,60(sp)
   1cbfa:	181c                	add	a5,sp,48
   1cbfc:	b045                	j	1c49c <__subtf3+0x53c>
   1cbfe:	00afb8b3          	sltu	a7,t6,a0
   1cc02:	157d                	add	a0,a0,-1
   1cc04:	40df86b3          	sub	a3,t6,a3
   1cc08:	0016b693          	seqz	a3,a3
   1cc0c:	00d8e8b3          	or	a7,a7,a3
   1cc10:	b4ed                	j	1c6fa <__subtf3+0x79a>
   1cc12:	fff68513          	add	a0,a3,-1
   1cc16:	41d806b3          	sub	a3,a6,t4
   1cc1a:	0016b693          	seqz	a3,a3
   1cc1e:	8ed1                	or	a3,a3,a2
   1cc20:	b7d1                	j	1cbe4 <__subtf3+0xc84>
   1cc22:	d846                	sw	a7,48(sp)
   1cc24:	da76                	sw	t4,52(sp)
   1cc26:	dc2a                	sw	a0,56(sp)
   1cc28:	de72                	sw	t3,60(sp)
   1cc2a:	181c                	add	a5,sp,48
   1cc2c:	b885                	j	1c49c <__subtf3+0x53c>
   1cc2e:	49b6                	lw	s3,76(sp)
   1cc30:	8396                	mv	t2,t0
   1cc32:	4501                	li	a0,0
   1cc34:	488d                	li	a7,3
   1cc36:	4781                	li	a5,0
   1cc38:	41f3d493          	sra	s1,t2,0x1f
   1cc3c:	00251713          	sll	a4,a0,0x2
   1cc40:	80ed                	srl	s1,s1,0x1b
   1cc42:	04070713          	add	a4,a4,64 # 80040 <__BSS_END__+0x6151c>
   1cc46:	00938533          	add	a0,t2,s1
   1cc4a:	970a                	add	a4,a4,sp
   1cc4c:	fd072703          	lw	a4,-48(a4)
   1cc50:	897d                	and	a0,a0,31
   1cc52:	40a483b3          	sub	t2,s1,a0
   1cc56:	02038393          	add	t2,t2,32
   1cc5a:	00771733          	sll	a4,a4,t2
   1cc5e:	8fd9                	or	a5,a5,a4
   1cc60:	3e088163          	beqz	a7,1d042 <__subtf3+0x10e2>
   1cc64:	c6ce                	sw	s3,76(sp)
   1cc66:	00241993          	sll	s3,s0,0x2
   1cc6a:	013e8733          	add	a4,t4,s3
   1cc6e:	0f21                	add	t5,t5,8
   1cc70:	413009b3          	neg	s3,s3
   1cc74:	4314                	lw	a3,0(a4)
   1cc76:	4348                	lw	a0,4(a4)
   1cc78:	013704b3          	add	s1,a4,s3
   1cc7c:	0056d6b3          	srl	a3,a3,t0
   1cc80:	00751533          	sll	a0,a0,t2
   1cc84:	8ec9                	or	a3,a3,a0
   1cc86:	c094                	sw	a3,0(s1)
   1cc88:	0711                	add	a4,a4,4
   1cc8a:	feef15e3          	bne	t5,a4,1cc74 <__subtf3+0xd14>
   1cc8e:	4572                	lw	a0,28(sp)
   1cc90:	00289693          	sll	a3,a7,0x2
   1cc94:	04068713          	add	a4,a3,64
   1cc98:	002706b3          	add	a3,a4,sp
   1cc9c:	00555533          	srl	a0,a0,t0
   1cca0:	4711                	li	a4,4
   1cca2:	49b6                	lw	s3,76(sp)
   1cca4:	8f01                	sub	a4,a4,s0
   1cca6:	fca6a823          	sw	a0,-48(a3)
   1ccaa:	d8aff06f          	j	1c234 <__subtf3+0x2d4>
   1ccae:	28069c63          	bnez	a3,1cf46 <__subtf3+0xfe6>
   1ccb2:	d81a                	sw	t1,48(sp)
   1ccb4:	da32                	sw	a2,52(sp)
   1ccb6:	dc7e                	sw	t6,56(sp)
   1ccb8:	de72                	sw	t3,60(sp)
   1ccba:	fff80413          	add	s0,a6,-1
   1ccbe:	181c                	add	a5,sp,48
   1ccc0:	fdcff06f          	j	1c49c <__subtf3+0x53c>
   1ccc4:	d81a                	sw	t1,48(sp)
   1ccc6:	da32                	sw	a2,52(sp)
   1ccc8:	dc7e                	sw	t6,56(sp)
   1ccca:	de72                	sw	t3,60(sp)
   1cccc:	a80709e3          	beqz	a4,1c75e <__subtf3+0x7fe>
   1ccd0:	00ce1793          	sll	a5,t3,0xc
   1ccd4:	84ae                	mv	s1,a1
   1ccd6:	3807d263          	bgez	a5,1d05a <__subtf3+0x10fa>
   1ccda:	4405                	li	s0,1
   1ccdc:	181c                	add	a5,sp,48
   1ccde:	fd2ff06f          	j	1c4b0 <__subtf3+0x550>
   1cce2:	41130733          	sub	a4,t1,a7
   1cce6:	413607b3          	sub	a5,a2,s3
   1ccea:	00e33833          	sltu	a6,t1,a4
   1ccee:	00f638b3          	sltu	a7,a2,a5
   1ccf2:	409f8533          	sub	a0,t6,s1
   1ccf6:	410787b3          	sub	a5,a5,a6
   1ccfa:	8ec6                	mv	t4,a7
   1ccfc:	00afb833          	sltu	a6,t6,a0
   1cd00:	00e37463          	bgeu	t1,a4,1cd08 <__subtf3+0xda8>
   1cd04:	28c98b63          	beq	s3,a2,1cf9a <__subtf3+0x103a>
   1cd08:	41d50533          	sub	a0,a0,t4
   1cd0c:	8642                	mv	a2,a6
   1cd0e:	28089763          	bnez	a7,1cf9c <__subtf3+0x103c>
   1cd12:	40de06b3          	sub	a3,t3,a3
   1cd16:	49b6                	lw	s3,76(sp)
   1cd18:	40c68e33          	sub	t3,a3,a2
   1cd1c:	84ae                	mv	s1,a1
   1cd1e:	4405                	li	s0,1
   1cd20:	b5eff06f          	j	1c07e <__subtf3+0x11e>
   1cd24:	40ce87b3          	sub	a5,t4,a2
   1cd28:	406882b3          	sub	t0,a7,t1
   1cd2c:	0058b533          	sltu	a0,a7,t0
   1cd30:	00feb733          	sltu	a4,t4,a5
   1cd34:	83ba                	mv	t2,a4
   1cd36:	8f89                	sub	a5,a5,a0
   1cd38:	01ff3833          	sltu	a6,t5,t6
   1cd3c:	41ff0533          	sub	a0,t5,t6
   1cd40:	0058f463          	bgeu	a7,t0,1cd48 <__subtf3+0xde8>
   1cd44:	27d60c63          	beq	a2,t4,1cfbc <__subtf3+0x105c>
   1cd48:	40750533          	sub	a0,a0,t2
   1cd4c:	26071963          	bnez	a4,1cfbe <__subtf3+0x105e>
   1cd50:	41c68733          	sub	a4,a3,t3
   1cd54:	41070733          	sub	a4,a4,a6
   1cd58:	de3a                	sw	a4,60(sp)
   1cd5a:	dc2a                	sw	a0,56(sp)
   1cd5c:	da3e                	sw	a5,52(sp)
   1cd5e:	d816                	sw	t0,48(sp)
   1cd60:	00c71813          	sll	a6,a4,0xc
   1cd64:	24085363          	bgez	a6,1cfaa <__subtf3+0x104a>
   1cd68:	41130833          	sub	a6,t1,a7
   1cd6c:	41d607b3          	sub	a5,a2,t4
   1cd70:	01033733          	sltu	a4,t1,a6
   1cd74:	00f638b3          	sltu	a7,a2,a5
   1cd78:	41ef8f33          	sub	t5,t6,t5
   1cd7c:	8f99                	sub	a5,a5,a4
   1cd7e:	8546                	mv	a0,a7
   1cd80:	01efb733          	sltu	a4,t6,t5
   1cd84:	01037463          	bgeu	t1,a6,1cd8c <__subtf3+0xe2c>
   1cd88:	2dd60263          	beq	a2,t4,1d04c <__subtf3+0x10ec>
   1cd8c:	40af0633          	sub	a2,t5,a0
   1cd90:	2c089063          	bnez	a7,1d050 <__subtf3+0x10f0>
   1cd94:	40de06b3          	sub	a3,t3,a3
   1cd98:	40e68e33          	sub	t3,a3,a4
   1cd9c:	da3e                	sw	a5,52(sp)
   1cd9e:	de72                	sw	t3,60(sp)
   1cda0:	dc32                	sw	a2,56(sp)
   1cda2:	d842                	sw	a6,48(sp)
   1cda4:	84ae                	mv	s1,a1
   1cda6:	181c                	add	a5,sp,48
   1cda8:	ef4ff06f          	j	1c49c <__subtf3+0x53c>
   1cdac:	4685                	li	a3,1
   1cdae:	be81                	j	1c8fe <__subtf3+0x99e>
   1cdb0:	5742                	lw	a4,48(sp)
   1cdb2:	5ef2                	lw	t4,60(sp)
   1cdb4:	02000e13          	li	t3,32
   1cdb8:	40de0e33          	sub	t3,t3,a3
   1cdbc:	01c71733          	sll	a4,a4,t3
   1cdc0:	00dedeb3          	srl	t4,t4,a3
   1cdc4:	450d                	li	a0,3
   1cdc6:	4581                	li	a1,0
   1cdc8:	bcd1                	j	1c89c <__subtf3+0x93c>
   1cdca:	05f00793          	li	a5,95
   1cdce:	011999b3          	sll	s3,s3,a7
   1cdd2:	28c7d963          	bge	a5,a2,1d064 <__subtf3+0x1104>
   1cdd6:	de4e                	sw	s3,60(sp)
   1cdd8:	4709                	li	a4,2
   1cdda:	49b6                	lw	s3,76(sp)
   1cddc:	181c                	add	a5,sp,48
   1cdde:	b4a9                	j	1c828 <__subtf3+0x8c8>
   1cde0:	41f55413          	sra	s0,a0,0x1f
   1cde4:	887d                	and	s0,s0,31
   1cde6:	942a                	add	s0,s0,a0
   1cde8:	47fd                	li	a5,31
   1cdea:	8415                	sra	s0,s0,0x5
   1cdec:	d8a7cc63          	blt	a5,a0,1c384 <__subtf3+0x424>
   1cdf0:	88a2                	mv	a7,s0
   1cdf2:	4781                	li	a5,0
   1cdf4:	4401                	li	s0,0
   1cdf6:	da6ff06f          	j	1c39c <__subtf3+0x43c>
   1cdfa:	4785                	li	a5,1
   1cdfc:	b821                	j	1c614 <__subtf3+0x6b4>
   1cdfe:	5702                	lw	a4,32(sp)
   1ce00:	02000393          	li	t2,32
   1ce04:	40d383b3          	sub	t2,t2,a3
   1ce08:	00771633          	sll	a2,a4,t2
   1ce0c:	c6ce                	sw	s3,76(sp)
   1ce0e:	00d5d5b3          	srl	a1,a1,a3
   1ce12:	470d                	li	a4,3
   1ce14:	4301                	li	t1,0
   1ce16:	ce4ff06f          	j	1c2fa <__subtf3+0x39a>
   1ce1a:	d81a                	sw	t1,48(sp)
   1ce1c:	da32                	sw	a2,52(sp)
   1ce1e:	dc7e                	sw	t6,56(sp)
   1ce20:	de72                	sw	t3,60(sp)
   1ce22:	842a                	mv	s0,a0
   1ce24:	181c                	add	a5,sp,48
   1ce26:	e76ff06f          	j	1c49c <__subtf3+0x53c>
   1ce2a:	1a071363          	bnez	a4,1cfd0 <__subtf3+0x1070>
   1ce2e:	d846                	sw	a7,48(sp)
   1ce30:	da76                	sw	t4,52(sp)
   1ce32:	dc7a                	sw	t5,56(sp)
   1ce34:	de36                	sw	a3,60(sp)
   1ce36:	8e36                	mv	t3,a3
   1ce38:	fff50413          	add	s0,a0,-1
   1ce3c:	181c                	add	a5,sp,48
   1ce3e:	e5eff06f          	j	1c49c <__subtf3+0x53c>
   1ce42:	ffff0613          	add	a2,t5,-1
   1ce46:	001f3f13          	seqz	t5,t5
   1ce4a:	01e56533          	or	a0,a0,t5
   1ce4e:	b9f9                	j	1cb2c <__subtf3+0xbcc>
   1ce50:	d81a                	sw	t1,48(sp)
   1ce52:	da32                	sw	a2,52(sp)
   1ce54:	dc7e                	sw	t6,56(sp)
   1ce56:	de72                	sw	t3,60(sp)
   1ce58:	181c                	add	a5,sp,48
   1ce5a:	e42ff06f          	j	1c49c <__subtf3+0x53c>
   1ce5e:	9346                	add	t1,t1,a7
   1ce60:	97b2                	add	a5,a5,a2
   1ce62:	011336b3          	sltu	a3,t1,a7
   1ce66:	96be                	add	a3,a3,a5
   1ce68:	00c7b633          	sltu	a2,a5,a2
   1ce6c:	00f6b7b3          	sltu	a5,a3,a5
   1ce70:	977e                	add	a4,a4,t6
   1ce72:	8fd1                	or	a5,a5,a2
   1ce74:	97ba                	add	a5,a5,a4
   1ce76:	01f73fb3          	sltu	t6,a4,t6
   1ce7a:	00e7b733          	sltu	a4,a5,a4
   1ce7e:	00efe733          	or	a4,t6,a4
   1ce82:	95f2                	add	a1,a1,t3
   1ce84:	00b70e33          	add	t3,a4,a1
   1ce88:	dc3e                	sw	a5,56(sp)
   1ce8a:	d81a                	sw	t1,48(sp)
   1ce8c:	da36                	sw	a3,52(sp)
   1ce8e:	00ce1793          	sll	a5,t3,0xc
   1ce92:	f407dc63          	bgez	a5,1c5ea <__subtf3+0x68a>
   1ce96:	fff807b7          	lui	a5,0xfff80
   1ce9a:	17fd                	add	a5,a5,-1 # fff7ffff <__BSS_END__+0xfff614db>
   1ce9c:	00fe7e33          	and	t3,t3,a5
   1cea0:	de72                	sw	t3,60(sp)
   1cea2:	4405                	li	s0,1
   1cea4:	181c                	add	a5,sp,48
   1cea6:	003e5613          	srl	a2,t3,0x3
   1ceaa:	e14ff06f          	j	1c4be <__subtf3+0x55e>
   1ceae:	49b6                	lw	s3,76(sp)
   1ceb0:	6421                	lui	s0,0x8
   1ceb2:	d81a                	sw	t1,48(sp)
   1ceb4:	da32                	sw	a2,52(sp)
   1ceb6:	dc7e                	sw	t6,56(sp)
   1ceb8:	de72                	sw	t3,60(sp)
   1ceba:	84ae                	mv	s1,a1
   1cebc:	147d                	add	s0,s0,-1 # 7fff <register_fini-0x8095>
   1cebe:	181c                	add	a5,sp,48
   1cec0:	ddcff06f          	j	1c49c <__subtf3+0x53c>
   1cec4:	49b6                	lw	s3,76(sp)
   1cec6:	807ff06f          	j	1c6cc <__subtf3+0x76c>
   1ceca:	852e                	mv	a0,a1
   1cecc:	4881                	li	a7,0
   1cece:	438d                	li	t2,3
   1ced0:	4781                	li	a5,0
   1ced2:	41f55713          	sra	a4,a0,0x1f
   1ced6:	00241293          	sll	t0,s0,0x2
   1ceda:	836d                	srl	a4,a4,0x1b
   1cedc:	04028413          	add	s0,t0,64
   1cee0:	953a                	add	a0,a0,a4
   1cee2:	002402b3          	add	t0,s0,sp
   1cee6:	fd02a403          	lw	s0,-48(t0)
   1ceea:	897d                	and	a0,a0,31
   1ceec:	8f09                	sub	a4,a4,a0
   1ceee:	02070293          	add	t0,a4,32
   1cef2:	00541733          	sll	a4,s0,t0
   1cef6:	8fd9                	or	a5,a5,a4
   1cef8:	16038d63          	beqz	t2,1d072 <__subtf3+0x1112>
   1cefc:	c6ce                	sw	s3,76(sp)
   1cefe:	00289993          	sll	s3,a7,0x2
   1cf02:	013e8733          	add	a4,t4,s3
   1cf06:	0f21                	add	t5,t5,8
   1cf08:	413009b3          	neg	s3,s3
   1cf0c:	4314                	lw	a3,0(a4)
   1cf0e:	4348                	lw	a0,4(a4)
   1cf10:	01370433          	add	s0,a4,s3
   1cf14:	00b6d6b3          	srl	a3,a3,a1
   1cf18:	00551533          	sll	a0,a0,t0
   1cf1c:	8ec9                	or	a3,a3,a0
   1cf1e:	c014                	sw	a3,0(s0)
   1cf20:	0711                	add	a4,a4,4
   1cf22:	feef15e3          	bne	t5,a4,1cf0c <__subtf3+0xfac>
   1cf26:	46f2                	lw	a3,28(sp)
   1cf28:	00239713          	sll	a4,t2,0x2
   1cf2c:	04070713          	add	a4,a4,64
   1cf30:	00b6d6b3          	srl	a3,a3,a1
   1cf34:	970a                	add	a4,a4,sp
   1cf36:	4591                	li	a1,4
   1cf38:	49b6                	lw	s3,76(sp)
   1cf3a:	411588b3          	sub	a7,a1,a7
   1cf3e:	fcd72823          	sw	a3,-48(a4)
   1cf42:	c84ff06f          	j	1c3c6 <__subtf3+0x466>
   1cf46:	01f666b3          	or	a3,a2,t6
   1cf4a:	0066e6b3          	or	a3,a3,t1
   1cf4e:	01c6e6b3          	or	a3,a3,t3
   1cf52:	e6e9                	bnez	a3,1d01c <__subtf3+0x10bc>
   1cf54:	da3e                	sw	a5,52(sp)
   1cf56:	d846                	sw	a7,48(sp)
   1cf58:	dc3a                	sw	a4,56(sp)
   1cf5a:	de2e                	sw	a1,60(sp)
   1cf5c:	8e2e                	mv	t3,a1
   1cf5e:	fff80413          	add	s0,a6,-1
   1cf62:	181c                	add	a5,sp,48
   1cf64:	d38ff06f          	j	1c49c <__subtf3+0x53c>
   1cf68:	9346                	add	t1,t1,a7
   1cf6a:	963e                	add	a2,a2,a5
   1cf6c:	011338b3          	sltu	a7,t1,a7
   1cf70:	98b2                	add	a7,a7,a2
   1cf72:	00f637b3          	sltu	a5,a2,a5
   1cf76:	00c8b633          	sltu	a2,a7,a2
   1cf7a:	9f96                	add	t6,t6,t0
   1cf7c:	8fd1                	or	a5,a5,a2
   1cf7e:	97fe                	add	a5,a5,t6
   1cf80:	005fb633          	sltu	a2,t6,t0
   1cf84:	01f7bfb3          	sltu	t6,a5,t6
   1cf88:	01f66633          	or	a2,a2,t6
   1cf8c:	96f2                	add	a3,a3,t3
   1cf8e:	871a                	mv	a4,t1
   1cf90:	00d60e33          	add	t3,a2,a3
   1cf94:	4405                	li	s0,1
   1cf96:	cc2ff06f          	j	1c458 <__subtf3+0x4f8>
   1cf9a:	157d                	add	a0,a0,-1
   1cf9c:	41f48633          	sub	a2,s1,t6
   1cfa0:	00163613          	seqz	a2,a2
   1cfa4:	00c86633          	or	a2,a6,a2
   1cfa8:	b3ad                	j	1cd12 <__subtf3+0xdb2>
   1cfaa:	00f2e7b3          	or	a5,t0,a5
   1cfae:	8fc9                	or	a5,a5,a0
   1cfb0:	8fd9                	or	a5,a5,a4
   1cfb2:	8e3a                	mv	t3,a4
   1cfb4:	e2079c63          	bnez	a5,1c5ec <__subtf3+0x68c>
   1cfb8:	fa6ff06f          	j	1c75e <__subtf3+0x7fe>
   1cfbc:	157d                	add	a0,a0,-1
   1cfbe:	41ef8733          	sub	a4,t6,t5
   1cfc2:	00173713          	seqz	a4,a4
   1cfc6:	00e86833          	or	a6,a6,a4
   1cfca:	b359                	j	1cd50 <__subtf3+0xdf0>
   1cfcc:	4785                	li	a5,1
   1cfce:	b24d                	j	1c970 <__subtf3+0xa10>
   1cfd0:	de2a                	sw	a0,60(sp)
   1cfd2:	dc02                	sw	zero,56(sp)
   1cfd4:	da02                	sw	zero,52(sp)
   1cfd6:	d802                	sw	zero,48(sp)
   1cfd8:	181c                	add	a5,sp,48
   1cfda:	1878                	add	a4,sp,60
   1cfdc:	6621                	lui	a2,0x8
   1cfde:	00361593          	sll	a1,a2,0x3
   1cfe2:	ffc72603          	lw	a2,-4(a4)
   1cfe6:	1771                	add	a4,a4,-4
   1cfe8:	01d65693          	srl	a3,a2,0x1d
   1cfec:	8ecd                	or	a3,a3,a1
   1cfee:	c354                	sw	a3,4(a4)
   1cff0:	fee797e3          	bne	a5,a4,1cfde <__subtf3+0x107e>
   1cff4:	bcf9                	j	1cad2 <__subtf3+0xb72>
   1cff6:	d81a                	sw	t1,48(sp)
   1cff8:	da32                	sw	a2,52(sp)
   1cffa:	dc7e                	sw	t6,56(sp)
   1cffc:	de72                	sw	t3,60(sp)
   1cffe:	84ae                	mv	s1,a1
   1d000:	fff50413          	add	s0,a0,-1
   1d004:	181c                	add	a5,sp,48
   1d006:	c96ff06f          	j	1c49c <__subtf3+0x53c>
   1d00a:	6421                	lui	s0,0x8
   1d00c:	d81a                	sw	t1,48(sp)
   1d00e:	da32                	sw	a2,52(sp)
   1d010:	dc7e                	sw	t6,56(sp)
   1d012:	de72                	sw	t3,60(sp)
   1d014:	147d                	add	s0,s0,-1 # 7fff <register_fini-0x8095>
   1d016:	181c                	add	a5,sp,48
   1d018:	c84ff06f          	j	1c49c <__subtf3+0x53c>
   1d01c:	de42                	sw	a6,60(sp)
   1d01e:	dc02                	sw	zero,56(sp)
   1d020:	da02                	sw	zero,52(sp)
   1d022:	d802                	sw	zero,48(sp)
   1d024:	181c                	add	a5,sp,48
   1d026:	1878                	add	a4,sp,60
   1d028:	6621                	lui	a2,0x8
   1d02a:	00361593          	sll	a1,a2,0x3
   1d02e:	ffc72603          	lw	a2,-4(a4)
   1d032:	1771                	add	a4,a4,-4
   1d034:	01d65693          	srl	a3,a2,0x1d
   1d038:	8ecd                	or	a3,a3,a1
   1d03a:	c354                	sw	a3,4(a4)
   1d03c:	fee797e3          	bne	a5,a4,1d02a <__subtf3+0x10ca>
   1d040:	bc49                	j	1cad2 <__subtf3+0xb72>
   1d042:	0056d2b3          	srl	t0,a3,t0
   1d046:	4705                	li	a4,1
   1d048:	9f4ff06f          	j	1c23c <__subtf3+0x2dc>
   1d04c:	ffff0613          	add	a2,t5,-1
   1d050:	001f3f13          	seqz	t5,t5
   1d054:	01e76733          	or	a4,a4,t5
   1d058:	bb35                	j	1cd94 <__subtf3+0xe34>
   1d05a:	181c                	add	a5,sp,48
   1d05c:	003e5613          	srl	a2,t3,0x3
   1d060:	c5eff06f          	j	1c4be <__subtf3+0x55e>
   1d064:	02000e13          	li	t3,32
   1d068:	411e0e33          	sub	t3,t3,a7
   1d06c:	4589                	li	a1,2
   1d06e:	f6eff06f          	j	1c7dc <__subtf3+0x87c>
   1d072:	00b6d5b3          	srl	a1,a3,a1
   1d076:	4885                	li	a7,1
   1d078:	b56ff06f          	j	1c3ce <__subtf3+0x46e>
   1d07c:	5612                	lw	a2,36(sp)
   1d07e:	5fa2                	lw	t6,40(sp)
   1d080:	5e32                	lw	t3,44(sp)
   1d082:	92cff06f          	j	1c1ae <__subtf3+0x24e>
   1d086:	5612                	lw	a2,36(sp)
   1d088:	5fa2                	lw	t6,40(sp)
   1d08a:	5e32                	lw	t3,44(sp)
   1d08c:	ab4ff06f          	j	1c340 <__subtf3+0x3e0>
   1d090:	88b2                	mv	a7,a2
   1d092:	863e                	mv	a2,a5
   1d094:	f38ff06f          	j	1c7cc <__subtf3+0x86c>
   1d098:	49b6                	lw	s3,76(sp)
   1d09a:	804ff06f          	j	1c09e <__subtf3+0x13e>

0001d09e <__unordtf2>:
   1d09e:	00c52803          	lw	a6,12(a0)
   1d0a2:	00c5a303          	lw	t1,12(a1) # 8000c <__BSS_END__+0x614e8>
   1d0a6:	67a1                	lui	a5,0x8
   1d0a8:	17fd                	add	a5,a5,-1 # 7fff <register_fini-0x8095>
   1d0aa:	01085713          	srl	a4,a6,0x10
   1d0ae:	01035693          	srl	a3,t1,0x10
   1d0b2:	8f7d                	and	a4,a4,a5
   1d0b4:	4110                	lw	a2,0(a0)
   1d0b6:	00452e03          	lw	t3,4(a0)
   1d0ba:	0005a883          	lw	a7,0(a1)
   1d0be:	0045ae83          	lw	t4,4(a1)
   1d0c2:	4508                	lw	a0,8(a0)
   1d0c4:	458c                	lw	a1,8(a1)
   1d0c6:	1141                	add	sp,sp,-16
   1d0c8:	8efd                	and	a3,a3,a5
   1d0ca:	02f70363          	beq	a4,a5,1d0f0 <__unordtf2+0x52>
   1d0ce:	67a1                	lui	a5,0x8
   1d0d0:	17fd                	add	a5,a5,-1 # 7fff <register_fini-0x8095>
   1d0d2:	4501                	li	a0,0
   1d0d4:	00f69c63          	bne	a3,a5,1d0ec <__unordtf2+0x4e>
   1d0d8:	01d8e533          	or	a0,a7,t4
   1d0dc:	0342                	sll	t1,t1,0x10
   1d0de:	8d4d                	or	a0,a0,a1
   1d0e0:	01035313          	srl	t1,t1,0x10
   1d0e4:	00656533          	or	a0,a0,t1
   1d0e8:	00a03533          	snez	a0,a0
   1d0ec:	0141                	add	sp,sp,16
   1d0ee:	8082                	ret
   1d0f0:	01c66633          	or	a2,a2,t3
   1d0f4:	0842                	sll	a6,a6,0x10
   1d0f6:	8e49                	or	a2,a2,a0
   1d0f8:	01085813          	srl	a6,a6,0x10
   1d0fc:	01066633          	or	a2,a2,a6
   1d100:	4505                	li	a0,1
   1d102:	d671                	beqz	a2,1d0ce <__unordtf2+0x30>
   1d104:	0141                	add	sp,sp,16
   1d106:	8082                	ret

0001d108 <__fixtfsi>:
   1d108:	455c                	lw	a5,12(a0)
   1d10a:	410c                	lw	a1,0(a0)
   1d10c:	4510                	lw	a2,8(a0)
   1d10e:	4148                	lw	a0,4(a0)
   1d110:	1101                	add	sp,sp,-32
   1d112:	00179713          	sll	a4,a5,0x1
   1d116:	6691                	lui	a3,0x4
   1d118:	c22a                	sw	a0,4(sp)
   1d11a:	c02e                	sw	a1,0(sp)
   1d11c:	c432                	sw	a2,8(sp)
   1d11e:	c63e                	sw	a5,12(sp)
   1d120:	c82e                	sw	a1,16(sp)
   1d122:	cc32                	sw	a2,24(sp)
   1d124:	8345                	srl	a4,a4,0x11
   1d126:	16f9                	add	a3,a3,-2 # 3ffe <register_fini-0xc096>
   1d128:	4501                	li	a0,0
   1d12a:	00e6dc63          	bge	a3,a4,1d142 <__fixtfsi+0x3a>
   1d12e:	6691                	lui	a3,0x4
   1d130:	06f5                	add	a3,a3,29 # 401d <register_fini-0xc077>
   1d132:	01f7d593          	srl	a1,a5,0x1f
   1d136:	00e6d863          	bge	a3,a4,1d146 <__fixtfsi+0x3e>
   1d13a:	80000537          	lui	a0,0x80000
   1d13e:	157d                	add	a0,a0,-1 # 7fffffff <__BSS_END__+0x7ffe14db>
   1d140:	952e                	add	a0,a0,a1
   1d142:	6105                	add	sp,sp,32
   1d144:	8082                	ret
   1d146:	6691                	lui	a3,0x4
   1d148:	07c2                	sll	a5,a5,0x10
   1d14a:	06f68693          	add	a3,a3,111 # 406f <register_fini-0xc025>
   1d14e:	8e99                	sub	a3,a3,a4
   1d150:	83c1                	srl	a5,a5,0x10
   1d152:	6741                	lui	a4,0x10
   1d154:	8fd9                	or	a5,a5,a4
   1d156:	01f6f513          	and	a0,a3,31
   1d15a:	ce3e                	sw	a5,28(sp)
   1d15c:	8695                	sra	a3,a3,0x5
   1d15e:	cd15                	beqz	a0,1d19a <__fixtfsi+0x92>
   1d160:	4809                	li	a6,2
   1d162:	4701                	li	a4,0
   1d164:	01069c63          	bne	a3,a6,1d17c <__fixtfsi+0x74>
   1d168:	02000713          	li	a4,32
   1d16c:	8f09                	sub	a4,a4,a0
   1d16e:	00e79733          	sll	a4,a5,a4
   1d172:	00a65633          	srl	a2,a2,a0
   1d176:	8f51                	or	a4,a4,a2
   1d178:	c83a                	sw	a4,16(sp)
   1d17a:	4705                	li	a4,1
   1d17c:	070a                	sll	a4,a4,0x2
   1d17e:	02070713          	add	a4,a4,32 # 10020 <register_fini-0x74>
   1d182:	970a                	add	a4,a4,sp
   1d184:	00a7d7b3          	srl	a5,a5,a0
   1d188:	fef72823          	sw	a5,-16(a4)
   1d18c:	47c2                	lw	a5,16(sp)
   1d18e:	40f00533          	neg	a0,a5
   1d192:	f9c5                	bnez	a1,1d142 <__fixtfsi+0x3a>
   1d194:	853e                	mv	a0,a5
   1d196:	6105                	add	sp,sp,32
   1d198:	8082                	ret
   1d19a:	068a                	sll	a3,a3,0x2
   1d19c:	02068793          	add	a5,a3,32
   1d1a0:	002786b3          	add	a3,a5,sp
   1d1a4:	ff06a783          	lw	a5,-16(a3)
   1d1a8:	c83e                	sw	a5,16(sp)
   1d1aa:	b7cd                	j	1d18c <__fixtfsi+0x84>

0001d1ac <__floatsitf>:
   1d1ac:	7179                	add	sp,sp,-48
   1d1ae:	d226                	sw	s1,36(sp)
   1d1b0:	d606                	sw	ra,44(sp)
   1d1b2:	d422                	sw	s0,40(sp)
   1d1b4:	84aa                	mv	s1,a0
   1d1b6:	c9a5                	beqz	a1,1d226 <__floatsitf+0x7a>
   1d1b8:	41f5d793          	sra	a5,a1,0x1f
   1d1bc:	d04a                	sw	s2,32(sp)
   1d1be:	00b7c933          	xor	s2,a5,a1
   1d1c2:	40f90933          	sub	s2,s2,a5
   1d1c6:	854a                	mv	a0,s2
   1d1c8:	01f5d413          	srl	s0,a1,0x1f
   1d1cc:	2c85                	jal	1d43c <__clzsi2>
   1d1ce:	05150713          	add	a4,a0,81
   1d1d2:	6791                	lui	a5,0x4
   1d1d4:	07f9                	add	a5,a5,30 # 401e <register_fini-0xc076>
   1d1d6:	01f77613          	and	a2,a4,31
   1d1da:	c84a                	sw	s2,16(sp)
   1d1dc:	ca02                	sw	zero,20(sp)
   1d1de:	cc02                	sw	zero,24(sp)
   1d1e0:	ce02                	sw	zero,28(sp)
   1d1e2:	8f89                	sub	a5,a5,a0
   1d1e4:	8715                	sra	a4,a4,0x5
   1d1e6:	ea2d                	bnez	a2,1d258 <__floatsitf+0xac>
   1d1e8:	460d                	li	a2,3
   1d1ea:	8e19                	sub	a2,a2,a4
   1d1ec:	060a                	sll	a2,a2,0x2
   1d1ee:	02060693          	add	a3,a2,32 # 8020 <register_fini-0x8074>
   1d1f2:	00268633          	add	a2,a3,sp
   1d1f6:	4689                	li	a3,2
   1d1f8:	ff062603          	lw	a2,-16(a2)
   1d1fc:	00d71463          	bne	a4,a3,1d204 <__floatsitf+0x58>
   1d200:	cc4a                	sw	s2,24(sp)
   1d202:	4685                	li	a3,1
   1d204:	068a                	sll	a3,a3,0x2
   1d206:	c802                	sw	zero,16(sp)
   1d208:	ca02                	sw	zero,20(sp)
   1d20a:	16f1                	add	a3,a3,-4
   1d20c:	4711                	li	a4,4
   1d20e:	06e6fa63          	bgeu	a3,a4,1d282 <__floatsitf+0xd6>
   1d212:	07c6                	sll	a5,a5,0x11
   1d214:	01061713          	sll	a4,a2,0x10
   1d218:	4842                	lw	a6,16(sp)
   1d21a:	4552                	lw	a0,20(sp)
   1d21c:	46e2                	lw	a3,24(sp)
   1d21e:	5902                	lw	s2,32(sp)
   1d220:	8341                	srl	a4,a4,0x10
   1d222:	83c5                	srl	a5,a5,0x11
   1d224:	a039                	j	1d232 <__floatsitf+0x86>
   1d226:	4401                	li	s0,0
   1d228:	4781                	li	a5,0
   1d22a:	4701                	li	a4,0
   1d22c:	4681                	li	a3,0
   1d22e:	4501                	li	a0,0
   1d230:	4801                	li	a6,0
   1d232:	00f41593          	sll	a1,s0,0xf
   1d236:	8fcd                	or	a5,a5,a1
   1d238:	00e11623          	sh	a4,12(sp)
   1d23c:	00f11723          	sh	a5,14(sp)
   1d240:	47b2                	lw	a5,12(sp)
   1d242:	50b2                	lw	ra,44(sp)
   1d244:	5422                	lw	s0,40(sp)
   1d246:	c0c8                	sw	a0,4(s1)
   1d248:	0104a023          	sw	a6,0(s1)
   1d24c:	c494                	sw	a3,8(s1)
   1d24e:	c4dc                	sw	a5,12(s1)
   1d250:	8526                	mv	a0,s1
   1d252:	5492                	lw	s1,36(sp)
   1d254:	6145                	add	sp,sp,48
   1d256:	8082                	ret
   1d258:	4689                	li	a3,2
   1d25a:	02d70f63          	beq	a4,a3,1d298 <__floatsitf+0xec>
   1d25e:	4689                	li	a3,2
   1d260:	470d                	li	a4,3
   1d262:	070a                	sll	a4,a4,0x2
   1d264:	02070713          	add	a4,a4,32
   1d268:	970a                	add	a4,a4,sp
   1d26a:	00c91933          	sll	s2,s2,a2
   1d26e:	ff272823          	sw	s2,-16(a4)
   1d272:	068a                	sll	a3,a3,0x2
   1d274:	c802                	sw	zero,16(sp)
   1d276:	ca02                	sw	zero,20(sp)
   1d278:	16f1                	add	a3,a3,-4
   1d27a:	4711                	li	a4,4
   1d27c:	4672                	lw	a2,28(sp)
   1d27e:	f8e6eae3          	bltu	a3,a4,1d212 <__floatsitf+0x66>
   1d282:	cc02                	sw	zero,24(sp)
   1d284:	07c6                	sll	a5,a5,0x11
   1d286:	01061713          	sll	a4,a2,0x10
   1d28a:	4842                	lw	a6,16(sp)
   1d28c:	4552                	lw	a0,20(sp)
   1d28e:	46e2                	lw	a3,24(sp)
   1d290:	5902                	lw	s2,32(sp)
   1d292:	8341                	srl	a4,a4,0x10
   1d294:	83c5                	srl	a5,a5,0x11
   1d296:	bf71                	j	1d232 <__floatsitf+0x86>
   1d298:	02000693          	li	a3,32
   1d29c:	8e91                	sub	a3,a3,a2
   1d29e:	00d956b3          	srl	a3,s2,a3
   1d2a2:	ce36                	sw	a3,28(sp)
   1d2a4:	4685                	li	a3,1
   1d2a6:	bf75                	j	1d262 <__floatsitf+0xb6>

0001d2a8 <__extenddftf2>:
   1d2a8:	01465793          	srl	a5,a2,0x14
   1d2ac:	00c61713          	sll	a4,a2,0xc
   1d2b0:	7ff7f793          	and	a5,a5,2047
   1d2b4:	7179                	add	sp,sp,-48
   1d2b6:	8331                	srl	a4,a4,0xc
   1d2b8:	00178693          	add	a3,a5,1
   1d2bc:	d422                	sw	s0,40(sp)
   1d2be:	d226                	sw	s1,36(sp)
   1d2c0:	d04a                	sw	s2,32(sp)
   1d2c2:	d606                	sw	ra,44(sp)
   1d2c4:	c82e                	sw	a1,16(sp)
   1d2c6:	ca3a                	sw	a4,20(sp)
   1d2c8:	ce02                	sw	zero,28(sp)
   1d2ca:	cc02                	sw	zero,24(sp)
   1d2cc:	7fe6f693          	and	a3,a3,2046
   1d2d0:	842e                	mv	s0,a1
   1d2d2:	892a                	mv	s2,a0
   1d2d4:	01f65493          	srl	s1,a2,0x1f
   1d2d8:	c2b9                	beqz	a3,1d31e <__extenddftf2+0x76>
   1d2da:	6611                	lui	a2,0x4
   1d2dc:	01c71693          	sll	a3,a4,0x1c
   1d2e0:	8191                	srl	a1,a1,0x4
   1d2e2:	c0060613          	add	a2,a2,-1024 # 3c00 <register_fini-0xc494>
   1d2e6:	8ecd                	or	a3,a3,a1
   1d2e8:	0472                	sll	s0,s0,0x1c
   1d2ea:	8311                	srl	a4,a4,0x4
   1d2ec:	97b2                	add	a5,a5,a2
   1d2ee:	4501                	li	a0,0
   1d2f0:	00f49613          	sll	a2,s1,0xf
   1d2f4:	8fd1                	or	a5,a5,a2
   1d2f6:	00e11623          	sh	a4,12(sp)
   1d2fa:	00f11723          	sh	a5,14(sp)
   1d2fe:	47b2                	lw	a5,12(sp)
   1d300:	00892223          	sw	s0,4(s2)
   1d304:	50b2                	lw	ra,44(sp)
   1d306:	5422                	lw	s0,40(sp)
   1d308:	00a92023          	sw	a0,0(s2)
   1d30c:	00d92423          	sw	a3,8(s2)
   1d310:	00f92623          	sw	a5,12(s2)
   1d314:	5492                	lw	s1,36(sp)
   1d316:	854a                	mv	a0,s2
   1d318:	5902                	lw	s2,32(sp)
   1d31a:	6145                	add	sp,sp,48
   1d31c:	8082                	ret
   1d31e:	00b76533          	or	a0,a4,a1
   1d322:	efa5                	bnez	a5,1d39a <__extenddftf2+0xf2>
   1d324:	cd59                	beqz	a0,1d3c2 <__extenddftf2+0x11a>
   1d326:	c35d                	beqz	a4,1d3cc <__extenddftf2+0x124>
   1d328:	853a                	mv	a0,a4
   1d32a:	2a09                	jal	1d43c <__clzsi2>
   1d32c:	03150793          	add	a5,a0,49
   1d330:	01f7f593          	and	a1,a5,31
   1d334:	8795                	sra	a5,a5,0x5
   1d336:	e9dd                	bnez	a1,1d3ec <__extenddftf2+0x144>
   1d338:	40f006b3          	neg	a3,a5
   1d33c:	068a                	sll	a3,a3,0x2
   1d33e:	0810                	add	a2,sp,16
   1d340:	00d60733          	add	a4,a2,a3
   1d344:	888a                	mv	a7,sp
   1d346:	40d006b3          	neg	a3,a3
   1d34a:	00c72803          	lw	a6,12(a4)
   1d34e:	00d705b3          	add	a1,a4,a3
   1d352:	1771                	add	a4,a4,-4
   1d354:	0105a623          	sw	a6,12(a1)
   1d358:	fee899e3          	bne	a7,a4,1d34a <__extenddftf2+0xa2>
   1d35c:	fff78713          	add	a4,a5,-1
   1d360:	00170793          	add	a5,a4,1
   1d364:	078a                	sll	a5,a5,0x2
   1d366:	46a1                	li	a3,8
   1d368:	8732                	mv	a4,a2
   1d36a:	00d7e763          	bltu	a5,a3,1d378 <__extenddftf2+0xd0>
   1d36e:	c802                	sw	zero,16(sp)
   1d370:	00062223          	sw	zero,4(a2)
   1d374:	17e1                	add	a5,a5,-8
   1d376:	0838                	add	a4,sp,24
   1d378:	4691                	li	a3,4
   1d37a:	00d7e463          	bltu	a5,a3,1d382 <__extenddftf2+0xda>
   1d37e:	00072023          	sw	zero,0(a4)
   1d382:	6791                	lui	a5,0x4
   1d384:	c0c78793          	add	a5,a5,-1012 # 3c0c <register_fini-0xc488>
   1d388:	8f89                	sub	a5,a5,a0
   1d38a:	07c6                	sll	a5,a5,0x11
   1d38c:	4542                	lw	a0,16(sp)
   1d38e:	4452                	lw	s0,20(sp)
   1d390:	46e2                	lw	a3,24(sp)
   1d392:	01c15703          	lhu	a4,28(sp)
   1d396:	83c5                	srl	a5,a5,0x11
   1d398:	bfa1                	j	1d2f0 <__extenddftf2+0x48>
   1d39a:	cd11                	beqz	a0,1d3b6 <__extenddftf2+0x10e>
   1d39c:	67a1                	lui	a5,0x8
   1d39e:	01c71693          	sll	a3,a4,0x1c
   1d3a2:	0045d613          	srl	a2,a1,0x4
   1d3a6:	8311                	srl	a4,a4,0x4
   1d3a8:	8f5d                	or	a4,a4,a5
   1d3aa:	8ed1                	or	a3,a3,a2
   1d3ac:	01c59413          	sll	s0,a1,0x1c
   1d3b0:	17fd                	add	a5,a5,-1 # 7fff <register_fini-0x8095>
   1d3b2:	4501                	li	a0,0
   1d3b4:	bf35                	j	1d2f0 <__extenddftf2+0x48>
   1d3b6:	67a1                	lui	a5,0x8
   1d3b8:	4681                	li	a3,0
   1d3ba:	4401                	li	s0,0
   1d3bc:	17fd                	add	a5,a5,-1 # 7fff <register_fini-0x8095>
   1d3be:	4701                	li	a4,0
   1d3c0:	bf05                	j	1d2f0 <__extenddftf2+0x48>
   1d3c2:	4681                	li	a3,0
   1d3c4:	4401                	li	s0,0
   1d3c6:	4781                	li	a5,0
   1d3c8:	4701                	li	a4,0
   1d3ca:	b71d                	j	1d2f0 <__extenddftf2+0x48>
   1d3cc:	2885                	jal	1d43c <__clzsi2>
   1d3ce:	05150793          	add	a5,a0,81
   1d3d2:	01f7f593          	and	a1,a5,31
   1d3d6:	02050513          	add	a0,a0,32
   1d3da:	8795                	sra	a5,a5,0x5
   1d3dc:	ddb1                	beqz	a1,1d338 <__extenddftf2+0x90>
   1d3de:	4709                	li	a4,2
   1d3e0:	00e78663          	beq	a5,a4,1d3ec <__extenddftf2+0x144>
   1d3e4:	4709                	li	a4,2
   1d3e6:	478d                	li	a5,3
   1d3e8:	0810                	add	a2,sp,16
   1d3ea:	a081                	j	1d42a <__extenddftf2+0x182>
   1d3ec:	40f008b3          	neg	a7,a5
   1d3f0:	088a                	sll	a7,a7,0x2
   1d3f2:	00c88713          	add	a4,a7,12
   1d3f6:	02000e13          	li	t3,32
   1d3fa:	0810                	add	a2,sp,16
   1d3fc:	40be0e33          	sub	t3,t3,a1
   1d400:	9732                	add	a4,a4,a2
   1d402:	411008b3          	neg	a7,a7
   1d406:	4314                	lw	a3,0(a4)
   1d408:	ffc72803          	lw	a6,-4(a4)
   1d40c:	01170333          	add	t1,a4,a7
   1d410:	00b696b3          	sll	a3,a3,a1
   1d414:	01c85833          	srl	a6,a6,t3
   1d418:	0106e6b3          	or	a3,a3,a6
   1d41c:	00d32023          	sw	a3,0(t1)
   1d420:	1771                	add	a4,a4,-4
   1d422:	fee612e3          	bne	a2,a4,1d406 <__extenddftf2+0x15e>
   1d426:	fff78713          	add	a4,a5,-1
   1d42a:	078a                	sll	a5,a5,0x2
   1d42c:	02078793          	add	a5,a5,32
   1d430:	978a                	add	a5,a5,sp
   1d432:	00b415b3          	sll	a1,s0,a1
   1d436:	feb7a823          	sw	a1,-16(a5)
   1d43a:	b71d                	j	1d360 <__extenddftf2+0xb8>

0001d43c <__clzsi2>:
   1d43c:	67c1                	lui	a5,0x10
   1d43e:	02f57563          	bgeu	a0,a5,1d468 <__clzsi2+0x2c>
   1d442:	10053713          	sltiu	a4,a0,256
   1d446:	00173713          	seqz	a4,a4
   1d44a:	070e                	sll	a4,a4,0x3
   1d44c:	67f9                	lui	a5,0x1e
   1d44e:	00e55533          	srl	a0,a0,a4
   1d452:	dd078793          	add	a5,a5,-560 # 1ddd0 <__clz_tab>
   1d456:	97aa                	add	a5,a5,a0
   1d458:	0007c503          	lbu	a0,0(a5)
   1d45c:	02000693          	li	a3,32
   1d460:	8e99                	sub	a3,a3,a4
   1d462:	40a68533          	sub	a0,a3,a0
   1d466:	8082                	ret
   1d468:	010007b7          	lui	a5,0x1000
   1d46c:	00f57f63          	bgeu	a0,a5,1d48a <__clzsi2+0x4e>
   1d470:	4741                	li	a4,16
   1d472:	67f9                	lui	a5,0x1e
   1d474:	00e55533          	srl	a0,a0,a4
   1d478:	dd078793          	add	a5,a5,-560 # 1ddd0 <__clz_tab>
   1d47c:	97aa                	add	a5,a5,a0
   1d47e:	0007c503          	lbu	a0,0(a5)
   1d482:	46c1                	li	a3,16
   1d484:	40a68533          	sub	a0,a3,a0
   1d488:	8082                	ret
   1d48a:	4761                	li	a4,24
   1d48c:	67f9                	lui	a5,0x1e
   1d48e:	00e55533          	srl	a0,a0,a4
   1d492:	dd078793          	add	a5,a5,-560 # 1ddd0 <__clz_tab>
   1d496:	97aa                	add	a5,a5,a0
   1d498:	0007c503          	lbu	a0,0(a5)
   1d49c:	46a1                	li	a3,8
   1d49e:	40a68533          	sub	a0,a3,a0
   1d4a2:	8082                	ret
